###############################################################################
#
# IAR C/C++ Compiler V9.30.1.3056 for 8051                21/Apr/2017  17:48:39
# Copyright 2004-2015 IAR Systems AB.
#
#    Core               =  plain
#    Code model         =  banked
#    Data model         =  large
#    Calling convention =  xdata reentrant
#    Constant location  =  data_rom
#    Dptr setup         =  1,16
#                          
#    Source file        =  
#        C:\Texas Instruments\Z-Stack Mesh 1.0.0_chaokw_20160317\Z-Stack Mesh
#        1.0.0_chaokw_20160316\Z-Stack Mesh 1.0.0_LCDOK\Z-Stack Mesh
#        1.0.0\Components\hal\common\hal_drivers.c
#    Command line       =  
#        -f "C:\Texas Instruments\Z-Stack Mesh 1.0.0_chaokw_20160317\Z-Stack
#        Mesh 1.0.0_chaokw_20160316\Z-Stack Mesh 1.0.0_LCDOK\Z-Stack Mesh
#        1.0.0\Projects\zstack\Samples\GenericApp\CC2530DB\..\..\..\Tools\CC2530DB\f8wRouter.cfg"
#        (-DCPU32MHZ -DROOT=__near_func -DMAC_CFG_APP_PENDING_QUEUE=TRUE
#        -DMAC_CFG_TX_DATA_MAX=5 -DMAC_CFG_TX_MAX=8 -DMAC_CFG_RX_MAX=5
#        -DRTR_NWK) -f "C:\Texas Instruments\Z-Stack Mesh
#        1.0.0_chaokw_20160317\Z-Stack Mesh 1.0.0_chaokw_20160316\Z-Stack Mesh
#        1.0.0_LCDOK\Z-Stack Mesh
#        1.0.0\Projects\zstack\Samples\GenericApp\CC2530DB\..\..\..\Tools\CC2530DB\f8wConfig.cfg"
#        (-DZIGBEEPRO -DSECURE=1 -DZG_SECURE_DYNAMIC=0 -DREFLECTOR
#        -DDEFAULT_CHANLIST=0x04000000 -DZDAPP_CONFIG_PAN_ID=0x0085
#        -DNWK_START_DELAY=100 -DEXTENDED_JOINING_RANDOM_MASK=0x007F
#        -DBEACON_REQUEST_DELAY=100 -DBEACON_REQ_DELAY_MASK=0x00FF
#        -DLINK_STATUS_JITTER_MASK=0x007F -DROUTE_EXPIRY_TIME=30
#        -DAPSC_ACK_WAIT_DURATION_POLLED=3000 -DNWK_INDIRECT_MSG_TIMEOUT=7
#        -DMAX_RREQ_ENTRIES=8 -DAPSC_MAX_FRAME_RETRIES=5
#        -DNWK_MAX_DATA_RETRIES=2 -DMAX_POLL_FAILURE_RETRIES=2 -DMAX_BCAST=9
#        -DAPS_MAX_GROUPS=16 -DMAX_RTG_ENTRIES=40 -DNWK_MAX_BINDING_ENTRIES=4
#        -DMAX_BINDING_CLUSTER_IDS=4 "-DDEFAULT_KEY={0x01, 0x03, 0x05, 0x07,
#        0x09, 0x0B, 0x0D, 0x0F, 0x00, 0x02, 0x04, 0x06, 0x08, 0x0A, 0x0C,
#        0x0D}" -DMAC_MAX_FRAME_SIZE=116 -DZDNWKMGR_MIN_TRANSMISSIONS=20
#        "-DCONST=const __code" -DGENERIC=__generic -DRFD_RCVC_ALWAYS_ON=FALSE
#        -DPOLL_RATE=1000 -DQUEUED_POLL_RATE=100 -DRESPONSE_POLL_RATE=100
#        -DREJOIN_POLL_RATE=440) -DCHANNEL_CNT=0x01 "C:\Texas
#        Instruments\Z-Stack Mesh 1.0.0_chaokw_20160317\Z-Stack Mesh
#        1.0.0_chaokw_20160316\Z-Stack Mesh 1.0.0_LCDOK\Z-Stack Mesh
#        1.0.0\Components\hal\common\hal_drivers.c" -D ZTOOL_P1 -D MT_TASK -D
#        MT_SYS_FUNC -D MT_ZDO_FUNC -D LCD_SUPPORTED=DEBUG -D xNV_RESTORE -D
#        NV_INIT -D OPEN_FCS -D PANID_INCREASE -lC "C:\Texas
#        Instruments\Z-Stack Mesh 1.0.0_chaokw_20160317\Z-Stack Mesh
#        1.0.0_chaokw_20160316\Z-Stack Mesh 1.0.0_LCDOK\Z-Stack Mesh
#        1.0.0\Projects\zstack\Samples\GenericApp\CC2530DB\RouterEB\List" -lA
#        "C:\Texas Instruments\Z-Stack Mesh 1.0.0_chaokw_20160317\Z-Stack Mesh
#        1.0.0_chaokw_20160316\Z-Stack Mesh 1.0.0_LCDOK\Z-Stack Mesh
#        1.0.0\Projects\zstack\Samples\GenericApp\CC2530DB\RouterEB\List"
#        --diag_suppress Pe001,Pa010 -o "C:\Texas Instruments\Z-Stack Mesh
#        1.0.0_chaokw_20160317\Z-Stack Mesh 1.0.0_chaokw_20160316\Z-Stack Mesh
#        1.0.0_LCDOK\Z-Stack Mesh
#        1.0.0\Projects\zstack\Samples\GenericApp\CC2530DB\RouterEB\Obj" -e
#        --no_cse --no_unroll --no_inline --no_code_motion --no_tbaa --debug
#        --core=plain --dptr=16,1 --data_model=large --code_model=banked
#        --calling_convention=xdata_reentrant --place_constants=data_rom
#        --nr_virtual_regs 16 -I "C:\Texas Instruments\Z-Stack Mesh
#        1.0.0_chaokw_20160317\Z-Stack Mesh 1.0.0_chaokw_20160316\Z-Stack Mesh
#        1.0.0_LCDOK\Z-Stack Mesh
#        1.0.0\Projects\zstack\Samples\GenericApp\CC2530DB\" -I "C:\Texas
#        Instruments\Z-Stack Mesh 1.0.0_chaokw_20160317\Z-Stack Mesh
#        1.0.0_chaokw_20160316\Z-Stack Mesh 1.0.0_LCDOK\Z-Stack Mesh
#        1.0.0\Projects\zstack\Samples\GenericApp\CC2530DB\..\Source\" -I
#        "C:\Texas Instruments\Z-Stack Mesh 1.0.0_chaokw_20160317\Z-Stack Mesh
#        1.0.0_chaokw_20160316\Z-Stack Mesh 1.0.0_LCDOK\Z-Stack Mesh
#        1.0.0\Projects\zstack\Samples\GenericApp\CC2530DB\..\..\..\Application\"
#        -I "C:\Texas Instruments\Z-Stack Mesh 1.0.0_chaokw_20160317\Z-Stack
#        Mesh 1.0.0_chaokw_20160316\Z-Stack Mesh 1.0.0_LCDOK\Z-Stack Mesh
#        1.0.0\Projects\zstack\Samples\GenericApp\CC2530DB\..\..\..\ZMain\TI2530DB\"
#        -I "C:\Texas Instruments\Z-Stack Mesh 1.0.0_chaokw_20160317\Z-Stack
#        Mesh 1.0.0_chaokw_20160316\Z-Stack Mesh 1.0.0_LCDOK\Z-Stack Mesh
#        1.0.0\Projects\zstack\Samples\GenericApp\CC2530DB\..\..\..\..\..\Components\hal\include\"
#        -I "C:\Texas Instruments\Z-Stack Mesh 1.0.0_chaokw_20160317\Z-Stack
#        Mesh 1.0.0_chaokw_20160316\Z-Stack Mesh 1.0.0_LCDOK\Z-Stack Mesh
#        1.0.0\Projects\zstack\Samples\GenericApp\CC2530DB\..\..\..\..\..\Components\hal\target\CC2530EB\"
#        -I "C:\Texas Instruments\Z-Stack Mesh 1.0.0_chaokw_20160317\Z-Stack
#        Mesh 1.0.0_chaokw_20160316\Z-Stack Mesh 1.0.0_LCDOK\Z-Stack Mesh
#        1.0.0\Projects\zstack\Samples\GenericApp\CC2530DB\..\..\..\..\..\Components\mac\include\"
#        -I "C:\Texas Instruments\Z-Stack Mesh 1.0.0_chaokw_20160317\Z-Stack
#        Mesh 1.0.0_chaokw_20160316\Z-Stack Mesh 1.0.0_LCDOK\Z-Stack Mesh
#        1.0.0\Projects\zstack\Samples\GenericApp\CC2530DB\..\..\..\..\..\Components\mac\high_level\"
#        -I "C:\Texas Instruments\Z-Stack Mesh 1.0.0_chaokw_20160317\Z-Stack
#        Mesh 1.0.0_chaokw_20160316\Z-Stack Mesh 1.0.0_LCDOK\Z-Stack Mesh
#        1.0.0\Projects\zstack\Samples\GenericApp\CC2530DB\..\..\..\..\..\Components\mac\low_level\srf04\"
#        -I "C:\Texas Instruments\Z-Stack Mesh 1.0.0_chaokw_20160317\Z-Stack
#        Mesh 1.0.0_chaokw_20160316\Z-Stack Mesh 1.0.0_LCDOK\Z-Stack Mesh
#        1.0.0\Projects\zstack\Samples\GenericApp\CC2530DB\..\..\..\..\..\Components\mac\low_level\srf04\single_chip\"
#        -I "C:\Texas Instruments\Z-Stack Mesh 1.0.0_chaokw_20160317\Z-Stack
#        Mesh 1.0.0_chaokw_20160316\Z-Stack Mesh 1.0.0_LCDOK\Z-Stack Mesh
#        1.0.0\Projects\zstack\Samples\GenericApp\CC2530DB\..\..\..\..\..\Components\mt\"
#        -I "C:\Texas Instruments\Z-Stack Mesh 1.0.0_chaokw_20160317\Z-Stack
#        Mesh 1.0.0_chaokw_20160316\Z-Stack Mesh 1.0.0_LCDOK\Z-Stack Mesh
#        1.0.0\Projects\zstack\Samples\GenericApp\CC2530DB\..\..\..\..\..\Components\osal\include\"
#        -I "C:\Texas Instruments\Z-Stack Mesh 1.0.0_chaokw_20160317\Z-Stack
#        Mesh 1.0.0_chaokw_20160316\Z-Stack Mesh 1.0.0_LCDOK\Z-Stack Mesh
#        1.0.0\Projects\zstack\Samples\GenericApp\CC2530DB\..\..\..\..\..\Components\services\saddr\"
#        -I "C:\Texas Instruments\Z-Stack Mesh 1.0.0_chaokw_20160317\Z-Stack
#        Mesh 1.0.0_chaokw_20160316\Z-Stack Mesh 1.0.0_LCDOK\Z-Stack Mesh
#        1.0.0\Projects\zstack\Samples\GenericApp\CC2530DB\..\..\..\..\..\Components\services\sdata\"
#        -I "C:\Texas Instruments\Z-Stack Mesh 1.0.0_chaokw_20160317\Z-Stack
#        Mesh 1.0.0_chaokw_20160316\Z-Stack Mesh 1.0.0_LCDOK\Z-Stack Mesh
#        1.0.0\Projects\zstack\Samples\GenericApp\CC2530DB\..\..\..\..\..\Components\stack\af\"
#        -I "C:\Texas Instruments\Z-Stack Mesh 1.0.0_chaokw_20160317\Z-Stack
#        Mesh 1.0.0_chaokw_20160316\Z-Stack Mesh 1.0.0_LCDOK\Z-Stack Mesh
#        1.0.0\Projects\zstack\Samples\GenericApp\CC2530DB\..\..\..\..\..\Components\stack\nwk\"
#        -I "C:\Texas Instruments\Z-Stack Mesh 1.0.0_chaokw_20160317\Z-Stack
#        Mesh 1.0.0_chaokw_20160316\Z-Stack Mesh 1.0.0_LCDOK\Z-Stack Mesh
#        1.0.0\Projects\zstack\Samples\GenericApp\CC2530DB\..\..\..\..\..\Components\stack\sapi\"
#        -I "C:\Texas Instruments\Z-Stack Mesh 1.0.0_chaokw_20160317\Z-Stack
#        Mesh 1.0.0_chaokw_20160316\Z-Stack Mesh 1.0.0_LCDOK\Z-Stack Mesh
#        1.0.0\Projects\zstack\Samples\GenericApp\CC2530DB\..\..\..\..\..\Components\stack\sec\"
#        -I "C:\Texas Instruments\Z-Stack Mesh 1.0.0_chaokw_20160317\Z-Stack
#        Mesh 1.0.0_chaokw_20160316\Z-Stack Mesh 1.0.0_LCDOK\Z-Stack Mesh
#        1.0.0\Projects\zstack\Samples\GenericApp\CC2530DB\..\..\..\..\..\Components\stack\sys\"
#        -I "C:\Texas Instruments\Z-Stack Mesh 1.0.0_chaokw_20160317\Z-Stack
#        Mesh 1.0.0_chaokw_20160316\Z-Stack Mesh 1.0.0_LCDOK\Z-Stack Mesh
#        1.0.0\Projects\zstack\Samples\GenericApp\CC2530DB\..\..\..\..\..\Components\stack\zdo\"
#        -I "C:\Texas Instruments\Z-Stack Mesh 1.0.0_chaokw_20160317\Z-Stack
#        Mesh 1.0.0_chaokw_20160316\Z-Stack Mesh 1.0.0_LCDOK\Z-Stack Mesh
#        1.0.0\Projects\zstack\Samples\GenericApp\CC2530DB\..\..\..\..\..\Components\zmac\"
#        -I "C:\Texas Instruments\Z-Stack Mesh 1.0.0_chaokw_20160317\Z-Stack
#        Mesh 1.0.0_chaokw_20160316\Z-Stack Mesh 1.0.0_LCDOK\Z-Stack Mesh
#        1.0.0\Projects\zstack\Samples\GenericApp\CC2530DB\..\..\..\..\..\Components\zmac\f8w\"
#        -On --require_prototypes
#    List file          =  
#        C:\Texas Instruments\Z-Stack Mesh 1.0.0_chaokw_20160317\Z-Stack Mesh
#        1.0.0_chaokw_20160316\Z-Stack Mesh 1.0.0_LCDOK\Z-Stack Mesh
#        1.0.0\Projects\zstack\Samples\GenericApp\CC2530DB\RouterEB\List\hal_drivers.lst
#    Object file        =  
#        C:\Texas Instruments\Z-Stack Mesh 1.0.0_chaokw_20160317\Z-Stack Mesh
#        1.0.0_chaokw_20160316\Z-Stack Mesh 1.0.0_LCDOK\Z-Stack Mesh
#        1.0.0\Projects\zstack\Samples\GenericApp\CC2530DB\RouterEB\Obj\hal_drivers.r51
#
###############################################################################

C:\Texas Instruments\Z-Stack Mesh 1.0.0_chaokw_20160317\Z-Stack Mesh 1.0.0_chaokw_20160316\Z-Stack Mesh 1.0.0_LCDOK\Z-Stack Mesh 1.0.0\Components\hal\common\hal_drivers.c
      1          /**************************************************************************************************
      2            Filename:       hal_drivers.c
      3            Revised:        $Date: 2007-07-06 10:42:24 -0700 (Fri, 06 Jul 2007) $
      4            Revision:       $Revision: 13579 $
      5          
      6            Description:    This file contains the interface to the Drivers Service.
      7          
      8          
      9            Copyright 2005-2013 Texas Instruments Incorporated. All rights reserved.
     10          
     11            IMPORTANT: Your use of this Software is limited to those specific rights
     12            granted under the terms of a software license agreement between the user
     13            who downloaded the software, his/her employer (which must be your employer)
     14            and Texas Instruments Incorporated (the "License").  You may not use this
     15            Software unless you agree to abide by the terms of the License. The License
     16            limits your use, and you acknowledge, that the Software may not be modified,
     17            copied or distributed unless embedded on a Texas Instruments microcontroller
     18            or used solely and exclusively in conjunction with a Texas Instruments radio
     19            frequency transceiver, which is integrated into your product.  Other than for
     20            the foregoing purpose, you may not use, reproduce, copy, prepare derivative
     21            works of, modify, distribute, perform, display or sell this Software and/or
     22            its documentation for any purpose.
     23          
     24            YOU FURTHER ACKNOWLEDGE AND AGREE THAT THE SOFTWARE AND DOCUMENTATION ARE
     25            PROVIDED “AS IS” WITHOUT WARRANTY OF ANY KIND, EITHER EXPRESS OR IMPLIED,
     26            INCLUDING WITHOUT LIMITATION, ANY WARRANTY OF MERCHANTABILITY, TITLE,
     27            NON-INFRINGEMENT AND FITNESS FOR A PARTICULAR PURPOSE. IN NO EVENT SHALL
     28            TEXAS INSTRUMENTS OR ITS LICENSORS BE LIABLE OR OBLIGATED UNDER CONTRACT,
     29            NEGLIGENCE, STRICT LIABILITY, CONTRIBUTION, BREACH OF WARRANTY, OR OTHER
     30            LEGAL EQUITABLE THEORY ANY DIRECT OR INDIRECT DAMAGES OR EXPENSES
     31            INCLUDING BUT NOT LIMITED TO ANY INCIDENTAL, SPECIAL, INDIRECT, PUNITIVE
     32            OR CONSEQUENTIAL DAMAGES, LOST PROFITS OR LOST DATA, COST OF PROCUREMENT
     33            OF SUBSTITUTE GOODS, TECHNOLOGY, SERVICES, OR ANY CLAIMS BY THIRD PARTIES
     34            (INCLUDING BUT NOT LIMITED TO ANY DEFENSE THEREOF), OR OTHER SIMILAR COSTS.
     35          
     36            Should you have any questions regarding your right to use this Software,
     37            contact Texas Instruments Incorporated at www.TI.com.
     38          **************************************************************************************************/
     39          
     40          /**************************************************************************************************
     41           *                                            INCLUDES
     42           **************************************************************************************************/
     43          
     44          #include "hal_adc.h"
     45          #if (defined HAL_AES) && (HAL_AES == TRUE)
     46          #include "hal_aes.h"
     47          #endif
     48          #if (defined HAL_BUZZER) && (HAL_BUZZER == TRUE)
     49          #include "hal_buzzer.h"
     50          #endif
     51          #if (defined HAL_DMA) && (HAL_DMA == TRUE)
     52          #include "hal_dma.h"
     53          #endif
     54          #include "hal_drivers.h"
     55          #include "hal_key.h"
     56          #include "hal_lcd.h"
     57          #include "hal_led.h"
     58          #include "hal_sleep.h"
     59          #include "hal_timer.h"
     60          #include "hal_types.h"
     61          #include "hal_uart.h"
     62          #ifdef CC2591_COMPRESSION_WORKAROUND
     63          #include "mac_rx.h"
     64          #endif
     65          #include "OSAL.h"
     66          #if defined POWER_SAVING
     67          #include "OSAL_PwrMgr.h"
     68          #endif
     69          #if (defined HAL_HID) && (HAL_HID == TRUE)
     70          #include "usb_hid.h"
     71          #endif
     72          #if (defined HAL_SPI) && (HAL_SPI == TRUE)
     73          #include "hal_spi.h"
     74          #endif
     75          
     76          /**************************************************************************************************
     77           *                                      GLOBAL VARIABLES
     78           **************************************************************************************************/

   \                                 In  segment XDATA_Z, align 1, keep-with-next
     79          uint8 Hal_TaskID;
   \                     Hal_TaskID:
   \   000000                DS 1
   \   000001                REQUIRE __INIT_XDATA_Z
     80          
     81          extern void HalLedUpdate( void ); /* Notes: This for internal only so it shouldn't be in hal_led.h */
     82          
     83          /**************************************************************************************************
     84           * @fn      Hal_Init
     85           *
     86           * @brief   Hal Initialization function.
     87           *
     88           * @param   task_id - Hal TaskId
     89           *
     90           * @return  None
     91           **************************************************************************************************/

   \                                 In  segment BANKED_CODE, align 1, keep-with-next
     92          void Hal_Init( uint8 task_id )
   \                     Hal_Init:
     93          {
   \   000000   C082         PUSH    DPL
   \   000002   C083         PUSH    DPH
   \   000004                ; Saved register size: 2
   \   000004                ; Auto size: 0
     94            /* Register task ID */
     95            Hal_TaskID = task_id;
   \   000004   E9           MOV     A,R1
   \   000005   90....       MOV     DPTR,#Hal_TaskID
   \   000008   F0           MOVX    @DPTR,A
     96          
     97          #ifdef CC2591_COMPRESSION_WORKAROUND
     98            osal_start_reload_timer( Hal_TaskID, PERIOD_RSSI_RESET_EVT, PERIOD_RSSI_RESET_TIMEOUT );
     99          #endif
    100          }
   \   000009   D083         POP     DPH
   \   00000B   D082         POP     DPL
   \   00000D   02....       LJMP    ?BRET
    101          
    102          /**************************************************************************************************
    103           * @fn      Hal_DriverInit
    104           *
    105           * @brief   Initialize HW - These need to be initialized before anyone.
    106           *
    107           * @param   task_id - Hal TaskId
    108           *
    109           * @return  None
    110           **************************************************************************************************/

   \                                 In  segment BANKED_CODE, align 1, keep-with-next
    111          void HalDriverInit (void)
   \                     HalDriverInit:
    112          {
   \   000000   C082         PUSH    DPL
   \   000002   C083         PUSH    DPH
   \   000004                ; Saved register size: 2
   \   000004                ; Auto size: 0
    113            /* TIMER */
    114          #if (defined HAL_TIMER) && (HAL_TIMER == TRUE)
    115          #endif
    116          
    117            /* ADC */
    118          #if (defined HAL_ADC) && (HAL_ADC == TRUE)
    119            HalAdcInit();
   \   000004                ; Setup parameters for call to function HalAdcInit
   \   000004   12....       LCALL   `??HalAdcInit::?relay`; Banked call to: HalAdcInit
    120          #endif
    121          
    122            /* DMA */
    123          #if (defined HAL_DMA) && (HAL_DMA == TRUE)
    124            // Must be called before the init call to any module that uses DMA.
    125            HalDmaInit();
   \   000007                ; Setup parameters for call to function HalDmaInit
   \   000007   12....       LCALL   `??HalDmaInit::?relay`; Banked call to: HalDmaInit
    126          #endif
    127          
    128            /* AES */
    129          #if (defined HAL_AES) && (HAL_AES == TRUE)
    130            HalAesInit();
   \   00000A                ; Setup parameters for call to function HalAesInit
   \   00000A   12....       LCALL   `??HalAesInit::?relay`; Banked call to: HalAesInit
    131          #endif
    132          
    133          
    134            /* LED */
    135          #if (defined HAL_LED) && (HAL_LED == TRUE)
    136            HalLedInit();
   \   00000D                ; Setup parameters for call to function HalLedInit
   \   00000D   12....       LCALL   `??HalLedInit::?relay`; Banked call to: HalLedInit
    137          #endif
    138          
    139            /* UART */
    140          #if (defined HAL_UART) && (HAL_UART == TRUE)
    141            HalUARTInit();
   \   000010                ; Setup parameters for call to function HalUARTInit
   \   000010   12....       LCALL   `??HalUARTInit::?relay`; Banked call to: HalUARTInit
    142          #endif
    143          
    144            /* KEY */
    145          #if (defined HAL_KEY) && (HAL_KEY == TRUE)
    146            HalKeyInit();
   \   000013                ; Setup parameters for call to function HalKeyInit
   \   000013   12....       LCALL   `??HalKeyInit::?relay`; Banked call to: HalKeyInit
    147          #endif
    148            
    149            /* SPI */
    150          #if (defined HAL_SPI) && (HAL_SPI == TRUE)
    151            HalSpiInit();
    152          #endif
    153          
    154            /* HID */
    155          #if (defined HAL_HID) && (HAL_HID == TRUE)
    156            usbHidInit();
    157          #endif
    158            /* LCD */
    159          #if (defined HAL_LCD) && (HAL_LCD == TRUE)
    160            HalLcdInit();
   \   000016                ; Setup parameters for call to function HalLcdInit
   \   000016   12....       LCALL   `??HalLcdInit::?relay`; Banked call to: HalLcdInit
    161          #endif
    162          }
   \   000019   D083         POP     DPH
   \   00001B   D082         POP     DPL
   \   00001D   02....       LJMP    ?BRET
    163          
    164          /**************************************************************************************************
    165           * @fn      Hal_ProcessEvent
    166           *
    167           * @brief   Hal Process Event
    168           *
    169           * @param   task_id - Hal TaskId
    170           *          events - events
    171           *
    172           * @return  None
    173           **************************************************************************************************/

   \                                 In  segment BANKED_CODE, align 1, keep-with-next
    174          uint16 Hal_ProcessEvent( uint8 task_id, uint16 events )
   \                     Hal_ProcessEvent:
    175          {
   \   000000                REQUIRE ?V0
   \   000000                REQUIRE ?V1
   \   000000                REQUIRE ?V2
   \   000000                REQUIRE ?V4
   \   000000                REQUIRE ?V5
   \   000000   74F2         MOV     A,#-0xe
   \   000002   12....       LCALL   ?BANKED_ENTER_XDATA
   \   000005                ; Saved register size: 14
   \   000005                ; Auto size: 0
   \   000005   89..         MOV     ?V2,R1
   \   000007   EA           MOV     A,R2
   \   000008   FE           MOV     R6,A
   \   000009   EB           MOV     A,R3
   \   00000A   FF           MOV     R7,A
    176            uint8 *msgPtr;
    177          
    178            (void)task_id;  // Intentionally unreferenced parameter
    179          
    180            if ( events & SYS_EVENT_MSG )
   \   00000B   EE           MOV     A,R6
   \   00000C   5400         ANL     A,#0x0
   \   00000E   F8           MOV     R0,A
   \   00000F   EF           MOV     A,R7
   \   000010   5480         ANL     A,#0x80
   \   000012   F9           MOV     R1,A
   \   000013   E8           MOV     A,R0
   \   000014   49           ORL     A,R1
   \   000015   603E         JZ      ??Hal_ProcessEvent_0
    181            {
    182              msgPtr = osal_msg_receive(Hal_TaskID);
   \   000017                ; Setup parameters for call to function osal_msg_receive
   \   000017   90....       MOV     DPTR,#Hal_TaskID
   \   00001A   E0           MOVX    A,@DPTR
   \   00001B   F9           MOV     R1,A
   \   00001C   12....       LCALL   `??osal_msg_receive::?relay`; Banked call to: osal_msg_receive
   \   00001F   8A..         MOV     ?V4,R2
   \   000021   8B..         MOV     ?V5,R3
   \   000023   85....       MOV     ?V0,?V4
   \   000026   85....       MOV     ?V1,?V5
    183          
    184              while (msgPtr)
   \                     ??Hal_ProcessEvent_1:
   \   000029   E5..         MOV     A,?V0
   \   00002B   45..         ORL     A,?V1
   \   00002D   601C         JZ      ??Hal_ProcessEvent_2
    185              {
    186                /* Do something here - for now, just deallocate the msg and move on */
    187          
    188                /* De-allocate */
    189                osal_msg_deallocate( msgPtr );
   \   00002F                ; Setup parameters for call to function osal_msg_deallocate
   \   00002F   AA..         MOV     R2,?V0
   \   000031   AB..         MOV     R3,?V1
   \   000033   12....       LCALL   `??osal_msg_deallocate::?relay`; Banked call to: osal_msg_deallocate
   \   000036   E9           MOV     A,R1
    190                /* Next */
    191                msgPtr = osal_msg_receive( Hal_TaskID );
   \   000037                ; Setup parameters for call to function osal_msg_receive
   \   000037   90....       MOV     DPTR,#Hal_TaskID
   \   00003A   E0           MOVX    A,@DPTR
   \   00003B   F9           MOV     R1,A
   \   00003C   12....       LCALL   `??osal_msg_receive::?relay`; Banked call to: osal_msg_receive
   \   00003F   8A..         MOV     ?V4,R2
   \   000041   8B..         MOV     ?V5,R3
   \   000043   85....       MOV     ?V0,?V4
   \   000046   85....       MOV     ?V1,?V5
   \   000049   80DE         SJMP    ??Hal_ProcessEvent_1
    192              }
    193              return events ^ SYS_EVENT_MSG;
   \                     ??Hal_ProcessEvent_2:
   \   00004B   EE           MOV     A,R6
   \   00004C   6400         XRL     A,#0x0
   \   00004E   FA           MOV     R2,A
   \   00004F   EF           MOV     A,R7
   \   000050   6480         XRL     A,#0x80
   \   000052   FB           MOV     R3,A
   \   000053   8046         SJMP    ??Hal_ProcessEvent_3
    194            }
    195          
    196          #if (defined HAL_BUZZER) && (HAL_BUZZER == TRUE)
    197            if (events & HAL_BUZZER_EVENT)
    198            {
    199              HalBuzzerStop();
    200              return events ^ HAL_BUZZER_EVENT;
    201            }
    202          #endif
    203          
    204          #ifdef CC2591_COMPRESSION_WORKAROUND
    205            if ( events & PERIOD_RSSI_RESET_EVT )
    206            {
    207              macRxResetRssi();
    208              return (events ^ PERIOD_RSSI_RESET_EVT);
    209            }
    210          #endif
    211          
    212            if ( events & HAL_LED_BLINK_EVENT )
   \                     ??Hal_ProcessEvent_0:
   \   000055   EE           MOV     A,R6
   \   000056   5420         ANL     A,#0x20
   \   000058   600D         JZ      ??Hal_ProcessEvent_4
    213            {
    214          #if (defined (BLINK_LEDS)) && (HAL_LED == TRUE)
    215              HalLedUpdate();
   \   00005A                ; Setup parameters for call to function HalLedUpdate
   \   00005A   12....       LCALL   `??HalLedUpdate::?relay`; Banked call to: HalLedUpdate
    216          #endif /* BLINK_LEDS && HAL_LED */
    217              return events ^ HAL_LED_BLINK_EVENT;
   \   00005D   EE           MOV     A,R6
   \   00005E   6420         XRL     A,#0x20
   \   000060   FA           MOV     R2,A
   \   000061   EF           MOV     A,R7
   \   000062   6400         XRL     A,#0x0
   \   000064   FB           MOV     R3,A
   \   000065   8034         SJMP    ??Hal_ProcessEvent_3
    218            }
    219          
    220            if (events & HAL_KEY_EVENT)
   \                     ??Hal_ProcessEvent_4:
   \   000067   EE           MOV     A,R6
   \   000068   5410         ANL     A,#0x10
   \   00006A   602B         JZ      ??Hal_ProcessEvent_5
    221            {
    222          #if (defined HAL_KEY) && (HAL_KEY == TRUE)
    223              /* Check for keys */
    224              HalKeyPoll();
   \   00006C                ; Setup parameters for call to function HalKeyPoll
   \   00006C   12....       LCALL   `??HalKeyPoll::?relay`; Banked call to: HalKeyPoll
    225          
    226              /* if interrupt disabled, do next polling */
    227              if (!Hal_KeyIntEnable)
   \   00006F   90....       MOV     DPTR,#Hal_KeyIntEnable
   \   000072   E0           MOVX    A,@DPTR
   \   000073   7018         JNZ     ??Hal_ProcessEvent_6
    228              {
    229                osal_start_timerEx( Hal_TaskID, HAL_KEY_EVENT, 100);
   \   000075                ; Setup parameters for call to function osal_start_timerEx
   \   000075   90....       MOV     DPTR,#__Constant_64
   \   000078   12....       LCALL   ?PUSH_XSTACK8_X_FOUR
   \   00007B   7A10         MOV     R2,#0x10
   \   00007D   7B00         MOV     R3,#0x0
   \   00007F   90....       MOV     DPTR,#Hal_TaskID
   \   000082   E0           MOVX    A,@DPTR
   \   000083   F9           MOV     R1,A
   \   000084   12....       LCALL   `??osal_start_timerEx::?relay`; Banked call to: osal_start_timerEx
   \   000087   7404         MOV     A,#0x4
   \   000089   12....       LCALL   ?DEALLOC_XSTACK8
   \   00008C   E9           MOV     A,R1
    230              }
    231          #endif
    232              return events ^ HAL_KEY_EVENT;
   \                     ??Hal_ProcessEvent_6:
   \   00008D   EE           MOV     A,R6
   \   00008E   6410         XRL     A,#0x10
   \   000090   FA           MOV     R2,A
   \   000091   EF           MOV     A,R7
   \   000092   6400         XRL     A,#0x0
   \   000094   FB           MOV     R3,A
   \   000095   8004         SJMP    ??Hal_ProcessEvent_3
    233            }
    234          
    235          #if defined POWER_SAVING
    236            if ( events & HAL_SLEEP_TIMER_EVENT )
    237            {
    238              halRestoreSleepLevel();
    239              return events ^ HAL_SLEEP_TIMER_EVENT;
    240            }
    241          
    242            if ( events & HAL_PWRMGR_HOLD_EVENT )
    243            {
    244              (void)osal_pwrmgr_task_state(Hal_TaskID, PWRMGR_HOLD);
    245          
    246              (void)osal_stop_timerEx(Hal_TaskID, HAL_PWRMGR_CONSERVE_EVENT);
    247              (void)osal_clear_event(Hal_TaskID, HAL_PWRMGR_CONSERVE_EVENT);
    248          
    249              return (events & ~(HAL_PWRMGR_HOLD_EVENT | HAL_PWRMGR_CONSERVE_EVENT));
    250            }
    251          
    252            if ( events & HAL_PWRMGR_CONSERVE_EVENT )
    253            {
    254              (void)osal_pwrmgr_task_state(Hal_TaskID, PWRMGR_CONSERVE);
    255              return events ^ HAL_PWRMGR_CONSERVE_EVENT;
    256            }
    257          #endif
    258          
    259            return 0;
   \                     ??Hal_ProcessEvent_5:
   \   000097   7A00         MOV     R2,#0x0
   \   000099   7B00         MOV     R3,#0x0
   \                     ??Hal_ProcessEvent_3:
   \   00009B   7F06         MOV     R7,#0x6
   \   00009D   02....       LJMP    ?BANKED_LEAVE_XDATA
    260          }
    261          
    262          /**************************************************************************************************
    263           * @fn      Hal_ProcessPoll
    264           *
    265           * @brief   This routine will be called by OSAL to poll UART, TIMER...
    266           *
    267           * @param   task_id - Hal TaskId
    268           *
    269           * @return  None
    270           **************************************************************************************************/

   \                                 In  segment BANKED_CODE, align 1, keep-with-next
    271          void Hal_ProcessPoll ()
   \                     Hal_ProcessPoll:
    272          {
   \   000000   C082         PUSH    DPL
   \   000002   C083         PUSH    DPH
   \   000004                ; Saved register size: 2
   \   000004                ; Auto size: 0
    273          #if defined( POWER_SAVING )
    274            /* Allow sleep before the next OSAL event loop */
    275            ALLOW_SLEEP_MODE();
    276          #endif
    277            
    278            /* UART Poll */
    279          #if (defined HAL_UART) && (HAL_UART == TRUE)
    280            HalUARTPoll();
   \   000004                ; Setup parameters for call to function HalUARTPoll
   \   000004   12....       LCALL   `??HalUARTPoll::?relay`; Banked call to: HalUARTPoll
    281          #endif
    282            
    283            /* SPI Poll */
    284          #if (defined HAL_SPI) && (HAL_SPI == TRUE)
    285            HalSpiPoll();
    286          #endif
    287          
    288            /* HID poll */
    289          #if (defined HAL_HID) && (HAL_HID == TRUE)
    290            usbHidProcessEvents();
    291          #endif
    292           
    293          }
   \   000007   D083         POP     DPH
   \   000009   D082         POP     DPL
   \   00000B   02....       LJMP    ?BRET

   \                                 In  segment XDATA_ROM_C, align 1
   \                     __Constant_64:
   \   000000   64000000     DD 100

   \                                 In  segment BANK_RELAYS, align 1
   \                     `??Hal_Init::?relay`:
   \   000000   12....       LCALL   ?BDISPATCH
   \   000003   ......       DC24    Hal_Init

   \                                 In  segment BANK_RELAYS, align 1
   \                     `??HalDriverInit::?relay`:
   \   000000   12....       LCALL   ?BDISPATCH
   \   000003   ......       DC24    HalDriverInit

   \                                 In  segment BANK_RELAYS, align 1
   \                     `??Hal_ProcessEvent::?relay`:
   \   000000   12....       LCALL   ?BDISPATCH
   \   000003   ......       DC24    Hal_ProcessEvent

   \                                 In  segment BANK_RELAYS, align 1
   \                     `??Hal_ProcessPoll::?relay`:
   \   000000   12....       LCALL   ?BDISPATCH
   \   000003   ......       DC24    Hal_ProcessPoll
    294          
    295          /**************************************************************************************************
    296          **************************************************************************************************/
    297          

   Maximum stack usage in bytes:

   ISTACK XSTACK Function
   ------ ------ --------
      2      0   HalDriverInit
        2      0   -> HalAdcInit
        2      0   -> HalAesInit
        2      0   -> HalDmaInit
        2      0   -> HalKeyInit
        2      0   -> HalLcdInit
        2      0   -> HalLedInit
        2      0   -> HalUARTInit
      2      0   Hal_Init
      0     18   Hal_ProcessEvent
        0     14   -> HalKeyPoll
        0     14   -> HalLedUpdate
        0     14   -> osal_msg_deallocate
        0     14   -> osal_msg_receive
        0     18   -> osal_start_timerEx
      2      0   Hal_ProcessPoll
        2      0   -> HalUARTPoll


   Segment part sizes:

   Bytes  Function/Label
   -----  --------------
      32  HalDriverInit
       6  HalDriverInit::?relay
      16  Hal_Init
       6  Hal_Init::?relay
     160  Hal_ProcessEvent
       6  Hal_ProcessEvent::?relay
      14  Hal_ProcessPoll
       6  Hal_ProcessPoll::?relay
       1  Hal_TaskID
       4  __Constant_64

 
 222 bytes in segment BANKED_CODE
  24 bytes in segment BANK_RELAYS
   4 bytes in segment XDATA_ROM_C
   1 byte  in segment XDATA_Z
 
 246 bytes of CODE  memory
   0 bytes of CONST memory (+ 4 bytes shared)
   1 byte  of XDATA memory

Errors: none
Warnings: none
