///////////////////////////////////////////////////////////////////////////////
//
// IAR C/C++ Compiler V9.30.1.3056 for 8051               21/Apr/2017  17:48:46
// Copyright 2004-2015 IAR Systems AB.
//
//    Core               =  plain
//    Code model         =  banked
//    Data model         =  large
//    Calling convention =  xdata reentrant
//    Constant location  =  data_rom
//    Dptr setup         =  1,16
//                          
//    Source file        =  
//        C:\Texas Instruments\Z-Stack Mesh 1.0.0_chaokw_20160317\Z-Stack Mesh
//        1.0.0_chaokw_20160316\Z-Stack Mesh 1.0.0_LCDOK\Z-Stack Mesh
//        1.0.0\Components\mt\MT_SYS.c
//    Command line       =  
//        -f "C:\Texas Instruments\Z-Stack Mesh 1.0.0_chaokw_20160317\Z-Stack
//        Mesh 1.0.0_chaokw_20160316\Z-Stack Mesh 1.0.0_LCDOK\Z-Stack Mesh
//        1.0.0\Projects\zstack\Samples\GenericApp\CC2530DB\..\..\..\Tools\CC2530DB\f8wRouter.cfg"
//        (-DCPU32MHZ -DROOT=__near_func -DMAC_CFG_APP_PENDING_QUEUE=TRUE
//        -DMAC_CFG_TX_DATA_MAX=5 -DMAC_CFG_TX_MAX=8 -DMAC_CFG_RX_MAX=5
//        -DRTR_NWK) -f "C:\Texas Instruments\Z-Stack Mesh
//        1.0.0_chaokw_20160317\Z-Stack Mesh 1.0.0_chaokw_20160316\Z-Stack Mesh
//        1.0.0_LCDOK\Z-Stack Mesh
//        1.0.0\Projects\zstack\Samples\GenericApp\CC2530DB\..\..\..\Tools\CC2530DB\f8wConfig.cfg"
//        (-DZIGBEEPRO -DSECURE=1 -DZG_SECURE_DYNAMIC=0 -DREFLECTOR
//        -DDEFAULT_CHANLIST=0x04000000 -DZDAPP_CONFIG_PAN_ID=0x0085
//        -DNWK_START_DELAY=100 -DEXTENDED_JOINING_RANDOM_MASK=0x007F
//        -DBEACON_REQUEST_DELAY=100 -DBEACON_REQ_DELAY_MASK=0x00FF
//        -DLINK_STATUS_JITTER_MASK=0x007F -DROUTE_EXPIRY_TIME=30
//        -DAPSC_ACK_WAIT_DURATION_POLLED=3000 -DNWK_INDIRECT_MSG_TIMEOUT=7
//        -DMAX_RREQ_ENTRIES=8 -DAPSC_MAX_FRAME_RETRIES=5
//        -DNWK_MAX_DATA_RETRIES=2 -DMAX_POLL_FAILURE_RETRIES=2 -DMAX_BCAST=9
//        -DAPS_MAX_GROUPS=16 -DMAX_RTG_ENTRIES=40 -DNWK_MAX_BINDING_ENTRIES=4
//        -DMAX_BINDING_CLUSTER_IDS=4 "-DDEFAULT_KEY={0x01, 0x03, 0x05, 0x07,
//        0x09, 0x0B, 0x0D, 0x0F, 0x00, 0x02, 0x04, 0x06, 0x08, 0x0A, 0x0C,
//        0x0D}" -DMAC_MAX_FRAME_SIZE=116 -DZDNWKMGR_MIN_TRANSMISSIONS=20
//        "-DCONST=const __code" -DGENERIC=__generic -DRFD_RCVC_ALWAYS_ON=FALSE
//        -DPOLL_RATE=1000 -DQUEUED_POLL_RATE=100 -DRESPONSE_POLL_RATE=100
//        -DREJOIN_POLL_RATE=440) -DCHANNEL_CNT=0x01 "C:\Texas
//        Instruments\Z-Stack Mesh 1.0.0_chaokw_20160317\Z-Stack Mesh
//        1.0.0_chaokw_20160316\Z-Stack Mesh 1.0.0_LCDOK\Z-Stack Mesh
//        1.0.0\Components\mt\MT_SYS.c" -D ZTOOL_P1 -D MT_TASK -D MT_SYS_FUNC
//        -D MT_ZDO_FUNC -D LCD_SUPPORTED=DEBUG -D xNV_RESTORE -D NV_INIT -D
//        OPEN_FCS -D PANID_INCREASE -lC "C:\Texas Instruments\Z-Stack Mesh
//        1.0.0_chaokw_20160317\Z-Stack Mesh 1.0.0_chaokw_20160316\Z-Stack Mesh
//        1.0.0_LCDOK\Z-Stack Mesh
//        1.0.0\Projects\zstack\Samples\GenericApp\CC2530DB\RouterEB\List" -lA
//        "C:\Texas Instruments\Z-Stack Mesh 1.0.0_chaokw_20160317\Z-Stack Mesh
//        1.0.0_chaokw_20160316\Z-Stack Mesh 1.0.0_LCDOK\Z-Stack Mesh
//        1.0.0\Projects\zstack\Samples\GenericApp\CC2530DB\RouterEB\List"
//        --diag_suppress Pe001,Pa010 -o "C:\Texas Instruments\Z-Stack Mesh
//        1.0.0_chaokw_20160317\Z-Stack Mesh 1.0.0_chaokw_20160316\Z-Stack Mesh
//        1.0.0_LCDOK\Z-Stack Mesh
//        1.0.0\Projects\zstack\Samples\GenericApp\CC2530DB\RouterEB\Obj" -e
//        --no_cse --no_unroll --no_inline --no_code_motion --no_tbaa --debug
//        --core=plain --dptr=16,1 --data_model=large --code_model=banked
//        --calling_convention=xdata_reentrant --place_constants=data_rom
//        --nr_virtual_regs 16 -I "C:\Texas Instruments\Z-Stack Mesh
//        1.0.0_chaokw_20160317\Z-Stack Mesh 1.0.0_chaokw_20160316\Z-Stack Mesh
//        1.0.0_LCDOK\Z-Stack Mesh
//        1.0.0\Projects\zstack\Samples\GenericApp\CC2530DB\" -I "C:\Texas
//        Instruments\Z-Stack Mesh 1.0.0_chaokw_20160317\Z-Stack Mesh
//        1.0.0_chaokw_20160316\Z-Stack Mesh 1.0.0_LCDOK\Z-Stack Mesh
//        1.0.0\Projects\zstack\Samples\GenericApp\CC2530DB\..\Source\" -I
//        "C:\Texas Instruments\Z-Stack Mesh 1.0.0_chaokw_20160317\Z-Stack Mesh
//        1.0.0_chaokw_20160316\Z-Stack Mesh 1.0.0_LCDOK\Z-Stack Mesh
//        1.0.0\Projects\zstack\Samples\GenericApp\CC2530DB\..\..\..\Application\"
//        -I "C:\Texas Instruments\Z-Stack Mesh 1.0.0_chaokw_20160317\Z-Stack
//        Mesh 1.0.0_chaokw_20160316\Z-Stack Mesh 1.0.0_LCDOK\Z-Stack Mesh
//        1.0.0\Projects\zstack\Samples\GenericApp\CC2530DB\..\..\..\ZMain\TI2530DB\"
//        -I "C:\Texas Instruments\Z-Stack Mesh 1.0.0_chaokw_20160317\Z-Stack
//        Mesh 1.0.0_chaokw_20160316\Z-Stack Mesh 1.0.0_LCDOK\Z-Stack Mesh
//        1.0.0\Projects\zstack\Samples\GenericApp\CC2530DB\..\..\..\..\..\Components\hal\include\"
//        -I "C:\Texas Instruments\Z-Stack Mesh 1.0.0_chaokw_20160317\Z-Stack
//        Mesh 1.0.0_chaokw_20160316\Z-Stack Mesh 1.0.0_LCDOK\Z-Stack Mesh
//        1.0.0\Projects\zstack\Samples\GenericApp\CC2530DB\..\..\..\..\..\Components\hal\target\CC2530EB\"
//        -I "C:\Texas Instruments\Z-Stack Mesh 1.0.0_chaokw_20160317\Z-Stack
//        Mesh 1.0.0_chaokw_20160316\Z-Stack Mesh 1.0.0_LCDOK\Z-Stack Mesh
//        1.0.0\Projects\zstack\Samples\GenericApp\CC2530DB\..\..\..\..\..\Components\mac\include\"
//        -I "C:\Texas Instruments\Z-Stack Mesh 1.0.0_chaokw_20160317\Z-Stack
//        Mesh 1.0.0_chaokw_20160316\Z-Stack Mesh 1.0.0_LCDOK\Z-Stack Mesh
//        1.0.0\Projects\zstack\Samples\GenericApp\CC2530DB\..\..\..\..\..\Components\mac\high_level\"
//        -I "C:\Texas Instruments\Z-Stack Mesh 1.0.0_chaokw_20160317\Z-Stack
//        Mesh 1.0.0_chaokw_20160316\Z-Stack Mesh 1.0.0_LCDOK\Z-Stack Mesh
//        1.0.0\Projects\zstack\Samples\GenericApp\CC2530DB\..\..\..\..\..\Components\mac\low_level\srf04\"
//        -I "C:\Texas Instruments\Z-Stack Mesh 1.0.0_chaokw_20160317\Z-Stack
//        Mesh 1.0.0_chaokw_20160316\Z-Stack Mesh 1.0.0_LCDOK\Z-Stack Mesh
//        1.0.0\Projects\zstack\Samples\GenericApp\CC2530DB\..\..\..\..\..\Components\mac\low_level\srf04\single_chip\"
//        -I "C:\Texas Instruments\Z-Stack Mesh 1.0.0_chaokw_20160317\Z-Stack
//        Mesh 1.0.0_chaokw_20160316\Z-Stack Mesh 1.0.0_LCDOK\Z-Stack Mesh
//        1.0.0\Projects\zstack\Samples\GenericApp\CC2530DB\..\..\..\..\..\Components\mt\"
//        -I "C:\Texas Instruments\Z-Stack Mesh 1.0.0_chaokw_20160317\Z-Stack
//        Mesh 1.0.0_chaokw_20160316\Z-Stack Mesh 1.0.0_LCDOK\Z-Stack Mesh
//        1.0.0\Projects\zstack\Samples\GenericApp\CC2530DB\..\..\..\..\..\Components\osal\include\"
//        -I "C:\Texas Instruments\Z-Stack Mesh 1.0.0_chaokw_20160317\Z-Stack
//        Mesh 1.0.0_chaokw_20160316\Z-Stack Mesh 1.0.0_LCDOK\Z-Stack Mesh
//        1.0.0\Projects\zstack\Samples\GenericApp\CC2530DB\..\..\..\..\..\Components\services\saddr\"
//        -I "C:\Texas Instruments\Z-Stack Mesh 1.0.0_chaokw_20160317\Z-Stack
//        Mesh 1.0.0_chaokw_20160316\Z-Stack Mesh 1.0.0_LCDOK\Z-Stack Mesh
//        1.0.0\Projects\zstack\Samples\GenericApp\CC2530DB\..\..\..\..\..\Components\services\sdata\"
//        -I "C:\Texas Instruments\Z-Stack Mesh 1.0.0_chaokw_20160317\Z-Stack
//        Mesh 1.0.0_chaokw_20160316\Z-Stack Mesh 1.0.0_LCDOK\Z-Stack Mesh
//        1.0.0\Projects\zstack\Samples\GenericApp\CC2530DB\..\..\..\..\..\Components\stack\af\"
//        -I "C:\Texas Instruments\Z-Stack Mesh 1.0.0_chaokw_20160317\Z-Stack
//        Mesh 1.0.0_chaokw_20160316\Z-Stack Mesh 1.0.0_LCDOK\Z-Stack Mesh
//        1.0.0\Projects\zstack\Samples\GenericApp\CC2530DB\..\..\..\..\..\Components\stack\nwk\"
//        -I "C:\Texas Instruments\Z-Stack Mesh 1.0.0_chaokw_20160317\Z-Stack
//        Mesh 1.0.0_chaokw_20160316\Z-Stack Mesh 1.0.0_LCDOK\Z-Stack Mesh
//        1.0.0\Projects\zstack\Samples\GenericApp\CC2530DB\..\..\..\..\..\Components\stack\sapi\"
//        -I "C:\Texas Instruments\Z-Stack Mesh 1.0.0_chaokw_20160317\Z-Stack
//        Mesh 1.0.0_chaokw_20160316\Z-Stack Mesh 1.0.0_LCDOK\Z-Stack Mesh
//        1.0.0\Projects\zstack\Samples\GenericApp\CC2530DB\..\..\..\..\..\Components\stack\sec\"
//        -I "C:\Texas Instruments\Z-Stack Mesh 1.0.0_chaokw_20160317\Z-Stack
//        Mesh 1.0.0_chaokw_20160316\Z-Stack Mesh 1.0.0_LCDOK\Z-Stack Mesh
//        1.0.0\Projects\zstack\Samples\GenericApp\CC2530DB\..\..\..\..\..\Components\stack\sys\"
//        -I "C:\Texas Instruments\Z-Stack Mesh 1.0.0_chaokw_20160317\Z-Stack
//        Mesh 1.0.0_chaokw_20160316\Z-Stack Mesh 1.0.0_LCDOK\Z-Stack Mesh
//        1.0.0\Projects\zstack\Samples\GenericApp\CC2530DB\..\..\..\..\..\Components\stack\zdo\"
//        -I "C:\Texas Instruments\Z-Stack Mesh 1.0.0_chaokw_20160317\Z-Stack
//        Mesh 1.0.0_chaokw_20160316\Z-Stack Mesh 1.0.0_LCDOK\Z-Stack Mesh
//        1.0.0\Projects\zstack\Samples\GenericApp\CC2530DB\..\..\..\..\..\Components\zmac\"
//        -I "C:\Texas Instruments\Z-Stack Mesh 1.0.0_chaokw_20160317\Z-Stack
//        Mesh 1.0.0_chaokw_20160316\Z-Stack Mesh 1.0.0_LCDOK\Z-Stack Mesh
//        1.0.0\Projects\zstack\Samples\GenericApp\CC2530DB\..\..\..\..\..\Components\zmac\f8w\"
//        -On --require_prototypes
//    List file          =  
//        C:\Texas Instruments\Z-Stack Mesh 1.0.0_chaokw_20160317\Z-Stack Mesh
//        1.0.0_chaokw_20160316\Z-Stack Mesh 1.0.0_LCDOK\Z-Stack Mesh
//        1.0.0\Projects\zstack\Samples\GenericApp\CC2530DB\RouterEB\List\MT_SYS.s51
//
///////////////////////////////////////////////////////////////////////////////

        NAME MT_SYS

        RTMODEL "__SystemLibrary", "CLib"
        RTMODEL "__calling_convention", "xdata_reentrant"
        RTMODEL "__code_model", "banked"
        RTMODEL "__core", "plain"
        RTMODEL "__data_model", "large"
        RTMODEL "__dptr_size", "16"
        RTMODEL "__extended_stack", "disabled"
        RTMODEL "__location_for_constants", "data"
        RTMODEL "__number_of_dptrs", "1"
        RTMODEL "__rt_version", "1"

        RSEG DOVERLAY:DATA:NOROOT(0)
        RSEG IOVERLAY:IDATA:NOROOT(0)
        RSEG ISTACK:IDATA:NOROOT(0)
        RSEG PSTACK:XDATA:NOROOT(0)
        RSEG XSTACK:XDATA:NOROOT(0)

        EXTERN ?V0
        EXTERN ?V1
        EXTERN ?V2
        EXTERN ?V3
        EXTERN ?V4
        EXTERN ?V5
        EXTERN ?V6
        EXTERN ?V7
        EXTERN ?V8
        EXTERN ?V9
        EXTERN ?V10
        EXTERN ?V11
        EXTERN ?V12
        EXTERN ?V14
        EXTERN ?V15
        EXTERN ?ALLOC_XSTACK8
        EXTERN ?BANKED_ENTER_XDATA
        EXTERN ?BANKED_LEAVE_XDATA
        EXTERN ?BDISPATCH
        EXTERN ?BRET
        EXTERN ?DEALLOC_XSTACK8
        EXTERN ?MOVE_LONG8_XDATA_XDATA
        EXTERN ?PUSH_XSTACK_I_FOUR
        EXTERN ?PUSH_XSTACK_I_ONE
        EXTERN ?PUSH_XSTACK_I_THREE
        EXTERN ?PUSH_XSTACK_I_TWO
        EXTERN ?UC_SWITCH_SPARSE
        EXTERN ?US_DIV_MOD
        EXTERN ?XSP
        EXTERN ?XSTACK_DISP0_8
        EXTERN ?XSTACK_DISP101_8
        EXTERN ?XSTACK_DISP102_8

        FUNCTION `??MT_SysActiveCntReq::?relay`,0203H
        PUBLIC `??MT_SysAdcRead::?relay`
        FUNCTION `??MT_SysAdcRead::?relay`,0203H
        PUBLIC `??MT_SysBroadCastTransfer::?relay`
        FUNCTION `??MT_SysBroadCastTransfer::?relay`,0203H
        FUNCTION `??MT_SysChannelUpdate::?relay`,0203H
        PUBLIC `??MT_SysCommandProcessing::?relay`
        FUNCTION `??MT_SysCommandProcessing::?relay`,0203H
        FUNCTION `??MT_SysFWUpdateReq::?relay`,0203H
        PUBLIC `??MT_SysGetExtAddr::?relay`
        FUNCTION `??MT_SysGetExtAddr::?relay`,0203H
        FUNCTION `??MT_SysGetFWVersionReq::?relay`,0203H
        PUBLIC `??MT_SysGetUtcTime::?relay`
        FUNCTION `??MT_SysGetUtcTime::?relay`,0203H
        PUBLIC `??MT_SysGpio::?relay`
        FUNCTION `??MT_SysGpio::?relay`,0203H
        PUBLIC `??MT_SysGroupTransfer::?relay`
        FUNCTION `??MT_SysGroupTransfer::?relay`,0203H
        FUNCTION `??MT_SysMACReq::?relay`,0203H
        FUNCTION `??MT_SysMultiwaySendReq::?relay`,0203H
        FUNCTION `??MT_SysMultiwaySetReq::?relay`,0203H
        FUNCTION `??MT_SysNWKInfoReq::?relay`,0203H
        PUBLIC `??MT_SysOsalNVDelete::?relay`
        FUNCTION `??MT_SysOsalNVDelete::?relay`,0203H
        PUBLIC `??MT_SysOsalNVItemInit::?relay`
        FUNCTION `??MT_SysOsalNVItemInit::?relay`,0203H
        PUBLIC `??MT_SysOsalNVLength::?relay`
        FUNCTION `??MT_SysOsalNVLength::?relay`,0203H
        PUBLIC `??MT_SysOsalNVRead::?relay`
        FUNCTION `??MT_SysOsalNVRead::?relay`,0203H
        PUBLIC `??MT_SysOsalNVWrite::?relay`
        FUNCTION `??MT_SysOsalNVWrite::?relay`,0203H
        PUBLIC `??MT_SysOsalStartTimer::?relay`
        FUNCTION `??MT_SysOsalStartTimer::?relay`,0203H
        PUBLIC `??MT_SysOsalStopTimer::?relay`
        FUNCTION `??MT_SysOsalStopTimer::?relay`,0203H
        PUBLIC `??MT_SysOsalTimerExpired::?relay`
        FUNCTION `??MT_SysOsalTimerExpired::?relay`,0203H
        PUBLIC `??MT_SysP2PTransfer::?relay`
        FUNCTION `??MT_SysP2PTransfer::?relay`,0203H
        PUBLIC `??MT_SysPing::?relay`
        FUNCTION `??MT_SysPing::?relay`,0203H
        FUNCTION `??MT_SysPkgSendMsg::?relay`,0203H
        PUBLIC `??MT_SysRandom::?relay`
        FUNCTION `??MT_SysRandom::?relay`,0203H
        PUBLIC `??MT_SysReset::?relay`
        FUNCTION `??MT_SysReset::?relay`,0203H
        PUBLIC `??MT_SysResetInd::?relay`
        FUNCTION `??MT_SysResetInd::?relay`,0203H
        PUBLIC `??MT_SysSetExtAddr::?relay`
        FUNCTION `??MT_SysSetExtAddr::?relay`,0203H
        PUBLIC `??MT_SysSetTxPower::?relay`
        FUNCTION `??MT_SysSetTxPower::?relay`,0203H
        PUBLIC `??MT_SysSetUtcTime::?relay`
        FUNCTION `??MT_SysSetUtcTime::?relay`,0203H
        PUBLIC `??MT_SysStackTune::?relay`
        FUNCTION `??MT_SysStackTune::?relay`,0203H
        PUBLIC `??MT_SysVersion::?relay`
        FUNCTION `??MT_SysVersion::?relay`,0203H
        PUBLIC `??powerOffSoc::?relay`
        FUNCTION `??powerOffSoc::?relay`,0203H
        FUNCTION MT_SysActiveCntReq,0a1203H
        ARGFRAME XSTACK, 10, STACK
        ARGFRAME IOVERLAY, 0, STATIC
        ARGFRAME DOVERLAY, 0, STATIC
        LOCFRAME XSTACK, 18, STACK
        PUBLIC MT_SysAdcRead
        FUNCTION MT_SysAdcRead,0a1203H
        ARGFRAME XSTACK, 10, STACK
        ARGFRAME IOVERLAY, 0, STATIC
        ARGFRAME DOVERLAY, 0, STATIC
        LOCFRAME ISTACK, 1, STACK
        LOCFRAME XSTACK, 18, STACK
        PUBLIC MT_SysBroadCastTransfer
        FUNCTION MT_SysBroadCastTransfer,0a1203H
        ARGFRAME XSTACK, 10, STACK
        ARGFRAME IOVERLAY, 0, STATIC
        ARGFRAME DOVERLAY, 0, STATIC
        LOCFRAME XSTACK, 18, STACK
        FUNCTION MT_SysChannelUpdate,0a1203H
        ARGFRAME XSTACK, 10, STACK
        ARGFRAME IOVERLAY, 0, STATIC
        ARGFRAME DOVERLAY, 0, STATIC
        LOCFRAME XSTACK, 18, STACK
        PUBLIC MT_SysCommandProcessing
        FUNCTION MT_SysCommandProcessing,0a1203H
        ARGFRAME XSTACK, 0, STACK
        LOCFRAME XSTACK, 11, STACK
        FUNCTION MT_SysFWUpdateReq,0a1203H
        ARGFRAME XSTACK, 10, STACK
        ARGFRAME IOVERLAY, 0, STATIC
        ARGFRAME DOVERLAY, 0, STATIC
        LOCFRAME XSTACK, 10, STACK
        PUBLIC MT_SysGetExtAddr
        FUNCTION MT_SysGetExtAddr,021203H
        ARGFRAME XSTACK, 10, STACK
        ARGFRAME IOVERLAY, 0, STATIC
        ARGFRAME DOVERLAY, 0, STATIC
        LOCFRAME ISTACK, 2, STACK
        LOCFRAME XSTACK, 8, STACK
        FUNCTION MT_SysGetFWVersionReq,0a1203H
        ARGFRAME XSTACK, 10, STACK
        ARGFRAME IOVERLAY, 0, STATIC
        ARGFRAME DOVERLAY, 0, STATIC
        LOCFRAME XSTACK, 10, STACK
        PUBLIC MT_SysGetUtcTime
        FUNCTION MT_SysGetUtcTime,0a1203H
        ARGFRAME XSTACK, 10, STACK
        ARGFRAME IOVERLAY, 0, STATIC
        ARGFRAME DOVERLAY, 0, STATIC
        LOCFRAME ISTACK, 1, STACK
        LOCFRAME XSTACK, 30, STACK
        PUBLIC MT_SysGpio
        FUNCTION MT_SysGpio,0a1203H
        ARGFRAME XSTACK, 10, STACK
        ARGFRAME IOVERLAY, 0, STATIC
        ARGFRAME DOVERLAY, 0, STATIC
        LOCFRAME ISTACK, 1, STACK
        LOCFRAME XSTACK, 11, STACK
        PUBLIC MT_SysGroupTransfer
        FUNCTION MT_SysGroupTransfer,0a1203H
        ARGFRAME XSTACK, 10, STACK
        ARGFRAME IOVERLAY, 0, STATIC
        ARGFRAME DOVERLAY, 0, STATIC
        LOCFRAME XSTACK, 18, STACK
        FUNCTION MT_SysMACReq,0a1203H
        ARGFRAME XSTACK, 10, STACK
        ARGFRAME IOVERLAY, 0, STATIC
        ARGFRAME DOVERLAY, 0, STATIC
        LOCFRAME XSTACK, 18, STACK
        FUNCTION MT_SysMultiwaySendReq,021203H
        ARGFRAME XSTACK, 10, STACK
        ARGFRAME IOVERLAY, 0, STATIC
        ARGFRAME DOVERLAY, 0, STATIC
        LOCFRAME XSTACK, 9, STACK
        FUNCTION MT_SysMultiwaySetReq,0a1203H
        ARGFRAME XSTACK, 10, STACK
        ARGFRAME IOVERLAY, 0, STATIC
        ARGFRAME DOVERLAY, 0, STATIC
        LOCFRAME XSTACK, 18, STACK
        FUNCTION MT_SysNWKInfoReq,0a1203H
        ARGFRAME XSTACK, 10, STACK
        ARGFRAME IOVERLAY, 0, STATIC
        ARGFRAME DOVERLAY, 0, STATIC
        LOCFRAME XSTACK, 18, STACK
        PUBLIC MT_SysOsalEventId
        PUBLIC MT_SysOsalNVDelete
        FUNCTION MT_SysOsalNVDelete,0a1203H
        ARGFRAME XSTACK, 10, STACK
        ARGFRAME IOVERLAY, 0, STATIC
        ARGFRAME DOVERLAY, 0, STATIC
        LOCFRAME ISTACK, 1, STACK
        LOCFRAME XSTACK, 13, STACK
        PUBLIC MT_SysOsalNVItemInit
        FUNCTION MT_SysOsalNVItemInit,0a1203H
        ARGFRAME XSTACK, 10, STACK
        ARGFRAME IOVERLAY, 0, STATIC
        ARGFRAME DOVERLAY, 0, STATIC
        LOCFRAME ISTACK, 1, STACK
        LOCFRAME XSTACK, 21, STACK
        PUBLIC MT_SysOsalNVLength
        FUNCTION MT_SysOsalNVLength,0a1203H
        ARGFRAME XSTACK, 10, STACK
        ARGFRAME IOVERLAY, 0, STATIC
        ARGFRAME DOVERLAY, 0, STATIC
        LOCFRAME ISTACK, 1, STACK
        LOCFRAME XSTACK, 16, STACK
        PUBLIC MT_SysOsalNVRead
        FUNCTION MT_SysOsalNVRead,0a1203H
        ARGFRAME XSTACK, 10, STACK
        ARGFRAME IOVERLAY, 0, STATIC
        ARGFRAME DOVERLAY, 0, STATIC
        LOCFRAME ISTACK, 1, STACK
        LOCFRAME XSTACK, 30, STACK
        PUBLIC MT_SysOsalNVWrite
        FUNCTION MT_SysOsalNVWrite,0a1203H
        ARGFRAME XSTACK, 10, STACK
        ARGFRAME IOVERLAY, 0, STATIC
        ARGFRAME DOVERLAY, 0, STATIC
        LOCFRAME ISTACK, 1, STACK
        LOCFRAME XSTACK, 25, STACK
        PUBLIC MT_SysOsalStartTimer
        FUNCTION MT_SysOsalStartTimer,0a1203H
        ARGFRAME XSTACK, 10, STACK
        ARGFRAME IOVERLAY, 0, STATIC
        ARGFRAME DOVERLAY, 0, STATIC
        LOCFRAME ISTACK, 1, STACK
        LOCFRAME XSTACK, 21, STACK
        PUBLIC MT_SysOsalStopTimer
        FUNCTION MT_SysOsalStopTimer,0a1203H
        ARGFRAME XSTACK, 10, STACK
        ARGFRAME IOVERLAY, 0, STATIC
        ARGFRAME DOVERLAY, 0, STATIC
        LOCFRAME ISTACK, 1, STACK
        LOCFRAME XSTACK, 12, STACK
        PUBLIC MT_SysOsalTimerExpired
        FUNCTION MT_SysOsalTimerExpired,021203H
        ARGFRAME XSTACK, 0, STACK
        LOCFRAME ISTACK, 1, STACK
        LOCFRAME XSTACK, 10, STACK
        PUBLIC MT_SysP2PTransfer
        FUNCTION MT_SysP2PTransfer,0a1203H
        ARGFRAME XSTACK, 10, STACK
        ARGFRAME IOVERLAY, 0, STATIC
        ARGFRAME DOVERLAY, 0, STATIC
        LOCFRAME XSTACK, 18, STACK
        PUBLIC MT_SysPing
        FUNCTION MT_SysPing,021203H
        ARGFRAME XSTACK, 10, STACK
        ARGFRAME IOVERLAY, 0, STATIC
        ARGFRAME DOVERLAY, 0, STATIC
        LOCFRAME ISTACK, 1, STACK
        LOCFRAME XSTACK, 11, STACK
        FUNCTION MT_SysPkgSendMsg,0a1203H
        ARGFRAME XSTACK, 10, STACK
        ARGFRAME IOVERLAY, 0, STATIC
        ARGFRAME DOVERLAY, 0, STATIC
        LOCFRAME ISTACK, 1, STACK
        LOCFRAME XSTACK, 20, STACK
        PUBLIC MT_SysRandom
        FUNCTION MT_SysRandom,0a1203H
        ARGFRAME XSTACK, 10, STACK
        ARGFRAME IOVERLAY, 0, STATIC
        ARGFRAME DOVERLAY, 0, STATIC
        LOCFRAME ISTACK, 1, STACK
        LOCFRAME XSTACK, 12, STACK
        PUBLIC MT_SysReset
        FUNCTION MT_SysReset,021203H
        ARGFRAME XSTACK, 10, STACK
        ARGFRAME IOVERLAY, 0, STATIC
        ARGFRAME DOVERLAY, 0, STATIC
        LOCFRAME XSTACK, 9, STACK
        PUBLIC MT_SysResetInd
        FUNCTION MT_SysResetInd,0203H
        ARGFRAME XSTACK, 0, STACK
        PUBLIC MT_SysSetExtAddr
        FUNCTION MT_SysSetExtAddr,0a1203H
        ARGFRAME XSTACK, 10, STACK
        ARGFRAME IOVERLAY, 0, STATIC
        ARGFRAME DOVERLAY, 0, STATIC
        LOCFRAME ISTACK, 1, STACK
        LOCFRAME XSTACK, 17, STACK
        PUBLIC MT_SysSetTxPower
        FUNCTION MT_SysSetTxPower,0a1203H
        ARGFRAME XSTACK, 10, STACK
        ARGFRAME IOVERLAY, 0, STATIC
        ARGFRAME DOVERLAY, 0, STATIC
        LOCFRAME ISTACK, 1, STACK
        LOCFRAME XSTACK, 11, STACK
        PUBLIC MT_SysSetUtcTime
        FUNCTION MT_SysSetUtcTime,0a1203H
        ARGFRAME XSTACK, 10, STACK
        ARGFRAME IOVERLAY, 0, STATIC
        ARGFRAME DOVERLAY, 0, STATIC
        LOCFRAME ISTACK, 1, STACK
        LOCFRAME XSTACK, 28, STACK
        PUBLIC MT_SysStackTune
        FUNCTION MT_SysStackTune,0a1203H
        ARGFRAME XSTACK, 10, STACK
        ARGFRAME IOVERLAY, 0, STATIC
        ARGFRAME DOVERLAY, 0, STATIC
        LOCFRAME ISTACK, 1, STACK
        LOCFRAME XSTACK, 10, STACK
        PUBLIC MT_SysVersion
        FUNCTION MT_SysVersion,021203H
        ARGFRAME XSTACK, 10, STACK
        ARGFRAME IOVERLAY, 0, STATIC
        ARGFRAME DOVERLAY, 0, STATIC
        LOCFRAME ISTACK, 2, STACK
        PUBWEAK WDCTL
        PUBWEAK _A_IEN0
        PUBLIC powerOffSoc
        FUNCTION powerOffSoc,0203H
        ARGFRAME XSTACK, 9, STACK
        ARGFRAME IOVERLAY, 0, STATIC
        ARGFRAME DOVERLAY, 0, STATIC
        
          CFI Names cfiNames0
          CFI StackFrame CFA_SP SP IDATA
          CFI StackFrame CFA_PSP16 PSP16 XDATA
          CFI StackFrame CFA_XSP16 XSP16 XDATA
          CFI StaticOverlayFrame CFA_IOVERLAY IOVERLAY
          CFI StaticOverlayFrame CFA_DOVERLAY DOVERLAY
          CFI Resource `PSW.CY`:1, `B.BR0`:1, `B.BR1`:1, `B.BR2`:1, `B.BR3`:1
          CFI Resource `B.BR4`:1, `B.BR5`:1, `B.BR6`:1, `B.BR7`:1, `VB.BR8`:1
          CFI Resource `VB.BR9`:1, `VB.BR10`:1, `VB.BR11`:1, `VB.BR12`:1
          CFI Resource `VB.BR13`:1, `VB.BR14`:1, `VB.BR15`:1, VB:8, B:8, A:8
          CFI Resource PSW:8, DPL0:8, DPH0:8, R0:8, R1:8, R2:8, R3:8, R4:8, R5:8
          CFI Resource R6:8, R7:8, V0:8, V1:8, V2:8, V3:8, V4:8, V5:8, V6:8, V7:8
          CFI Resource V8:8, V9:8, V10:8, V11:8, V12:8, V13:8, V14:8, V15:8, SP:8
          CFI Resource PSPH:8, PSPL:8, PSP16:16, XSPH:8, XSPL:8, XSP16:16
          CFI VirtualResource ?RET:24
          CFI Resource ?BRET_EXT:8
          CFI VirtualResource ?RET_HIGH:8, ?RET_LOW:8
          CFI ResourceParts PSP16 PSPH, PSPL
          CFI ResourceParts XSP16 XSPH, XSPL
          CFI ResourceParts ?RET ?BRET_EXT, ?RET_HIGH, ?RET_LOW
          CFI EndNames cfiNames0
        
          CFI Common cfiCommon0 Using cfiNames0
          CFI CodeAlign 1
          CFI DataAlign -1
          CFI ReturnAddress ?RET CODE
          CFI CFA_DOVERLAY Used
          CFI CFA_IOVERLAY Used
          CFI CFA_SP SP+-3
          CFI CFA_PSP16 PSP16+0
          CFI CFA_XSP16 XSP16+0
          CFI `PSW.CY` SameValue
          CFI `B.BR0` SameValue
          CFI `B.BR1` SameValue
          CFI `B.BR2` SameValue
          CFI `B.BR3` SameValue
          CFI `B.BR4` SameValue
          CFI `B.BR5` SameValue
          CFI `B.BR6` SameValue
          CFI `B.BR7` SameValue
          CFI `VB.BR8` SameValue
          CFI `VB.BR9` SameValue
          CFI `VB.BR10` SameValue
          CFI `VB.BR11` SameValue
          CFI `VB.BR12` SameValue
          CFI `VB.BR13` SameValue
          CFI `VB.BR14` SameValue
          CFI `VB.BR15` SameValue
          CFI VB SameValue
          CFI B Undefined
          CFI A Undefined
          CFI PSW SameValue
          CFI DPL0 SameValue
          CFI DPH0 SameValue
          CFI R0 Undefined
          CFI R1 Undefined
          CFI R2 Undefined
          CFI R3 Undefined
          CFI R4 Undefined
          CFI R5 Undefined
          CFI R6 SameValue
          CFI R7 SameValue
          CFI V0 SameValue
          CFI V1 SameValue
          CFI V2 SameValue
          CFI V3 SameValue
          CFI V4 SameValue
          CFI V5 SameValue
          CFI V6 SameValue
          CFI V7 SameValue
          CFI V8 SameValue
          CFI V9 SameValue
          CFI V10 SameValue
          CFI V11 SameValue
          CFI V12 SameValue
          CFI V13 SameValue
          CFI V14 SameValue
          CFI V15 SameValue
          CFI PSPH Undefined
          CFI PSPL Undefined
          CFI XSPH Undefined
          CFI XSPL Undefined
          CFI ?RET Concat
          CFI ?BRET_EXT Frame(CFA_SP, 3)
          CFI ?RET_HIGH Frame(CFA_SP, 2)
          CFI ?RET_LOW Frame(CFA_SP, 1)
          CFI EndCommon cfiCommon0
        
HalAdcRead          SYMBOL "HalAdcRead"
`??HalAdcRead::?relay` SYMBOL "?relay", HalAdcRead
MAC_MlmeSetReq      SYMBOL "MAC_MlmeSetReq"
`??MAC_MlmeSetReq::?relay` SYMBOL "?relay", MAC_MlmeSetReq
MT_BuildAndSendZToolResponse SYMBOL "MT_BuildAndSendZToolResponse"
`??MT_BuildAndSendZToolResponse::?relay` SYMBOL "?relay", MT_BuildAndSendZToolResponse
Node_auth_uart_msg_process SYMBOL "Node_auth_uart_msg_process"
`??Node_auth_uart_msg_process::?relay` SYMBOL "?relay", Node_auth_uart_msg_process
Onboard_rand        SYMBOL "Onboard_rand"
`??Onboard_rand::?relay` SYMBOL "?relay", Onboard_rand
ZMacGetReq          SYMBOL "ZMacGetReq"
`??ZMacGetReq::?relay` SYMBOL "?relay", ZMacGetReq
ZMacSetReq          SYMBOL "ZMacSetReq"
`??ZMacSetReq::?relay` SYMBOL "?relay", ZMacSetReq
macRadioSetTxPower  SYMBOL "macRadioSetTxPower"
`??macRadioSetTxPower::?relay` SYMBOL "?relay", macRadioSetTxPower
osal_ConvertUTCSecs SYMBOL "osal_ConvertUTCSecs"
`??osal_ConvertUTCSecs::?relay` SYMBOL "?relay", osal_ConvertUTCSecs
osal_ConvertUTCTime SYMBOL "osal_ConvertUTCTime"
`??osal_ConvertUTCTime::?relay` SYMBOL "?relay", osal_ConvertUTCTime
osal_buffer_uint32  SYMBOL "osal_buffer_uint32"
`??osal_buffer_uint32::?relay` SYMBOL "?relay", osal_buffer_uint32
osal_build_uint16   SYMBOL "osal_build_uint16"
`??osal_build_uint16::?relay` SYMBOL "?relay", osal_build_uint16
osal_build_uint32   SYMBOL "osal_build_uint32"
`??osal_build_uint32::?relay` SYMBOL "?relay", osal_build_uint32
osal_getClock       SYMBOL "osal_getClock"
`??osal_getClock::?relay` SYMBOL "?relay", osal_getClock
osal_mem_alloc      SYMBOL "osal_mem_alloc"
`??osal_mem_alloc::?relay` SYMBOL "?relay", osal_mem_alloc
osal_mem_free       SYMBOL "osal_mem_free"
`??osal_mem_free::?relay` SYMBOL "?relay", osal_mem_free
osal_memcpy         SYMBOL "osal_memcpy"
`??osal_memcpy::?relay` SYMBOL "?relay", osal_memcpy
osal_memset         SYMBOL "osal_memset"
`??osal_memset::?relay` SYMBOL "?relay", osal_memset
osal_msg_allocate   SYMBOL "osal_msg_allocate"
`??osal_msg_allocate::?relay` SYMBOL "?relay", osal_msg_allocate
osal_msg_send       SYMBOL "osal_msg_send"
`??osal_msg_send::?relay` SYMBOL "?relay", osal_msg_send
osal_nv_delete      SYMBOL "osal_nv_delete"
`??osal_nv_delete::?relay` SYMBOL "?relay", osal_nv_delete
osal_nv_item_init   SYMBOL "osal_nv_item_init"
`??osal_nv_item_init::?relay` SYMBOL "?relay", osal_nv_item_init
osal_nv_item_len    SYMBOL "osal_nv_item_len"
`??osal_nv_item_len::?relay` SYMBOL "?relay", osal_nv_item_len
osal_nv_read        SYMBOL "osal_nv_read"
`??osal_nv_read::?relay` SYMBOL "?relay", osal_nv_read
osal_nv_write       SYMBOL "osal_nv_write"
`??osal_nv_write::?relay` SYMBOL "?relay", osal_nv_write
osal_setClock       SYMBOL "osal_setClock"
`??osal_setClock::?relay` SYMBOL "?relay", osal_setClock
osal_start_timerEx  SYMBOL "osal_start_timerEx"
`??osal_start_timerEx::?relay` SYMBOL "?relay", osal_start_timerEx
osal_stop_timerEx   SYMBOL "osal_stop_timerEx"
`??osal_stop_timerEx::?relay` SYMBOL "?relay", osal_stop_timerEx
zgSetItem           SYMBOL "zgSetItem"
`??zgSetItem::?relay` SYMBOL "?relay", zgSetItem
MT_SysAdcRead       SYMBOL "MT_SysAdcRead"
`??MT_SysAdcRead::?relay` SYMBOL "?relay", MT_SysAdcRead
MT_SysBroadCastTransfer SYMBOL "MT_SysBroadCastTransfer"
`??MT_SysBroadCastTransfer::?relay` SYMBOL "?relay", MT_SysBroadCastTransfer
MT_SysCommandProcessing SYMBOL "MT_SysCommandProcessing"
`??MT_SysCommandProcessing::?relay` SYMBOL "?relay", MT_SysCommandProcessing
MT_SysGetExtAddr    SYMBOL "MT_SysGetExtAddr"
`??MT_SysGetExtAddr::?relay` SYMBOL "?relay", MT_SysGetExtAddr
MT_SysGetUtcTime    SYMBOL "MT_SysGetUtcTime"
`??MT_SysGetUtcTime::?relay` SYMBOL "?relay", MT_SysGetUtcTime
MT_SysGpio          SYMBOL "MT_SysGpio"
`??MT_SysGpio::?relay` SYMBOL "?relay", MT_SysGpio
MT_SysGroupTransfer SYMBOL "MT_SysGroupTransfer"
`??MT_SysGroupTransfer::?relay` SYMBOL "?relay", MT_SysGroupTransfer
MT_SysOsalNVDelete  SYMBOL "MT_SysOsalNVDelete"
`??MT_SysOsalNVDelete::?relay` SYMBOL "?relay", MT_SysOsalNVDelete
MT_SysOsalNVItemInit SYMBOL "MT_SysOsalNVItemInit"
`??MT_SysOsalNVItemInit::?relay` SYMBOL "?relay", MT_SysOsalNVItemInit
MT_SysOsalNVLength  SYMBOL "MT_SysOsalNVLength"
`??MT_SysOsalNVLength::?relay` SYMBOL "?relay", MT_SysOsalNVLength
MT_SysOsalNVRead    SYMBOL "MT_SysOsalNVRead"
`??MT_SysOsalNVRead::?relay` SYMBOL "?relay", MT_SysOsalNVRead
MT_SysOsalNVWrite   SYMBOL "MT_SysOsalNVWrite"
`??MT_SysOsalNVWrite::?relay` SYMBOL "?relay", MT_SysOsalNVWrite
MT_SysOsalStartTimer SYMBOL "MT_SysOsalStartTimer"
`??MT_SysOsalStartTimer::?relay` SYMBOL "?relay", MT_SysOsalStartTimer
MT_SysOsalStopTimer SYMBOL "MT_SysOsalStopTimer"
`??MT_SysOsalStopTimer::?relay` SYMBOL "?relay", MT_SysOsalStopTimer
MT_SysOsalTimerExpired SYMBOL "MT_SysOsalTimerExpired"
`??MT_SysOsalTimerExpired::?relay` SYMBOL "?relay", MT_SysOsalTimerExpired
MT_SysP2PTransfer   SYMBOL "MT_SysP2PTransfer"
`??MT_SysP2PTransfer::?relay` SYMBOL "?relay", MT_SysP2PTransfer
MT_SysPing          SYMBOL "MT_SysPing"
`??MT_SysPing::?relay` SYMBOL "?relay", MT_SysPing
MT_SysRandom        SYMBOL "MT_SysRandom"
`??MT_SysRandom::?relay` SYMBOL "?relay", MT_SysRandom
MT_SysReset         SYMBOL "MT_SysReset"
`??MT_SysReset::?relay` SYMBOL "?relay", MT_SysReset
MT_SysResetInd      SYMBOL "MT_SysResetInd"
`??MT_SysResetInd::?relay` SYMBOL "?relay", MT_SysResetInd
MT_SysSetExtAddr    SYMBOL "MT_SysSetExtAddr"
`??MT_SysSetExtAddr::?relay` SYMBOL "?relay", MT_SysSetExtAddr
MT_SysSetTxPower    SYMBOL "MT_SysSetTxPower"
`??MT_SysSetTxPower::?relay` SYMBOL "?relay", MT_SysSetTxPower
MT_SysSetUtcTime    SYMBOL "MT_SysSetUtcTime"
`??MT_SysSetUtcTime::?relay` SYMBOL "?relay", MT_SysSetUtcTime
MT_SysStackTune     SYMBOL "MT_SysStackTune"
`??MT_SysStackTune::?relay` SYMBOL "?relay", MT_SysStackTune
MT_SysVersion       SYMBOL "MT_SysVersion"
`??MT_SysVersion::?relay` SYMBOL "?relay", MT_SysVersion
powerOffSoc         SYMBOL "powerOffSoc"
`??powerOffSoc::?relay` SYMBOL "?relay", powerOffSoc

        EXTERN `??HalAdcRead::?relay`
        FUNCTION `??HalAdcRead::?relay`,00H
        EXTERN `??MAC_MlmeSetReq::?relay`
        FUNCTION `??MAC_MlmeSetReq::?relay`,00H
        EXTERN `??MT_BuildAndSendZToolResponse::?relay`
        FUNCTION `??MT_BuildAndSendZToolResponse::?relay`,00H
        EXTERN `??Node_auth_uart_msg_process::?relay`
        FUNCTION `??Node_auth_uart_msg_process::?relay`,00H
        EXTERN `??Onboard_rand::?relay`
        FUNCTION `??Onboard_rand::?relay`,00H
        EXTERN `??ZMacGetReq::?relay`
        FUNCTION `??ZMacGetReq::?relay`,00H
        EXTERN `??ZMacSetReq::?relay`
        FUNCTION `??ZMacSetReq::?relay`,00H
        EXTERN `??macRadioSetTxPower::?relay`
        FUNCTION `??macRadioSetTxPower::?relay`,00H
        EXTERN `??osal_ConvertUTCSecs::?relay`
        FUNCTION `??osal_ConvertUTCSecs::?relay`,00H
        EXTERN `??osal_ConvertUTCTime::?relay`
        FUNCTION `??osal_ConvertUTCTime::?relay`,00H
        EXTERN `??osal_buffer_uint32::?relay`
        FUNCTION `??osal_buffer_uint32::?relay`,00H
        EXTERN `??osal_build_uint16::?relay`
        FUNCTION `??osal_build_uint16::?relay`,00H
        EXTERN `??osal_build_uint32::?relay`
        FUNCTION `??osal_build_uint32::?relay`,00H
        EXTERN `??osal_getClock::?relay`
        FUNCTION `??osal_getClock::?relay`,00H
        EXTERN `??osal_mem_alloc::?relay`
        FUNCTION `??osal_mem_alloc::?relay`,00H
        EXTERN `??osal_mem_free::?relay`
        FUNCTION `??osal_mem_free::?relay`,00H
        EXTERN `??osal_memcpy::?relay`
        FUNCTION `??osal_memcpy::?relay`,00H
        EXTERN `??osal_memset::?relay`
        FUNCTION `??osal_memset::?relay`,00H
        EXTERN `??osal_msg_allocate::?relay`
        FUNCTION `??osal_msg_allocate::?relay`,00H
        EXTERN `??osal_msg_send::?relay`
        FUNCTION `??osal_msg_send::?relay`,00H
        EXTERN `??osal_nv_delete::?relay`
        FUNCTION `??osal_nv_delete::?relay`,00H
        EXTERN `??osal_nv_item_init::?relay`
        FUNCTION `??osal_nv_item_init::?relay`,00H
        EXTERN `??osal_nv_item_len::?relay`
        FUNCTION `??osal_nv_item_len::?relay`,00H
        EXTERN `??osal_nv_read::?relay`
        FUNCTION `??osal_nv_read::?relay`,00H
        EXTERN `??osal_nv_write::?relay`
        FUNCTION `??osal_nv_write::?relay`,00H
        EXTERN `??osal_setClock::?relay`
        FUNCTION `??osal_setClock::?relay`,00H
        EXTERN `??osal_start_timerEx::?relay`
        FUNCTION `??osal_start_timerEx::?relay`,00H
        EXTERN `??osal_stop_timerEx::?relay`
        FUNCTION `??osal_stop_timerEx::?relay`,00H
        EXTERN `??zgSetItem::?relay`
        FUNCTION `??zgSetItem::?relay`,00H
        EXTERN GenericApp_TaskID
        EXTERN HalAdcRead
        FUNCTION HalAdcRead,0202H
        ARGFRAME ISTACK, 0, STACK
        ARGFRAME PSTACK, 0, STACK
        ARGFRAME XSTACK, 18, STACK
        ARGFRAME IOVERLAY, 0, STATIC
        ARGFRAME DOVERLAY, 0, STATIC
        EXTERN MAC_MlmeSetReq
        FUNCTION MAC_MlmeSetReq,0202H
        ARGFRAME ISTACK, 0, STACK
        ARGFRAME PSTACK, 0, STACK
        ARGFRAME XSTACK, 11, STACK
        ARGFRAME IOVERLAY, 0, STATIC
        ARGFRAME DOVERLAY, 0, STATIC
        EXTERN MTVersionString
        EXTERN MT_BuildAndSendZToolResponse
        FUNCTION MT_BuildAndSendZToolResponse,0202H
        ARGFRAME ISTACK, 2, STACK
        ARGFRAME PSTACK, 0, STACK
        ARGFRAME XSTACK, 28, STACK
        ARGFRAME IOVERLAY, 0, STATIC
        ARGFRAME DOVERLAY, 0, STATIC
        EXTERN MT_TaskID
        EXTERN Node_auth_uart_msg_process
        FUNCTION Node_auth_uart_msg_process,0202H
        ARGFRAME ISTACK, 0, STACK
        ARGFRAME PSTACK, 0, STACK
        ARGFRAME XSTACK, 11, STACK
        ARGFRAME IOVERLAY, 0, STATIC
        ARGFRAME DOVERLAY, 0, STATIC
        EXTERN Onboard_rand
        FUNCTION Onboard_rand,0202H
        ARGFRAME ISTACK, 0, STACK
        ARGFRAME PSTACK, 0, STACK
        ARGFRAME XSTACK, 12, STACK
        ARGFRAME IOVERLAY, 0, STATIC
        ARGFRAME DOVERLAY, 0, STATIC
        EXTERN Onboard_soft_reset
        FUNCTION Onboard_soft_reset,0202H
        ARGFRAME ISTACK, 0, STACK
        ARGFRAME PSTACK, 0, STACK
        ARGFRAME XSTACK, 9, STACK
        ARGFRAME IOVERLAY, 0, STATIC
        ARGFRAME DOVERLAY, 0, STATIC
        EXTERN ZMacGetReq
        FUNCTION ZMacGetReq,0202H
        ARGFRAME ISTACK, 2, STACK
        ARGFRAME PSTACK, 0, STACK
        ARGFRAME XSTACK, 10, STACK
        ARGFRAME IOVERLAY, 0, STATIC
        ARGFRAME DOVERLAY, 0, STATIC
        EXTERN ZMacSetReq
        FUNCTION ZMacSetReq,0202H
        ARGFRAME ISTACK, 0, STACK
        ARGFRAME PSTACK, 0, STACK
        ARGFRAME XSTACK, 21, STACK
        ARGFRAME IOVERLAY, 0, STATIC
        ARGFRAME DOVERLAY, 0, STATIC
        EXTERN macRadioSetTxPower
        FUNCTION macRadioSetTxPower,0202H
        ARGFRAME ISTACK, 0, STACK
        ARGFRAME PSTACK, 0, STACK
        ARGFRAME XSTACK, 11, STACK
        ARGFRAME IOVERLAY, 0, STATIC
        ARGFRAME DOVERLAY, 0, STATIC
        EXTERN osal_ConvertUTCSecs
        FUNCTION osal_ConvertUTCSecs,0202H
        ARGFRAME ISTACK, 0, STACK
        ARGFRAME PSTACK, 0, STACK
        ARGFRAME XSTACK, 28, STACK
        ARGFRAME IOVERLAY, 0, STATIC
        ARGFRAME DOVERLAY, 0, STATIC
        EXTERN osal_ConvertUTCTime
        FUNCTION osal_ConvertUTCTime,0202H
        ARGFRAME ISTACK, 0, STACK
        ARGFRAME PSTACK, 0, STACK
        ARGFRAME XSTACK, 30, STACK
        ARGFRAME IOVERLAY, 0, STATIC
        ARGFRAME DOVERLAY, 0, STATIC
        EXTERN osal_buffer_uint32
        FUNCTION osal_buffer_uint32,0202H
        ARGFRAME ISTACK, 0, STACK
        ARGFRAME PSTACK, 0, STACK
        ARGFRAME XSTACK, 30, STACK
        ARGFRAME IOVERLAY, 0, STATIC
        ARGFRAME DOVERLAY, 0, STATIC
        EXTERN osal_build_uint16
        FUNCTION osal_build_uint16,0202H
        ARGFRAME ISTACK, 0, STACK
        ARGFRAME PSTACK, 0, STACK
        ARGFRAME XSTACK, 28, STACK
        ARGFRAME IOVERLAY, 0, STATIC
        ARGFRAME DOVERLAY, 0, STATIC
        EXTERN osal_build_uint32
        FUNCTION osal_build_uint32,0202H
        ARGFRAME ISTACK, 0, STACK
        ARGFRAME PSTACK, 0, STACK
        ARGFRAME XSTACK, 28, STACK
        ARGFRAME IOVERLAY, 0, STATIC
        ARGFRAME DOVERLAY, 0, STATIC
        EXTERN osal_getClock
        FUNCTION osal_getClock,0202H
        ARGFRAME ISTACK, 0, STACK
        ARGFRAME PSTACK, 0, STACK
        ARGFRAME XSTACK, 26, STACK
        ARGFRAME IOVERLAY, 0, STATIC
        ARGFRAME DOVERLAY, 0, STATIC
        EXTERN osal_mem_alloc
        FUNCTION osal_mem_alloc,0202H
        ARGFRAME ISTACK, 0, STACK
        ARGFRAME PSTACK, 0, STACK
        ARGFRAME XSTACK, 26, STACK
        ARGFRAME IOVERLAY, 0, STATIC
        ARGFRAME DOVERLAY, 0, STATIC
        EXTERN osal_mem_free
        FUNCTION osal_mem_free,0202H
        ARGFRAME ISTACK, 0, STACK
        ARGFRAME PSTACK, 0, STACK
        ARGFRAME XSTACK, 26, STACK
        ARGFRAME IOVERLAY, 0, STATIC
        ARGFRAME DOVERLAY, 0, STATIC
        EXTERN osal_memcpy
        FUNCTION osal_memcpy,0202H
        ARGFRAME ISTACK, 0, STACK
        ARGFRAME PSTACK, 0, STACK
        ARGFRAME XSTACK, 20, STACK
        ARGFRAME IOVERLAY, 0, STATIC
        ARGFRAME DOVERLAY, 0, STATIC
        EXTERN osal_memset
        FUNCTION osal_memset,0202H
        ARGFRAME ISTACK, 0, STACK
        ARGFRAME PSTACK, 0, STACK
        ARGFRAME XSTACK, 26, STACK
        ARGFRAME IOVERLAY, 0, STATIC
        ARGFRAME DOVERLAY, 0, STATIC
        EXTERN osal_msg_allocate
        FUNCTION osal_msg_allocate,0202H
        ARGFRAME ISTACK, 0, STACK
        ARGFRAME PSTACK, 0, STACK
        ARGFRAME XSTACK, 17, STACK
        ARGFRAME IOVERLAY, 0, STATIC
        ARGFRAME DOVERLAY, 0, STATIC
        EXTERN osal_msg_send
        FUNCTION osal_msg_send,0202H
        ARGFRAME ISTACK, 0, STACK
        ARGFRAME PSTACK, 0, STACK
        ARGFRAME XSTACK, 17, STACK
        ARGFRAME IOVERLAY, 0, STATIC
        ARGFRAME DOVERLAY, 0, STATIC
        EXTERN osal_nv_delete
        FUNCTION osal_nv_delete,0202H
        ARGFRAME ISTACK, 0, STACK
        ARGFRAME PSTACK, 0, STACK
        ARGFRAME XSTACK, 13, STACK
        ARGFRAME IOVERLAY, 0, STATIC
        ARGFRAME DOVERLAY, 0, STATIC
        EXTERN osal_nv_item_init
        FUNCTION osal_nv_item_init,0202H
        ARGFRAME ISTACK, 0, STACK
        ARGFRAME PSTACK, 0, STACK
        ARGFRAME XSTACK, 19, STACK
        ARGFRAME IOVERLAY, 0, STATIC
        ARGFRAME DOVERLAY, 0, STATIC
        EXTERN osal_nv_item_len
        FUNCTION osal_nv_item_len,0202H
        ARGFRAME ISTACK, 0, STACK
        ARGFRAME PSTACK, 0, STACK
        ARGFRAME XSTACK, 26, STACK
        ARGFRAME IOVERLAY, 0, STATIC
        ARGFRAME DOVERLAY, 0, STATIC
        EXTERN osal_nv_read
        FUNCTION osal_nv_read,0202H
        ARGFRAME ISTACK, 0, STACK
        ARGFRAME PSTACK, 0, STACK
        ARGFRAME XSTACK, 30, STACK
        ARGFRAME IOVERLAY, 0, STATIC
        ARGFRAME DOVERLAY, 0, STATIC
        EXTERN osal_nv_write
        FUNCTION osal_nv_write,0202H
        ARGFRAME ISTACK, 0, STACK
        ARGFRAME PSTACK, 0, STACK
        ARGFRAME XSTACK, 25, STACK
        ARGFRAME IOVERLAY, 0, STATIC
        ARGFRAME DOVERLAY, 0, STATIC
        EXTERN osal_setClock
        FUNCTION osal_setClock,0202H
        ARGFRAME ISTACK, 0, STACK
        ARGFRAME PSTACK, 0, STACK
        ARGFRAME XSTACK, 28, STACK
        ARGFRAME IOVERLAY, 0, STATIC
        ARGFRAME DOVERLAY, 0, STATIC
        EXTERN osal_start_timerEx
        FUNCTION osal_start_timerEx,0202H
        ARGFRAME ISTACK, 0, STACK
        ARGFRAME PSTACK, 0, STACK
        ARGFRAME XSTACK, 21, STACK
        ARGFRAME IOVERLAY, 0, STATIC
        ARGFRAME DOVERLAY, 0, STATIC
        EXTERN osal_stop_timerEx
        FUNCTION osal_stop_timerEx,0202H
        ARGFRAME ISTACK, 0, STACK
        ARGFRAME PSTACK, 0, STACK
        ARGFRAME XSTACK, 12, STACK
        ARGFRAME IOVERLAY, 0, STATIC
        ARGFRAME DOVERLAY, 0, STATIC
        EXTERN zgSetItem
        FUNCTION zgSetItem,0202H
        ARGFRAME ISTACK, 0, STACK
        ARGFRAME PSTACK, 0, STACK
        ARGFRAME XSTACK, 23, STACK
        ARGFRAME IOVERLAY, 0, STATIC
        ARGFRAME DOVERLAY, 0, STATIC

// C:\Texas Instruments\Z-Stack Mesh 1.0.0_chaokw_20160317\Z-Stack Mesh 1.0.0_chaokw_20160316\Z-Stack Mesh 1.0.0_LCDOK\Z-Stack Mesh 1.0.0\Components\mt\MT_SYS.c
//    1 /******************************************************************************
//    2   Filename:       MT_SYS.c
//    3   Revised:        $Date: 2014-08-04 15:38:03 -0700 (Mon, 04 Aug 2014) $
//    4   Revision:       $Revision: 39653 $
//    5 
//    6   Description:   MonitorTest functions for SYS commands.
//    7 
//    8   Copyright 2007-2014 Texas Instruments Incorporated. All rights reserved.
//    9 
//   10   IMPORTANT: Your use of this Software is limited to those specific rights
//   11   granted under the terms of a software license agreement between the user
//   12   who downloaded the software, his/her employer (which must be your employer)
//   13   and Texas Instruments Incorporated (the "License"). You may not use this
//   14   Software unless you agree to abide by the terms of the License. The License
//   15   limits your use, and you acknowledge, that the Software may not be modified,
//   16   copied or distributed unless embedded on a Texas Instruments microcontroller
//   17   or used solely and exclusively in conjunction with a Texas Instruments radio
//   18   frequency transceiver, which is integrated into your product. Other than for
//   19   the foregoing purpose, you may not use, reproduce, copy, prepare derivative
//   20   works of, modify, distribute, perform, display or sell this Software and/or
//   21   its documentation for any purpose.
//   22 
//   23   YOU FURTHER ACKNOWLEDGE AND AGREE THAT THE SOFTWARE AND DOCUMENTATION ARE
//   24   PROVIDED "AS IS" WITHOUT WARRANTY OF ANY KIND, EITHER EXPRESS OR IMPLIED,
//   25   INCLUDING WITHOUT LIMITATION, ANY WARRANTY OF MERCHANTABILITY, TITLE,
//   26   NON-INFRINGEMENT AND FITNESS FOR A PARTICULAR PURPOSE. IN NO EVENT SHALL
//   27   TEXAS INSTRUMENTS OR ITS LICENSORS BE LIABLE OR OBLIGATED UNDER CONTRACT,
//   28   NEGLIGENCE, STRICT LIABILITY, CONTRIBUTION, BREACH OF WARRANTY, OR OTHER
//   29   LEGAL EQUITABLE THEORY ANY DIRECT OR INDIRECT DAMAGES OR EXPENSES
//   30   INCLUDING BUT NOT LIMITED TO ANY INCIDENTAL, SPECIAL, INDIRECT, PUNITIVE
//   31   OR CONSEQUENTIAL DAMAGES, LOST PROFITS OR LOST DATA, COST OF PROCUREMENT
//   32   OF SUBSTITUTE GOODS, TECHNOLOGY, SERVICES, OR ANY CLAIMS BY THIRD PARTIES
//   33   (INCLUDING BUT NOT LIMITED TO ANY DEFENSE THEREOF), OR OTHER SIMILAR COSTS.
//   34 
//   35   Should you have any questions regarding your right to use this Software,
//   36   contact Texas Instruments Incorporated at www.TI.com.
//   37 
//   38  *****************************************************************************/
//   39 
//   40 /***************************************************************************************************
//   41  * INCLUDES
//   42  ***************************************************************************************************/
//   43 #include "ZComDef.h"
//   44 #include "MT.h"
//   45 #include "MT_SYS.h"
//   46 #include "MT_VERSION.h"
//   47 #include "OSAL.h"
//   48 #include "OSAL_NV.h"
//   49 #include "Onboard.h"  /* This is here because RAM read/write macros need it */

        ASEGN SFR_AN:DATA:NOROOT,0a8H
// union <unnamed> volatile __sfr _A_IEN0
_A_IEN0:
        DATA8
        DS 1

        ASEGN SFR_AN:DATA:NOROOT,0c9H
// unsigned char volatile __sfr WDCTL
WDCTL:
        DATA8
        DS 1
//   50 #include "hal_adc.h"
//   51 #include "OSAL_Clock.h"
//   52 #include "mac_low_level.h"
//   53 #include "ZMAC.h"
//   54 #include "mac_radio_defs.h"
//   55 #if defined ( MT_SYS_JAMMER_FEATURE )
//   56   #include "mac_rx.h"
//   57 #endif
//   58 #if !defined(CC253X_MACNP)
//   59   #include "ZGlobals.h"
//   60 #endif
//   61 #if (defined INCLUDE_REVISION_INFORMATION) && ((defined MAKE_CRC_SHDW) || (defined FAKE_CRC_SHDW)) //built for bootloader
//   62   #include "hal_flash.h"
//   63   #include "sb_shared.h"
//   64 #endif
//   65 #include "ZDiags.h"
//   66 #include "MT_UART.h"
//   67 //chaokw
//   68 #include "AF.h"
//   69 #include "GenericApp.h"
//   70 #include "NodeAuth.h"
//   71 #include "ZDSecMgr.h"
//   72 
//   73 
//   74 /***************************************************************************************************
//   75  * MACROS
//   76  ***************************************************************************************************/
//   77 
//   78 /* Max possible MT response length, limited by TX buffer size and sizeof uint8 */
//   79 #define MT_MAX_RSP_LEN  ( MIN( MT_UART_DEFAULT_MAX_TX_BUFF, 255 ) )
//   80 
//   81 /* Max possible MT response data length, MT protocol overhead */
//   82 #define MT_MAX_RSP_DATA_LEN  ( (MT_MAX_RSP_LEN - 1) - SPI_0DATA_MSG_LEN )
//   83   
//   84 #define MT_SYS_DEVICE_INFO_RESPONSE_LEN 14
//   85 
//   86 #if !defined HAL_GPIO || !HAL_GPIO
//   87 #define GPIO_DIR_IN(IDX)
//   88 #define GPIO_DIR_OUT(IDX)
//   89 #define GPIO_TRI(IDX)
//   90 #define GPIO_PULL_UP(IDX)
//   91 #define GPIO_PULL_DN(IDX)
//   92 #define GPIO_SET(IDX)
//   93 #define GPIO_CLR(IDX)
//   94 #define GPIO_TOG(IDX)
//   95 #define GPIO_GET(IDX) 0
//   96 #define GPIO_HiD_SET() (val = 0)
//   97 #define GPIO_HiD_CLR() (val = 0)
//   98 #endif
//   99 
//  100 #if defined ( MT_SYS_SNIFFER_FEATURE )
//  101 #if defined ( HAL_MCU_CC2530 ) && !defined ( HAL_BOARD_CC2530USB )
//  102   // This only work with the CC253x chips
//  103   #define HAL_BOARD_ENABLE_INTEGRATED_SNIFFER() st         \ 
//  104   (                                                                                                                                                                                                                                   \ 
//  105     OBSSEL3 = 0xFD;                                        \ 
//  106     OBSSEL4 = 0xFC;                                        \ 
//  107     RFC_OBS_CTRL1 = 0x09; /* 9 - sniff clk */              \ 
//  108     RFC_OBS_CTRL2 = 0x08; /* 8 - sniff data */             \ 
//  109     MDMTEST1 |= 0x04;                                      \ 
//  110   )
//  111 
//  112   // This only work with the CC253x chips
//  113   #define HAL_BOARD_DISABLE_INTEGRATED_SNIFFER() st        \ 
//  114   (                                                                                                                                                                                                                                   \ 
//  115     OBSSEL3 &= ~0x80;                                                                                                                                                                             \ 
//  116     OBSSEL4 &= ~0x80;                                                                                                                                                                             \ 
//  117     RFC_OBS_CTRL1 = 0x00; /* 0 - constant value 0 to rfc_obs_sigs[1] */                                                                                   \ 
//  118     RFC_OBS_CTRL2 = 0x00; /* 0 - constant value 0 to rfc_obs_sigs[2] */                                                                                   \ 
//  119     MDMTEST1 &= ~0x04;                                                                                                                                                         \ 
//  120   )
//  121 #else
//  122   #define HAL_BOARD_ENABLE_INTEGRATED_SNIFFER() { status = FAILURE; }
//  123   #define HAL_BOARD_DISABLE_INTEGRATED_SNIFFER() { status = FAILURE; }
//  124 #endif
//  125 #endif // MT_SYS_SNIFFER_FEATURE
//  126 
//  127 #define RESET_HARD     0
//  128 #define RESET_SOFT     1
//  129 #define RESET_SHUTDOWN 2
//  130 
//  131 /***************************************************************************************************
//  132  * CONSTANTS
//  133  ***************************************************************************************************/
//  134 
//  135 #if !defined MT_SYS_OSAL_NV_READ_CERTIFICATE_DATA
//  136 #define MT_SYS_OSAL_NV_READ_CERTIFICATE_DATA  FALSE
//  137 #endif
//  138 

        RSEG XDATA_ROM_C:CONST:REORDER:NOROOT(0)
        DATA8
//  139 const uint16 MT_SysOsalEventId [] = {
MT_SysOsalEventId:
        DATA16
        DW 2048
        DW 1024
        DW 512
        DW 256
//  140                                       MT_SYS_OSAL_EVENT_0,
//  141                                       MT_SYS_OSAL_EVENT_1,
//  142                                       MT_SYS_OSAL_EVENT_2,
//  143                                       MT_SYS_OSAL_EVENT_3
//  144                                     };
//  145 
//  146 typedef enum {
//  147   GPIO_DIR,
//  148   GPIO_TRI,
//  149   GPIO_SET,
//  150   GPIO_CLR,
//  151   GPIO_TOG,
//  152   GPIO_GET,
//  153   GPIO_HiD = 0x12
//  154 } GPIO_Op_t;
//  155 
//  156 #if defined ( MT_SYS_JAMMER_FEATURE )
//  157   #define JAMMER_CHECK_EVT                           0x0001
//  158 
//  159   #if !defined ( JAMMER_DETECT_CONTINUOUS_EVENTS )
//  160     #define JAMMER_DETECT_CONTINUOUS_EVENTS          150
//  161   #endif
//  162   #if !defined ( JAMMER_DETECT_PERIOD_TIME )
//  163     #define JAMMER_DETECT_PERIOD_TIME                100  // In milliseconds
//  164   #endif
//  165   #if !defined ( JAMMER_HIGH_NOISE_LEVEL )
//  166     #define JAMMER_HIGH_NOISE_LEVEL                  -65
//  167   #endif
//  168 #endif // MT_SYS_JAMMER_FEATURE
//  169 
//  170 /***************************************************************************************************
//  171  * LOCAL VARIABLES
//  172  ***************************************************************************************************/
//  173 #if defined ( MT_SYS_JAMMER_FEATURE )
//  174   static uint8 jammerTaskID;
//  175   static uint16 jammerContinuousEvents = JAMMER_DETECT_CONTINUOUS_EVENTS;
//  176   static uint16 jammerDetections = JAMMER_DETECT_CONTINUOUS_EVENTS;
//  177   static int8 jammerHighNoiseLevel = JAMMER_HIGH_NOISE_LEVEL;
//  178   static uint32 jammerDetectPeriodTime = JAMMER_DETECT_PERIOD_TIME;
//  179 #endif 
//  180   
//  181 #if defined ( MT_SYS_SNIFFER_FEATURE )
//  182 static uint8 sniffer = FALSE;
//  183 #endif
//  184 
//  185 /***************************************************************************************************
//  186  * LOCAL FUNCTIONS
//  187  ***************************************************************************************************/
//  188 #if defined (MT_SYS_FUNC)
//  189 void MT_SysReset(uint8 *pBuf);
//  190 void MT_SysPing(void);
//  191 void MT_SysVersion(void);
//  192 void MT_SysSetExtAddr(uint8 *pBuf);
//  193 void MT_SysGetExtAddr(void);
//  194 void MT_SysOsalNVItemInit(uint8 *pBuf);
//  195 void MT_SysOsalNVDelete(uint8 *pBuf);
//  196 void MT_SysOsalNVLength(uint8 *pBuf);
//  197 void MT_SysOsalNVRead(uint8 *pBuf);
//  198 void MT_SysOsalNVWrite(uint8 *pBuf);
//  199 void MT_SysOsalStartTimer(uint8 *pBuf);
//  200 void MT_SysOsalStopTimer(uint8 *pBuf);
//  201 void MT_SysRandom(void);
//  202 void MT_SysAdcRead(uint8 *pBuf);
//  203 void MT_SysGpio(uint8 *pBuf);
//  204 void MT_SysStackTune(uint8 *pBuf);
//  205 void MT_SysSetUtcTime(uint8 *pBuf);
//  206 void MT_SysGetUtcTime(void);
//  207 void MT_SysSetTxPower(uint8 *pBuf);
//  208 #if defined ( MT_SYS_JAMMER_FEATURE )
//  209   void MT_SysJammerParameters( uint8 *pBuf );
//  210 #endif /* MT_SYS_JAMMER_FEATURE */
//  211 #if defined ( MT_SYS_SNIFFER_FEATURE )
//  212 void MT_SysSnifferParameters( uint8 *pBuf );
//  213 #endif /* MT_SYS_SNIFFER_FEATURE */
//  214 #if defined ( FEATURE_SYSTEM_STATS )
//  215 void MT_SysZDiagsInitStats(void);
//  216 void MT_SysZDiagsClearStats(uint8 *pBuf);
//  217 void MT_SysZDiagsGetStatsAttr(uint8 *pBuf);
//  218 void MT_SysZDiagsRestoreStatsFromNV(void);
//  219 void MT_SysZDiagsSaveStatsToNV(void);
//  220 #endif /* FEATURE_SYSTEM_STATS */
//  221 #endif /* MT_SYS_FUNC */
//  222 void powerOffSoc(void);
//  223 //chaokw
//  224 void MT_SysP2PTransfer(uint8 *pBuf);
//  225 void MT_SysGroupTransfer(uint8 *pBuf);
//  226 void MT_SysBroadCastTransfer(uint8 *pBuf);
//  227 
//  228 static void MT_SysPkgSendMsg( byte taskID, uint8 event, uint8 *pBuf, uint8 len, uint8 offset );
//  229 static void MT_SysChannelUpdate( uint8 *pBuf );
//  230 static void MT_SysMACReq( uint8 *pBuf );
//  231 static void MT_SysNWKInfoReq( uint8 *pBuf );
//  232 static void MT_SysActiveCntReq( uint8 *pBuf );
//  233 static void MT_SysGetFWVersionReq( uint8 *pBuf );
//  234 static void MT_SysFWUpdateReq( uint8 *pBuf );
//  235 static void MT_SysMultiwaySetReq( uint8 *pBuf );
//  236 static void MT_SysMultiwaySendReq( uint8 *pBuf );
//  237 
//  238 
//  239 #if defined (MT_SYS_FUNC)
//  240 /***************************************************************************************************
//  241  * @fn      MT_SysProcessing
//  242  *
//  243  * @brief   Process all the SYS commands that are issued by test tool
//  244  *
//  245  * @param   pBuf - pointer to the msg buffer
//  246  *
//  247  *          | LEN  | CMD0  | CMD1  |  DATA  |
//  248  *          |  1   |   1   |   1   |  0-255 |
//  249  *
//  250  * @return  status
//  251  ***************************************************************************************************/

        RSEG BANKED_CODE:CODE:NOROOT(0)
//  252 uint8 MT_SysCommandProcessing(uint8 *pBuf)
MT_SysCommandProcessing:
          CFI Block cfiBlock0 Using cfiCommon0
          CFI Function MT_SysCommandProcessing
        CODE
//  253 {
        FUNCALL MT_SysCommandProcessing, MT_SysReset
        LOCFRAME ISTACK, 0, STACK
        LOCFRAME PSTACK, 0, STACK
        LOCFRAME XSTACK, 10, STACK
        LOCFRAME IOVERLAY, 0, STATIC
        LOCFRAME DOVERLAY, 0, STATIC
        ARGFRAME ISTACK, 0, STACK
        ARGFRAME PSTACK, 0, STACK
        ARGFRAME XSTACK, 10, STACK
        ARGFRAME IOVERLAY, 0, STATIC
        ARGFRAME DOVERLAY, 0, STATIC
        FUNCALL MT_SysCommandProcessing, MT_SysPing
        LOCFRAME ISTACK, 0, STACK
        LOCFRAME PSTACK, 0, STACK
        LOCFRAME XSTACK, 10, STACK
        LOCFRAME IOVERLAY, 0, STATIC
        LOCFRAME DOVERLAY, 0, STATIC
        ARGFRAME ISTACK, 0, STACK
        ARGFRAME PSTACK, 0, STACK
        ARGFRAME XSTACK, 10, STACK
        ARGFRAME IOVERLAY, 0, STATIC
        ARGFRAME DOVERLAY, 0, STATIC
        FUNCALL MT_SysCommandProcessing, MT_SysVersion
        LOCFRAME ISTACK, 0, STACK
        LOCFRAME PSTACK, 0, STACK
        LOCFRAME XSTACK, 10, STACK
        LOCFRAME IOVERLAY, 0, STATIC
        LOCFRAME DOVERLAY, 0, STATIC
        ARGFRAME ISTACK, 0, STACK
        ARGFRAME PSTACK, 0, STACK
        ARGFRAME XSTACK, 10, STACK
        ARGFRAME IOVERLAY, 0, STATIC
        ARGFRAME DOVERLAY, 0, STATIC
        FUNCALL MT_SysCommandProcessing, MT_SysSetExtAddr
        LOCFRAME ISTACK, 0, STACK
        LOCFRAME PSTACK, 0, STACK
        LOCFRAME XSTACK, 10, STACK
        LOCFRAME IOVERLAY, 0, STATIC
        LOCFRAME DOVERLAY, 0, STATIC
        ARGFRAME ISTACK, 0, STACK
        ARGFRAME PSTACK, 0, STACK
        ARGFRAME XSTACK, 10, STACK
        ARGFRAME IOVERLAY, 0, STATIC
        ARGFRAME DOVERLAY, 0, STATIC
        FUNCALL MT_SysCommandProcessing, MT_SysGetExtAddr
        LOCFRAME ISTACK, 0, STACK
        LOCFRAME PSTACK, 0, STACK
        LOCFRAME XSTACK, 10, STACK
        LOCFRAME IOVERLAY, 0, STATIC
        LOCFRAME DOVERLAY, 0, STATIC
        ARGFRAME ISTACK, 0, STACK
        ARGFRAME PSTACK, 0, STACK
        ARGFRAME XSTACK, 10, STACK
        ARGFRAME IOVERLAY, 0, STATIC
        ARGFRAME DOVERLAY, 0, STATIC
        FUNCALL MT_SysCommandProcessing, MT_SysOsalNVDelete
        LOCFRAME ISTACK, 0, STACK
        LOCFRAME PSTACK, 0, STACK
        LOCFRAME XSTACK, 10, STACK
        LOCFRAME IOVERLAY, 0, STATIC
        LOCFRAME DOVERLAY, 0, STATIC
        ARGFRAME ISTACK, 0, STACK
        ARGFRAME PSTACK, 0, STACK
        ARGFRAME XSTACK, 10, STACK
        ARGFRAME IOVERLAY, 0, STATIC
        ARGFRAME DOVERLAY, 0, STATIC
        FUNCALL MT_SysCommandProcessing, MT_SysOsalNVItemInit
        LOCFRAME ISTACK, 0, STACK
        LOCFRAME PSTACK, 0, STACK
        LOCFRAME XSTACK, 10, STACK
        LOCFRAME IOVERLAY, 0, STATIC
        LOCFRAME DOVERLAY, 0, STATIC
        ARGFRAME ISTACK, 0, STACK
        ARGFRAME PSTACK, 0, STACK
        ARGFRAME XSTACK, 10, STACK
        ARGFRAME IOVERLAY, 0, STATIC
        ARGFRAME DOVERLAY, 0, STATIC
        FUNCALL MT_SysCommandProcessing, MT_SysOsalNVLength
        LOCFRAME ISTACK, 0, STACK
        LOCFRAME PSTACK, 0, STACK
        LOCFRAME XSTACK, 10, STACK
        LOCFRAME IOVERLAY, 0, STATIC
        LOCFRAME DOVERLAY, 0, STATIC
        ARGFRAME ISTACK, 0, STACK
        ARGFRAME PSTACK, 0, STACK
        ARGFRAME XSTACK, 10, STACK
        ARGFRAME IOVERLAY, 0, STATIC
        ARGFRAME DOVERLAY, 0, STATIC
        FUNCALL MT_SysCommandProcessing, MT_SysOsalNVRead
        LOCFRAME ISTACK, 0, STACK
        LOCFRAME PSTACK, 0, STACK
        LOCFRAME XSTACK, 10, STACK
        LOCFRAME IOVERLAY, 0, STATIC
        LOCFRAME DOVERLAY, 0, STATIC
        ARGFRAME ISTACK, 0, STACK
        ARGFRAME PSTACK, 0, STACK
        ARGFRAME XSTACK, 10, STACK
        ARGFRAME IOVERLAY, 0, STATIC
        ARGFRAME DOVERLAY, 0, STATIC
        FUNCALL MT_SysCommandProcessing, MT_SysOsalNVWrite
        LOCFRAME ISTACK, 0, STACK
        LOCFRAME PSTACK, 0, STACK
        LOCFRAME XSTACK, 10, STACK
        LOCFRAME IOVERLAY, 0, STATIC
        LOCFRAME DOVERLAY, 0, STATIC
        ARGFRAME ISTACK, 0, STACK
        ARGFRAME PSTACK, 0, STACK
        ARGFRAME XSTACK, 10, STACK
        ARGFRAME IOVERLAY, 0, STATIC
        ARGFRAME DOVERLAY, 0, STATIC
        FUNCALL MT_SysCommandProcessing, MT_SysOsalNVRead
        LOCFRAME ISTACK, 0, STACK
        LOCFRAME PSTACK, 0, STACK
        LOCFRAME XSTACK, 10, STACK
        LOCFRAME IOVERLAY, 0, STATIC
        LOCFRAME DOVERLAY, 0, STATIC
        ARGFRAME ISTACK, 0, STACK
        ARGFRAME PSTACK, 0, STACK
        ARGFRAME XSTACK, 10, STACK
        ARGFRAME IOVERLAY, 0, STATIC
        ARGFRAME DOVERLAY, 0, STATIC
        FUNCALL MT_SysCommandProcessing, MT_SysOsalNVWrite
        LOCFRAME ISTACK, 0, STACK
        LOCFRAME PSTACK, 0, STACK
        LOCFRAME XSTACK, 10, STACK
        LOCFRAME IOVERLAY, 0, STATIC
        LOCFRAME DOVERLAY, 0, STATIC
        ARGFRAME ISTACK, 0, STACK
        ARGFRAME PSTACK, 0, STACK
        ARGFRAME XSTACK, 10, STACK
        ARGFRAME IOVERLAY, 0, STATIC
        ARGFRAME DOVERLAY, 0, STATIC
        FUNCALL MT_SysCommandProcessing, MT_SysOsalStartTimer
        LOCFRAME ISTACK, 0, STACK
        LOCFRAME PSTACK, 0, STACK
        LOCFRAME XSTACK, 10, STACK
        LOCFRAME IOVERLAY, 0, STATIC
        LOCFRAME DOVERLAY, 0, STATIC
        ARGFRAME ISTACK, 0, STACK
        ARGFRAME PSTACK, 0, STACK
        ARGFRAME XSTACK, 10, STACK
        ARGFRAME IOVERLAY, 0, STATIC
        ARGFRAME DOVERLAY, 0, STATIC
        FUNCALL MT_SysCommandProcessing, MT_SysOsalStopTimer
        LOCFRAME ISTACK, 0, STACK
        LOCFRAME PSTACK, 0, STACK
        LOCFRAME XSTACK, 10, STACK
        LOCFRAME IOVERLAY, 0, STATIC
        LOCFRAME DOVERLAY, 0, STATIC
        ARGFRAME ISTACK, 0, STACK
        ARGFRAME PSTACK, 0, STACK
        ARGFRAME XSTACK, 10, STACK
        ARGFRAME IOVERLAY, 0, STATIC
        ARGFRAME DOVERLAY, 0, STATIC
        FUNCALL MT_SysCommandProcessing, MT_SysRandom
        LOCFRAME ISTACK, 0, STACK
        LOCFRAME PSTACK, 0, STACK
        LOCFRAME XSTACK, 10, STACK
        LOCFRAME IOVERLAY, 0, STATIC
        LOCFRAME DOVERLAY, 0, STATIC
        ARGFRAME ISTACK, 0, STACK
        ARGFRAME PSTACK, 0, STACK
        ARGFRAME XSTACK, 10, STACK
        ARGFRAME IOVERLAY, 0, STATIC
        ARGFRAME DOVERLAY, 0, STATIC
        FUNCALL MT_SysCommandProcessing, MT_SysAdcRead
        LOCFRAME ISTACK, 0, STACK
        LOCFRAME PSTACK, 0, STACK
        LOCFRAME XSTACK, 10, STACK
        LOCFRAME IOVERLAY, 0, STATIC
        LOCFRAME DOVERLAY, 0, STATIC
        ARGFRAME ISTACK, 0, STACK
        ARGFRAME PSTACK, 0, STACK
        ARGFRAME XSTACK, 10, STACK
        ARGFRAME IOVERLAY, 0, STATIC
        ARGFRAME DOVERLAY, 0, STATIC
        FUNCALL MT_SysCommandProcessing, MT_SysGpio
        LOCFRAME ISTACK, 0, STACK
        LOCFRAME PSTACK, 0, STACK
        LOCFRAME XSTACK, 10, STACK
        LOCFRAME IOVERLAY, 0, STATIC
        LOCFRAME DOVERLAY, 0, STATIC
        ARGFRAME ISTACK, 0, STACK
        ARGFRAME PSTACK, 0, STACK
        ARGFRAME XSTACK, 10, STACK
        ARGFRAME IOVERLAY, 0, STATIC
        ARGFRAME DOVERLAY, 0, STATIC
        FUNCALL MT_SysCommandProcessing, MT_SysStackTune
        LOCFRAME ISTACK, 0, STACK
        LOCFRAME PSTACK, 0, STACK
        LOCFRAME XSTACK, 10, STACK
        LOCFRAME IOVERLAY, 0, STATIC
        LOCFRAME DOVERLAY, 0, STATIC
        ARGFRAME ISTACK, 0, STACK
        ARGFRAME PSTACK, 0, STACK
        ARGFRAME XSTACK, 10, STACK
        ARGFRAME IOVERLAY, 0, STATIC
        ARGFRAME DOVERLAY, 0, STATIC
        FUNCALL MT_SysCommandProcessing, MT_SysSetUtcTime
        LOCFRAME ISTACK, 0, STACK
        LOCFRAME PSTACK, 0, STACK
        LOCFRAME XSTACK, 10, STACK
        LOCFRAME IOVERLAY, 0, STATIC
        LOCFRAME DOVERLAY, 0, STATIC
        ARGFRAME ISTACK, 0, STACK
        ARGFRAME PSTACK, 0, STACK
        ARGFRAME XSTACK, 10, STACK
        ARGFRAME IOVERLAY, 0, STATIC
        ARGFRAME DOVERLAY, 0, STATIC
        FUNCALL MT_SysCommandProcessing, MT_SysGetUtcTime
        LOCFRAME ISTACK, 0, STACK
        LOCFRAME PSTACK, 0, STACK
        LOCFRAME XSTACK, 10, STACK
        LOCFRAME IOVERLAY, 0, STATIC
        LOCFRAME DOVERLAY, 0, STATIC
        ARGFRAME ISTACK, 0, STACK
        ARGFRAME PSTACK, 0, STACK
        ARGFRAME XSTACK, 10, STACK
        ARGFRAME IOVERLAY, 0, STATIC
        ARGFRAME DOVERLAY, 0, STATIC
        FUNCALL MT_SysCommandProcessing, MT_SysSetTxPower
        LOCFRAME ISTACK, 0, STACK
        LOCFRAME PSTACK, 0, STACK
        LOCFRAME XSTACK, 10, STACK
        LOCFRAME IOVERLAY, 0, STATIC
        LOCFRAME DOVERLAY, 0, STATIC
        ARGFRAME ISTACK, 0, STACK
        ARGFRAME PSTACK, 0, STACK
        ARGFRAME XSTACK, 10, STACK
        ARGFRAME IOVERLAY, 0, STATIC
        ARGFRAME DOVERLAY, 0, STATIC
        FUNCALL MT_SysCommandProcessing, MT_SysP2PTransfer
        LOCFRAME ISTACK, 0, STACK
        LOCFRAME PSTACK, 0, STACK
        LOCFRAME XSTACK, 10, STACK
        LOCFRAME IOVERLAY, 0, STATIC
        LOCFRAME DOVERLAY, 0, STATIC
        ARGFRAME ISTACK, 0, STACK
        ARGFRAME PSTACK, 0, STACK
        ARGFRAME XSTACK, 10, STACK
        ARGFRAME IOVERLAY, 0, STATIC
        ARGFRAME DOVERLAY, 0, STATIC
        FUNCALL MT_SysCommandProcessing, MT_SysGroupTransfer
        LOCFRAME ISTACK, 0, STACK
        LOCFRAME PSTACK, 0, STACK
        LOCFRAME XSTACK, 10, STACK
        LOCFRAME IOVERLAY, 0, STATIC
        LOCFRAME DOVERLAY, 0, STATIC
        ARGFRAME ISTACK, 0, STACK
        ARGFRAME PSTACK, 0, STACK
        ARGFRAME XSTACK, 10, STACK
        ARGFRAME IOVERLAY, 0, STATIC
        ARGFRAME DOVERLAY, 0, STATIC
        FUNCALL MT_SysCommandProcessing, MT_SysBroadCastTransfer
        LOCFRAME ISTACK, 0, STACK
        LOCFRAME PSTACK, 0, STACK
        LOCFRAME XSTACK, 10, STACK
        LOCFRAME IOVERLAY, 0, STATIC
        LOCFRAME DOVERLAY, 0, STATIC
        ARGFRAME ISTACK, 0, STACK
        ARGFRAME PSTACK, 0, STACK
        ARGFRAME XSTACK, 10, STACK
        ARGFRAME IOVERLAY, 0, STATIC
        ARGFRAME DOVERLAY, 0, STATIC
        FUNCALL MT_SysCommandProcessing, MT_SysChannelUpdate
        LOCFRAME ISTACK, 0, STACK
        LOCFRAME PSTACK, 0, STACK
        LOCFRAME XSTACK, 10, STACK
        LOCFRAME IOVERLAY, 0, STATIC
        LOCFRAME DOVERLAY, 0, STATIC
        ARGFRAME ISTACK, 0, STACK
        ARGFRAME PSTACK, 0, STACK
        ARGFRAME XSTACK, 10, STACK
        ARGFRAME IOVERLAY, 0, STATIC
        ARGFRAME DOVERLAY, 0, STATIC
        FUNCALL MT_SysCommandProcessing, MT_SysMACReq
        LOCFRAME ISTACK, 0, STACK
        LOCFRAME PSTACK, 0, STACK
        LOCFRAME XSTACK, 10, STACK
        LOCFRAME IOVERLAY, 0, STATIC
        LOCFRAME DOVERLAY, 0, STATIC
        ARGFRAME ISTACK, 0, STACK
        ARGFRAME PSTACK, 0, STACK
        ARGFRAME XSTACK, 10, STACK
        ARGFRAME IOVERLAY, 0, STATIC
        ARGFRAME DOVERLAY, 0, STATIC
        FUNCALL MT_SysCommandProcessing, MT_SysActiveCntReq
        LOCFRAME ISTACK, 0, STACK
        LOCFRAME PSTACK, 0, STACK
        LOCFRAME XSTACK, 10, STACK
        LOCFRAME IOVERLAY, 0, STATIC
        LOCFRAME DOVERLAY, 0, STATIC
        ARGFRAME ISTACK, 0, STACK
        ARGFRAME PSTACK, 0, STACK
        ARGFRAME XSTACK, 10, STACK
        ARGFRAME IOVERLAY, 0, STATIC
        ARGFRAME DOVERLAY, 0, STATIC
        FUNCALL MT_SysCommandProcessing, MT_SysGetFWVersionReq
        LOCFRAME ISTACK, 0, STACK
        LOCFRAME PSTACK, 0, STACK
        LOCFRAME XSTACK, 10, STACK
        LOCFRAME IOVERLAY, 0, STATIC
        LOCFRAME DOVERLAY, 0, STATIC
        ARGFRAME ISTACK, 0, STACK
        ARGFRAME PSTACK, 0, STACK
        ARGFRAME XSTACK, 10, STACK
        ARGFRAME IOVERLAY, 0, STATIC
        ARGFRAME DOVERLAY, 0, STATIC
        FUNCALL MT_SysCommandProcessing, MT_SysFWUpdateReq
        LOCFRAME ISTACK, 0, STACK
        LOCFRAME PSTACK, 0, STACK
        LOCFRAME XSTACK, 10, STACK
        LOCFRAME IOVERLAY, 0, STATIC
        LOCFRAME DOVERLAY, 0, STATIC
        ARGFRAME ISTACK, 0, STACK
        ARGFRAME PSTACK, 0, STACK
        ARGFRAME XSTACK, 10, STACK
        ARGFRAME IOVERLAY, 0, STATIC
        ARGFRAME DOVERLAY, 0, STATIC
        FUNCALL MT_SysCommandProcessing, MT_SysMultiwaySetReq
        LOCFRAME ISTACK, 0, STACK
        LOCFRAME PSTACK, 0, STACK
        LOCFRAME XSTACK, 10, STACK
        LOCFRAME IOVERLAY, 0, STATIC
        LOCFRAME DOVERLAY, 0, STATIC
        ARGFRAME ISTACK, 0, STACK
        ARGFRAME PSTACK, 0, STACK
        ARGFRAME XSTACK, 10, STACK
        ARGFRAME IOVERLAY, 0, STATIC
        ARGFRAME DOVERLAY, 0, STATIC
        FUNCALL MT_SysCommandProcessing, MT_SysMultiwaySendReq
        LOCFRAME ISTACK, 0, STACK
        LOCFRAME PSTACK, 0, STACK
        LOCFRAME XSTACK, 10, STACK
        LOCFRAME IOVERLAY, 0, STATIC
        LOCFRAME DOVERLAY, 0, STATIC
        ARGFRAME ISTACK, 0, STACK
        ARGFRAME PSTACK, 0, STACK
        ARGFRAME XSTACK, 10, STACK
        ARGFRAME IOVERLAY, 0, STATIC
        ARGFRAME DOVERLAY, 0, STATIC
        FUNCALL MT_SysCommandProcessing, Node_auth_uart_msg_process
        LOCFRAME ISTACK, 0, STACK
        LOCFRAME PSTACK, 0, STACK
        LOCFRAME XSTACK, 11, STACK
        LOCFRAME IOVERLAY, 0, STATIC
        LOCFRAME DOVERLAY, 0, STATIC
        ARGFRAME ISTACK, 0, STACK
        ARGFRAME PSTACK, 0, STACK
        ARGFRAME XSTACK, 11, STACK
        ARGFRAME IOVERLAY, 0, STATIC
        ARGFRAME DOVERLAY, 0, STATIC
        FUNCALL MT_SysCommandProcessing, MT_SysNWKInfoReq
        LOCFRAME ISTACK, 0, STACK
        LOCFRAME PSTACK, 0, STACK
        LOCFRAME XSTACK, 10, STACK
        LOCFRAME IOVERLAY, 0, STATIC
        LOCFRAME DOVERLAY, 0, STATIC
        ARGFRAME ISTACK, 0, STACK
        ARGFRAME PSTACK, 0, STACK
        ARGFRAME XSTACK, 10, STACK
        ARGFRAME IOVERLAY, 0, STATIC
        ARGFRAME DOVERLAY, 0, STATIC
        REQUIRE ?V0
        REQUIRE ?V1
        MOV     A,#-0xa
        LCALL   ?BANKED_ENTER_XDATA
          CFI DPH0 load(1, XDATA, add(CFA_XSP16, literal(-1)))
          CFI DPL0 load(1, XDATA, add(CFA_XSP16, literal(-2)))
          CFI ?BRET_EXT load(1, XDATA, add(CFA_XSP16, literal(-3)))
          CFI ?RET_HIGH load(1, XDATA, add(CFA_XSP16, literal(-4)))
          CFI ?RET_LOW load(1, XDATA, add(CFA_XSP16, literal(-5)))
          CFI R7 load(1, XDATA, add(CFA_XSP16, literal(-6)))
          CFI V1 load(1, XDATA, add(CFA_XSP16, literal(-7)))
          CFI V0 load(1, XDATA, add(CFA_XSP16, literal(-8)))
          CFI VB load(1, XDATA, add(CFA_XSP16, literal(-9)))
          CFI R6 load(1, XDATA, add(CFA_XSP16, literal(-10)))
          CFI CFA_SP SP+0
          CFI CFA_XSP16 add(XSP16, 10)
        ; Saved register size: 10
        ; Auto size: 0
        MOV     A,R2
        MOV     R6,A
        MOV     A,R3
        MOV     R7,A
//  254   uint8 status = MT_RPC_SUCCESS;
        MOV     ?V0,#0x0
//  255 
//  256   switch (pBuf[MT_RPC_POS_CMD1])
        MOV     DPL,R6
        MOV     DPH,R7
        INC     DPTR
        INC     DPTR
        MOVX    A,@DPTR
        JNZ     $+5
        LJMP    ??MT_SysCommandProcessing_0 & 0xFFFF
        DEC     A
        JNZ     $+5
        LJMP    ??MT_SysCommandProcessing_1 & 0xFFFF
        DEC     A
        JNZ     $+5
        LJMP    ??MT_SysCommandProcessing_2 & 0xFFFF
        DEC     A
        JNZ     $+5
        LJMP    ??MT_SysCommandProcessing_3 & 0xFFFF
        DEC     A
        JNZ     $+5
        LJMP    ??MT_SysCommandProcessing_4 & 0xFFFF
        ADD     A,#-0x3
        JNZ     $+5
        LJMP    ??MT_SysCommandProcessing_5 & 0xFFFF
        DEC     A
        JNZ     $+5
        LJMP    ??MT_SysCommandProcessing_6 & 0xFFFF
        DEC     A
        JNZ     $+5
        LJMP    ??MT_SysCommandProcessing_7 & 0xFFFF
        DEC     A
        JNZ     $+5
        LJMP    ??MT_SysCommandProcessing_8 & 0xFFFF
        DEC     A
        JNZ     $+5
        LJMP    ??MT_SysCommandProcessing_9 & 0xFFFF
        DEC     A
        JNZ     $+5
        LJMP    ??MT_SysCommandProcessing_10 & 0xFFFF
        DEC     A
        JNZ     $+5
        LJMP    ??MT_SysCommandProcessing_11 & 0xFFFF
        DEC     A
        JNZ     $+5
        LJMP    ??MT_SysCommandProcessing_12 & 0xFFFF
        DEC     A
        JNZ     $+5
        LJMP    ??MT_SysCommandProcessing_13 & 0xFFFF
        DEC     A
        JNZ     $+5
        LJMP    ??MT_SysCommandProcessing_14 & 0xFFFF
        DEC     A
        JNZ     $+5
        LJMP    ??MT_SysCommandProcessing_15 & 0xFFFF
        DEC     A
        JNZ     $+5
        LJMP    ??MT_SysCommandProcessing_16 & 0xFFFF
        DEC     A
        JNZ     $+5
        LJMP    ??MT_SysCommandProcessing_17 & 0xFFFF
        DEC     A
        JNZ     $+5
        LJMP    ??MT_SysCommandProcessing_18 & 0xFFFF
        ADD     A,#-0x8
        JNZ     $+5
        LJMP    ??MT_SysCommandProcessing_19 & 0xFFFF
        DEC     A
        JNZ     $+5
        LJMP    ??MT_SysCommandProcessing_20 & 0xFFFF
        ADD     A,#-0x3
        JNZ     $+5
        LJMP    ??MT_SysCommandProcessing_21 & 0xFFFF
        ADD     A,#-0x2
        JNZ     $+5
        LJMP    ??MT_SysCommandProcessing_22 & 0xFFFF
        DEC     A
        JNZ     $+5
        LJMP    ??MT_SysCommandProcessing_23 & 0xFFFF
        ADD     A,#-0xd
        JNZ     $+5
        LJMP    ??MT_SysCommandProcessing_24 & 0xFFFF
        DEC     A
        JNZ     $+5
        LJMP    ??MT_SysCommandProcessing_24 & 0xFFFF
        DEC     A
        JNZ     $+5
        LJMP    ??MT_SysCommandProcessing_24 & 0xFFFF
        DEC     A
        JNZ     $+5
        LJMP    ??MT_SysCommandProcessing_24 & 0xFFFF
        DEC     A
        JNZ     $+5
        LJMP    ??MT_SysCommandProcessing_25 & 0xFFFF
        DEC     A
        JNZ     $+5
        LJMP    ??MT_SysCommandProcessing_26 & 0xFFFF
        DEC     A
        JNZ     $+5
        LJMP    ??MT_SysCommandProcessing_27 & 0xFFFF
        DEC     A
        JNZ     $+5
        LJMP    ??MT_SysCommandProcessing_28 & 0xFFFF
        DEC     A
        JNZ     $+5
        LJMP    ??MT_SysCommandProcessing_24 & 0xFFFF
        ADD     A,#-0x8
        JNZ     $+5
        LJMP    ??MT_SysCommandProcessing_24 & 0xFFFF
        DEC     A
        JNZ     $+5
        LJMP    ??MT_SysCommandProcessing_29 & 0xFFFF
        DEC     A
        JNZ     $+5
        LJMP    ??MT_SysCommandProcessing_30 & 0xFFFF
        DEC     A
        JNZ     $+5
        LJMP    ??MT_SysCommandProcessing_31 & 0xFFFF
        ADD     A,#-0x4d
        JNZ     $+5
        LJMP    ??MT_SysCommandProcessing_32 & 0xFFFF
        LJMP    ??MT_SysCommandProcessing_33 & 0xFFFF
//  257   {
//  258     case MT_SYS_RESET_REQ:
//  259       MT_SysReset(pBuf);
??MT_SysCommandProcessing_0:
        ; Setup parameters for call to function MT_SysReset
        MOV     A,R6
        MOV     R2,A
        MOV     A,R7
        MOV     R3,A
        LCALL   `??MT_SysReset::?relay`; Banked call to: MT_SysReset
//  260       break;
        LJMP    ??MT_SysCommandProcessing_34 & 0xFFFF
//  261 
//  262     case MT_SYS_PING:
//  263       MT_SysPing();
??MT_SysCommandProcessing_1:
        ; Setup parameters for call to function MT_SysPing
        LCALL   `??MT_SysPing::?relay`; Banked call to: MT_SysPing
//  264       break;
        LJMP    ??MT_SysCommandProcessing_34 & 0xFFFF
//  265 
//  266     case MT_SYS_VERSION:
//  267       MT_SysVersion();
??MT_SysCommandProcessing_2:
        ; Setup parameters for call to function MT_SysVersion
        LCALL   `??MT_SysVersion::?relay`; Banked call to: MT_SysVersion
//  268       break;
        LJMP    ??MT_SysCommandProcessing_34 & 0xFFFF
//  269 
//  270     case MT_SYS_SET_EXTADDR:
//  271       MT_SysSetExtAddr(pBuf);
??MT_SysCommandProcessing_3:
        ; Setup parameters for call to function MT_SysSetExtAddr
        MOV     A,R6
        MOV     R2,A
        MOV     A,R7
        MOV     R3,A
        LCALL   `??MT_SysSetExtAddr::?relay`; Banked call to: MT_SysSetExtAddr
//  272       break;
        LJMP    ??MT_SysCommandProcessing_34 & 0xFFFF
//  273 
//  274     case MT_SYS_GET_EXTADDR:
//  275       MT_SysGetExtAddr();
??MT_SysCommandProcessing_4:
        ; Setup parameters for call to function MT_SysGetExtAddr
        LCALL   `??MT_SysGetExtAddr::?relay`; Banked call to: MT_SysGetExtAddr
//  276       break;
        LJMP    ??MT_SysCommandProcessing_34 & 0xFFFF
//  277 
//  278 // CC253X MAC Network Processor does not have NV support
//  279 #if !defined(CC253X_MACNP)
//  280     case MT_SYS_OSAL_NV_DELETE:
//  281       MT_SysOsalNVDelete(pBuf);
??MT_SysCommandProcessing_16:
        ; Setup parameters for call to function MT_SysOsalNVDelete
        MOV     A,R6
        MOV     R2,A
        MOV     A,R7
        MOV     R3,A
        LCALL   `??MT_SysOsalNVDelete::?relay`; Banked call to: MT_SysOsalNVDelete
//  282       break;
        LJMP    ??MT_SysCommandProcessing_34 & 0xFFFF
//  283 
//  284     case MT_SYS_OSAL_NV_ITEM_INIT:
//  285       MT_SysOsalNVItemInit(pBuf);
??MT_SysCommandProcessing_5:
        ; Setup parameters for call to function MT_SysOsalNVItemInit
        MOV     A,R6
        MOV     R2,A
        MOV     A,R7
        MOV     R3,A
        LCALL   `??MT_SysOsalNVItemInit::?relay`; Banked call to: MT_SysOsalNVItemInit
//  286       break;
        LJMP    ??MT_SysCommandProcessing_34 & 0xFFFF
//  287 
//  288     case MT_SYS_OSAL_NV_LENGTH:
//  289       MT_SysOsalNVLength(pBuf);
??MT_SysCommandProcessing_17:
        ; Setup parameters for call to function MT_SysOsalNVLength
        MOV     A,R6
        MOV     R2,A
        MOV     A,R7
        MOV     R3,A
        LCALL   `??MT_SysOsalNVLength::?relay`; Banked call to: MT_SysOsalNVLength
//  290       break;
        LJMP    ??MT_SysCommandProcessing_34 & 0xFFFF
//  291 
//  292     case MT_SYS_OSAL_NV_READ:
//  293       MT_SysOsalNVRead(pBuf);
??MT_SysCommandProcessing_6:
        ; Setup parameters for call to function MT_SysOsalNVRead
        MOV     A,R6
        MOV     R2,A
        MOV     A,R7
        MOV     R3,A
        LCALL   `??MT_SysOsalNVRead::?relay`; Banked call to: MT_SysOsalNVRead
//  294       break;
        LJMP    ??MT_SysCommandProcessing_34 & 0xFFFF
//  295 
//  296     case MT_SYS_OSAL_NV_WRITE:
//  297       MT_SysOsalNVWrite(pBuf);
??MT_SysCommandProcessing_7:
        ; Setup parameters for call to function MT_SysOsalNVWrite
        MOV     A,R6
        MOV     R2,A
        MOV     A,R7
        MOV     R3,A
        LCALL   `??MT_SysOsalNVWrite::?relay`; Banked call to: MT_SysOsalNVWrite
//  298       break;
        LJMP    ??MT_SysCommandProcessing_34 & 0xFFFF
//  299 
//  300     case MT_SYS_OSAL_NV_READ_EXT:
//  301       MT_SysOsalNVRead(pBuf);
??MT_SysCommandProcessing_19:
        ; Setup parameters for call to function MT_SysOsalNVRead
        MOV     A,R6
        MOV     R2,A
        MOV     A,R7
        MOV     R3,A
        LCALL   `??MT_SysOsalNVRead::?relay`; Banked call to: MT_SysOsalNVRead
//  302       break;
        LJMP    ??MT_SysCommandProcessing_34 & 0xFFFF
//  303       
//  304     case MT_SYS_OSAL_NV_WRITE_EXT:
//  305       MT_SysOsalNVWrite(pBuf);
??MT_SysCommandProcessing_20:
        ; Setup parameters for call to function MT_SysOsalNVWrite
        MOV     A,R6
        MOV     R2,A
        MOV     A,R7
        MOV     R3,A
        LCALL   `??MT_SysOsalNVWrite::?relay`; Banked call to: MT_SysOsalNVWrite
//  306       break;
        LJMP    ??MT_SysCommandProcessing_34 & 0xFFFF
//  307 #endif
//  308 
//  309     case MT_SYS_OSAL_START_TIMER:
//  310       MT_SysOsalStartTimer(pBuf);
??MT_SysCommandProcessing_8:
        ; Setup parameters for call to function MT_SysOsalStartTimer
        MOV     A,R6
        MOV     R2,A
        MOV     A,R7
        MOV     R3,A
        LCALL   `??MT_SysOsalStartTimer::?relay`; Banked call to: MT_SysOsalStartTimer
//  311       break;
        LJMP    ??MT_SysCommandProcessing_34 & 0xFFFF
//  312 
//  313     case MT_SYS_OSAL_STOP_TIMER:
//  314       MT_SysOsalStopTimer(pBuf);
??MT_SysCommandProcessing_9:
        ; Setup parameters for call to function MT_SysOsalStopTimer
        MOV     A,R6
        MOV     R2,A
        MOV     A,R7
        MOV     R3,A
        LCALL   `??MT_SysOsalStopTimer::?relay`; Banked call to: MT_SysOsalStopTimer
//  315       break;
        LJMP    ??MT_SysCommandProcessing_34 & 0xFFFF
//  316 
//  317     case MT_SYS_RANDOM:
//  318       MT_SysRandom();
??MT_SysCommandProcessing_10:
        ; Setup parameters for call to function MT_SysRandom
        LCALL   `??MT_SysRandom::?relay`; Banked call to: MT_SysRandom
//  319       break;
        LJMP    ??MT_SysCommandProcessing_34 & 0xFFFF
//  320 
//  321     case MT_SYS_ADC_READ:
//  322       MT_SysAdcRead(pBuf);
??MT_SysCommandProcessing_11:
        ; Setup parameters for call to function MT_SysAdcRead
        MOV     A,R6
        MOV     R2,A
        MOV     A,R7
        MOV     R3,A
        LCALL   `??MT_SysAdcRead::?relay`; Banked call to: MT_SysAdcRead
//  323       break;
        LJMP    ??MT_SysCommandProcessing_34 & 0xFFFF
//  324 
//  325     case MT_SYS_GPIO:
//  326       MT_SysGpio(pBuf);
??MT_SysCommandProcessing_12:
        ; Setup parameters for call to function MT_SysGpio
        MOV     A,R6
        MOV     R2,A
        MOV     A,R7
        MOV     R3,A
        LCALL   `??MT_SysGpio::?relay`; Banked call to: MT_SysGpio
//  327       break;
        LJMP    ??MT_SysCommandProcessing_34 & 0xFFFF
//  328 
//  329     case MT_SYS_STACK_TUNE:
//  330       MT_SysStackTune(pBuf);
??MT_SysCommandProcessing_13:
        ; Setup parameters for call to function MT_SysStackTune
        MOV     A,R6
        MOV     R2,A
        MOV     A,R7
        MOV     R3,A
        LCALL   `??MT_SysStackTune::?relay`; Banked call to: MT_SysStackTune
//  331       break;
        LJMP    ??MT_SysCommandProcessing_34 & 0xFFFF
//  332 
//  333     case MT_SYS_SET_TIME:
//  334       MT_SysSetUtcTime(pBuf);
??MT_SysCommandProcessing_14:
        ; Setup parameters for call to function MT_SysSetUtcTime
        MOV     A,R6
        MOV     R2,A
        MOV     A,R7
        MOV     R3,A
        LCALL   `??MT_SysSetUtcTime::?relay`; Banked call to: MT_SysSetUtcTime
//  335       break;
        LJMP    ??MT_SysCommandProcessing_34 & 0xFFFF
//  336 
//  337     case MT_SYS_GET_TIME:
//  338       MT_SysGetUtcTime();
??MT_SysCommandProcessing_15:
        ; Setup parameters for call to function MT_SysGetUtcTime
        LCALL   `??MT_SysGetUtcTime::?relay`; Banked call to: MT_SysGetUtcTime
//  339       break;
        LJMP    ??MT_SysCommandProcessing_34 & 0xFFFF
//  340 
//  341     case MT_SYS_SET_TX_POWER:
//  342       MT_SysSetTxPower(pBuf);
??MT_SysCommandProcessing_18:
        ; Setup parameters for call to function MT_SysSetTxPower
        MOV     A,R6
        MOV     R2,A
        MOV     A,R7
        MOV     R3,A
        LCALL   `??MT_SysSetTxPower::?relay`; Banked call to: MT_SysSetTxPower
//  343       break;
        LJMP    ??MT_SysCommandProcessing_34 & 0xFFFF
//  344       
//  345 #if defined ( MT_SYS_JAMMER_FEATURE )
//  346     case MT_SYS_JAMMER_PARAMETERS:
//  347       MT_SysJammerParameters( pBuf );
//  348       break;
//  349 #endif      
//  350 
//  351 #if defined ( MT_SYS_SNIFFER_FEATURE )
//  352     case MT_SYS_SNIFFER_PARAMETERS:
//  353       MT_SysSnifferParameters( pBuf );
//  354       break;
//  355 #endif      
//  356 
//  357 #if defined ( FEATURE_SYSTEM_STATS )
//  358     case MT_SYS_ZDIAGS_INIT_STATS:
//  359       MT_SysZDiagsInitStats();
//  360       break;
//  361 
//  362     case MT_SYS_ZDIAGS_CLEAR_STATS:
//  363       MT_SysZDiagsClearStats(pBuf);
//  364       break;
//  365 
//  366     case MT_SYS_ZDIAGS_GET_STATS:
//  367       MT_SysZDiagsGetStatsAttr(pBuf);
//  368        break;
//  369 
//  370     case MT_SYS_ZDIAGS_RESTORE_STATS_NV:
//  371       MT_SysZDiagsRestoreStatsFromNV();
//  372       break;
//  373 
//  374     case MT_SYS_ZDIAGS_SAVE_STATS_TO_NV:
//  375       MT_SysZDiagsSaveStatsToNV();
//  376       break;
//  377 #endif /* FEATURE_SYSTEM_STATS */
//  378 
//  379 //chaokw
//  380     case MT_SYS_P2P_TRANSFER:
//  381       MT_SysP2PTransfer(pBuf);
??MT_SysCommandProcessing_21:
        ; Setup parameters for call to function MT_SysP2PTransfer
        MOV     A,R6
        MOV     R2,A
        MOV     A,R7
        MOV     R3,A
        LCALL   `??MT_SysP2PTransfer::?relay`; Banked call to: MT_SysP2PTransfer
//  382       break;
        LJMP    ??MT_SysCommandProcessing_34 & 0xFFFF
//  383     case MT_SYS_GROUP_TRANSFER:
//  384       MT_SysGroupTransfer(pBuf);
??MT_SysCommandProcessing_22:
        ; Setup parameters for call to function MT_SysGroupTransfer
        MOV     A,R6
        MOV     R2,A
        MOV     A,R7
        MOV     R3,A
        LCALL   `??MT_SysGroupTransfer::?relay`; Banked call to: MT_SysGroupTransfer
//  385       break;
        LJMP    ??MT_SysCommandProcessing_34 & 0xFFFF
//  386     case MT_SYS_BROADCAST_TRANSFER:
//  387       MT_SysBroadCastTransfer(pBuf);
??MT_SysCommandProcessing_23:
        ; Setup parameters for call to function MT_SysBroadCastTransfer
        MOV     A,R6
        MOV     R2,A
        MOV     A,R7
        MOV     R3,A
        LCALL   `??MT_SysBroadCastTransfer::?relay`; Banked call to: MT_SysBroadCastTransfer
//  388       break;
        SJMP    ??MT_SysCommandProcessing_34
//  389 
//  390     case MT_SYS_CHANNEL_UPDATE:
//  391       MT_SysChannelUpdate( pBuf );
??MT_SysCommandProcessing_25:
        ; Setup parameters for call to function MT_SysChannelUpdate
        MOV     A,R6
        MOV     R2,A
        MOV     A,R7
        MOV     R3,A
        LCALL   `??MT_SysChannelUpdate::?relay`; Banked call to: MT_SysChannelUpdate
//  392       break;
        SJMP    ??MT_SysCommandProcessing_34
//  393 
//  394     case MT_SYS_MAC_REQ:
//  395       MT_SysMACReq( pBuf );
??MT_SysCommandProcessing_26:
        ; Setup parameters for call to function MT_SysMACReq
        MOV     A,R6
        MOV     R2,A
        MOV     A,R7
        MOV     R3,A
        LCALL   `??MT_SysMACReq::?relay`; Banked call to: MT_SysMACReq
//  396       break;
        SJMP    ??MT_SysCommandProcessing_34
//  397 
//  398     case MT_SYS_ACTIVE_CNT_REQ:
//  399       MT_SysActiveCntReq( pBuf );
??MT_SysCommandProcessing_29:
        ; Setup parameters for call to function MT_SysActiveCntReq
        MOV     A,R6
        MOV     R2,A
        MOV     A,R7
        MOV     R3,A
        LCALL   `??MT_SysActiveCntReq::?relay`; Banked call to: MT_SysActiveCntReq
//  400       break;
        SJMP    ??MT_SysCommandProcessing_34
//  401 
//  402     case MT_SYS_FW_VERSION_REQ:
//  403       MT_SysGetFWVersionReq( pBuf );
??MT_SysCommandProcessing_27:
        ; Setup parameters for call to function MT_SysGetFWVersionReq
        MOV     A,R6
        MOV     R2,A
        MOV     A,R7
        MOV     R3,A
        LCALL   `??MT_SysGetFWVersionReq::?relay`; Banked call to: MT_SysGetFWVersionReq
//  404       break;
        SJMP    ??MT_SysCommandProcessing_34
//  405 
//  406     case MT_SYS_FW_UPDATE_REQ:
//  407       MT_SysFWUpdateReq( pBuf );
??MT_SysCommandProcessing_28:
        ; Setup parameters for call to function MT_SysFWUpdateReq
        MOV     A,R6
        MOV     R2,A
        MOV     A,R7
        MOV     R3,A
        LCALL   `??MT_SysFWUpdateReq::?relay`; Banked call to: MT_SysFWUpdateReq
//  408       break;
        SJMP    ??MT_SysCommandProcessing_34
//  409 
//  410     case MT_SYS_MULTIWAY_SET_REQ:
//  411       MT_SysMultiwaySetReq( pBuf );
??MT_SysCommandProcessing_30:
        ; Setup parameters for call to function MT_SysMultiwaySetReq
        MOV     A,R6
        MOV     R2,A
        MOV     A,R7
        MOV     R3,A
        LCALL   `??MT_SysMultiwaySetReq::?relay`; Banked call to: MT_SysMultiwaySetReq
//  412       break;
        SJMP    ??MT_SysCommandProcessing_34
//  413 
//  414     case MT_SYS_MULTIWAY_SEND_REQ:
//  415       MT_SysMultiwaySendReq( pBuf );
??MT_SysCommandProcessing_31:
        ; Setup parameters for call to function MT_SysMultiwaySendReq
        MOV     A,R6
        MOV     R2,A
        MOV     A,R7
        MOV     R3,A
        LCALL   `??MT_SysMultiwaySendReq::?relay`; Banked call to: MT_SysMultiwaySendReq
//  416       break;		
        SJMP    ??MT_SysCommandProcessing_34
//  417 
//  418     case NODE_AUTH_MSG_CMD_ADD:
//  419     case NODE_AUTH_MSG_CMD_COUNT:
//  420     case NODE_AUTH_MSG_CMD_GET:
//  421     case NODE_AUTH_MSG_CMD_DEL:
//  422     case NODE_AUTH_MSG_CMD_WIPE:
//  423     case NODE_AUTH_MSG_CMD_RESET_NET:
//  424       Node_auth_uart_msg_process(0, 
//  425             pBuf[MT_RPC_POS_CMD0], 
//  426             pBuf[MT_RPC_POS_CMD1], 
//  427             &pBuf[MT_RPC_POS_DAT0],
//  428             pBuf[MT_RPC_POS_LEN]);
??MT_SysCommandProcessing_24:
        ; Setup parameters for call to function Node_auth_uart_msg_process
        MOV     DPL,R6
        MOV     DPH,R7
        MOVX    A,@DPTR
        MOV     ?V1,A
        MOV     R0,#?V1
        LCALL   ?PUSH_XSTACK_I_ONE
          CFI CFA_XSP16 add(XSP16, 11)
        MOV     A,R6
        ADD     A,#0x3
        MOV     R4,A
        CLR     A
        ADDC    A,R7
        MOV     R5,A
        MOV     DPL,R6
        MOV     DPH,R7
        INC     DPTR
        INC     DPTR
        MOVX    A,@DPTR
        MOV     R3,A
        MOV     DPL,R6
        MOV     DPH,R7
        INC     DPTR
        MOVX    A,@DPTR
        MOV     R2,A
        MOV     R1,#0x0
        LCALL   `??Node_auth_uart_msg_process::?relay`; Banked call to: Node_auth_uart_msg_process
        MOV     A,#0x1
        LCALL   ?DEALLOC_XSTACK8
          CFI CFA_XSP16 add(XSP16, 10)
//  429       break;
        SJMP    ??MT_SysCommandProcessing_34
//  430 
//  431     case MT_SYS_NWKINFO_REQ:
//  432       MT_SysNWKInfoReq( pBuf );
??MT_SysCommandProcessing_32:
        ; Setup parameters for call to function MT_SysNWKInfoReq
        MOV     A,R6
        MOV     R2,A
        MOV     A,R7
        MOV     R3,A
        LCALL   `??MT_SysNWKInfoReq::?relay`; Banked call to: MT_SysNWKInfoReq
//  433       break;
        SJMP    ??MT_SysCommandProcessing_34
//  434 
//  435     default:
//  436       status = MT_RPC_ERR_COMMAND_ID;
??MT_SysCommandProcessing_33:
        MOV     ?V0,#0x2
//  437       break;
//  438   }
//  439 
//  440   return status;
??MT_SysCommandProcessing_34:
        MOV     R1,?V0
        MOV     R7,#0x2
        LJMP    ?BANKED_LEAVE_XDATA
//  441 }
          CFI EndBlock cfiBlock0
//  442 
//  443 /**************************************************************************************************
//  444  * @fn      MT_SysReset
//  445  *
//  446  * @brief   Reset the device.
//  447  * @param   typID: 0=reset, 1=serial bootloader, 
//  448  *
//  449  * @return  None
//  450  *************************************************************************************************/

        RSEG BANKED_CODE:CODE:NOROOT(0)
//  451 void MT_SysReset( uint8 *pBuf )
MT_SysReset:
          CFI Block cfiBlock1 Using cfiCommon0
          CFI Function MT_SysReset
        CODE
//  452 {
        FUNCALL MT_SysReset, Onboard_soft_reset
        LOCFRAME ISTACK, 0, STACK
        LOCFRAME PSTACK, 0, STACK
        LOCFRAME XSTACK, 9, STACK
        LOCFRAME IOVERLAY, 0, STATIC
        LOCFRAME DOVERLAY, 0, STATIC
        ARGFRAME ISTACK, 0, STACK
        ARGFRAME PSTACK, 0, STACK
        ARGFRAME XSTACK, 9, STACK
        ARGFRAME IOVERLAY, 0, STATIC
        ARGFRAME DOVERLAY, 0, STATIC
        FUNCALL MT_SysReset, powerOffSoc
        LOCFRAME ISTACK, 0, STACK
        LOCFRAME PSTACK, 0, STACK
        LOCFRAME XSTACK, 9, STACK
        LOCFRAME IOVERLAY, 0, STATIC
        LOCFRAME DOVERLAY, 0, STATIC
        ARGFRAME ISTACK, 0, STACK
        ARGFRAME PSTACK, 0, STACK
        ARGFRAME XSTACK, 9, STACK
        ARGFRAME IOVERLAY, 0, STATIC
        ARGFRAME DOVERLAY, 0, STATIC
        FUNCALL MT_SysReset, Onboard_soft_reset
        LOCFRAME ISTACK, 0, STACK
        LOCFRAME PSTACK, 0, STACK
        LOCFRAME XSTACK, 9, STACK
        LOCFRAME IOVERLAY, 0, STATIC
        LOCFRAME DOVERLAY, 0, STATIC
        ARGFRAME ISTACK, 0, STACK
        ARGFRAME PSTACK, 0, STACK
        ARGFRAME XSTACK, 9, STACK
        ARGFRAME IOVERLAY, 0, STATIC
        ARGFRAME DOVERLAY, 0, STATIC
        MOV     A,#-0x9
        LCALL   ?BANKED_ENTER_XDATA
          CFI DPH0 load(1, XDATA, add(CFA_XSP16, literal(-1)))
          CFI DPL0 load(1, XDATA, add(CFA_XSP16, literal(-2)))
          CFI ?BRET_EXT load(1, XDATA, add(CFA_XSP16, literal(-3)))
          CFI ?RET_HIGH load(1, XDATA, add(CFA_XSP16, literal(-4)))
          CFI ?RET_LOW load(1, XDATA, add(CFA_XSP16, literal(-5)))
          CFI R7 load(1, XDATA, add(CFA_XSP16, literal(-6)))
          CFI V0 load(1, XDATA, add(CFA_XSP16, literal(-7)))
          CFI VB load(1, XDATA, add(CFA_XSP16, literal(-8)))
          CFI R6 load(1, XDATA, add(CFA_XSP16, literal(-9)))
          CFI CFA_SP SP+0
          CFI CFA_XSP16 add(XSP16, 9)
        ; Saved register size: 9
        ; Auto size: 0
        MOV     A,R2
        MOV     R6,A
        MOV     A,R3
        MOV     R7,A
//  453   switch( pBuf[MT_RPC_POS_DAT0] )
        MOV     DPL,R6
        MOV     DPH,R7
        INC     DPTR
        INC     DPTR
        INC     DPTR
        MOVX    A,@DPTR
        JZ      ??MT_SysReset_0
        DEC     A
        JZ      ??MT_SysReset_1
        DEC     A
        JZ      ??MT_SysReset_2
        DEC     A
        JZ      ??MT_SysReset_3
        SJMP    ??MT_SysReset_4
//  454   {
//  455     case MT_SYS_RESET_HARD:
//  456       SystemReset();
??MT_SysReset_0:
        CLR     0xa8.7
        CLR     0xa8.7
        MOV     0xc9,#-0x55
        MOV     0xc9,#0x5b
??MT_SysReset_5:
        SJMP    ??MT_SysReset_5
//  457       break;
//  458       
//  459     case MT_SYS_RESET_SOFT:
//  460 #if !(defined(HAL_BOARD_F2618) || defined(HAL_BOARD_F5438) || defined(HAL_BOARD_LM3S))
//  461       SystemResetSoft();  // Especially useful for CC2531 to not break comm with USB Host.
??MT_SysReset_1:
        ; Setup parameters for call to function Onboard_soft_reset
        LCALL   Onboard_soft_reset & 0xFFFF
//  462 #endif
//  463       break;
        SJMP    ??MT_SysReset_4
//  464       
//  465     case MT_SYS_RESET_SHUTDOWN:
//  466       {
//  467         // Disable interrupts and put into deep sleep, use hardware reset to wakeup
//  468         powerOffSoc();
??MT_SysReset_2:
        ; Setup parameters for call to function powerOffSoc
        LCALL   `??powerOffSoc::?relay`; Banked call to: powerOffSoc
//  469       }
//  470       break;
        SJMP    ??MT_SysReset_4
//  471 
//  472     case MT_SYS_RESET_CLEAR_NV:
//  473 #if defined ( NV_RESTORE )		
//  474       NLME_InitNV();
//  475       NLME_SetDefaultNV();
//  476       ZDSecMgrClearNVKeyValues();
//  477 #endif	  
//  478       Onboard_soft_reset();
??MT_SysReset_3:
        ; Setup parameters for call to function Onboard_soft_reset
        LCALL   Onboard_soft_reset & 0xFFFF
//  479       break;  
//  480   }
//  481 
//  482 }
??MT_SysReset_4:
        MOV     R7,#0x1
        LJMP    ?BANKED_LEAVE_XDATA
          CFI EndBlock cfiBlock1
        REQUIRE _A_IEN0
        REQUIRE WDCTL
//  483 
//  484 /***************************************************************************************************
//  485  * @fn      MT_SysPing
//  486  *
//  487  * @brief   Process the Ping command
//  488  *
//  489  * @param   None
//  490  *
//  491  * @return  None
//  492  ***************************************************************************************************/

        RSEG BANKED_CODE:CODE:NOROOT(0)
//  493 void MT_SysPing(void)
MT_SysPing:
          CFI Block cfiBlock2 Using cfiCommon0
          CFI Function MT_SysPing
        CODE
//  494 {
        FUNCALL MT_SysPing, MT_BuildAndSendZToolResponse
        LOCFRAME ISTACK, 0, STACK
        LOCFRAME PSTACK, 0, STACK
        LOCFRAME XSTACK, 11, STACK
        LOCFRAME IOVERLAY, 0, STATIC
        LOCFRAME DOVERLAY, 0, STATIC
        ARGFRAME ISTACK, 0, STACK
        ARGFRAME PSTACK, 0, STACK
        ARGFRAME XSTACK, 11, STACK
        ARGFRAME IOVERLAY, 0, STATIC
        ARGFRAME DOVERLAY, 0, STATIC
        MOV     A,#-0x9
        LCALL   ?BANKED_ENTER_XDATA
          CFI DPH0 load(1, XDATA, add(CFA_XSP16, literal(-1)))
          CFI DPL0 load(1, XDATA, add(CFA_XSP16, literal(-2)))
          CFI ?BRET_EXT load(1, XDATA, add(CFA_XSP16, literal(-3)))
          CFI ?RET_HIGH load(1, XDATA, add(CFA_XSP16, literal(-4)))
          CFI ?RET_LOW load(1, XDATA, add(CFA_XSP16, literal(-5)))
          CFI R7 load(1, XDATA, add(CFA_XSP16, literal(-6)))
          CFI V0 load(1, XDATA, add(CFA_XSP16, literal(-7)))
          CFI VB load(1, XDATA, add(CFA_XSP16, literal(-8)))
          CFI R6 load(1, XDATA, add(CFA_XSP16, literal(-9)))
          CFI CFA_SP SP+0
          CFI CFA_XSP16 add(XSP16, 9)
        ; Saved register size: 9
        ; Auto size: 2
        MOV     A,#-0x2
        LCALL   ?ALLOC_XSTACK8
          CFI CFA_XSP16 add(XSP16, 11)
//  495   uint16 tmp16;
//  496   uint8 retArray[2];
//  497 
//  498   /* Build Capabilities */
//  499   tmp16 = MT_CAP_SYS | MT_CAP_MAC | MT_CAP_NWK | MT_CAP_AF | MT_CAP_ZDO |
//  500           MT_CAP_SAPI | MT_CAP_UTIL | MT_CAP_DEBUG | MT_CAP_APP | MT_CAP_GP | MT_CAP_ZOAD;
        MOV     R6,#0x11
        MOV     R7,#0x0
//  501 
//  502   /* Convert to high byte first into temp buffer */
//  503   retArray[0] = LO_UINT16( tmp16 );
        MOV     A,R6
        PUSH    A
          CFI CFA_SP SP+-1
        MOV     DPL,?XSP + 0
        MOV     DPH,?XSP + 1
        POP     A
          CFI CFA_SP SP+0
        MOVX    @DPTR,A
//  504   retArray[1] = HI_UINT16( tmp16 );
        MOV     A,R6
        MOV     R0,A
        MOV     A,R7
        MOV     R1,A
        CLR     A
        XCH     A,R1
        MOV     R0,A
        MOV     A,R0
        PUSH    A
          CFI CFA_SP SP+-1
        MOV     A,#0x1
        LCALL   ?XSTACK_DISP0_8
        POP     A
          CFI CFA_SP SP+0
        MOVX    @DPTR,A
//  505 
//  506   /* Build and send back the response */
//  507   MT_BuildAndSendZToolResponse(((uint8)MT_RPC_CMD_SRSP | (uint8)MT_RPC_SYS_SYS), MT_SYS_PING,
//  508                                 sizeof (tmp16), retArray );
        ; Setup parameters for call to function MT_BuildAndSendZToolResponse
        MOV     R4,?XSP + 0
        MOV     R5,?XSP + 1
        MOV     R3,#0x2
        MOV     R2,#0x1
        MOV     R1,#0x61
        LCALL   `??MT_BuildAndSendZToolResponse::?relay`; Banked call to: MT_BuildAndSendZToolResponse
//  509 }
        MOV     A,#0x2
        LCALL   ?DEALLOC_XSTACK8
          CFI CFA_XSP16 add(XSP16, 9)
        MOV     R7,#0x1
        LJMP    ?BANKED_LEAVE_XDATA
          CFI EndBlock cfiBlock2
//  510 
//  511 /***************************************************************************************************
//  512  * @fn      MT_SysVersion
//  513  *
//  514  * @brief   Process the Version command
//  515  *
//  516  * @param   None
//  517  *
//  518  * @return  None
//  519  ***************************************************************************************************/

        RSEG BANKED_CODE:CODE:NOROOT(0)
//  520 void MT_SysVersion(void)
MT_SysVersion:
          CFI Block cfiBlock3 Using cfiCommon0
          CFI Function MT_SysVersion
        CODE
//  521 {
        FUNCALL MT_SysVersion, MT_BuildAndSendZToolResponse
        LOCFRAME ISTACK, 2, STACK
        LOCFRAME PSTACK, 0, STACK
        LOCFRAME XSTACK, 0, STACK
        LOCFRAME IOVERLAY, 0, STATIC
        LOCFRAME DOVERLAY, 0, STATIC
        ARGFRAME ISTACK, 2, STACK
        ARGFRAME PSTACK, 0, STACK
        ARGFRAME XSTACK, 0, STACK
        ARGFRAME IOVERLAY, 0, STATIC
        ARGFRAME DOVERLAY, 0, STATIC
        PUSH    DPL
          CFI DPL0 Frame(CFA_SP, 4)
          CFI CFA_SP SP+-4
        PUSH    DPH
          CFI DPH0 Frame(CFA_SP, 5)
          CFI CFA_SP SP+-5
        ; Saved register size: 2
        ; Auto size: 0
//  522 #if !defined INCLUDE_REVISION_INFORMATION
//  523   /* Build and send back the response */
//  524   MT_BuildAndSendZToolResponse(((uint8)MT_RPC_CMD_SRSP | (uint8)MT_RPC_SYS_SYS), MT_SYS_VERSION,
//  525                                sizeof(MTVersionString), (uint8 *)MTVersionString);
        ; Setup parameters for call to function MT_BuildAndSendZToolResponse
        MOV     R4,#MTVersionString & 0xff
        MOV     R5,#(MTVersionString >> 8) & 0xff
        MOV     R3,#0x5
        MOV     R2,#0x2
        MOV     R1,#0x61
        LCALL   `??MT_BuildAndSendZToolResponse::?relay`; Banked call to: MT_BuildAndSendZToolResponse
//  526 
//  527 #else
//  528   uint8 verStr[sizeof(MTVersionString) + 4];
//  529   uint8 *pBuf = &verStr[sizeof(MTVersionString)];
//  530   
//  531 #if (defined MAKE_CRC_SHDW) || (defined FAKE_CRC_SHDW)  //built for bootloader
//  532   uint32 sblSig;
//  533   uint32 sblRev;
//  534 #endif
//  535 
//  536   osal_memcpy(verStr, (uint8 *)MTVersionString, sizeof(MTVersionString));
//  537 
//  538 #if (defined MAKE_CRC_SHDW) || (defined FAKE_CRC_SHDW)  //built for bootloader
//  539   HalFlashRead(SBL_SIG_ADDR / HAL_FLASH_PAGE_SIZE,
//  540                SBL_SIG_ADDR % HAL_FLASH_PAGE_SIZE,
//  541                (uint8 *)&sblSig, sizeof(sblSig));
//  542 
//  543   if (sblSig == SBL_SIGNATURE)
//  544   {
//  545     // SBL is supported and its revision is provided (in a known flash location)
//  546     HalFlashRead(SBL_REV_ADDR / HAL_FLASH_PAGE_SIZE,
//  547                  SBL_REV_ADDR % HAL_FLASH_PAGE_SIZE,
//  548                  (uint8 *)&sblRev, sizeof(sblRev));
//  549   }
//  550   else
//  551   {
//  552     //  SBL is supported but its revision is not provided
//  553     sblRev = 0x00000000;
//  554   }
//  555 #else
//  556   // SBL is NOT supported
//  557   sblRev = 0xFFFFFFFF;
//  558 #endif
//  559 
//  560   // Plug the SBL revision indication
//  561   UINT32_TO_BUF_LITTLE_ENDIAN(pBuf,sblRev);
//  562 
//  563   /* Build and send back the response */
//  564   MT_BuildAndSendZToolResponse(((uint8)MT_RPC_CMD_SRSP | (uint8)MT_RPC_SYS_SYS), MT_SYS_VERSION,
//  565                                sizeof(verStr), verStr);
//  566 
//  567 #endif
//  568 }
        POP     DPH
          CFI DPH0 SameValue
          CFI CFA_SP SP+-4
        POP     DPL
          CFI DPL0 SameValue
          CFI CFA_SP SP+-3
        LJMP    ?BRET
          CFI EndBlock cfiBlock3
//  569 
//  570 /***************************************************************************************************
//  571  * @fn      MT_SysSetExtAddr
//  572  *
//  573  * @brief   Set the Extended Address
//  574  *
//  575  * @param   pBuf
//  576  *
//  577  * @return  None
//  578  ***************************************************************************************************/

        RSEG BANKED_CODE:CODE:NOROOT(0)
//  579 void MT_SysSetExtAddr(uint8 *pBuf)
MT_SysSetExtAddr:
          CFI Block cfiBlock4 Using cfiCommon0
          CFI Function MT_SysSetExtAddr
        CODE
//  580 {
        FUNCALL MT_SysSetExtAddr, ZMacSetReq
        LOCFRAME ISTACK, 0, STACK
        LOCFRAME PSTACK, 0, STACK
        LOCFRAME XSTACK, 13, STACK
        LOCFRAME IOVERLAY, 0, STATIC
        LOCFRAME DOVERLAY, 0, STATIC
        ARGFRAME ISTACK, 0, STACK
        ARGFRAME PSTACK, 0, STACK
        ARGFRAME XSTACK, 13, STACK
        ARGFRAME IOVERLAY, 0, STATIC
        ARGFRAME DOVERLAY, 0, STATIC
        FUNCALL MT_SysSetExtAddr, osal_nv_write
        LOCFRAME ISTACK, 0, STACK
        LOCFRAME PSTACK, 0, STACK
        LOCFRAME XSTACK, 17, STACK
        LOCFRAME IOVERLAY, 0, STATIC
        LOCFRAME DOVERLAY, 0, STATIC
        ARGFRAME ISTACK, 0, STACK
        ARGFRAME PSTACK, 0, STACK
        ARGFRAME XSTACK, 17, STACK
        ARGFRAME IOVERLAY, 0, STATIC
        ARGFRAME DOVERLAY, 0, STATIC
        FUNCALL MT_SysSetExtAddr, MT_BuildAndSendZToolResponse
        LOCFRAME ISTACK, 0, STACK
        LOCFRAME PSTACK, 0, STACK
        LOCFRAME XSTACK, 13, STACK
        LOCFRAME IOVERLAY, 0, STATIC
        LOCFRAME DOVERLAY, 0, STATIC
        ARGFRAME ISTACK, 0, STACK
        ARGFRAME PSTACK, 0, STACK
        ARGFRAME XSTACK, 13, STACK
        ARGFRAME IOVERLAY, 0, STATIC
        ARGFRAME DOVERLAY, 0, STATIC
        REQUIRE ?V0
        REQUIRE ?V1
        REQUIRE ?V2
        REQUIRE ?V3
        MOV     A,#-0xc
        LCALL   ?BANKED_ENTER_XDATA
          CFI DPH0 load(1, XDATA, add(CFA_XSP16, literal(-1)))
          CFI DPL0 load(1, XDATA, add(CFA_XSP16, literal(-2)))
          CFI ?BRET_EXT load(1, XDATA, add(CFA_XSP16, literal(-3)))
          CFI ?RET_HIGH load(1, XDATA, add(CFA_XSP16, literal(-4)))
          CFI ?RET_LOW load(1, XDATA, add(CFA_XSP16, literal(-5)))
          CFI R7 load(1, XDATA, add(CFA_XSP16, literal(-6)))
          CFI V3 load(1, XDATA, add(CFA_XSP16, literal(-7)))
          CFI V2 load(1, XDATA, add(CFA_XSP16, literal(-8)))
          CFI V1 load(1, XDATA, add(CFA_XSP16, literal(-9)))
          CFI V0 load(1, XDATA, add(CFA_XSP16, literal(-10)))
          CFI VB load(1, XDATA, add(CFA_XSP16, literal(-11)))
          CFI R6 load(1, XDATA, add(CFA_XSP16, literal(-12)))
          CFI CFA_SP SP+0
          CFI CFA_XSP16 add(XSP16, 12)
        ; Saved register size: 12
        ; Auto size: 1
        MOV     A,#-0x1
        LCALL   ?ALLOC_XSTACK8
          CFI CFA_XSP16 add(XSP16, 13)
        MOV     ?V0,R2
        MOV     ?V1,R3
//  581   uint8 retValue = ZFailure;
        MOV     DPL,?XSP + 0
        MOV     DPH,?XSP + 1
        MOV     A,#0x1
        MOVX    @DPTR,A
//  582   uint8 cmdId;
//  583 
//  584   /* parse header */
//  585   cmdId = pBuf[MT_RPC_POS_CMD1];
        MOV     DPL,?V0
        MOV     DPH,?V1
        INC     DPTR
        INC     DPTR
        MOVX    A,@DPTR
        MOV     R6,A
//  586   pBuf += MT_RPC_FRAME_HDR_SZ;
        MOV     A,?V0
        ADD     A,#0x3
        MOV     ?V0,A
        JNC     ??MT_SysSetExtAddr_0
        INC     ?V1
//  587 
//  588   if ( ZMacSetReq(ZMacExtAddr, pBuf) == ZMacSuccess )
??MT_SysSetExtAddr_0:
        ; Setup parameters for call to function ZMacSetReq
        MOV     R2,?V0
        MOV     R3,?V1
        MOV     R1,#-0x1e
        LCALL   `??ZMacSetReq::?relay`; Banked call to: ZMacSetReq
        MOV     A,R1
        JNZ     ??MT_SysSetExtAddr_1
//  589   {
//  590 // CC253X MAC Network Processor does not have NV support
//  591 #if !defined(CC253X_MACNP)
//  592     retValue = osal_nv_write(ZCD_NV_EXTADDR, 0, Z_EXTADDR_LEN, pBuf);
        ; Setup parameters for call to function osal_nv_write
        MOV     R0,#?V0
        LCALL   ?PUSH_XSTACK_I_TWO
          CFI CFA_XSP16 add(XSP16, 15)
        MOV     ?V2,#0x8
        MOV     ?V3,#0x0
        MOV     R0,#?V2
        LCALL   ?PUSH_XSTACK_I_TWO
          CFI CFA_XSP16 add(XSP16, 17)
        MOV     R4,#0x0
        MOV     R5,#0x0
        MOV     R2,#0x1
        MOV     R3,#0x0
        LCALL   `??osal_nv_write::?relay`; Banked call to: osal_nv_write
        MOV     A,#0x4
        LCALL   ?DEALLOC_XSTACK8
          CFI CFA_XSP16 add(XSP16, 13)
        MOV     A,R1
        PUSH    A
          CFI CFA_SP SP+-1
        MOV     DPL,?XSP + 0
        MOV     DPH,?XSP + 1
        POP     A
          CFI CFA_SP SP+0
        MOVX    @DPTR,A
//  593 #endif
//  594   }
//  595 
//  596   /* Build and send back the response */
//  597   MT_BuildAndSendZToolResponse(((uint8)MT_RPC_CMD_SRSP | (uint8)MT_RPC_SYS_SYS), cmdId, 1, &retValue);
??MT_SysSetExtAddr_1:
        ; Setup parameters for call to function MT_BuildAndSendZToolResponse
        MOV     R4,?XSP + 0
        MOV     R5,?XSP + 1
        MOV     R3,#0x1
        MOV     A,R6
        MOV     R2,A
        MOV     R1,#0x61
        LCALL   `??MT_BuildAndSendZToolResponse::?relay`; Banked call to: MT_BuildAndSendZToolResponse
//  598 
//  599 }
        MOV     A,#0x1
        LCALL   ?DEALLOC_XSTACK8
          CFI CFA_XSP16 add(XSP16, 12)
        MOV     R7,#0x4
        LJMP    ?BANKED_LEAVE_XDATA
          CFI EndBlock cfiBlock4
//  600 
//  601 /***************************************************************************************************
//  602  * @fn      MT_SysGetExtAddr
//  603  *
//  604  * @brief   Get the Extended Address
//  605  *
//  606  * @param   None
//  607  *
//  608  * @return  None
//  609  ***************************************************************************************************/

        RSEG BANKED_CODE:CODE:NOROOT(0)
//  610 void MT_SysGetExtAddr(void)
MT_SysGetExtAddr:
          CFI Block cfiBlock5 Using cfiCommon0
          CFI Function MT_SysGetExtAddr
        CODE
//  611 {
        FUNCALL MT_SysGetExtAddr, ZMacGetReq
        LOCFRAME ISTACK, 2, STACK
        LOCFRAME PSTACK, 0, STACK
        LOCFRAME XSTACK, 8, STACK
        LOCFRAME IOVERLAY, 0, STATIC
        LOCFRAME DOVERLAY, 0, STATIC
        ARGFRAME ISTACK, 2, STACK
        ARGFRAME PSTACK, 0, STACK
        ARGFRAME XSTACK, 8, STACK
        ARGFRAME IOVERLAY, 0, STATIC
        ARGFRAME DOVERLAY, 0, STATIC
        FUNCALL MT_SysGetExtAddr, MT_BuildAndSendZToolResponse
        LOCFRAME ISTACK, 2, STACK
        LOCFRAME PSTACK, 0, STACK
        LOCFRAME XSTACK, 8, STACK
        LOCFRAME IOVERLAY, 0, STATIC
        LOCFRAME DOVERLAY, 0, STATIC
        ARGFRAME ISTACK, 2, STACK
        ARGFRAME PSTACK, 0, STACK
        ARGFRAME XSTACK, 8, STACK
        ARGFRAME IOVERLAY, 0, STATIC
        ARGFRAME DOVERLAY, 0, STATIC
        PUSH    DPL
          CFI DPL0 Frame(CFA_SP, 4)
          CFI CFA_SP SP+-4
        PUSH    DPH
          CFI DPH0 Frame(CFA_SP, 5)
          CFI CFA_SP SP+-5
        ; Saved register size: 2
        ; Auto size: 8
        MOV     A,#-0x8
        LCALL   ?ALLOC_XSTACK8
          CFI CFA_XSP16 add(XSP16, 8)
//  612   uint8 extAddr[Z_EXTADDR_LEN];
//  613 
//  614   ZMacGetReq( ZMacExtAddr, extAddr );
        ; Setup parameters for call to function ZMacGetReq
        MOV     R2,?XSP + 0
        MOV     R3,?XSP + 1
        MOV     R1,#-0x1e
        LCALL   `??ZMacGetReq::?relay`; Banked call to: ZMacGetReq
        MOV     A,R1
//  615 
//  616   /* Build and send back the response */
//  617   MT_BuildAndSendZToolResponse(((uint8)MT_RPC_CMD_SRSP | (uint8)MT_RPC_SYS_SYS), MT_SYS_GET_EXTADDR,
//  618                                Z_EXTADDR_LEN, extAddr);
        ; Setup parameters for call to function MT_BuildAndSendZToolResponse
        MOV     R4,?XSP + 0
        MOV     R5,?XSP + 1
        MOV     R3,#0x8
        MOV     R2,#0x4
        MOV     R1,#0x61
        LCALL   `??MT_BuildAndSendZToolResponse::?relay`; Banked call to: MT_BuildAndSendZToolResponse
//  619 }
        MOV     A,#0x8
        LCALL   ?DEALLOC_XSTACK8
          CFI CFA_XSP16 XSP16+0
        POP     DPH
          CFI DPH0 SameValue
          CFI CFA_SP SP+-4
        POP     DPL
          CFI DPL0 SameValue
          CFI CFA_SP SP+-3
        LJMP    ?BRET
          CFI EndBlock cfiBlock5
//  620 
//  621 #if !defined(CC253X_MACNP)
//  622 /***************************************************************************************************
//  623  * @fn      MT_SysOsalNVRead
//  624  *
//  625  * @brief   Attempt to read an NV value
//  626  *
//  627  * @param   pBuf - pointer to the data
//  628  *
//  629  * @return  None
//  630  ***************************************************************************************************/

        RSEG BANKED_CODE:CODE:NOROOT(0)
//  631 void MT_SysOsalNVRead(uint8 *pBuf)
MT_SysOsalNVRead:
          CFI Block cfiBlock6 Using cfiCommon0
          CFI Function MT_SysOsalNVRead
        CODE
//  632 {
        FUNCALL MT_SysOsalNVRead, osal_nv_item_len
        LOCFRAME ISTACK, 0, STACK
        LOCFRAME PSTACK, 0, STACK
        LOCFRAME XSTACK, 26, STACK
        LOCFRAME IOVERLAY, 0, STATIC
        LOCFRAME DOVERLAY, 0, STATIC
        ARGFRAME ISTACK, 0, STACK
        ARGFRAME PSTACK, 0, STACK
        ARGFRAME XSTACK, 26, STACK
        ARGFRAME IOVERLAY, 0, STATIC
        ARGFRAME DOVERLAY, 0, STATIC
        FUNCALL MT_SysOsalNVRead, osal_mem_alloc
        LOCFRAME ISTACK, 0, STACK
        LOCFRAME PSTACK, 0, STACK
        LOCFRAME XSTACK, 26, STACK
        LOCFRAME IOVERLAY, 0, STATIC
        LOCFRAME DOVERLAY, 0, STATIC
        ARGFRAME ISTACK, 0, STACK
        ARGFRAME PSTACK, 0, STACK
        ARGFRAME XSTACK, 26, STACK
        ARGFRAME IOVERLAY, 0, STATIC
        ARGFRAME DOVERLAY, 0, STATIC
        FUNCALL MT_SysOsalNVRead, osal_memset
        LOCFRAME ISTACK, 0, STACK
        LOCFRAME PSTACK, 0, STACK
        LOCFRAME XSTACK, 26, STACK
        LOCFRAME IOVERLAY, 0, STATIC
        LOCFRAME DOVERLAY, 0, STATIC
        ARGFRAME ISTACK, 0, STACK
        ARGFRAME PSTACK, 0, STACK
        ARGFRAME XSTACK, 26, STACK
        ARGFRAME IOVERLAY, 0, STATIC
        ARGFRAME DOVERLAY, 0, STATIC
        FUNCALL MT_SysOsalNVRead, osal_nv_read
        LOCFRAME ISTACK, 0, STACK
        LOCFRAME PSTACK, 0, STACK
        LOCFRAME XSTACK, 30, STACK
        LOCFRAME IOVERLAY, 0, STATIC
        LOCFRAME DOVERLAY, 0, STATIC
        ARGFRAME ISTACK, 0, STACK
        ARGFRAME PSTACK, 0, STACK
        ARGFRAME XSTACK, 30, STACK
        ARGFRAME IOVERLAY, 0, STATIC
        ARGFRAME DOVERLAY, 0, STATIC
        FUNCALL MT_SysOsalNVRead, MT_BuildAndSendZToolResponse
        LOCFRAME ISTACK, 0, STACK
        LOCFRAME PSTACK, 0, STACK
        LOCFRAME XSTACK, 26, STACK
        LOCFRAME IOVERLAY, 0, STATIC
        LOCFRAME DOVERLAY, 0, STATIC
        ARGFRAME ISTACK, 0, STACK
        ARGFRAME PSTACK, 0, STACK
        ARGFRAME XSTACK, 26, STACK
        ARGFRAME IOVERLAY, 0, STATIC
        ARGFRAME DOVERLAY, 0, STATIC
        FUNCALL MT_SysOsalNVRead, osal_mem_free
        LOCFRAME ISTACK, 0, STACK
        LOCFRAME PSTACK, 0, STACK
        LOCFRAME XSTACK, 26, STACK
        LOCFRAME IOVERLAY, 0, STATIC
        LOCFRAME DOVERLAY, 0, STATIC
        ARGFRAME ISTACK, 0, STACK
        ARGFRAME PSTACK, 0, STACK
        ARGFRAME XSTACK, 26, STACK
        ARGFRAME IOVERLAY, 0, STATIC
        ARGFRAME DOVERLAY, 0, STATIC
        FUNCALL MT_SysOsalNVRead, MT_BuildAndSendZToolResponse
        LOCFRAME ISTACK, 0, STACK
        LOCFRAME PSTACK, 0, STACK
        LOCFRAME XSTACK, 26, STACK
        LOCFRAME IOVERLAY, 0, STATIC
        LOCFRAME DOVERLAY, 0, STATIC
        ARGFRAME ISTACK, 0, STACK
        ARGFRAME PSTACK, 0, STACK
        ARGFRAME XSTACK, 26, STACK
        ARGFRAME IOVERLAY, 0, STATIC
        ARGFRAME DOVERLAY, 0, STATIC
        REQUIRE ?V0
        REQUIRE ?V1
        REQUIRE ?V2
        REQUIRE ?V3
        REQUIRE ?V4
        REQUIRE ?V5
        REQUIRE ?V6
        REQUIRE ?V7
        REQUIRE ?V8
        REQUIRE ?V9
        REQUIRE ?V10
        REQUIRE ?V11
        REQUIRE ?V12
        REQUIRE ?V14
        REQUIRE ?V15
        MOV     A,#-0x18
        LCALL   ?BANKED_ENTER_XDATA
          CFI DPH0 load(1, XDATA, add(CFA_XSP16, literal(-1)))
          CFI DPL0 load(1, XDATA, add(CFA_XSP16, literal(-2)))
          CFI ?BRET_EXT load(1, XDATA, add(CFA_XSP16, literal(-3)))
          CFI ?RET_HIGH load(1, XDATA, add(CFA_XSP16, literal(-4)))
          CFI ?RET_LOW load(1, XDATA, add(CFA_XSP16, literal(-5)))
          CFI R7 load(1, XDATA, add(CFA_XSP16, literal(-6)))
          CFI V15 load(1, XDATA, add(CFA_XSP16, literal(-7)))
          CFI V14 load(1, XDATA, add(CFA_XSP16, literal(-8)))
          CFI V13 load(1, XDATA, add(CFA_XSP16, literal(-9)))
          CFI V12 load(1, XDATA, add(CFA_XSP16, literal(-10)))
          CFI V11 load(1, XDATA, add(CFA_XSP16, literal(-11)))
          CFI V10 load(1, XDATA, add(CFA_XSP16, literal(-12)))
          CFI V9 load(1, XDATA, add(CFA_XSP16, literal(-13)))
          CFI V8 load(1, XDATA, add(CFA_XSP16, literal(-14)))
          CFI V7 load(1, XDATA, add(CFA_XSP16, literal(-15)))
          CFI V6 load(1, XDATA, add(CFA_XSP16, literal(-16)))
          CFI V5 load(1, XDATA, add(CFA_XSP16, literal(-17)))
          CFI V4 load(1, XDATA, add(CFA_XSP16, literal(-18)))
          CFI V3 load(1, XDATA, add(CFA_XSP16, literal(-19)))
          CFI V2 load(1, XDATA, add(CFA_XSP16, literal(-20)))
          CFI V1 load(1, XDATA, add(CFA_XSP16, literal(-21)))
          CFI V0 load(1, XDATA, add(CFA_XSP16, literal(-22)))
          CFI VB load(1, XDATA, add(CFA_XSP16, literal(-23)))
          CFI R6 load(1, XDATA, add(CFA_XSP16, literal(-24)))
          CFI CFA_SP SP+0
          CFI CFA_XSP16 add(XSP16, 24)
        ; Saved register size: 24
        ; Auto size: 2
        MOV     A,#-0x2
        LCALL   ?ALLOC_XSTACK8
          CFI CFA_XSP16 add(XSP16, 26)
        MOV     ?V8,R2
        MOV     ?V9,R3
//  633   uint8 cmdId;
//  634   uint16 nvId;
//  635   uint16 dataLen;
//  636   uint16 dataOfs;
//  637   uint16 nvItemLen;
//  638   uint8 error = ZSuccess;
        MOV     ?V0,#0x0
//  639 
//  640   /* MT command ID */
//  641   cmdId = pBuf[MT_RPC_POS_CMD1];
        MOV     DPL,?V8
        MOV     DPH,?V9
        INC     DPTR
        INC     DPTR
        MOVX    A,@DPTR
        MOV     ?V12,A
//  642   /* Skip over RPC header */
//  643   pBuf += MT_RPC_FRAME_HDR_SZ;
        MOV     A,?V8
        ADD     A,#0x3
        MOV     ?V8,A
        JNC     ??MT_SysOsalNVRead_0
        INC     ?V9
//  644 
//  645   /* NV item ID */
//  646   nvId = BUILD_UINT16(pBuf[0], pBuf[1]);
??MT_SysOsalNVRead_0:
        MOV     DPL,?V8
        MOV     DPH,?V9
        MOVX    A,@DPTR
        MOV     R2,A
        MOV     R3,#0x0
        MOV     DPL,?V8
        MOV     DPH,?V9
        INC     DPTR
        MOVX    A,@DPTR
        MOV     R0,A
        MOV     R1,#0x0
        CLR     A
        XCH     A,R0
        MOV     R1,A
        MOV     A,R2
        ADD     A,R0
        MOV     R0,A
        MOV     A,R3
        ADDC    A,R1
        MOV     R1,A
        MOV     ?V4,R0
        MOV     ?V5,R1
//  647   /* Length of entire NV item data */
//  648   nvItemLen = osal_nv_item_len(nvId);
        ; Setup parameters for call to function osal_nv_item_len
        MOV     R2,?V4
        MOV     R3,?V5
        LCALL   `??osal_nv_item_len::?relay`; Banked call to: osal_nv_item_len
        MOV     ?V6,R2
        MOV     ?V7,R3
        MOV     ?V14,?V6
        MOV     ?V15,?V7
//  649 
//  650 #if !MT_SYS_OSAL_NV_READ_CERTIFICATE_DATA
//  651   if ((ZCD_NV_IMPLICIT_CERTIFICATE == nvId) ||
//  652       (ZCD_NV_CA_PUBLIC_KEY == nvId)        ||
//  653       (ZCD_NV_DEVICE_PRIVATE_KEY == nvId))
        MOV     A,#0x69
        XRL     A,?V4
        JNZ     ??MT_SysOsalNVRead_1
        MOV     A,#0x0
        XRL     A,?V5
??MT_SysOsalNVRead_1:
        JZ      ??MT_SysOsalNVRead_2
        MOV     A,#0x6b
        XRL     A,?V4
        JNZ     ??MT_SysOsalNVRead_3
        MOV     A,#0x0
        XRL     A,?V5
??MT_SysOsalNVRead_3:
        JZ      ??MT_SysOsalNVRead_2
        MOV     A,#0x6a
        XRL     A,?V4
        JNZ     ??MT_SysOsalNVRead_4
        MOV     A,#0x0
        XRL     A,?V5
??MT_SysOsalNVRead_4:
        JNZ     ??MT_SysOsalNVRead_5
//  654   {
//  655     /* Access to Security Certificate Data is denied */
//  656     error = ZInvalidParameter;
??MT_SysOsalNVRead_2:
        MOV     ?V0,#0x2
//  657   }
//  658 #endif
//  659 
//  660 #if !MT_SYS_KEY_MANAGEMENT
//  661   if ( (nvId == ZCD_NV_NWK_ACTIVE_KEY_INFO) ||
//  662        (nvId == ZCD_NV_NWK_ALTERN_KEY_INFO) ||
//  663       ((nvId >= ZCD_NV_TCLK_TABLE_START) && (nvId <= ZCD_NV_TCLK_TABLE_END)) ||
//  664       ((nvId >= ZCD_NV_APS_LINK_KEY_DATA_START) && (nvId <= ZCD_NV_APS_LINK_KEY_DATA_END)) ||
//  665        (nvId == ZCD_NV_PRECFGKEY) )
??MT_SysOsalNVRead_5:
        MOV     A,#0x3a
        XRL     A,?V4
        JNZ     ??MT_SysOsalNVRead_6
        MOV     A,#0x0
        XRL     A,?V5
??MT_SysOsalNVRead_6:
        JZ      ??MT_SysOsalNVRead_7
        MOV     A,#0x3b
        XRL     A,?V4
        JNZ     ??MT_SysOsalNVRead_8
        MOV     A,#0x0
        XRL     A,?V5
??MT_SysOsalNVRead_8:
        JZ      ??MT_SysOsalNVRead_7
        CLR     C
        MOV     A,?V4
        SUBB    A,#0x1
        MOV     A,?V5
        SUBB    A,#0x1
        JC      ??MT_SysOsalNVRead_9
        CLR     C
        MOV     A,?V4
        SUBB    A,#0x0
        MOV     A,?V5
        SUBB    A,#0x2
        JC      ??MT_SysOsalNVRead_7
??MT_SysOsalNVRead_9:
        CLR     C
        MOV     A,?V4
        SUBB    A,#0x1
        MOV     A,?V5
        SUBB    A,#0x2
        JC      ??MT_SysOsalNVRead_10
        CLR     C
        MOV     A,?V4
        SUBB    A,#0x0
        MOV     A,?V5
        SUBB    A,#0x3
        JC      ??MT_SysOsalNVRead_7
??MT_SysOsalNVRead_10:
        MOV     A,#0x62
        XRL     A,?V4
        JNZ     ??MT_SysOsalNVRead_11
        MOV     A,#0x0
        XRL     A,?V5
??MT_SysOsalNVRead_11:
        JNZ     ??MT_SysOsalNVRead_12
//  666   {
//  667     /* Access to Security Key Data is denied */
//  668     error = ZInvalidParameter;
??MT_SysOsalNVRead_7:
        MOV     ?V0,#0x2
//  669   }
//  670 #endif //!MT_SYS_KEY_MANAGEMENT
//  671   
//  672   /* Get NV data offset */
//  673   if (cmdId == MT_SYS_OSAL_NV_READ)
??MT_SysOsalNVRead_12:
        MOV     A,#0x8
        XRL     A,?V12
        JNZ     ??MT_SysOsalNVRead_13
//  674   {
//  675     /* MT_SYS_OSAL_NV_READ has 1-byte offset */
//  676     dataOfs = (uint16)pBuf[2];
        MOV     DPL,?V8
        MOV     DPH,?V9
        INC     DPTR
        INC     DPTR
        MOVX    A,@DPTR
        MOV     R0,A
        MOV     R1,#0x0
        MOV     ?V2,R0
        MOV     ?V3,R1
        SJMP    ??MT_SysOsalNVRead_14
//  677   }
//  678   else
//  679   {
//  680     /* MT_SYS_OSAL_NV_READ_EXT has 2-byte offset */
//  681     dataOfs = BUILD_UINT16(pBuf[2], pBuf[3]);
??MT_SysOsalNVRead_13:
        MOV     DPL,?V8
        MOV     DPH,?V9
        INC     DPTR
        INC     DPTR
        MOVX    A,@DPTR
        MOV     R2,A
        MOV     R3,#0x0
        MOV     DPL,?V8
        MOV     DPH,?V9
        INC     DPTR
        INC     DPTR
        INC     DPTR
        MOVX    A,@DPTR
        MOV     R0,A
        MOV     R1,#0x0
        CLR     A
        XCH     A,R0
        MOV     R1,A
        MOV     A,R2
        ADD     A,R0
        MOV     R0,A
        MOV     A,R3
        ADDC    A,R1
        MOV     R1,A
        MOV     ?V2,R0
        MOV     ?V3,R1
//  682   }
//  683   if (nvItemLen <= dataOfs)
??MT_SysOsalNVRead_14:
        CLR     C
        MOV     A,?V2
        SUBB    A,?V14
        MOV     A,?V3
        SUBB    A,?V15
        JC      ??MT_SysOsalNVRead_15
//  684   {
//  685     /* Offset is past end of data */
//  686     error = ZInvalidParameter;
        MOV     ?V0,#0x2
//  687   }
//  688 
//  689   if (error == ZSuccess)
??MT_SysOsalNVRead_15:
        MOV     A,?V0
        JZ      $+5
        LJMP    ??MT_SysOsalNVRead_16 & 0xFFFF
//  690   {
//  691     uint8 *pRetBuf;
//  692     uint8 respLen = 2;  /* Response header: [0]=status,[1]=length */
        MOV     ?V1,#0x2
//  693 
//  694     dataLen = nvItemLen - dataOfs;
        MOV     A,?V14
        CLR     C
        SUBB    A,?V2
        MOV     R0,A
        MOV     A,?V15
        SUBB    A,?V3
        MOV     R1,A
        MOV     A,R0
        MOV     R6,A
        MOV     A,R1
        MOV     R7,A
//  695     if (dataLen > (uint16)(MT_MAX_RSP_DATA_LEN - respLen))
        MOV     R0,?V1
        MOV     R1,#0x0
        MOV     A,#-0x7
        CLR     C
        SUBB    A,R0
        MOV     R0,A
        MOV     A,#0x0
        SUBB    A,R1
        MOV     R1,A
        CLR     C
        MOV     A,R0
        SUBB    A,R6
        MOV     A,R1
        SUBB    A,R7
        JNC     ??MT_SysOsalNVRead_17
//  696     {
//  697       /* Data length is limited by TX buffer size and MT protocol */
//  698       dataLen = (MT_MAX_RSP_DATA_LEN - respLen);
        MOV     R0,?V1
        MOV     R1,#0x0
        MOV     A,#-0x7
        CLR     C
        SUBB    A,R0
        MOV     R0,A
        MOV     A,#0x0
        SUBB    A,R1
        MOV     R1,A
        MOV     A,R0
        MOV     R6,A
        MOV     A,R1
        MOV     R7,A
//  699     }
//  700     respLen += dataLen;
??MT_SysOsalNVRead_17:
        MOV     A,R6
        ADD     A,?V1
        MOV     ?V1,A
//  701 
//  702     pRetBuf = osal_mem_alloc(respLen);
        ; Setup parameters for call to function osal_mem_alloc
        MOV     R2,?V1
        MOV     R3,#0x0
        LCALL   `??osal_mem_alloc::?relay`; Banked call to: osal_mem_alloc
        MOV     ?V10,R2
        MOV     ?V11,R3
        MOV     ?V6,?V10
        MOV     ?V7,?V11
//  703     if (pRetBuf != NULL)
        MOV     A,?V6
        ORL     A,?V7
        JZ      ??MT_SysOsalNVRead_18
//  704     {
//  705       osal_memset(&pRetBuf[2], 0, dataLen);
        ; Setup parameters for call to function osal_memset
        MOV     A,R6
        MOV     R4,A
        MOV     A,R7
        MOV     R5,A
        MOV     R1,#0x0
        MOV     A,?V6
        ADD     A,#0x2
        MOV     R2,A
        CLR     A
        ADDC    A,?V7
        MOV     R3,A
        LCALL   `??osal_memset::?relay`; Banked call to: osal_memset
//  706       if (((osal_nv_read( nvId, dataOfs, dataLen, &pRetBuf[2])) == ZSUCCESS))
        ; Setup parameters for call to function osal_nv_read
        MOV     A,?V6
        ADD     A,#0x2
        MOV     ?V10,A
        CLR     A
        ADDC    A,?V7
        MOV     ?V11,A
        MOV     R0,#?V10
        LCALL   ?PUSH_XSTACK_I_TWO
          CFI CFA_XSP16 add(XSP16, 28)
        MOV     ?V10,R6
        MOV     ?V11,R7
        MOV     R0,#?V10
        LCALL   ?PUSH_XSTACK_I_TWO
          CFI CFA_XSP16 add(XSP16, 30)
        MOV     R4,?V2
        MOV     R5,?V3
        MOV     R2,?V4
        MOV     R3,?V5
        LCALL   `??osal_nv_read::?relay`; Banked call to: osal_nv_read
        MOV     A,#0x4
        LCALL   ?DEALLOC_XSTACK8
          CFI CFA_XSP16 add(XSP16, 26)
        MOV     A,R1
        JNZ     ??MT_SysOsalNVRead_19
//  707       {
//  708         pRetBuf[0] = ZSuccess;
        MOV     DPL,?V6
        MOV     DPH,?V7
        MOV     A,#0x0
        MOVX    @DPTR,A
//  709         pRetBuf[1] = dataLen;
        MOV     A,R6
        PUSH    A
          CFI CFA_SP SP+-1
        MOV     DPL,?V6
        MOV     DPH,?V7
        INC     DPTR
        POP     A
          CFI CFA_SP SP+0
        MOVX    @DPTR,A
//  710         MT_BuildAndSendZToolResponse(((uint8)MT_RPC_CMD_SRSP | (uint8)MT_RPC_SYS_SYS),
//  711                                        cmdId, respLen, pRetBuf );
        ; Setup parameters for call to function MT_BuildAndSendZToolResponse
        MOV     R4,?V6
        MOV     R5,?V7
        MOV     R3,?V1
        MOV     R2,?V12
        MOV     R1,#0x61
        LCALL   `??MT_BuildAndSendZToolResponse::?relay`; Banked call to: MT_BuildAndSendZToolResponse
        SJMP    ??MT_SysOsalNVRead_20
//  712       }
//  713       else
//  714       {
//  715         error = NV_OPER_FAILED;
??MT_SysOsalNVRead_19:
        MOV     ?V0,#0xa
//  716       }
//  717       osal_mem_free(pRetBuf);
??MT_SysOsalNVRead_20:
        ; Setup parameters for call to function osal_mem_free
        MOV     R2,?V6
        MOV     R3,?V7
        LCALL   `??osal_mem_free::?relay`; Banked call to: osal_mem_free
        SJMP    ??MT_SysOsalNVRead_16
//  718     }
//  719     else
//  720     {
//  721       /* Could not get buffer for NV data */
//  722       error = ZMemError;
??MT_SysOsalNVRead_18:
        MOV     ?V0,#0x10
//  723     }
//  724   }
//  725   
//  726   if (error != ZSuccess)
??MT_SysOsalNVRead_16:
        MOV     A,?V0
        JZ      ??MT_SysOsalNVRead_21
//  727   {
//  728     uint8 tmp[2] = { error, 0 };
        MOV     DPTR,#`?<Constant {0, 0}>`
        MOV     R4,?XSP + 0
        MOV     R5,?XSP + 1
        MOV     A,#0x2
        LCALL   ?MOVE_LONG8_XDATA_XDATA
        MOV     A,?V0
        PUSH    A
          CFI CFA_SP SP+-1
        MOV     DPL,?XSP + 0
        MOV     DPH,?XSP + 1
        POP     A
          CFI CFA_SP SP+0
        MOVX    @DPTR,A
//  729     MT_BuildAndSendZToolResponse(((uint8)MT_RPC_CMD_SRSP | (uint8)MT_RPC_SYS_SYS),
//  730                                    cmdId, 2, tmp);
        ; Setup parameters for call to function MT_BuildAndSendZToolResponse
        MOV     R4,?XSP + 0
        MOV     R5,?XSP + 1
        MOV     R3,#0x2
        MOV     R2,?V12
        MOV     R1,#0x61
        LCALL   `??MT_BuildAndSendZToolResponse::?relay`; Banked call to: MT_BuildAndSendZToolResponse
//  731   }
//  732 }
??MT_SysOsalNVRead_21:
        MOV     A,#0x2
        LCALL   ?DEALLOC_XSTACK8
          CFI CFA_XSP16 add(XSP16, 24)
        MOV     R7,#0x10
        LJMP    ?BANKED_LEAVE_XDATA
          CFI EndBlock cfiBlock6

        RSEG XDATA_ROM_C:CONST:REORDER:NOROOT(0)
        DATA16
`?<Constant {0, 0}>`:
        DATA8
        DB 0
        DB 0
//  733 
//  734 /***************************************************************************************************
//  735  * @fn      MT_SysOsalNVWrite
//  736  *
//  737  * @brief   Attempt to write an NV item
//  738  *
//  739  * @param   pBuf - pointer to the data
//  740  *
//  741  * @return  None
//  742  ***************************************************************************************************/

        RSEG BANKED_CODE:CODE:NOROOT(0)
//  743 void MT_SysOsalNVWrite(uint8 *pBuf)
MT_SysOsalNVWrite:
          CFI Block cfiBlock7 Using cfiCommon0
          CFI Function MT_SysOsalNVWrite
        CODE
//  744 {
        FUNCALL MT_SysOsalNVWrite, osal_nv_item_len
        LOCFRAME ISTACK, 0, STACK
        LOCFRAME PSTACK, 0, STACK
        LOCFRAME XSTACK, 21, STACK
        LOCFRAME IOVERLAY, 0, STATIC
        LOCFRAME DOVERLAY, 0, STATIC
        ARGFRAME ISTACK, 0, STACK
        ARGFRAME PSTACK, 0, STACK
        ARGFRAME XSTACK, 21, STACK
        ARGFRAME IOVERLAY, 0, STATIC
        ARGFRAME DOVERLAY, 0, STATIC
        FUNCALL MT_SysOsalNVWrite, zgSetItem
        LOCFRAME ISTACK, 0, STACK
        LOCFRAME PSTACK, 0, STACK
        LOCFRAME XSTACK, 23, STACK
        LOCFRAME IOVERLAY, 0, STATIC
        LOCFRAME DOVERLAY, 0, STATIC
        ARGFRAME ISTACK, 0, STACK
        ARGFRAME PSTACK, 0, STACK
        ARGFRAME XSTACK, 23, STACK
        ARGFRAME IOVERLAY, 0, STATIC
        ARGFRAME DOVERLAY, 0, STATIC
        FUNCALL MT_SysOsalNVWrite, osal_nv_write
        LOCFRAME ISTACK, 0, STACK
        LOCFRAME PSTACK, 0, STACK
        LOCFRAME XSTACK, 25, STACK
        LOCFRAME IOVERLAY, 0, STATIC
        LOCFRAME DOVERLAY, 0, STATIC
        ARGFRAME ISTACK, 0, STACK
        ARGFRAME PSTACK, 0, STACK
        ARGFRAME XSTACK, 25, STACK
        ARGFRAME IOVERLAY, 0, STATIC
        ARGFRAME DOVERLAY, 0, STATIC
        FUNCALL MT_SysOsalNVWrite, ZMacSetReq
        LOCFRAME ISTACK, 0, STACK
        LOCFRAME PSTACK, 0, STACK
        LOCFRAME XSTACK, 21, STACK
        LOCFRAME IOVERLAY, 0, STATIC
        LOCFRAME DOVERLAY, 0, STATIC
        ARGFRAME ISTACK, 0, STACK
        ARGFRAME PSTACK, 0, STACK
        ARGFRAME XSTACK, 21, STACK
        ARGFRAME IOVERLAY, 0, STATIC
        ARGFRAME DOVERLAY, 0, STATIC
        FUNCALL MT_SysOsalNVWrite, MT_BuildAndSendZToolResponse
        LOCFRAME ISTACK, 0, STACK
        LOCFRAME PSTACK, 0, STACK
        LOCFRAME XSTACK, 21, STACK
        LOCFRAME IOVERLAY, 0, STATIC
        LOCFRAME DOVERLAY, 0, STATIC
        ARGFRAME ISTACK, 0, STACK
        ARGFRAME PSTACK, 0, STACK
        ARGFRAME XSTACK, 21, STACK
        ARGFRAME IOVERLAY, 0, STATIC
        ARGFRAME DOVERLAY, 0, STATIC
        REQUIRE ?V0
        REQUIRE ?V1
        REQUIRE ?V2
        REQUIRE ?V4
        REQUIRE ?V5
        REQUIRE ?V6
        REQUIRE ?V7
        REQUIRE ?V8
        REQUIRE ?V9
        REQUIRE ?V10
        REQUIRE ?V11
        MOV     A,#-0x14
        LCALL   ?BANKED_ENTER_XDATA
          CFI DPH0 load(1, XDATA, add(CFA_XSP16, literal(-1)))
          CFI DPL0 load(1, XDATA, add(CFA_XSP16, literal(-2)))
          CFI ?BRET_EXT load(1, XDATA, add(CFA_XSP16, literal(-3)))
          CFI ?RET_HIGH load(1, XDATA, add(CFA_XSP16, literal(-4)))
          CFI ?RET_LOW load(1, XDATA, add(CFA_XSP16, literal(-5)))
          CFI R7 load(1, XDATA, add(CFA_XSP16, literal(-6)))
          CFI V11 load(1, XDATA, add(CFA_XSP16, literal(-7)))
          CFI V10 load(1, XDATA, add(CFA_XSP16, literal(-8)))
          CFI V9 load(1, XDATA, add(CFA_XSP16, literal(-9)))
          CFI V8 load(1, XDATA, add(CFA_XSP16, literal(-10)))
          CFI V7 load(1, XDATA, add(CFA_XSP16, literal(-11)))
          CFI V6 load(1, XDATA, add(CFA_XSP16, literal(-12)))
          CFI V5 load(1, XDATA, add(CFA_XSP16, literal(-13)))
          CFI V4 load(1, XDATA, add(CFA_XSP16, literal(-14)))
          CFI V3 load(1, XDATA, add(CFA_XSP16, literal(-15)))
          CFI V2 load(1, XDATA, add(CFA_XSP16, literal(-16)))
          CFI V1 load(1, XDATA, add(CFA_XSP16, literal(-17)))
          CFI V0 load(1, XDATA, add(CFA_XSP16, literal(-18)))
          CFI VB load(1, XDATA, add(CFA_XSP16, literal(-19)))
          CFI R6 load(1, XDATA, add(CFA_XSP16, literal(-20)))
          CFI CFA_SP SP+0
          CFI CFA_XSP16 add(XSP16, 20)
        ; Saved register size: 20
        ; Auto size: 1
        MOV     A,#-0x1
        LCALL   ?ALLOC_XSTACK8
          CFI CFA_XSP16 add(XSP16, 21)
        MOV     ?V6,R2
        MOV     ?V7,R3
//  745   uint8 cmdId;
//  746   uint16 nvId;
//  747   uint16 dataLen;
//  748   uint16 dataOfs;
//  749   uint16 nvItemLen;
//  750   uint8 rtrn = ZSuccess;
        MOV     DPL,?XSP + 0
        MOV     DPH,?XSP + 1
        MOV     A,#0x0
        MOVX    @DPTR,A
//  751 
//  752   /* MT command ID */
//  753   cmdId = pBuf[MT_RPC_POS_CMD1];
        MOV     DPL,?V6
        MOV     DPH,?V7
        INC     DPTR
        INC     DPTR
        MOVX    A,@DPTR
        MOV     ?V2,A
//  754   /* Skip over RPC header */
//  755   pBuf += MT_RPC_FRAME_HDR_SZ;
        MOV     A,?V6
        ADD     A,#0x3
        MOV     ?V6,A
        JNC     ??MT_SysOsalNVWrite_0
        INC     ?V7
//  756 
//  757   /* NV item ID */
//  758   nvId = BUILD_UINT16(pBuf[0], pBuf[1]);
??MT_SysOsalNVWrite_0:
        MOV     DPL,?V6
        MOV     DPH,?V7
        MOVX    A,@DPTR
        MOV     R2,A
        MOV     R3,#0x0
        MOV     DPL,?V6
        MOV     DPH,?V7
        INC     DPTR
        MOVX    A,@DPTR
        MOV     R0,A
        MOV     R1,#0x0
        CLR     A
        XCH     A,R0
        MOV     R1,A
        MOV     A,R2
        ADD     A,R0
        MOV     R0,A
        MOV     A,R3
        ADDC    A,R1
        MOV     R1,A
        MOV     ?V0,R0
        MOV     ?V1,R1
//  759   
//  760   /* Get NV data offset & length */
//  761   if ( cmdId == MT_SYS_OSAL_NV_WRITE )
        MOV     A,#0x9
        XRL     A,?V2
        JNZ     ??MT_SysOsalNVWrite_1
//  762   {
//  763     /* MT_SYS_OSAL_NV_WRITE has 1-byte offset & length */
//  764     dataOfs = (uint16)pBuf[2];
        MOV     DPL,?V6
        MOV     DPH,?V7
        INC     DPTR
        INC     DPTR
        MOVX    A,@DPTR
        MOV     R0,A
        MOV     R1,#0x0
        MOV     A,R0
        MOV     R6,A
        MOV     A,R1
        MOV     R7,A
//  765     dataLen = (uint16)pBuf[3];
        MOV     DPL,?V6
        MOV     DPH,?V7
        INC     DPTR
        INC     DPTR
        INC     DPTR
        MOVX    A,@DPTR
        MOV     R0,A
        MOV     R1,#0x0
        MOV     ?V8,R0
        MOV     ?V9,R1
//  766     pBuf += 4;
        MOV     A,?V6
        ADD     A,#0x4
        MOV     ?V6,A
        JNC     ??MT_SysOsalNVWrite_2
        INC     ?V7
        SJMP    ??MT_SysOsalNVWrite_2
//  767   }
//  768   else
//  769   {
//  770     /* MT_SYS_OSAL_NV_WRITE_EXT has 2-byte offset & length */
//  771     dataOfs = BUILD_UINT16(pBuf[2], pBuf[3]);
??MT_SysOsalNVWrite_1:
        MOV     DPL,?V6
        MOV     DPH,?V7
        INC     DPTR
        INC     DPTR
        MOVX    A,@DPTR
        MOV     R2,A
        MOV     R3,#0x0
        MOV     DPL,?V6
        MOV     DPH,?V7
        INC     DPTR
        INC     DPTR
        INC     DPTR
        MOVX    A,@DPTR
        MOV     R0,A
        MOV     R1,#0x0
        CLR     A
        XCH     A,R0
        MOV     R1,A
        MOV     A,R2
        ADD     A,R0
        MOV     R0,A
        MOV     A,R3
        ADDC    A,R1
        MOV     R1,A
        MOV     A,R0
        MOV     R6,A
        MOV     A,R1
        MOV     R7,A
//  772     dataLen = BUILD_UINT16(pBuf[4], pBuf[5]);
        MOV     DPL,?V6
        MOV     DPH,?V7
        INC     DPTR
        INC     DPTR
        INC     DPTR
        INC     DPTR
        MOVX    A,@DPTR
        MOV     R2,A
        MOV     R3,#0x0
        MOV     DPL,?V6
        MOV     DPH,?V7
        INC     DPTR
        INC     DPTR
        INC     DPTR
        INC     DPTR
        INC     DPTR
        MOVX    A,@DPTR
        MOV     R0,A
        MOV     R1,#0x0
        CLR     A
        XCH     A,R0
        MOV     R1,A
        MOV     A,R2
        ADD     A,R0
        MOV     R0,A
        MOV     A,R3
        ADDC    A,R1
        MOV     R1,A
        MOV     ?V8,R0
        MOV     ?V9,R1
//  773     pBuf += 6;
        MOV     A,?V6
        ADD     A,#0x6
        MOV     ?V6,A
        JNC     ??MT_SysOsalNVWrite_2
        INC     ?V7
//  774   }
//  775 
//  776   /* Length of entire NV item data */
//  777   nvItemLen = osal_nv_item_len(nvId);
??MT_SysOsalNVWrite_2:
        ; Setup parameters for call to function osal_nv_item_len
        MOV     R2,?V0
        MOV     R3,?V1
        LCALL   `??osal_nv_item_len::?relay`; Banked call to: osal_nv_item_len
        MOV     ?V10,R2
        MOV     ?V11,R3
        MOV     ?V4,?V10
        MOV     ?V5,?V11
//  778   if ((dataOfs + dataLen) <= nvItemLen)
        MOV     A,R6
        ADD     A,?V8
        MOV     R0,A
        MOV     A,R7
        ADDC    A,?V9
        MOV     R1,A
        CLR     C
        MOV     A,?V4
        SUBB    A,R0
        MOV     A,?V5
        SUBB    A,R1
        JC      ??MT_SysOsalNVWrite_3
//  779   {
//  780     if (dataOfs == 0)
        MOV     A,R6
        ORL     A,R7
        JNZ     ??MT_SysOsalNVWrite_4
//  781     {
//  782       /* Set the Z-Globals value of this NV item */
//  783       zgSetItem( nvId, dataLen, pBuf );
        ; Setup parameters for call to function zgSetItem
        MOV     R0,#?V6
        LCALL   ?PUSH_XSTACK_I_TWO
          CFI CFA_XSP16 add(XSP16, 23)
        MOV     R4,?V8
        MOV     R5,?V9
        MOV     R2,?V0
        MOV     R3,?V1
        LCALL   `??zgSetItem::?relay`; Banked call to: zgSetItem
        MOV     A,#0x2
        LCALL   ?DEALLOC_XSTACK8
          CFI CFA_XSP16 add(XSP16, 21)
//  784     }
//  785     
//  786     if ((osal_nv_write(nvId, dataOfs, dataLen, pBuf)) == ZSUCCESS)
??MT_SysOsalNVWrite_4:
        ; Setup parameters for call to function osal_nv_write
        MOV     R0,#?V6
        LCALL   ?PUSH_XSTACK_I_TWO
          CFI CFA_XSP16 add(XSP16, 23)
        MOV     R0,#?V8
        LCALL   ?PUSH_XSTACK_I_TWO
          CFI CFA_XSP16 add(XSP16, 25)
        MOV     A,R6
        MOV     R4,A
        MOV     A,R7
        MOV     R5,A
        MOV     R2,?V0
        MOV     R3,?V1
        LCALL   `??osal_nv_write::?relay`; Banked call to: osal_nv_write
        MOV     A,#0x4
        LCALL   ?DEALLOC_XSTACK8
          CFI CFA_XSP16 add(XSP16, 21)
        MOV     A,R1
        JNZ     ??MT_SysOsalNVWrite_5
//  787     {
//  788       if (nvId == ZCD_NV_EXTADDR)
        MOV     A,#0x1
        XRL     A,?V0
        JNZ     ??MT_SysOsalNVWrite_6
        MOV     A,#0x0
        XRL     A,?V1
??MT_SysOsalNVWrite_6:
        JNZ     ??MT_SysOsalNVWrite_7
//  789       {
//  790         rtrn = ZMacSetReq(ZMacExtAddr, pBuf);
        ; Setup parameters for call to function ZMacSetReq
        MOV     R2,?V6
        MOV     R3,?V7
        MOV     R1,#-0x1e
        LCALL   `??ZMacSetReq::?relay`; Banked call to: ZMacSetReq
        MOV     A,R1
        PUSH    A
          CFI CFA_SP SP+-1
        MOV     DPL,?XSP + 0
        MOV     DPH,?XSP + 1
        POP     A
          CFI CFA_SP SP+0
        MOVX    @DPTR,A
        SJMP    ??MT_SysOsalNVWrite_7
//  791       }
//  792     }
//  793     else
//  794     {
//  795       rtrn = NV_OPER_FAILED;
??MT_SysOsalNVWrite_5:
        MOV     DPL,?XSP + 0
        MOV     DPH,?XSP + 1
        MOV     A,#0xa
        MOVX    @DPTR,A
        SJMP    ??MT_SysOsalNVWrite_7
//  796     }
//  797   }
//  798   else
//  799   {
//  800     /* Bad length or/and offset */
//  801     rtrn = ZInvalidParameter;
??MT_SysOsalNVWrite_3:
        MOV     DPL,?XSP + 0
        MOV     DPH,?XSP + 1
        MOV     A,#0x2
        MOVX    @DPTR,A
//  802   }
//  803 
//  804   /* Build and send back the response */
//  805   MT_BuildAndSendZToolResponse(((uint8)MT_RPC_CMD_SRSP | (uint8)MT_RPC_SYS_SYS),
//  806                                  cmdId, 1, &rtrn);
??MT_SysOsalNVWrite_7:
        ; Setup parameters for call to function MT_BuildAndSendZToolResponse
        MOV     R4,?XSP + 0
        MOV     R5,?XSP + 1
        MOV     R3,#0x1
        MOV     R2,?V2
        MOV     R1,#0x61
        LCALL   `??MT_BuildAndSendZToolResponse::?relay`; Banked call to: MT_BuildAndSendZToolResponse
//  807 }
        MOV     A,#0x1
        LCALL   ?DEALLOC_XSTACK8
          CFI CFA_XSP16 add(XSP16, 20)
        MOV     R7,#0xc
        LJMP    ?BANKED_LEAVE_XDATA
          CFI EndBlock cfiBlock7
//  808 
//  809 /***************************************************************************************************
//  810  * @fn      MT_SysOsalNVItemInit
//  811  *
//  812  * @brief   Attempt to create an NV item
//  813  *
//  814  * @param   pBuf - pointer to the data
//  815  *
//  816  * @return  None
//  817  ***************************************************************************************************/

        RSEG BANKED_CODE:CODE:NOROOT(0)
//  818 void MT_SysOsalNVItemInit(uint8 *pBuf)
MT_SysOsalNVItemInit:
          CFI Block cfiBlock8 Using cfiCommon0
          CFI Function MT_SysOsalNVItemInit
        CODE
//  819 {
        FUNCALL MT_SysOsalNVItemInit, osal_nv_item_init
        LOCFRAME ISTACK, 0, STACK
        LOCFRAME PSTACK, 0, STACK
        LOCFRAME XSTACK, 19, STACK
        LOCFRAME IOVERLAY, 0, STATIC
        LOCFRAME DOVERLAY, 0, STATIC
        ARGFRAME ISTACK, 0, STACK
        ARGFRAME PSTACK, 0, STACK
        ARGFRAME XSTACK, 19, STACK
        ARGFRAME IOVERLAY, 0, STATIC
        ARGFRAME DOVERLAY, 0, STATIC
        FUNCALL MT_SysOsalNVItemInit, osal_nv_write
        LOCFRAME ISTACK, 0, STACK
        LOCFRAME PSTACK, 0, STACK
        LOCFRAME XSTACK, 21, STACK
        LOCFRAME IOVERLAY, 0, STATIC
        LOCFRAME DOVERLAY, 0, STATIC
        ARGFRAME ISTACK, 0, STACK
        ARGFRAME PSTACK, 0, STACK
        ARGFRAME XSTACK, 21, STACK
        ARGFRAME IOVERLAY, 0, STATIC
        ARGFRAME DOVERLAY, 0, STATIC
        FUNCALL MT_SysOsalNVItemInit, osal_nv_item_init
        LOCFRAME ISTACK, 0, STACK
        LOCFRAME PSTACK, 0, STACK
        LOCFRAME XSTACK, 19, STACK
        LOCFRAME IOVERLAY, 0, STATIC
        LOCFRAME DOVERLAY, 0, STATIC
        ARGFRAME ISTACK, 0, STACK
        ARGFRAME PSTACK, 0, STACK
        ARGFRAME XSTACK, 19, STACK
        ARGFRAME IOVERLAY, 0, STATIC
        ARGFRAME DOVERLAY, 0, STATIC
        FUNCALL MT_SysOsalNVItemInit, MT_BuildAndSendZToolResponse
        LOCFRAME ISTACK, 0, STACK
        LOCFRAME PSTACK, 0, STACK
        LOCFRAME XSTACK, 17, STACK
        LOCFRAME IOVERLAY, 0, STATIC
        LOCFRAME DOVERLAY, 0, STATIC
        ARGFRAME ISTACK, 0, STACK
        ARGFRAME PSTACK, 0, STACK
        ARGFRAME XSTACK, 17, STACK
        ARGFRAME IOVERLAY, 0, STATIC
        ARGFRAME DOVERLAY, 0, STATIC
        REQUIRE ?V0
        REQUIRE ?V1
        REQUIRE ?V2
        REQUIRE ?V4
        REQUIRE ?V5
        REQUIRE ?V6
        REQUIRE ?V7
        MOV     A,#-0x10
        LCALL   ?BANKED_ENTER_XDATA
          CFI DPH0 load(1, XDATA, add(CFA_XSP16, literal(-1)))
          CFI DPL0 load(1, XDATA, add(CFA_XSP16, literal(-2)))
          CFI ?BRET_EXT load(1, XDATA, add(CFA_XSP16, literal(-3)))
          CFI ?RET_HIGH load(1, XDATA, add(CFA_XSP16, literal(-4)))
          CFI ?RET_LOW load(1, XDATA, add(CFA_XSP16, literal(-5)))
          CFI R7 load(1, XDATA, add(CFA_XSP16, literal(-6)))
          CFI V7 load(1, XDATA, add(CFA_XSP16, literal(-7)))
          CFI V6 load(1, XDATA, add(CFA_XSP16, literal(-8)))
          CFI V5 load(1, XDATA, add(CFA_XSP16, literal(-9)))
          CFI V4 load(1, XDATA, add(CFA_XSP16, literal(-10)))
          CFI V3 load(1, XDATA, add(CFA_XSP16, literal(-11)))
          CFI V2 load(1, XDATA, add(CFA_XSP16, literal(-12)))
          CFI V1 load(1, XDATA, add(CFA_XSP16, literal(-13)))
          CFI V0 load(1, XDATA, add(CFA_XSP16, literal(-14)))
          CFI VB load(1, XDATA, add(CFA_XSP16, literal(-15)))
          CFI R6 load(1, XDATA, add(CFA_XSP16, literal(-16)))
          CFI CFA_SP SP+0
          CFI CFA_XSP16 add(XSP16, 16)
        ; Saved register size: 16
        ; Auto size: 1
        MOV     A,#-0x1
        LCALL   ?ALLOC_XSTACK8
          CFI CFA_XSP16 add(XSP16, 17)
        MOV     ?V4,R2
        MOV     ?V5,R3
//  820   uint8 ret;
//  821   uint8 idLen;
//  822   uint16 nvId;
//  823   uint16 nvLen;
//  824 
//  825   /* Skip over RPC header */
//  826   pBuf += MT_RPC_FRAME_HDR_SZ;
        MOV     A,?V4
        ADD     A,#0x3
        MOV     ?V4,A
        JNC     ??MT_SysOsalNVItemInit_0
        INC     ?V5
//  827 
//  828   /* NV item ID */
//  829   nvId = BUILD_UINT16(pBuf[0], pBuf[1]);
??MT_SysOsalNVItemInit_0:
        MOV     DPL,?V4
        MOV     DPH,?V5
        MOVX    A,@DPTR
        MOV     R2,A
        MOV     R3,#0x0
        MOV     DPL,?V4
        MOV     DPH,?V5
        INC     DPTR
        MOVX    A,@DPTR
        MOV     R0,A
        MOV     R1,#0x0
        CLR     A
        XCH     A,R0
        MOV     R1,A
        MOV     A,R2
        ADD     A,R0
        MOV     R0,A
        MOV     A,R3
        ADDC    A,R1
        MOV     R1,A
        MOV     ?V0,R0
        MOV     ?V1,R1
//  830   /* NV item length */
//  831   nvLen = BUILD_UINT16(pBuf[2], pBuf[3]);
        MOV     DPL,?V4
        MOV     DPH,?V5
        INC     DPTR
        INC     DPTR
        MOVX    A,@DPTR
        MOV     R2,A
        MOV     R3,#0x0
        MOV     DPL,?V4
        MOV     DPH,?V5
        INC     DPTR
        INC     DPTR
        INC     DPTR
        MOVX    A,@DPTR
        MOV     R0,A
        MOV     R1,#0x0
        CLR     A
        XCH     A,R0
        MOV     R1,A
        MOV     A,R2
        ADD     A,R0
        MOV     R0,A
        MOV     A,R3
        ADDC    A,R1
        MOV     R1,A
        MOV     A,R0
        MOV     R6,A
        MOV     A,R1
        MOV     R7,A
//  832   /* Initialization data length */
//  833   idLen = pBuf[4];
        MOV     DPL,?V4
        MOV     DPH,?V5
        INC     DPTR
        INC     DPTR
        INC     DPTR
        INC     DPTR
        MOVX    A,@DPTR
        MOV     ?V2,A
//  834   pBuf += 5;
        MOV     A,?V4
        ADD     A,#0x5
        MOV     ?V4,A
        JNC     ??MT_SysOsalNVItemInit_1
        INC     ?V5
//  835 
//  836   if ( idLen < nvLen )
??MT_SysOsalNVItemInit_1:
        MOV     R0,?V2
        MOV     R1,#0x0
        CLR     C
        MOV     A,R0
        SUBB    A,R6
        MOV     A,R1
        SUBB    A,R7
        JNC     ??MT_SysOsalNVItemInit_2
//  837   {
//  838     /* Attempt to create a new NV item */
//  839     ret = osal_nv_item_init( nvId, nvLen, NULL );
        ; Setup parameters for call to function osal_nv_item_init
        CLR     A
        MOV     ?V6,A
        MOV     ?V7,A
        MOV     R0,#?V6
        LCALL   ?PUSH_XSTACK_I_TWO
          CFI CFA_XSP16 add(XSP16, 19)
        MOV     A,R6
        MOV     R4,A
        MOV     A,R7
        MOV     R5,A
        MOV     R2,?V0
        MOV     R3,?V1
        LCALL   `??osal_nv_item_init::?relay`; Banked call to: osal_nv_item_init
        MOV     A,#0x2
        LCALL   ?DEALLOC_XSTACK8
          CFI CFA_XSP16 add(XSP16, 17)
        MOV     A,R1
        PUSH    A
          CFI CFA_SP SP+-1
        MOV     DPL,?XSP + 0
        MOV     DPH,?XSP + 1
        POP     A
          CFI CFA_SP SP+0
        MOVX    @DPTR,A
//  840     if ( (ret == NV_ITEM_UNINIT) && (idLen > 0) )
        MOV     DPL,?XSP + 0
        MOV     DPH,?XSP + 1
        MOVX    A,@DPTR
        XRL     A,#0x9
        JNZ     ??MT_SysOsalNVItemInit_3
        MOV     A,?V2
        JZ      ??MT_SysOsalNVItemInit_3
//  841     {
//  842       /* Write initialization data to first part of new item */
//  843       (void) osal_nv_write( nvId, 0, (uint16)idLen, pBuf );
        ; Setup parameters for call to function osal_nv_write
        MOV     R0,#?V4
        LCALL   ?PUSH_XSTACK_I_TWO
          CFI CFA_XSP16 add(XSP16, 19)
        MOV     ?V6,?V2
        MOV     ?V7,#0x0
        MOV     R0,#?V6
        LCALL   ?PUSH_XSTACK_I_TWO
          CFI CFA_XSP16 add(XSP16, 21)
        MOV     R4,#0x0
        MOV     R5,#0x0
        MOV     R2,?V0
        MOV     R3,?V1
        LCALL   `??osal_nv_write::?relay`; Banked call to: osal_nv_write
        MOV     A,#0x4
        LCALL   ?DEALLOC_XSTACK8
          CFI CFA_XSP16 add(XSP16, 17)
        MOV     A,R1
        SJMP    ??MT_SysOsalNVItemInit_3
//  844     }
//  845   }
//  846   else
//  847   {
//  848     /* Attempt to create/initialize a new NV item */
//  849     ret = osal_nv_item_init( nvId, nvLen, pBuf );
??MT_SysOsalNVItemInit_2:
        ; Setup parameters for call to function osal_nv_item_init
        MOV     R0,#?V4
        LCALL   ?PUSH_XSTACK_I_TWO
          CFI CFA_XSP16 add(XSP16, 19)
        MOV     A,R6
        MOV     R4,A
        MOV     A,R7
        MOV     R5,A
        MOV     R2,?V0
        MOV     R3,?V1
        LCALL   `??osal_nv_item_init::?relay`; Banked call to: osal_nv_item_init
        MOV     A,#0x2
        LCALL   ?DEALLOC_XSTACK8
          CFI CFA_XSP16 add(XSP16, 17)
        MOV     A,R1
        PUSH    A
          CFI CFA_SP SP+-1
        MOV     DPL,?XSP + 0
        MOV     DPH,?XSP + 1
        POP     A
          CFI CFA_SP SP+0
        MOVX    @DPTR,A
//  850   }
//  851 
//  852   /* Build and send back the response */
//  853   MT_BuildAndSendZToolResponse(((uint8)MT_RPC_CMD_SRSP | (uint8)MT_RPC_SYS_SYS),
//  854                                  MT_SYS_OSAL_NV_ITEM_INIT, 1, &ret);
??MT_SysOsalNVItemInit_3:
        ; Setup parameters for call to function MT_BuildAndSendZToolResponse
        MOV     R4,?XSP + 0
        MOV     R5,?XSP + 1
        MOV     R3,#0x1
        MOV     R2,#0x7
        MOV     R1,#0x61
        LCALL   `??MT_BuildAndSendZToolResponse::?relay`; Banked call to: MT_BuildAndSendZToolResponse
//  855 }
        MOV     A,#0x1
        LCALL   ?DEALLOC_XSTACK8
          CFI CFA_XSP16 add(XSP16, 16)
        MOV     R7,#0x8
        LJMP    ?BANKED_LEAVE_XDATA
          CFI EndBlock cfiBlock8
//  856 
//  857 /***************************************************************************************************
//  858  * @fn      MT_SysOsalNVDelete
//  859  *
//  860  * @brief   Attempt to delete an NV item
//  861  *
//  862  * @param   pBuf - pointer to the data
//  863  *
//  864  * @return  None
//  865  ***************************************************************************************************/

        RSEG BANKED_CODE:CODE:NOROOT(0)
//  866 void MT_SysOsalNVDelete(uint8 *pBuf)
MT_SysOsalNVDelete:
          CFI Block cfiBlock9 Using cfiCommon0
          CFI Function MT_SysOsalNVDelete
        CODE
//  867 {
        FUNCALL MT_SysOsalNVDelete, osal_nv_delete
        LOCFRAME ISTACK, 0, STACK
        LOCFRAME PSTACK, 0, STACK
        LOCFRAME XSTACK, 13, STACK
        LOCFRAME IOVERLAY, 0, STATIC
        LOCFRAME DOVERLAY, 0, STATIC
        ARGFRAME ISTACK, 0, STACK
        ARGFRAME PSTACK, 0, STACK
        ARGFRAME XSTACK, 13, STACK
        ARGFRAME IOVERLAY, 0, STATIC
        ARGFRAME DOVERLAY, 0, STATIC
        FUNCALL MT_SysOsalNVDelete, MT_BuildAndSendZToolResponse
        LOCFRAME ISTACK, 0, STACK
        LOCFRAME PSTACK, 0, STACK
        LOCFRAME XSTACK, 13, STACK
        LOCFRAME IOVERLAY, 0, STATIC
        LOCFRAME DOVERLAY, 0, STATIC
        ARGFRAME ISTACK, 0, STACK
        ARGFRAME PSTACK, 0, STACK
        ARGFRAME XSTACK, 13, STACK
        ARGFRAME IOVERLAY, 0, STATIC
        ARGFRAME DOVERLAY, 0, STATIC
        REQUIRE ?V0
        REQUIRE ?V1
        REQUIRE ?V2
        REQUIRE ?V3
        MOV     A,#-0xc
        LCALL   ?BANKED_ENTER_XDATA
          CFI DPH0 load(1, XDATA, add(CFA_XSP16, literal(-1)))
          CFI DPL0 load(1, XDATA, add(CFA_XSP16, literal(-2)))
          CFI ?BRET_EXT load(1, XDATA, add(CFA_XSP16, literal(-3)))
          CFI ?RET_HIGH load(1, XDATA, add(CFA_XSP16, literal(-4)))
          CFI ?RET_LOW load(1, XDATA, add(CFA_XSP16, literal(-5)))
          CFI R7 load(1, XDATA, add(CFA_XSP16, literal(-6)))
          CFI V3 load(1, XDATA, add(CFA_XSP16, literal(-7)))
          CFI V2 load(1, XDATA, add(CFA_XSP16, literal(-8)))
          CFI V1 load(1, XDATA, add(CFA_XSP16, literal(-9)))
          CFI V0 load(1, XDATA, add(CFA_XSP16, literal(-10)))
          CFI VB load(1, XDATA, add(CFA_XSP16, literal(-11)))
          CFI R6 load(1, XDATA, add(CFA_XSP16, literal(-12)))
          CFI CFA_SP SP+0
          CFI CFA_XSP16 add(XSP16, 12)
        ; Saved register size: 12
        ; Auto size: 1
        MOV     A,#-0x1
        LCALL   ?ALLOC_XSTACK8
          CFI CFA_XSP16 add(XSP16, 13)
        MOV     ?V0,R2
        MOV     ?V1,R3
//  868   uint16 nvId;
//  869   uint16 nvLen;
//  870   uint8 ret;
//  871 
//  872   /* Skip over RPC header */
//  873   pBuf += MT_RPC_FRAME_HDR_SZ;
        MOV     A,?V0
        ADD     A,#0x3
        MOV     ?V0,A
        JNC     ??MT_SysOsalNVDelete_0
        INC     ?V1
//  874 
//  875   /* Get the ID */
//  876   nvId = BUILD_UINT16(pBuf[0], pBuf[1]);
??MT_SysOsalNVDelete_0:
        MOV     DPL,?V0
        MOV     DPH,?V1
        MOVX    A,@DPTR
        MOV     R2,A
        MOV     R3,#0x0
        MOV     DPL,?V0
        MOV     DPH,?V1
        INC     DPTR
        MOVX    A,@DPTR
        MOV     R0,A
        MOV     R1,#0x0
        CLR     A
        XCH     A,R0
        MOV     R1,A
        MOV     A,R2
        ADD     A,R0
        MOV     R0,A
        MOV     A,R3
        ADDC    A,R1
        MOV     R1,A
        MOV     ?V2,R0
        MOV     ?V3,R1
//  877   /* Get the length */
//  878   nvLen = BUILD_UINT16(pBuf[2], pBuf[3]);
        MOV     DPL,?V0
        MOV     DPH,?V1
        INC     DPTR
        INC     DPTR
        MOVX    A,@DPTR
        MOV     R2,A
        MOV     R3,#0x0
        MOV     DPL,?V0
        MOV     DPH,?V1
        INC     DPTR
        INC     DPTR
        INC     DPTR
        MOVX    A,@DPTR
        MOV     R0,A
        MOV     R1,#0x0
        CLR     A
        XCH     A,R0
        MOV     R1,A
        MOV     A,R2
        ADD     A,R0
        MOV     R0,A
        MOV     A,R3
        ADDC    A,R1
        MOV     R1,A
        MOV     A,R0
        MOV     R6,A
        MOV     A,R1
        MOV     R7,A
//  879 
//  880   /* Attempt to delete the NV item */
//  881   ret = osal_nv_delete( nvId, nvLen );
        ; Setup parameters for call to function osal_nv_delete
        MOV     A,R6
        MOV     R4,A
        MOV     A,R7
        MOV     R5,A
        MOV     R2,?V2
        MOV     R3,?V3
        LCALL   `??osal_nv_delete::?relay`; Banked call to: osal_nv_delete
        MOV     A,R1
        PUSH    A
          CFI CFA_SP SP+-1
        MOV     DPL,?XSP + 0
        MOV     DPH,?XSP + 1
        POP     A
          CFI CFA_SP SP+0
        MOVX    @DPTR,A
//  882 
//  883   /* Build and send back the response */
//  884   MT_BuildAndSendZToolResponse(((uint8)MT_RPC_CMD_SRSP | (uint8)MT_RPC_SYS_SYS),
//  885                                  MT_SYS_OSAL_NV_DELETE, 1, &ret);
        ; Setup parameters for call to function MT_BuildAndSendZToolResponse
        MOV     R4,?XSP + 0
        MOV     R5,?XSP + 1
        MOV     R3,#0x1
        MOV     R2,#0x12
        MOV     R1,#0x61
        LCALL   `??MT_BuildAndSendZToolResponse::?relay`; Banked call to: MT_BuildAndSendZToolResponse
//  886 }
        MOV     A,#0x1
        LCALL   ?DEALLOC_XSTACK8
          CFI CFA_XSP16 add(XSP16, 12)
        MOV     R7,#0x4
        LJMP    ?BANKED_LEAVE_XDATA
          CFI EndBlock cfiBlock9
//  887 
//  888 /***************************************************************************************************
//  889  * @fn      MT_SysOsalNVLength
//  890  *
//  891  * @brief   Attempt to get the length to an NV item
//  892  *
//  893  * @param   pBuf - pointer to the data
//  894  *
//  895  * @return  None
//  896  ***************************************************************************************************/

        RSEG BANKED_CODE:CODE:NOROOT(0)
//  897 void MT_SysOsalNVLength(uint8 *pBuf)
MT_SysOsalNVLength:
          CFI Block cfiBlock10 Using cfiCommon0
          CFI Function MT_SysOsalNVLength
        CODE
//  898 {
        FUNCALL MT_SysOsalNVLength, osal_nv_item_len
        LOCFRAME ISTACK, 0, STACK
        LOCFRAME PSTACK, 0, STACK
        LOCFRAME XSTACK, 16, STACK
        LOCFRAME IOVERLAY, 0, STATIC
        LOCFRAME DOVERLAY, 0, STATIC
        ARGFRAME ISTACK, 0, STACK
        ARGFRAME PSTACK, 0, STACK
        ARGFRAME XSTACK, 16, STACK
        ARGFRAME IOVERLAY, 0, STATIC
        ARGFRAME DOVERLAY, 0, STATIC
        FUNCALL MT_SysOsalNVLength, MT_BuildAndSendZToolResponse
        LOCFRAME ISTACK, 0, STACK
        LOCFRAME PSTACK, 0, STACK
        LOCFRAME XSTACK, 16, STACK
        LOCFRAME IOVERLAY, 0, STATIC
        LOCFRAME DOVERLAY, 0, STATIC
        ARGFRAME ISTACK, 0, STACK
        ARGFRAME PSTACK, 0, STACK
        ARGFRAME XSTACK, 16, STACK
        ARGFRAME IOVERLAY, 0, STATIC
        ARGFRAME DOVERLAY, 0, STATIC
        REQUIRE ?V0
        REQUIRE ?V1
        REQUIRE ?V2
        REQUIRE ?V3
        REQUIRE ?V4
        REQUIRE ?V5
        MOV     A,#-0xe
        LCALL   ?BANKED_ENTER_XDATA
          CFI DPH0 load(1, XDATA, add(CFA_XSP16, literal(-1)))
          CFI DPL0 load(1, XDATA, add(CFA_XSP16, literal(-2)))
          CFI ?BRET_EXT load(1, XDATA, add(CFA_XSP16, literal(-3)))
          CFI ?RET_HIGH load(1, XDATA, add(CFA_XSP16, literal(-4)))
          CFI ?RET_LOW load(1, XDATA, add(CFA_XSP16, literal(-5)))
          CFI R7 load(1, XDATA, add(CFA_XSP16, literal(-6)))
          CFI V5 load(1, XDATA, add(CFA_XSP16, literal(-7)))
          CFI V4 load(1, XDATA, add(CFA_XSP16, literal(-8)))
          CFI V3 load(1, XDATA, add(CFA_XSP16, literal(-9)))
          CFI V2 load(1, XDATA, add(CFA_XSP16, literal(-10)))
          CFI V1 load(1, XDATA, add(CFA_XSP16, literal(-11)))
          CFI V0 load(1, XDATA, add(CFA_XSP16, literal(-12)))
          CFI VB load(1, XDATA, add(CFA_XSP16, literal(-13)))
          CFI R6 load(1, XDATA, add(CFA_XSP16, literal(-14)))
          CFI CFA_SP SP+0
          CFI CFA_XSP16 add(XSP16, 14)
        ; Saved register size: 14
        ; Auto size: 2
        MOV     A,#-0x2
        LCALL   ?ALLOC_XSTACK8
          CFI CFA_XSP16 add(XSP16, 16)
        MOV     ?V0,R2
        MOV     ?V1,R3
//  899   uint16 nvId;
//  900   uint16 nvLen;
//  901   uint8 rsp[2];
//  902 
//  903   /* Skip over RPC header */
//  904   pBuf += MT_RPC_FRAME_HDR_SZ;
        MOV     A,?V0
        ADD     A,#0x3
        MOV     ?V0,A
        JNC     ??MT_SysOsalNVLength_0
        INC     ?V1
//  905 
//  906   /* Get the ID */
//  907   nvId = BUILD_UINT16(pBuf[0], pBuf[1]);
??MT_SysOsalNVLength_0:
        MOV     DPL,?V0
        MOV     DPH,?V1
        MOVX    A,@DPTR
        MOV     R2,A
        MOV     R3,#0x0
        MOV     DPL,?V0
        MOV     DPH,?V1
        INC     DPTR
        MOVX    A,@DPTR
        MOV     R0,A
        MOV     R1,#0x0
        CLR     A
        XCH     A,R0
        MOV     R1,A
        MOV     A,R2
        ADD     A,R0
        MOV     R0,A
        MOV     A,R3
        ADDC    A,R1
        MOV     R1,A
        MOV     ?V2,R0
        MOV     ?V3,R1
//  908 
//  909   /* Attempt to get NV item length */
//  910   nvLen = osal_nv_item_len( nvId );
        ; Setup parameters for call to function osal_nv_item_len
        MOV     R2,?V2
        MOV     R3,?V3
        LCALL   `??osal_nv_item_len::?relay`; Banked call to: osal_nv_item_len
        MOV     ?V4,R2
        MOV     ?V5,R3
        MOV     R6,?V4
        MOV     R7,?V5
//  911   rsp[0] = LO_UINT16( nvLen );
        MOV     A,R6
        PUSH    A
          CFI CFA_SP SP+-1
        MOV     DPL,?XSP + 0
        MOV     DPH,?XSP + 1
        POP     A
          CFI CFA_SP SP+0
        MOVX    @DPTR,A
//  912   rsp[1] = HI_UINT16( nvLen );
        MOV     A,R6
        MOV     R0,A
        MOV     A,R7
        MOV     R1,A
        CLR     A
        XCH     A,R1
        MOV     R0,A
        MOV     A,R0
        PUSH    A
          CFI CFA_SP SP+-1
        MOV     A,#0x1
        LCALL   ?XSTACK_DISP0_8
        POP     A
          CFI CFA_SP SP+0
        MOVX    @DPTR,A
//  913 
//  914   /* Build and send back the response */
//  915   MT_BuildAndSendZToolResponse(((uint8)MT_RPC_CMD_SRSP | (uint8)MT_RPC_SYS_SYS),
//  916                                  MT_SYS_OSAL_NV_LENGTH, 2, rsp);
        ; Setup parameters for call to function MT_BuildAndSendZToolResponse
        MOV     R4,?XSP + 0
        MOV     R5,?XSP + 1
        MOV     R3,#0x2
        MOV     R2,#0x13
        MOV     R1,#0x61
        LCALL   `??MT_BuildAndSendZToolResponse::?relay`; Banked call to: MT_BuildAndSendZToolResponse
//  917 }
        MOV     A,#0x2
        LCALL   ?DEALLOC_XSTACK8
          CFI CFA_XSP16 add(XSP16, 14)
        MOV     R7,#0x6
        LJMP    ?BANKED_LEAVE_XDATA
          CFI EndBlock cfiBlock10
//  918 #endif // !defined(CC253X_MACNP)
//  919 
//  920 /***************************************************************************************************
//  921  * @fn      MT_SysOsalStartTimer
//  922  *
//  923  * @brief
//  924  *
//  925  * @param   uint8 pBuf - pointer to the data
//  926  *
//  927  * @return  None
//  928  ***************************************************************************************************/

        RSEG BANKED_CODE:CODE:NOROOT(0)
//  929 void MT_SysOsalStartTimer(uint8 *pBuf)
MT_SysOsalStartTimer:
          CFI Block cfiBlock11 Using cfiCommon0
          CFI Function MT_SysOsalStartTimer
        CODE
//  930 {
        FUNCALL MT_SysOsalStartTimer, osal_start_timerEx
        LOCFRAME ISTACK, 0, STACK
        LOCFRAME PSTACK, 0, STACK
        LOCFRAME XSTACK, 21, STACK
        LOCFRAME IOVERLAY, 0, STATIC
        LOCFRAME DOVERLAY, 0, STATIC
        ARGFRAME ISTACK, 0, STACK
        ARGFRAME PSTACK, 0, STACK
        ARGFRAME XSTACK, 21, STACK
        ARGFRAME IOVERLAY, 0, STATIC
        ARGFRAME DOVERLAY, 0, STATIC
        FUNCALL MT_SysOsalStartTimer, MT_BuildAndSendZToolResponse
        LOCFRAME ISTACK, 0, STACK
        LOCFRAME PSTACK, 0, STACK
        LOCFRAME XSTACK, 17, STACK
        LOCFRAME IOVERLAY, 0, STATIC
        LOCFRAME DOVERLAY, 0, STATIC
        ARGFRAME ISTACK, 0, STACK
        ARGFRAME PSTACK, 0, STACK
        ARGFRAME XSTACK, 17, STACK
        ARGFRAME IOVERLAY, 0, STATIC
        ARGFRAME DOVERLAY, 0, STATIC
        REQUIRE ?V0
        REQUIRE ?V1
        REQUIRE ?V2
        REQUIRE ?V4
        REQUIRE ?V5
        REQUIRE ?V6
        REQUIRE ?V7
        MOV     A,#-0x10
        LCALL   ?BANKED_ENTER_XDATA
          CFI DPH0 load(1, XDATA, add(CFA_XSP16, literal(-1)))
          CFI DPL0 load(1, XDATA, add(CFA_XSP16, literal(-2)))
          CFI ?BRET_EXT load(1, XDATA, add(CFA_XSP16, literal(-3)))
          CFI ?RET_HIGH load(1, XDATA, add(CFA_XSP16, literal(-4)))
          CFI ?RET_LOW load(1, XDATA, add(CFA_XSP16, literal(-5)))
          CFI R7 load(1, XDATA, add(CFA_XSP16, literal(-6)))
          CFI V7 load(1, XDATA, add(CFA_XSP16, literal(-7)))
          CFI V6 load(1, XDATA, add(CFA_XSP16, literal(-8)))
          CFI V5 load(1, XDATA, add(CFA_XSP16, literal(-9)))
          CFI V4 load(1, XDATA, add(CFA_XSP16, literal(-10)))
          CFI V3 load(1, XDATA, add(CFA_XSP16, literal(-11)))
          CFI V2 load(1, XDATA, add(CFA_XSP16, literal(-12)))
          CFI V1 load(1, XDATA, add(CFA_XSP16, literal(-13)))
          CFI V0 load(1, XDATA, add(CFA_XSP16, literal(-14)))
          CFI VB load(1, XDATA, add(CFA_XSP16, literal(-15)))
          CFI R6 load(1, XDATA, add(CFA_XSP16, literal(-16)))
          CFI CFA_SP SP+0
          CFI CFA_XSP16 add(XSP16, 16)
        ; Saved register size: 16
        ; Auto size: 1
        MOV     A,#-0x1
        LCALL   ?ALLOC_XSTACK8
          CFI CFA_XSP16 add(XSP16, 17)
        MOV     A,R2
        MOV     R6,A
        MOV     A,R3
        MOV     R7,A
//  931   uint16 eventId;
//  932   uint8 retValue = ZFailure;
        MOV     DPL,?XSP + 0
        MOV     DPH,?XSP + 1
        MOV     A,#0x1
        MOVX    @DPTR,A
//  933   uint8 cmdId;
//  934 
//  935   /* parse header */
//  936   cmdId = pBuf[MT_RPC_POS_CMD1];
        MOV     DPL,R6
        MOV     DPH,R7
        INC     DPTR
        INC     DPTR
        MOVX    A,@DPTR
        MOV     ?V2,A
//  937   pBuf += MT_RPC_FRAME_HDR_SZ;
        MOV     A,R6
        ADD     A,#0x3
        MOV     R6,A
        JNC     ??MT_SysOsalStartTimer_0
        INC     R7
//  938 
//  939   if (*pBuf <= 3)
??MT_SysOsalStartTimer_0:
        MOV     DPL,R6
        MOV     DPH,R7
        MOVX    A,@DPTR
        CLR     C
        SUBB    A,#0x4
        JNC     ??MT_SysOsalStartTimer_1
//  940   {
//  941     eventId = (uint16) MT_SysOsalEventId[*pBuf];
        MOV     DPL,R6
        MOV     DPH,R7
        MOVX    A,@DPTR
        MOV     R0,A
        MOV     R1,#0x0
        MOV     A,R0
        MOV     B,#0x2
        MUL     AB
        XCH     A,R0
        MOV     R2,B
        MOV     B,#0x0
        MUL     AB
        ADD     A,R2
        MOV     R2,A
        MOV     B,#0x2
        MOV     A,R1
        MUL     AB
        ADD     A,R2
        MOV     R1,A
        MOV     A,#MT_SysOsalEventId & 0xff
        ADD     A,R0
        MOV     DPL,A
        MOV     A,#(MT_SysOsalEventId >> 8) & 0xff
        ADDC    A,R1
        MOV     DPH,A
        MOVX    A,@DPTR
        MOV     ?V0,A
        INC     DPTR
        MOVX    A,@DPTR
        MOV     ?V1,A
//  942     retValue = osal_start_timerEx(MT_TaskID, eventId, BUILD_UINT16(pBuf[1], pBuf[2]));
        ; Setup parameters for call to function osal_start_timerEx
        MOV     DPL,R6
        MOV     DPH,R7
        INC     DPTR
        MOVX    A,@DPTR
        MOV     R2,A
        MOV     R3,#0x0
        MOV     DPL,R6
        MOV     DPH,R7
        INC     DPTR
        INC     DPTR
        MOVX    A,@DPTR
        MOV     R0,A
        MOV     R1,#0x0
        CLR     A
        XCH     A,R0
        MOV     R1,A
        MOV     A,R2
        ADD     A,R0
        MOV     ?V4,A
        MOV     A,R3
        ADDC    A,R1
        MOV     ?V5,A
        CLR     A
        MOV     ?V6,A
        MOV     ?V7,A
        MOV     R0,#?V4
        LCALL   ?PUSH_XSTACK_I_FOUR
          CFI CFA_XSP16 add(XSP16, 21)
        MOV     R2,?V0
        MOV     R3,?V1
        MOV     DPTR,#MT_TaskID
        MOVX    A,@DPTR
        MOV     R1,A
        LCALL   `??osal_start_timerEx::?relay`; Banked call to: osal_start_timerEx
        MOV     A,#0x4
        LCALL   ?DEALLOC_XSTACK8
          CFI CFA_XSP16 add(XSP16, 17)
        MOV     A,R1
        PUSH    A
          CFI CFA_SP SP+-1
        MOV     DPL,?XSP + 0
        MOV     DPH,?XSP + 1
        POP     A
          CFI CFA_SP SP+0
        MOVX    @DPTR,A
        SJMP    ??MT_SysOsalStartTimer_2
//  943   }
//  944   else
//  945   {
//  946     retValue = ZInvalidParameter;
??MT_SysOsalStartTimer_1:
        MOV     DPL,?XSP + 0
        MOV     DPH,?XSP + 1
        MOV     A,#0x2
        MOVX    @DPTR,A
//  947   }
//  948 
//  949   /* Build and send back the response */
//  950   MT_BuildAndSendZToolResponse(((uint8)MT_RPC_CMD_SRSP | (uint8)MT_RPC_SYS_SYS), cmdId, 1, &retValue);
??MT_SysOsalStartTimer_2:
        ; Setup parameters for call to function MT_BuildAndSendZToolResponse
        MOV     R4,?XSP + 0
        MOV     R5,?XSP + 1
        MOV     R3,#0x1
        MOV     R2,?V2
        MOV     R1,#0x61
        LCALL   `??MT_BuildAndSendZToolResponse::?relay`; Banked call to: MT_BuildAndSendZToolResponse
//  951 }
        MOV     A,#0x1
        LCALL   ?DEALLOC_XSTACK8
          CFI CFA_XSP16 add(XSP16, 16)
        MOV     R7,#0x8
        LJMP    ?BANKED_LEAVE_XDATA
          CFI EndBlock cfiBlock11
//  952 
//  953 /***************************************************************************************************
//  954  * @fn      MT_SysOsalStopTimer
//  955  *
//  956  * @brief
//  957  *
//  958  * @param   uint8 pBuf - pointer to the data
//  959  *
//  960  * @return  None
//  961  ***************************************************************************************************/

        RSEG BANKED_CODE:CODE:NOROOT(0)
//  962 void MT_SysOsalStopTimer(uint8 *pBuf)
MT_SysOsalStopTimer:
          CFI Block cfiBlock12 Using cfiCommon0
          CFI Function MT_SysOsalStopTimer
        CODE
//  963 {
        FUNCALL MT_SysOsalStopTimer, osal_stop_timerEx
        LOCFRAME ISTACK, 0, STACK
        LOCFRAME PSTACK, 0, STACK
        LOCFRAME XSTACK, 12, STACK
        LOCFRAME IOVERLAY, 0, STATIC
        LOCFRAME DOVERLAY, 0, STATIC
        ARGFRAME ISTACK, 0, STACK
        ARGFRAME PSTACK, 0, STACK
        ARGFRAME XSTACK, 12, STACK
        ARGFRAME IOVERLAY, 0, STATIC
        ARGFRAME DOVERLAY, 0, STATIC
        FUNCALL MT_SysOsalStopTimer, MT_BuildAndSendZToolResponse
        LOCFRAME ISTACK, 0, STACK
        LOCFRAME PSTACK, 0, STACK
        LOCFRAME XSTACK, 12, STACK
        LOCFRAME IOVERLAY, 0, STATIC
        LOCFRAME DOVERLAY, 0, STATIC
        ARGFRAME ISTACK, 0, STACK
        ARGFRAME PSTACK, 0, STACK
        ARGFRAME XSTACK, 12, STACK
        ARGFRAME IOVERLAY, 0, STATIC
        ARGFRAME DOVERLAY, 0, STATIC
        REQUIRE ?V0
        REQUIRE ?V1
        REQUIRE ?V2
        MOV     A,#-0xb
        LCALL   ?BANKED_ENTER_XDATA
          CFI DPH0 load(1, XDATA, add(CFA_XSP16, literal(-1)))
          CFI DPL0 load(1, XDATA, add(CFA_XSP16, literal(-2)))
          CFI ?BRET_EXT load(1, XDATA, add(CFA_XSP16, literal(-3)))
          CFI ?RET_HIGH load(1, XDATA, add(CFA_XSP16, literal(-4)))
          CFI ?RET_LOW load(1, XDATA, add(CFA_XSP16, literal(-5)))
          CFI R7 load(1, XDATA, add(CFA_XSP16, literal(-6)))
          CFI V2 load(1, XDATA, add(CFA_XSP16, literal(-7)))
          CFI V1 load(1, XDATA, add(CFA_XSP16, literal(-8)))
          CFI V0 load(1, XDATA, add(CFA_XSP16, literal(-9)))
          CFI VB load(1, XDATA, add(CFA_XSP16, literal(-10)))
          CFI R6 load(1, XDATA, add(CFA_XSP16, literal(-11)))
          CFI CFA_SP SP+0
          CFI CFA_XSP16 add(XSP16, 11)
        ; Saved register size: 11
        ; Auto size: 1
        MOV     A,#-0x1
        LCALL   ?ALLOC_XSTACK8
          CFI CFA_XSP16 add(XSP16, 12)
        MOV     A,R2
        MOV     R6,A
        MOV     A,R3
        MOV     R7,A
//  964   uint16 eventId;
//  965   uint8 retValue = ZFailure;
        MOV     DPL,?XSP + 0
        MOV     DPH,?XSP + 1
        MOV     A,#0x1
        MOVX    @DPTR,A
//  966   uint8 cmdId;
//  967 
//  968   /* parse header */
//  969   cmdId = pBuf[MT_RPC_POS_CMD1];
        MOV     DPL,R6
        MOV     DPH,R7
        INC     DPTR
        INC     DPTR
        MOVX    A,@DPTR
        MOV     ?V2,A
//  970   pBuf += MT_RPC_FRAME_HDR_SZ;
        MOV     A,R6
        ADD     A,#0x3
        MOV     R6,A
        JNC     ??MT_SysOsalStopTimer_0
        INC     R7
//  971 
//  972   if (*pBuf <= 3)
??MT_SysOsalStopTimer_0:
        MOV     DPL,R6
        MOV     DPH,R7
        MOVX    A,@DPTR
        CLR     C
        SUBB    A,#0x4
        JNC     ??MT_SysOsalStopTimer_1
//  973   {
//  974     eventId = (uint16) MT_SysOsalEventId[*pBuf];
        MOV     DPL,R6
        MOV     DPH,R7
        MOVX    A,@DPTR
        MOV     R0,A
        MOV     R1,#0x0
        MOV     A,R0
        MOV     B,#0x2
        MUL     AB
        XCH     A,R0
        MOV     R2,B
        MOV     B,#0x0
        MUL     AB
        ADD     A,R2
        MOV     R2,A
        MOV     B,#0x2
        MOV     A,R1
        MUL     AB
        ADD     A,R2
        MOV     R1,A
        MOV     A,#MT_SysOsalEventId & 0xff
        ADD     A,R0
        MOV     DPL,A
        MOV     A,#(MT_SysOsalEventId >> 8) & 0xff
        ADDC    A,R1
        MOV     DPH,A
        MOVX    A,@DPTR
        MOV     ?V0,A
        INC     DPTR
        MOVX    A,@DPTR
        MOV     ?V1,A
//  975     retValue = osal_stop_timerEx(MT_TaskID, eventId);
        ; Setup parameters for call to function osal_stop_timerEx
        MOV     R2,?V0
        MOV     R3,?V1
        MOV     DPTR,#MT_TaskID
        MOVX    A,@DPTR
        MOV     R1,A
        LCALL   `??osal_stop_timerEx::?relay`; Banked call to: osal_stop_timerEx
        MOV     A,R1
        PUSH    A
          CFI CFA_SP SP+-1
        MOV     DPL,?XSP + 0
        MOV     DPH,?XSP + 1
        POP     A
          CFI CFA_SP SP+0
        MOVX    @DPTR,A
        SJMP    ??MT_SysOsalStopTimer_2
//  976   }
//  977   else
//  978   {
//  979     retValue = ZInvalidParameter;
??MT_SysOsalStopTimer_1:
        MOV     DPL,?XSP + 0
        MOV     DPH,?XSP + 1
        MOV     A,#0x2
        MOVX    @DPTR,A
//  980   }
//  981 
//  982   /* Build and send back the response */
//  983   MT_BuildAndSendZToolResponse(((uint8)MT_RPC_CMD_SRSP | (uint8)MT_RPC_SYS_SYS), cmdId, 1, &retValue );
??MT_SysOsalStopTimer_2:
        ; Setup parameters for call to function MT_BuildAndSendZToolResponse
        MOV     R4,?XSP + 0
        MOV     R5,?XSP + 1
        MOV     R3,#0x1
        MOV     R2,?V2
        MOV     R1,#0x61
        LCALL   `??MT_BuildAndSendZToolResponse::?relay`; Banked call to: MT_BuildAndSendZToolResponse
//  984 }
        MOV     A,#0x1
        LCALL   ?DEALLOC_XSTACK8
          CFI CFA_XSP16 add(XSP16, 11)
        MOV     R7,#0x3
        LJMP    ?BANKED_LEAVE_XDATA
          CFI EndBlock cfiBlock12
//  985 
//  986 /***************************************************************************************************
//  987  * @fn      MT_SysRandom
//  988  *
//  989  * @brief
//  990  *
//  991  * @param   uint8 pData - pointer to the data
//  992  *
//  993  * @return  None
//  994  ***************************************************************************************************/

        RSEG BANKED_CODE:CODE:NOROOT(0)
//  995 void MT_SysRandom()
MT_SysRandom:
          CFI Block cfiBlock13 Using cfiCommon0
          CFI Function MT_SysRandom
        CODE
//  996 {
        FUNCALL MT_SysRandom, Onboard_rand
        LOCFRAME ISTACK, 0, STACK
        LOCFRAME PSTACK, 0, STACK
        LOCFRAME XSTACK, 12, STACK
        LOCFRAME IOVERLAY, 0, STATIC
        LOCFRAME DOVERLAY, 0, STATIC
        ARGFRAME ISTACK, 0, STACK
        ARGFRAME PSTACK, 0, STACK
        ARGFRAME XSTACK, 12, STACK
        ARGFRAME IOVERLAY, 0, STATIC
        ARGFRAME DOVERLAY, 0, STATIC
        FUNCALL MT_SysRandom, MT_BuildAndSendZToolResponse
        LOCFRAME ISTACK, 0, STACK
        LOCFRAME PSTACK, 0, STACK
        LOCFRAME XSTACK, 12, STACK
        LOCFRAME IOVERLAY, 0, STATIC
        LOCFRAME DOVERLAY, 0, STATIC
        ARGFRAME ISTACK, 0, STACK
        ARGFRAME PSTACK, 0, STACK
        ARGFRAME XSTACK, 12, STACK
        ARGFRAME IOVERLAY, 0, STATIC
        ARGFRAME DOVERLAY, 0, STATIC
        REQUIRE ?V0
        REQUIRE ?V1
        MOV     A,#-0xa
        LCALL   ?BANKED_ENTER_XDATA
          CFI DPH0 load(1, XDATA, add(CFA_XSP16, literal(-1)))
          CFI DPL0 load(1, XDATA, add(CFA_XSP16, literal(-2)))
          CFI ?BRET_EXT load(1, XDATA, add(CFA_XSP16, literal(-3)))
          CFI ?RET_HIGH load(1, XDATA, add(CFA_XSP16, literal(-4)))
          CFI ?RET_LOW load(1, XDATA, add(CFA_XSP16, literal(-5)))
          CFI R7 load(1, XDATA, add(CFA_XSP16, literal(-6)))
          CFI V1 load(1, XDATA, add(CFA_XSP16, literal(-7)))
          CFI V0 load(1, XDATA, add(CFA_XSP16, literal(-8)))
          CFI VB load(1, XDATA, add(CFA_XSP16, literal(-9)))
          CFI R6 load(1, XDATA, add(CFA_XSP16, literal(-10)))
          CFI CFA_SP SP+0
          CFI CFA_XSP16 add(XSP16, 10)
        ; Saved register size: 10
        ; Auto size: 2
        MOV     A,#-0x2
        LCALL   ?ALLOC_XSTACK8
          CFI CFA_XSP16 add(XSP16, 12)
//  997   uint16 randValue = Onboard_rand();
        ; Setup parameters for call to function Onboard_rand
        LCALL   `??Onboard_rand::?relay`; Banked call to: Onboard_rand
        MOV     ?V0,R2
        MOV     ?V1,R3
        MOV     R6,?V0
        MOV     R7,?V1
//  998   uint8 retArray[2];
//  999 
// 1000   retArray[0] = LO_UINT16(randValue);
        MOV     A,R6
        PUSH    A
          CFI CFA_SP SP+-1
        MOV     DPL,?XSP + 0
        MOV     DPH,?XSP + 1
        POP     A
          CFI CFA_SP SP+0
        MOVX    @DPTR,A
// 1001   retArray[1] = HI_UINT16(randValue);
        MOV     A,R6
        MOV     R0,A
        MOV     A,R7
        MOV     R1,A
        CLR     A
        XCH     A,R1
        MOV     R0,A
        MOV     A,R0
        PUSH    A
          CFI CFA_SP SP+-1
        MOV     A,#0x1
        LCALL   ?XSTACK_DISP0_8
        POP     A
          CFI CFA_SP SP+0
        MOVX    @DPTR,A
// 1002 
// 1003   /* Build and send back the response */
// 1004   MT_BuildAndSendZToolResponse(((uint8)MT_RPC_CMD_SRSP | (uint8)MT_RPC_SYS_SYS), MT_SYS_RANDOM, 2, retArray );
        ; Setup parameters for call to function MT_BuildAndSendZToolResponse
        MOV     R4,?XSP + 0
        MOV     R5,?XSP + 1
        MOV     R3,#0x2
        MOV     R2,#0xc
        MOV     R1,#0x61
        LCALL   `??MT_BuildAndSendZToolResponse::?relay`; Banked call to: MT_BuildAndSendZToolResponse
// 1005 }
        MOV     A,#0x2
        LCALL   ?DEALLOC_XSTACK8
          CFI CFA_XSP16 add(XSP16, 10)
        MOV     R7,#0x2
        LJMP    ?BANKED_LEAVE_XDATA
          CFI EndBlock cfiBlock13
// 1006 
// 1007 /***************************************************************************************************
// 1008  * @fn      MT_SysAdcRead
// 1009  *
// 1010  * @brief   Reading ADC value, temperature sensor and voltage
// 1011  *
// 1012  * @param   uint8 pBuf - pointer to the data
// 1013  *
// 1014  * @return  None
// 1015  ***************************************************************************************************/

        RSEG BANKED_CODE:CODE:NOROOT(0)
// 1016 void MT_SysAdcRead(uint8 *pBuf)
MT_SysAdcRead:
          CFI Block cfiBlock14 Using cfiCommon0
          CFI Function MT_SysAdcRead
        CODE
// 1017 {
        FUNCALL MT_SysAdcRead, HalAdcRead
        LOCFRAME ISTACK, 0, STACK
        LOCFRAME PSTACK, 0, STACK
        LOCFRAME XSTACK, 18, STACK
        LOCFRAME IOVERLAY, 0, STATIC
        LOCFRAME DOVERLAY, 0, STATIC
        ARGFRAME ISTACK, 0, STACK
        ARGFRAME PSTACK, 0, STACK
        ARGFRAME XSTACK, 18, STACK
        ARGFRAME IOVERLAY, 0, STATIC
        ARGFRAME DOVERLAY, 0, STATIC
        FUNCALL MT_SysAdcRead, HalAdcRead
        LOCFRAME ISTACK, 0, STACK
        LOCFRAME PSTACK, 0, STACK
        LOCFRAME XSTACK, 18, STACK
        LOCFRAME IOVERLAY, 0, STATIC
        LOCFRAME DOVERLAY, 0, STATIC
        ARGFRAME ISTACK, 0, STACK
        ARGFRAME PSTACK, 0, STACK
        ARGFRAME XSTACK, 18, STACK
        ARGFRAME IOVERLAY, 0, STATIC
        ARGFRAME DOVERLAY, 0, STATIC
        FUNCALL MT_SysAdcRead, HalAdcRead
        LOCFRAME ISTACK, 0, STACK
        LOCFRAME PSTACK, 0, STACK
        LOCFRAME XSTACK, 18, STACK
        LOCFRAME IOVERLAY, 0, STATIC
        LOCFRAME DOVERLAY, 0, STATIC
        ARGFRAME ISTACK, 0, STACK
        ARGFRAME PSTACK, 0, STACK
        ARGFRAME XSTACK, 18, STACK
        ARGFRAME IOVERLAY, 0, STATIC
        ARGFRAME DOVERLAY, 0, STATIC
        FUNCALL MT_SysAdcRead, MT_BuildAndSendZToolResponse
        LOCFRAME ISTACK, 0, STACK
        LOCFRAME PSTACK, 0, STACK
        LOCFRAME XSTACK, 18, STACK
        LOCFRAME IOVERLAY, 0, STATIC
        LOCFRAME DOVERLAY, 0, STATIC
        ARGFRAME ISTACK, 0, STACK
        ARGFRAME PSTACK, 0, STACK
        ARGFRAME XSTACK, 18, STACK
        ARGFRAME IOVERLAY, 0, STATIC
        ARGFRAME DOVERLAY, 0, STATIC
        REQUIRE ?V0
        REQUIRE ?V1
        REQUIRE ?V2
        REQUIRE ?V3
        REQUIRE ?V4
        REQUIRE ?V6
        REQUIRE ?V7
        MOV     A,#-0x10
        LCALL   ?BANKED_ENTER_XDATA
          CFI DPH0 load(1, XDATA, add(CFA_XSP16, literal(-1)))
          CFI DPL0 load(1, XDATA, add(CFA_XSP16, literal(-2)))
          CFI ?BRET_EXT load(1, XDATA, add(CFA_XSP16, literal(-3)))
          CFI ?RET_HIGH load(1, XDATA, add(CFA_XSP16, literal(-4)))
          CFI ?RET_LOW load(1, XDATA, add(CFA_XSP16, literal(-5)))
          CFI R7 load(1, XDATA, add(CFA_XSP16, literal(-6)))
          CFI V7 load(1, XDATA, add(CFA_XSP16, literal(-7)))
          CFI V6 load(1, XDATA, add(CFA_XSP16, literal(-8)))
          CFI V5 load(1, XDATA, add(CFA_XSP16, literal(-9)))
          CFI V4 load(1, XDATA, add(CFA_XSP16, literal(-10)))
          CFI V3 load(1, XDATA, add(CFA_XSP16, literal(-11)))
          CFI V2 load(1, XDATA, add(CFA_XSP16, literal(-12)))
          CFI V1 load(1, XDATA, add(CFA_XSP16, literal(-13)))
          CFI V0 load(1, XDATA, add(CFA_XSP16, literal(-14)))
          CFI VB load(1, XDATA, add(CFA_XSP16, literal(-15)))
          CFI R6 load(1, XDATA, add(CFA_XSP16, literal(-16)))
          CFI CFA_SP SP+0
          CFI CFA_XSP16 add(XSP16, 16)
        ; Saved register size: 16
        ; Auto size: 2
        MOV     A,#-0x2
        LCALL   ?ALLOC_XSTACK8
          CFI CFA_XSP16 add(XSP16, 18)
        MOV     ?V0,R2
        MOV     ?V1,R3
// 1018 #ifndef HAL_BOARD_LM3S
// 1019   uint8 channel, resolution;
// 1020   uint16 tempValue;
// 1021   uint8 retArray[2];
// 1022   uint8 cmdId;
// 1023 
// 1024   /* parse header */
// 1025   cmdId = pBuf[MT_RPC_POS_CMD1];
        MOV     DPL,?V0
        MOV     DPH,?V1
        INC     DPTR
        INC     DPTR
        MOVX    A,@DPTR
        MOV     ?V4,A
// 1026   pBuf += MT_RPC_FRAME_HDR_SZ;
        MOV     A,?V0
        ADD     A,#0x3
        MOV     ?V0,A
        JNC     ??MT_SysAdcRead_0
        INC     ?V1
// 1027 
// 1028   /* Channel */
// 1029   channel = *pBuf++;
??MT_SysAdcRead_0:
        MOV     DPL,?V0
        MOV     DPH,?V1
        MOVX    A,@DPTR
        MOV     ?V2,A
        MOV     DPL,?V0
        MOV     DPH,?V1
        INC     DPTR
        MOV     ?V0,DPL
        MOV     ?V1,DPH
// 1030 
// 1031   /* Resolution */
// 1032   resolution = *pBuf++;
        MOV     DPL,?V0
        MOV     DPH,?V1
        MOVX    A,@DPTR
        MOV     ?V3,A
        MOV     DPL,?V0
        MOV     DPH,?V1
        INC     DPTR
        MOV     ?V0,DPL
        MOV     ?V1,DPH
// 1033 
// 1034   /* Voltage reading */
// 1035   switch (channel)
        MOV     A,?V2
        LCALL   ?UC_SWITCH_SPARSE
`?<Jumptable for MT_SysAdcRead>_0`:
        DATA
        DATA8
        DATA
        DATA8
        DATA
        DATA8
        DB        1
        DATA
        DATA8
        DATA
        DATA8
        DATA
        DATA8
        DB        0
        DATA
        DATA8
        DATA
        DATA8
        DB        7
        DATA
        DATA16
        DATA
        DATA16
        DATA
        DATA16
        DW        ??MT_SysAdcRead_1
        DATA
        DATA8
        DATA
        DATA8
        DATA
        DATA8
        DB        2
        DATA
        DATA8
        DATA
        DATA8
        DATA
        DATA8
        DB        14
        DATA
        DATA16
        DATA
        DATA16
        DATA
        DATA16
        DW        ??MT_SysAdcRead_2
        DATA
        DATA8
        DATA
        DATA8
        DATA
        DATA8
        DB        15
        DATA
        DATA16
        DATA
        DATA16
        DATA
        DATA16
        DW        ??MT_SysAdcRead_3
        DATA
        DATA16
        DATA
        DATA16
        DW        ??MT_SysAdcRead_4
        CODE
// 1036   {
// 1037     /* Analog input channel */
// 1038     case HAL_ADC_CHANNEL_0:
// 1039     case HAL_ADC_CHANNEL_1:
// 1040     case HAL_ADC_CHANNEL_2:
// 1041     case HAL_ADC_CHANNEL_3:
// 1042     case HAL_ADC_CHANNEL_4:
// 1043     case HAL_ADC_CHANNEL_5:
// 1044     case HAL_ADC_CHANNEL_6:
// 1045     case HAL_ADC_CHANNEL_7:
// 1046       tempValue = HalAdcRead(channel, resolution);
??MT_SysAdcRead_1:
        ; Setup parameters for call to function HalAdcRead
        MOV     R2,?V3
        MOV     R1,?V2
        LCALL   `??HalAdcRead::?relay`; Banked call to: HalAdcRead
        MOV     ?V6,R2
        MOV     ?V7,R3
        MOV     R6,?V6
        MOV     R7,?V7
// 1047       break;
        SJMP    ??MT_SysAdcRead_5
// 1048 
// 1049     /* Temperature sensor */
// 1050     case(HAL_ADC_CHANNEL_TEMP):
// 1051       tempValue = HalAdcRead(HAL_ADC_CHANNEL_TEMP, HAL_ADC_RESOLUTION_14);
??MT_SysAdcRead_2:
        ; Setup parameters for call to function HalAdcRead
        MOV     R2,#0x4
        MOV     R1,#0xe
        LCALL   `??HalAdcRead::?relay`; Banked call to: HalAdcRead
        MOV     ?V6,R2
        MOV     ?V7,R3
        MOV     R6,?V6
        MOV     R7,?V7
// 1052       break;
        SJMP    ??MT_SysAdcRead_5
// 1053 
// 1054     /* Voltage reading */
// 1055     case(HAL_ADC_CHANNEL_VDD):
// 1056       tempValue = HalAdcRead(HAL_ADC_CHANNEL_VDD, HAL_ADC_RESOLUTION_14);
??MT_SysAdcRead_3:
        ; Setup parameters for call to function HalAdcRead
        MOV     R2,#0x4
        MOV     R1,#0xf
        LCALL   `??HalAdcRead::?relay`; Banked call to: HalAdcRead
        MOV     ?V6,R2
        MOV     ?V7,R3
        MOV     R6,?V6
        MOV     R7,?V7
// 1057       break;
        SJMP    ??MT_SysAdcRead_5
// 1058 
// 1059     /* Undefined channels */
// 1060     default:
// 1061       tempValue = 0x00;
??MT_SysAdcRead_4:
        MOV     R6,#0x0
        MOV     R7,#0x0
// 1062       break;
// 1063   }
// 1064 
// 1065   retArray[0] = LO_UINT16(tempValue);
??MT_SysAdcRead_5:
        MOV     A,R6
        PUSH    A
          CFI CFA_SP SP+-1
        MOV     DPL,?XSP + 0
        MOV     DPH,?XSP + 1
        POP     A
          CFI CFA_SP SP+0
        MOVX    @DPTR,A
// 1066   retArray[1] = HI_UINT16(tempValue);
        MOV     A,R6
        MOV     R0,A
        MOV     A,R7
        MOV     R1,A
        CLR     A
        XCH     A,R1
        MOV     R0,A
        MOV     A,R0
        PUSH    A
          CFI CFA_SP SP+-1
        MOV     A,#0x1
        LCALL   ?XSTACK_DISP0_8
        POP     A
          CFI CFA_SP SP+0
        MOVX    @DPTR,A
// 1067 
// 1068   /* Build and send back the response */
// 1069   MT_BuildAndSendZToolResponse(((uint8)MT_RPC_CMD_SRSP | (uint8)MT_RPC_SYS_SYS), cmdId, 2, retArray);
        ; Setup parameters for call to function MT_BuildAndSendZToolResponse
        MOV     R4,?XSP + 0
        MOV     R5,?XSP + 1
        MOV     R3,#0x2
        MOV     R2,?V4
        MOV     R1,#0x61
        LCALL   `??MT_BuildAndSendZToolResponse::?relay`; Banked call to: MT_BuildAndSendZToolResponse
// 1070 #endif /* #ifndef HAL_BOARD_LM3S */
// 1071 }
        MOV     A,#0x2
        LCALL   ?DEALLOC_XSTACK8
          CFI CFA_XSP16 add(XSP16, 16)
        MOV     R7,#0x8
        LJMP    ?BANKED_LEAVE_XDATA
          CFI EndBlock cfiBlock14
// 1072 
// 1073 /**************************************************************************************************
// 1074  * @fn      MT_SysGpio
// 1075  *
// 1076  * @brief   ZAccel RPC interface for controlling the available GPIO pins.
// 1077  *
// 1078  * @param   uint8 pBuf - pointer to the data
// 1079  *
// 1080  * @return  None
// 1081  *************************************************************************************************/

        RSEG BANKED_CODE:CODE:NOROOT(0)
// 1082 void MT_SysGpio(uint8 *pBuf)
MT_SysGpio:
          CFI Block cfiBlock15 Using cfiCommon0
          CFI Function MT_SysGpio
        CODE
// 1083 {
        FUNCALL MT_SysGpio, MT_BuildAndSendZToolResponse
        LOCFRAME ISTACK, 0, STACK
        LOCFRAME PSTACK, 0, STACK
        LOCFRAME XSTACK, 11, STACK
        LOCFRAME IOVERLAY, 0, STATIC
        LOCFRAME DOVERLAY, 0, STATIC
        ARGFRAME ISTACK, 0, STACK
        ARGFRAME PSTACK, 0, STACK
        ARGFRAME XSTACK, 11, STACK
        ARGFRAME IOVERLAY, 0, STATIC
        ARGFRAME DOVERLAY, 0, STATIC
        REQUIRE ?V0
        REQUIRE ?V1
        MOV     A,#-0xa
        LCALL   ?BANKED_ENTER_XDATA
          CFI DPH0 load(1, XDATA, add(CFA_XSP16, literal(-1)))
          CFI DPL0 load(1, XDATA, add(CFA_XSP16, literal(-2)))
          CFI ?BRET_EXT load(1, XDATA, add(CFA_XSP16, literal(-3)))
          CFI ?RET_HIGH load(1, XDATA, add(CFA_XSP16, literal(-4)))
          CFI ?RET_LOW load(1, XDATA, add(CFA_XSP16, literal(-5)))
          CFI R7 load(1, XDATA, add(CFA_XSP16, literal(-6)))
          CFI V1 load(1, XDATA, add(CFA_XSP16, literal(-7)))
          CFI V0 load(1, XDATA, add(CFA_XSP16, literal(-8)))
          CFI VB load(1, XDATA, add(CFA_XSP16, literal(-9)))
          CFI R6 load(1, XDATA, add(CFA_XSP16, literal(-10)))
          CFI CFA_SP SP+0
          CFI CFA_XSP16 add(XSP16, 10)
        ; Saved register size: 10
        ; Auto size: 1
        MOV     A,#-0x1
        LCALL   ?ALLOC_XSTACK8
          CFI CFA_XSP16 add(XSP16, 11)
        MOV     A,R2
        MOV     R6,A
        MOV     A,R3
        MOV     R7,A
// 1084   uint8 cmd, val;
// 1085   GPIO_Op_t op;
// 1086 
// 1087   cmd = pBuf[MT_RPC_POS_CMD1];
        MOV     DPL,R6
        MOV     DPH,R7
        INC     DPTR
        INC     DPTR
        MOVX    A,@DPTR
        MOV     ?V1,A
// 1088   pBuf += MT_RPC_FRAME_HDR_SZ;
        MOV     A,R6
        ADD     A,#0x3
        MOV     R6,A
        JNC     ??MT_SysGpio_0
        INC     R7
// 1089 
// 1090   op = (GPIO_Op_t)(*pBuf++);
??MT_SysGpio_0:
        MOV     DPL,R6
        MOV     DPH,R7
        MOVX    A,@DPTR
        MOV     ?V0,A
        MOV     DPL,R6
        MOV     DPH,R7
        INC     DPTR
        MOV     R6,DPL
        MOV     R7,DPH
// 1091   val = *pBuf;
        MOV     DPL,R6
        MOV     DPH,R7
        MOVX    A,@DPTR
        PUSH    A
          CFI CFA_SP SP+-1
        MOV     DPL,?XSP + 0
        MOV     DPH,?XSP + 1
        POP     A
          CFI CFA_SP SP+0
        MOVX    @DPTR,A
// 1092 
// 1093   switch (op)
        MOV     A,?V0
        JZ      ??MT_SysGpio_1
        DEC     A
        JZ      ??MT_SysGpio_2
        DEC     A
        JZ      ??MT_SysGpio_1
        DEC     A
        JZ      ??MT_SysGpio_1
        DEC     A
        JZ      ??MT_SysGpio_1
        DEC     A
        JZ      ??MT_SysGpio_1
        ADD     A,#-0xd
        JZ      ??MT_SysGpio_3
        SJMP    ??MT_SysGpio_1
// 1094   {
// 1095     case GPIO_DIR:
// 1096       if (val & BV(0)) {GPIO_DIR_OUT(0);} else {GPIO_DIR_IN(0);}
// 1097       if (val & BV(1)) {GPIO_DIR_OUT(1);} else {GPIO_DIR_IN(1);}
// 1098       if (val & BV(2)) {GPIO_DIR_OUT(2);} else {GPIO_DIR_IN(2);}
// 1099       if (val & BV(3)) {GPIO_DIR_OUT(3);} else {GPIO_DIR_IN(3);}
// 1100       break;
// 1101 
// 1102     case GPIO_TRI:
// 1103       if(val & BV(0)) {GPIO_TRI(0);} else if(val & BV(4)) {GPIO_PULL_DN(0);} else {GPIO_PULL_UP(0);}
??MT_SysGpio_2:
        MOV     DPL,?XSP + 0
        MOV     DPH,?XSP + 1
        MOVX    A,@DPTR
        MOV     C,0xE0 /* A   */.0
// 1104       if(val & BV(1)) {GPIO_TRI(1);} else if(val & BV(5)) {GPIO_PULL_DN(1);} else {GPIO_PULL_UP(1);}
        MOV     DPL,?XSP + 0
        MOV     DPH,?XSP + 1
        MOVX    A,@DPTR
        MOV     C,0xE0 /* A   */.1
// 1105       if(val & BV(2)) {GPIO_TRI(2);} else if(val & BV(6)) {GPIO_PULL_DN(2);} else {GPIO_PULL_UP(2);}
        MOV     DPL,?XSP + 0
        MOV     DPH,?XSP + 1
        MOVX    A,@DPTR
        MOV     C,0xE0 /* A   */.2
// 1106       if(val & BV(3)) {GPIO_TRI(3);} else if(val & BV(7)) {GPIO_PULL_DN(3);} else {GPIO_PULL_UP(3);}
        MOV     DPL,?XSP + 0
        MOV     DPH,?XSP + 1
        MOVX    A,@DPTR
        MOV     C,0xE0 /* A   */.3
// 1107       break;
        SJMP    ??MT_SysGpio_1
// 1108 
// 1109     case GPIO_SET:
// 1110       if (val & BV(0)) {GPIO_SET(0);}
// 1111       if (val & BV(1)) {GPIO_SET(1);}
// 1112       if (val & BV(2)) {GPIO_SET(2);}
// 1113       if (val & BV(3)) {GPIO_SET(3);}
// 1114       break;
// 1115 
// 1116     case GPIO_CLR:
// 1117       if (val & BV(0)) {GPIO_CLR(0);}
// 1118       if (val & BV(1)) {GPIO_CLR(1);}
// 1119       if (val & BV(2)) {GPIO_CLR(2);}
// 1120       if (val & BV(3)) {GPIO_CLR(3);}
// 1121       break;
// 1122 
// 1123     case GPIO_TOG:
// 1124       if (val & BV(0)) {GPIO_TOG(0);}
// 1125       if (val & BV(1)) {GPIO_TOG(1);}
// 1126       if (val & BV(2)) {GPIO_TOG(2);}
// 1127       if (val & BV(3)) {GPIO_TOG(3);}
// 1128       break;
// 1129 
// 1130     case GPIO_GET:
// 1131       break;
// 1132 
// 1133     case GPIO_HiD:
// 1134       (val) ? GPIO_HiD_SET() :  GPIO_HiD_CLR();
??MT_SysGpio_3:
        MOV     DPL,?XSP + 0
        MOV     DPH,?XSP + 1
        MOVX    A,@DPTR
        JZ      ??MT_SysGpio_4
        MOV     DPL,?XSP + 0
        MOV     DPH,?XSP + 1
        MOV     A,#0x0
        MOVX    @DPTR,A
        MOV     DPL,?XSP + 0
        MOV     DPH,?XSP + 1
        MOVX    A,@DPTR
        MOV     R0,A
        MOV     R1,#0x0
        SJMP    ??MT_SysGpio_1
??MT_SysGpio_4:
        MOV     DPL,?XSP + 0
        MOV     DPH,?XSP + 1
        MOV     A,#0x0
        MOVX    @DPTR,A
        MOV     DPL,?XSP + 0
        MOV     DPH,?XSP + 1
        MOVX    A,@DPTR
        MOV     R0,A
        MOV     R1,#0x0
// 1135       break;
// 1136 
// 1137     default:
// 1138       break;
// 1139   }
// 1140 
// 1141   val  = (GPIO_GET(0)) ? BV(0) : 0;
??MT_SysGpio_1:
        MOV     DPL,?XSP + 0
        MOV     DPH,?XSP + 1
        MOV     A,#0x0
        MOVX    @DPTR,A
// 1142   val |= (GPIO_GET(1)) ? BV(1) : 0;
        MOV     DPL,?XSP + 0
        MOV     DPH,?XSP + 1
        MOVX    A,@DPTR
        PUSH    A
          CFI CFA_SP SP+-1
        MOV     DPL,?XSP + 0
        MOV     DPH,?XSP + 1
        POP     A
          CFI CFA_SP SP+0
        MOVX    @DPTR,A
// 1143   val |= (GPIO_GET(2)) ? BV(2) : 0;
        MOV     DPL,?XSP + 0
        MOV     DPH,?XSP + 1
        MOVX    A,@DPTR
        PUSH    A
          CFI CFA_SP SP+-1
        MOV     DPL,?XSP + 0
        MOV     DPH,?XSP + 1
        POP     A
          CFI CFA_SP SP+0
        MOVX    @DPTR,A
// 1144   val |= (GPIO_GET(3)) ? BV(3) : 0;
        MOV     DPL,?XSP + 0
        MOV     DPH,?XSP + 1
        MOVX    A,@DPTR
        PUSH    A
          CFI CFA_SP SP+-1
        MOV     DPL,?XSP + 0
        MOV     DPH,?XSP + 1
        POP     A
          CFI CFA_SP SP+0
        MOVX    @DPTR,A
// 1145 
// 1146   /* Build and send back the response */
// 1147   MT_BuildAndSendZToolResponse(((uint8)MT_RPC_CMD_SRSP | (uint8)MT_RPC_SYS_SYS), cmd, 1, &val);
        ; Setup parameters for call to function MT_BuildAndSendZToolResponse
        MOV     R4,?XSP + 0
        MOV     R5,?XSP + 1
        MOV     R3,#0x1
        MOV     R2,?V1
        MOV     R1,#0x61
        LCALL   `??MT_BuildAndSendZToolResponse::?relay`; Banked call to: MT_BuildAndSendZToolResponse
// 1148 }
        MOV     A,#0x1
        LCALL   ?DEALLOC_XSTACK8
          CFI CFA_XSP16 add(XSP16, 10)
        MOV     R7,#0x2
        LJMP    ?BANKED_LEAVE_XDATA
          CFI EndBlock cfiBlock15
// 1149 
// 1150 /**************************************************************************************************
// 1151  * @fn      MT_SysStackTune
// 1152  *
// 1153  * @brief   ZAccel RPC interface for tuning the stack parameters to adjust performance
// 1154  *
// 1155  * @param   uint8 pBuf - pointer to the data
// 1156  *
// 1157  * @return  None
// 1158  *************************************************************************************************/

        RSEG BANKED_CODE:CODE:NOROOT(0)
// 1159 void MT_SysStackTune(uint8 *pBuf)
MT_SysStackTune:
          CFI Block cfiBlock16 Using cfiCommon0
          CFI Function MT_SysStackTune
        CODE
// 1160 {
        FUNCALL MT_SysStackTune, ZMacSetReq
        LOCFRAME ISTACK, 0, STACK
        LOCFRAME PSTACK, 0, STACK
        LOCFRAME XSTACK, 10, STACK
        LOCFRAME IOVERLAY, 0, STATIC
        LOCFRAME DOVERLAY, 0, STATIC
        ARGFRAME ISTACK, 0, STACK
        ARGFRAME PSTACK, 0, STACK
        ARGFRAME XSTACK, 10, STACK
        ARGFRAME IOVERLAY, 0, STATIC
        ARGFRAME DOVERLAY, 0, STATIC
        FUNCALL MT_SysStackTune, ZMacGetReq
        LOCFRAME ISTACK, 0, STACK
        LOCFRAME PSTACK, 0, STACK
        LOCFRAME XSTACK, 10, STACK
        LOCFRAME IOVERLAY, 0, STATIC
        LOCFRAME DOVERLAY, 0, STATIC
        ARGFRAME ISTACK, 0, STACK
        ARGFRAME PSTACK, 0, STACK
        ARGFRAME XSTACK, 10, STACK
        ARGFRAME IOVERLAY, 0, STATIC
        ARGFRAME DOVERLAY, 0, STATIC
        FUNCALL MT_SysStackTune, ZMacSetReq
        LOCFRAME ISTACK, 0, STACK
        LOCFRAME PSTACK, 0, STACK
        LOCFRAME XSTACK, 10, STACK
        LOCFRAME IOVERLAY, 0, STATIC
        LOCFRAME DOVERLAY, 0, STATIC
        ARGFRAME ISTACK, 0, STACK
        ARGFRAME PSTACK, 0, STACK
        ARGFRAME XSTACK, 10, STACK
        ARGFRAME IOVERLAY, 0, STATIC
        ARGFRAME DOVERLAY, 0, STATIC
        FUNCALL MT_SysStackTune, MT_BuildAndSendZToolResponse
        LOCFRAME ISTACK, 0, STACK
        LOCFRAME PSTACK, 0, STACK
        LOCFRAME XSTACK, 10, STACK
        LOCFRAME IOVERLAY, 0, STATIC
        LOCFRAME DOVERLAY, 0, STATIC
        ARGFRAME ISTACK, 0, STACK
        ARGFRAME PSTACK, 0, STACK
        ARGFRAME XSTACK, 10, STACK
        ARGFRAME IOVERLAY, 0, STATIC
        ARGFRAME DOVERLAY, 0, STATIC
        REQUIRE ?V0
        MOV     A,#-0x9
        LCALL   ?BANKED_ENTER_XDATA
          CFI DPH0 load(1, XDATA, add(CFA_XSP16, literal(-1)))
          CFI DPL0 load(1, XDATA, add(CFA_XSP16, literal(-2)))
          CFI ?BRET_EXT load(1, XDATA, add(CFA_XSP16, literal(-3)))
          CFI ?RET_HIGH load(1, XDATA, add(CFA_XSP16, literal(-4)))
          CFI ?RET_LOW load(1, XDATA, add(CFA_XSP16, literal(-5)))
          CFI R7 load(1, XDATA, add(CFA_XSP16, literal(-6)))
          CFI V0 load(1, XDATA, add(CFA_XSP16, literal(-7)))
          CFI VB load(1, XDATA, add(CFA_XSP16, literal(-8)))
          CFI R6 load(1, XDATA, add(CFA_XSP16, literal(-9)))
          CFI CFA_SP SP+0
          CFI CFA_XSP16 add(XSP16, 9)
        ; Saved register size: 9
        ; Auto size: 1
        MOV     A,#-0x1
        LCALL   ?ALLOC_XSTACK8
          CFI CFA_XSP16 add(XSP16, 10)
        MOV     A,R2
        MOV     R6,A
        MOV     A,R3
        MOV     R7,A
// 1161   uint8 cmd, rtrn;
// 1162 
// 1163   cmd = pBuf[MT_RPC_POS_CMD1];
        MOV     DPL,R6
        MOV     DPH,R7
        INC     DPTR
        INC     DPTR
        MOVX    A,@DPTR
        MOV     ?V0,A
// 1164   pBuf += MT_RPC_FRAME_HDR_SZ;
        MOV     A,R6
        ADD     A,#0x3
        MOV     R6,A
        JNC     ??MT_SysStackTune_0
        INC     R7
// 1165 
// 1166   switch (*pBuf++)
??MT_SysStackTune_0:
        MOV     A,R6
        MOV     R0,A
        MOV     A,R7
        MOV     R1,A
        MOV     DPL,R0
        MOV     DPH,R1
        INC     DPTR
        MOV     R6,DPL
        MOV     R7,DPH
        MOV     DPL,R0
        MOV     DPH,R1
        MOVX    A,@DPTR
        JZ      ??MT_SysStackTune_1
        DEC     A
        JZ      ??MT_SysStackTune_2
        SJMP    ??MT_SysStackTune_3
// 1167   {
// 1168   case STK_TX_PWR:
// 1169     rtrn = ZMacSetReq(ZMacPhyTransmitPowerSigned, pBuf);
??MT_SysStackTune_1:
        ; Setup parameters for call to function ZMacSetReq
        MOV     A,R6
        MOV     R2,A
        MOV     A,R7
        MOV     R3,A
        MOV     R1,#-0x20
        LCALL   `??ZMacSetReq::?relay`; Banked call to: ZMacSetReq
        MOV     A,R1
        PUSH    A
          CFI CFA_SP SP+-1
        MOV     DPL,?XSP + 0
        MOV     DPH,?XSP + 1
        POP     A
          CFI CFA_SP SP+0
        MOVX    @DPTR,A
// 1170     break;
        SJMP    ??MT_SysStackTune_4
// 1171 
// 1172   case STK_RX_ON_IDLE:
// 1173     if ((*pBuf != TRUE) && (*pBuf != FALSE))
??MT_SysStackTune_2:
        MOV     DPL,R6
        MOV     DPH,R7
        MOVX    A,@DPTR
        XRL     A,#0x1
        JZ      ??MT_SysStackTune_5
        MOV     DPL,R6
        MOV     DPH,R7
        MOVX    A,@DPTR
        JZ      ??MT_SysStackTune_5
// 1174     {
// 1175       (void)ZMacGetReq(ZMacRxOnIdle, &rtrn);
        ; Setup parameters for call to function ZMacGetReq
        MOV     R2,?XSP + 0
        MOV     R3,?XSP + 1
        MOV     R1,#0x52
        LCALL   `??ZMacGetReq::?relay`; Banked call to: ZMacGetReq
        MOV     A,R1
        SJMP    ??MT_SysStackTune_4
// 1176     }
// 1177     else
// 1178     {
// 1179       rtrn = ZMacSetReq(ZMacRxOnIdle, pBuf);
??MT_SysStackTune_5:
        ; Setup parameters for call to function ZMacSetReq
        MOV     A,R6
        MOV     R2,A
        MOV     A,R7
        MOV     R3,A
        MOV     R1,#0x52
        LCALL   `??ZMacSetReq::?relay`; Banked call to: ZMacSetReq
        MOV     A,R1
        PUSH    A
          CFI CFA_SP SP+-1
        MOV     DPL,?XSP + 0
        MOV     DPH,?XSP + 1
        POP     A
          CFI CFA_SP SP+0
        MOVX    @DPTR,A
// 1180     }
// 1181     break;
        SJMP    ??MT_SysStackTune_4
// 1182 
// 1183   default:
// 1184     rtrn = ZInvalidParameter;
??MT_SysStackTune_3:
        MOV     DPL,?XSP + 0
        MOV     DPH,?XSP + 1
        MOV     A,#0x2
        MOVX    @DPTR,A
// 1185     break;
// 1186   }
// 1187 
// 1188   MT_BuildAndSendZToolResponse(((uint8)MT_RPC_CMD_SRSP | (uint8)MT_RPC_SYS_SYS), cmd, 1, &rtrn);
??MT_SysStackTune_4:
        ; Setup parameters for call to function MT_BuildAndSendZToolResponse
        MOV     R4,?XSP + 0
        MOV     R5,?XSP + 1
        MOV     R3,#0x1
        MOV     R2,?V0
        MOV     R1,#0x61
        LCALL   `??MT_BuildAndSendZToolResponse::?relay`; Banked call to: MT_BuildAndSendZToolResponse
// 1189 }
        MOV     A,#0x1
        LCALL   ?DEALLOC_XSTACK8
          CFI CFA_XSP16 add(XSP16, 9)
        MOV     R7,#0x1
        LJMP    ?BANKED_LEAVE_XDATA
          CFI EndBlock cfiBlock16
// 1190 
// 1191 /***************************************************************************************************
// 1192  * @fn      MT_SysSetUtcTime
// 1193  *
// 1194  * @brief   Set the OSAL UTC Time. UTC rollover is: 06:28:16 02/07/2136
// 1195  *
// 1196  * @param   pBuf - pointer to time parameters
// 1197  *
// 1198  * @return  None
// 1199  ***************************************************************************************************/

        RSEG BANKED_CODE:CODE:NOROOT(0)
// 1200 void MT_SysSetUtcTime(uint8 *pBuf)
MT_SysSetUtcTime:
          CFI Block cfiBlock17 Using cfiCommon0
          CFI Function MT_SysSetUtcTime
        CODE
// 1201 {
        FUNCALL MT_SysSetUtcTime, osal_build_uint32
        LOCFRAME ISTACK, 0, STACK
        LOCFRAME PSTACK, 0, STACK
        LOCFRAME XSTACK, 28, STACK
        LOCFRAME IOVERLAY, 0, STATIC
        LOCFRAME DOVERLAY, 0, STATIC
        ARGFRAME ISTACK, 0, STACK
        ARGFRAME PSTACK, 0, STACK
        ARGFRAME XSTACK, 28, STACK
        ARGFRAME IOVERLAY, 0, STATIC
        ARGFRAME DOVERLAY, 0, STATIC
        FUNCALL MT_SysSetUtcTime, osal_build_uint16
        LOCFRAME ISTACK, 0, STACK
        LOCFRAME PSTACK, 0, STACK
        LOCFRAME XSTACK, 28, STACK
        LOCFRAME IOVERLAY, 0, STATIC
        LOCFRAME DOVERLAY, 0, STATIC
        ARGFRAME ISTACK, 0, STACK
        ARGFRAME PSTACK, 0, STACK
        ARGFRAME XSTACK, 28, STACK
        ARGFRAME IOVERLAY, 0, STATIC
        ARGFRAME DOVERLAY, 0, STATIC
        FUNCALL MT_SysSetUtcTime, osal_ConvertUTCSecs
        LOCFRAME ISTACK, 0, STACK
        LOCFRAME PSTACK, 0, STACK
        LOCFRAME XSTACK, 28, STACK
        LOCFRAME IOVERLAY, 0, STATIC
        LOCFRAME DOVERLAY, 0, STATIC
        ARGFRAME ISTACK, 0, STACK
        ARGFRAME PSTACK, 0, STACK
        ARGFRAME XSTACK, 28, STACK
        ARGFRAME IOVERLAY, 0, STATIC
        ARGFRAME DOVERLAY, 0, STATIC
        FUNCALL MT_SysSetUtcTime, osal_setClock
        LOCFRAME ISTACK, 0, STACK
        LOCFRAME PSTACK, 0, STACK
        LOCFRAME XSTACK, 28, STACK
        LOCFRAME IOVERLAY, 0, STATIC
        LOCFRAME DOVERLAY, 0, STATIC
        ARGFRAME ISTACK, 0, STACK
        ARGFRAME PSTACK, 0, STACK
        ARGFRAME XSTACK, 28, STACK
        ARGFRAME IOVERLAY, 0, STATIC
        ARGFRAME DOVERLAY, 0, STATIC
        FUNCALL MT_SysSetUtcTime, MT_BuildAndSendZToolResponse
        LOCFRAME ISTACK, 0, STACK
        LOCFRAME PSTACK, 0, STACK
        LOCFRAME XSTACK, 28, STACK
        LOCFRAME IOVERLAY, 0, STATIC
        LOCFRAME DOVERLAY, 0, STATIC
        ARGFRAME ISTACK, 0, STACK
        ARGFRAME PSTACK, 0, STACK
        ARGFRAME XSTACK, 28, STACK
        ARGFRAME IOVERLAY, 0, STATIC
        ARGFRAME DOVERLAY, 0, STATIC
        REQUIRE ?V0
        REQUIRE ?V2
        REQUIRE ?V3
        REQUIRE ?V4
        REQUIRE ?V5
        REQUIRE ?V6
        REQUIRE ?V7
        REQUIRE ?V8
        REQUIRE ?V9
        REQUIRE ?V10
        REQUIRE ?V11
        MOV     A,#-0x14
        LCALL   ?BANKED_ENTER_XDATA
          CFI DPH0 load(1, XDATA, add(CFA_XSP16, literal(-1)))
          CFI DPL0 load(1, XDATA, add(CFA_XSP16, literal(-2)))
          CFI ?BRET_EXT load(1, XDATA, add(CFA_XSP16, literal(-3)))
          CFI ?RET_HIGH load(1, XDATA, add(CFA_XSP16, literal(-4)))
          CFI ?RET_LOW load(1, XDATA, add(CFA_XSP16, literal(-5)))
          CFI R7 load(1, XDATA, add(CFA_XSP16, literal(-6)))
          CFI V11 load(1, XDATA, add(CFA_XSP16, literal(-7)))
          CFI V10 load(1, XDATA, add(CFA_XSP16, literal(-8)))
          CFI V9 load(1, XDATA, add(CFA_XSP16, literal(-9)))
          CFI V8 load(1, XDATA, add(CFA_XSP16, literal(-10)))
          CFI V7 load(1, XDATA, add(CFA_XSP16, literal(-11)))
          CFI V6 load(1, XDATA, add(CFA_XSP16, literal(-12)))
          CFI V5 load(1, XDATA, add(CFA_XSP16, literal(-13)))
          CFI V4 load(1, XDATA, add(CFA_XSP16, literal(-14)))
          CFI V3 load(1, XDATA, add(CFA_XSP16, literal(-15)))
          CFI V2 load(1, XDATA, add(CFA_XSP16, literal(-16)))
          CFI V1 load(1, XDATA, add(CFA_XSP16, literal(-17)))
          CFI V0 load(1, XDATA, add(CFA_XSP16, literal(-18)))
          CFI VB load(1, XDATA, add(CFA_XSP16, literal(-19)))
          CFI R6 load(1, XDATA, add(CFA_XSP16, literal(-20)))
          CFI CFA_SP SP+0
          CFI CFA_XSP16 add(XSP16, 20)
        ; Saved register size: 20
        ; Auto size: 8
        MOV     A,#-0x8
        LCALL   ?ALLOC_XSTACK8
          CFI CFA_XSP16 add(XSP16, 28)
        MOV     A,R2
        MOV     R6,A
        MOV     A,R3
        MOV     R7,A
// 1202   uint8 cmdId;
// 1203   uint8 retStat;
// 1204   UTCTime utcSecs;
// 1205 
// 1206   /* Parse header */
// 1207   cmdId = pBuf[MT_RPC_POS_CMD1];
        MOV     DPL,R6
        MOV     DPH,R7
        INC     DPTR
        INC     DPTR
        MOVX    A,@DPTR
        MOV     ?V0,A
// 1208   pBuf += MT_RPC_FRAME_HDR_SZ;
        MOV     A,R6
        ADD     A,#0x3
        MOV     R6,A
        JNC     ??MT_SysSetUtcTime_0
        INC     R7
// 1209 
// 1210   utcSecs = osal_build_uint32( pBuf, 4 );
??MT_SysSetUtcTime_0:
        ; Setup parameters for call to function osal_build_uint32
        MOV     R1,#0x4
        MOV     A,R6
        MOV     R2,A
        MOV     A,R7
        MOV     R3,A
        LCALL   `??osal_build_uint32::?relay`; Banked call to: osal_build_uint32
        MOV     ?V8,R2
        MOV     ?V9,R3
        MOV     ?V10,R4
        MOV     ?V11,R5
        MOV     ?V4,?V8
        MOV     ?V5,?V9
        MOV     ?V6,?V10
        MOV     ?V7,?V11
// 1211   if ( utcSecs == 0 )
        MOV     A,?V4
        ORL     A,?V5
        ORL     A,?V6
        ORL     A,?V7
        JZ      $+5
        LJMP    ??MT_SysSetUtcTime_1 & 0xFFFF
// 1212   {
// 1213     UTCTimeStruct utc;
// 1214 
// 1215     /* Skip past UTC time */
// 1216     pBuf += 4;
        MOV     A,R6
        ADD     A,#0x4
        MOV     R6,A
        JNC     ??MT_SysSetUtcTime_2
        INC     R7
// 1217 
// 1218     /* Get time and date parameters */
// 1219     utc.hour = *pBuf++;
??MT_SysSetUtcTime_2:
        MOV     DPL,R6
        MOV     DPH,R7
        MOVX    A,@DPTR
        PUSH    A
          CFI CFA_SP SP+-1
        MOV     A,#0x3
        LCALL   ?XSTACK_DISP0_8
        POP     A
          CFI CFA_SP SP+0
        MOVX    @DPTR,A
        MOV     DPL,R6
        MOV     DPH,R7
        INC     DPTR
        MOV     R6,DPL
        MOV     R7,DPH
// 1220     utc.minutes = *pBuf++;
        MOV     DPL,R6
        MOV     DPH,R7
        MOVX    A,@DPTR
        PUSH    A
          CFI CFA_SP SP+-1
        MOV     A,#0x2
        LCALL   ?XSTACK_DISP0_8
        POP     A
          CFI CFA_SP SP+0
        MOVX    @DPTR,A
        MOV     DPL,R6
        MOV     DPH,R7
        INC     DPTR
        MOV     R6,DPL
        MOV     R7,DPH
// 1221     utc.seconds = *pBuf++;
        MOV     DPL,R6
        MOV     DPH,R7
        MOVX    A,@DPTR
        PUSH    A
          CFI CFA_SP SP+-1
        MOV     A,#0x1
        LCALL   ?XSTACK_DISP0_8
        POP     A
          CFI CFA_SP SP+0
        MOVX    @DPTR,A
        MOV     DPL,R6
        MOV     DPH,R7
        INC     DPTR
        MOV     R6,DPL
        MOV     R7,DPH
// 1222     utc.month = (*pBuf++) - 1;
        MOV     DPL,R6
        MOV     DPH,R7
        MOVX    A,@DPTR
        ADD     A,#-0x1
        PUSH    A
          CFI CFA_SP SP+-1
        MOV     A,#0x5
        LCALL   ?XSTACK_DISP0_8
        POP     A
          CFI CFA_SP SP+0
        MOVX    @DPTR,A
        MOV     DPL,R6
        MOV     DPH,R7
        INC     DPTR
        MOV     R6,DPL
        MOV     R7,DPH
// 1223     utc.day = (*pBuf++) - 1;
        MOV     DPL,R6
        MOV     DPH,R7
        MOVX    A,@DPTR
        ADD     A,#-0x1
        PUSH    A
          CFI CFA_SP SP+-1
        MOV     A,#0x4
        LCALL   ?XSTACK_DISP0_8
        POP     A
          CFI CFA_SP SP+0
        MOVX    @DPTR,A
        MOV     DPL,R6
        MOV     DPH,R7
        INC     DPTR
        MOV     R6,DPL
        MOV     R7,DPH
// 1224     utc.year = osal_build_uint16 ( pBuf );
        ; Setup parameters for call to function osal_build_uint16
        MOV     A,R6
        MOV     R2,A
        MOV     A,R7
        MOV     R3,A
        LCALL   `??osal_build_uint16::?relay`; Banked call to: osal_build_uint16
        MOV     A,#0x6
        LCALL   ?XSTACK_DISP0_8
        MOV     A,R2
        MOVX    @DPTR,A
        INC     DPTR
        MOV     A,R3
        MOVX    @DPTR,A
// 1225 
// 1226     if ((utc.hour < 24) && (utc.minutes < 60) && (utc.seconds < 60) &&
// 1227         (utc.month < 12) && (utc.day < 31) && (utc.year > 1999) && (utc.year < 2136))
        MOV     A,#0x3
        LCALL   ?XSTACK_DISP0_8
        MOVX    A,@DPTR
        CLR     C
        SUBB    A,#0x18
        JC      $+5
        LJMP    ??MT_SysSetUtcTime_1 & 0xFFFF
        MOV     A,#0x2
        LCALL   ?XSTACK_DISP0_8
        MOVX    A,@DPTR
        CLR     C
        SUBB    A,#0x3c
        JC      $+5
        LJMP    ??MT_SysSetUtcTime_1 & 0xFFFF
        MOV     A,#0x1
        LCALL   ?XSTACK_DISP0_8
        MOVX    A,@DPTR
        CLR     C
        SUBB    A,#0x3c
        JC      $+5
        LJMP    ??MT_SysSetUtcTime_1 & 0xFFFF
        MOV     A,#0x5
        LCALL   ?XSTACK_DISP0_8
        MOVX    A,@DPTR
        CLR     C
        SUBB    A,#0xc
        JC      $+5
        LJMP    ??MT_SysSetUtcTime_1 & 0xFFFF
        MOV     A,#0x4
        LCALL   ?XSTACK_DISP0_8
        MOVX    A,@DPTR
        CLR     C
        SUBB    A,#0x1f
        JC      $+5
        LJMP    ??MT_SysSetUtcTime_1 & 0xFFFF
        MOV     A,#0x6
        LCALL   ?XSTACK_DISP0_8
        CLR     C
        MOVX    A,@DPTR
        SUBB    A,#-0x30
        INC     DPTR
        MOVX    A,@DPTR
        SUBB    A,#0x7
        JNC     $+5
        LJMP    ??MT_SysSetUtcTime_1 & 0xFFFF
        MOV     A,#0x6
        LCALL   ?XSTACK_DISP0_8
        CLR     C
        MOVX    A,@DPTR
        SUBB    A,#0x58
        INC     DPTR
        MOVX    A,@DPTR
        SUBB    A,#0x8
        JC      $+5
        LJMP    ??MT_SysSetUtcTime_1 & 0xFFFF
// 1228     {
// 1229       /* Got past the course filter, now check for leap year */
// 1230       if ((utc.month != 1) || (utc.day < (IsLeapYear( utc.year ) ? 29 : 28)))
        MOV     A,#0x5
        LCALL   ?XSTACK_DISP0_8
        MOVX    A,@DPTR
        XRL     A,#0x1
        JNZ     ??MT_SysSetUtcTime_3
        MOV     A,#0x6
        LCALL   ?XSTACK_DISP0_8
        MOVX    A,@DPTR
        MOV     R0,A
        INC     DPTR
        MOVX    A,@DPTR
        MOV     R1,A
        MOV     R2,#-0x70
        MOV     R3,#0x1
        LCALL   ?US_DIV_MOD
        MOV     ?V2,R2
        MOV     ?V3,R3
        MOV     A,?V2
        ORL     A,?V3
        JZ      ??MT_SysSetUtcTime_4
        MOV     A,#0x6
        LCALL   ?XSTACK_DISP0_8
        MOVX    A,@DPTR
        MOV     R0,A
        INC     DPTR
        MOVX    A,@DPTR
        MOV     R1,A
        MOV     R2,#0x64
        MOV     R3,#0x0
        LCALL   ?US_DIV_MOD
        MOV     ?V2,R2
        MOV     ?V3,R3
        MOV     A,?V2
        ORL     A,?V3
        JZ      ??MT_SysSetUtcTime_5
        MOV     A,#0x6
        LCALL   ?XSTACK_DISP0_8
        MOVX    A,@DPTR
        MOV     R0,A
        INC     DPTR
        MOVX    A,@DPTR
        MOV     R1,A
        MOV     R2,#0x4
        MOV     R3,#0x0
        LCALL   ?US_DIV_MOD
        MOV     ?V2,R2
        MOV     ?V3,R3
        MOV     A,?V2
        ORL     A,?V3
        JNZ     ??MT_SysSetUtcTime_5
??MT_SysSetUtcTime_4:
        MOV     R2,#0x1d
        MOV     R3,#0x0
        SJMP    ??MT_SysSetUtcTime_6
??MT_SysSetUtcTime_5:
        MOV     R2,#0x1c
        MOV     R3,#0x0
??MT_SysSetUtcTime_6:
        MOV     A,#0x4
        LCALL   ?XSTACK_DISP0_8
        MOVX    A,@DPTR
        MOV     R0,A
        MOV     R1,#0x0
        CLR     C
        MOV     A,R0
        SUBB    A,R2
        MOV     A,R1
        SUBB    A,R3
        MOV     C,0xD0 /* PSW */.2
        XRL     A,PSW
        RLC     A
        JNC     ??MT_SysSetUtcTime_1
// 1231       {
// 1232         /* Numbers look reasonable, convert to UTC */
// 1233         utcSecs = osal_ConvertUTCSecs( &utc );
??MT_SysSetUtcTime_3:
        ; Setup parameters for call to function osal_ConvertUTCSecs
        MOV     A,#0x1
        LCALL   ?XSTACK_DISP101_8
        LCALL   `??osal_ConvertUTCSecs::?relay`; Banked call to: osal_ConvertUTCSecs
        MOV     ?V8,R2
        MOV     ?V9,R3
        MOV     ?V10,R4
        MOV     ?V11,R5
        MOV     ?V4,?V8
        MOV     ?V5,?V9
        MOV     ?V6,?V10
        MOV     ?V7,?V11
// 1234       }
// 1235     }
// 1236   }
// 1237 
// 1238   if ( utcSecs == 0 )
??MT_SysSetUtcTime_1:
        MOV     A,?V4
        ORL     A,?V5
        ORL     A,?V6
        ORL     A,?V7
        JNZ     ??MT_SysSetUtcTime_7
// 1239   {
// 1240     /* Bad parameter(s) */
// 1241     retStat = ZInvalidParameter;
        MOV     DPL,?XSP + 0
        MOV     DPH,?XSP + 1
        MOV     A,#0x2
        MOVX    @DPTR,A
        SJMP    ??MT_SysSetUtcTime_8
// 1242   }
// 1243   else
// 1244   {
// 1245     /* Parameters accepted, set the time */
// 1246     osal_setClock( utcSecs );
??MT_SysSetUtcTime_7:
        ; Setup parameters for call to function osal_setClock
        MOV     R2,?V4
        MOV     R3,?V5
        MOV     R4,?V6
        MOV     R5,?V7
        LCALL   `??osal_setClock::?relay`; Banked call to: osal_setClock
// 1247     retStat = ZSuccess;
        MOV     DPL,?XSP + 0
        MOV     DPH,?XSP + 1
        MOV     A,#0x0
        MOVX    @DPTR,A
// 1248   }
// 1249 
// 1250   /* Build and send back the response */
// 1251   MT_BuildAndSendZToolResponse(((uint8)MT_RPC_CMD_SRSP | (uint8)MT_RPC_SYS_SYS),
// 1252                                  cmdId, 1, &retStat);
??MT_SysSetUtcTime_8:
        ; Setup parameters for call to function MT_BuildAndSendZToolResponse
        MOV     R4,?XSP + 0
        MOV     R5,?XSP + 1
        MOV     R3,#0x1
        MOV     R2,?V0
        MOV     R1,#0x61
        LCALL   `??MT_BuildAndSendZToolResponse::?relay`; Banked call to: MT_BuildAndSendZToolResponse
// 1253 }
        MOV     A,#0x8
        LCALL   ?DEALLOC_XSTACK8
          CFI CFA_XSP16 add(XSP16, 20)
        MOV     R7,#0xc
        LJMP    ?BANKED_LEAVE_XDATA
          CFI EndBlock cfiBlock17
// 1254 
// 1255 /***************************************************************************************************
// 1256  * @fn      MT_SysGetUtcTime
// 1257  *
// 1258  * @brief   Get the OSAL UTC time
// 1259  *
// 1260  * @param   None
// 1261  *
// 1262  * @return  32-bit and Parsed UTC time
// 1263  ***************************************************************************************************/

        RSEG BANKED_CODE:CODE:NOROOT(0)
// 1264 void MT_SysGetUtcTime(void)
MT_SysGetUtcTime:
          CFI Block cfiBlock18 Using cfiCommon0
          CFI Function MT_SysGetUtcTime
        CODE
// 1265 {
        FUNCALL MT_SysGetUtcTime, osal_mem_alloc
        LOCFRAME ISTACK, 0, STACK
        LOCFRAME PSTACK, 0, STACK
        LOCFRAME XSTACK, 26, STACK
        LOCFRAME IOVERLAY, 0, STATIC
        LOCFRAME DOVERLAY, 0, STATIC
        ARGFRAME ISTACK, 0, STACK
        ARGFRAME PSTACK, 0, STACK
        ARGFRAME XSTACK, 26, STACK
        ARGFRAME IOVERLAY, 0, STATIC
        ARGFRAME DOVERLAY, 0, STATIC
        FUNCALL MT_SysGetUtcTime, osal_getClock
        LOCFRAME ISTACK, 0, STACK
        LOCFRAME PSTACK, 0, STACK
        LOCFRAME XSTACK, 26, STACK
        LOCFRAME IOVERLAY, 0, STATIC
        LOCFRAME DOVERLAY, 0, STATIC
        ARGFRAME ISTACK, 0, STACK
        ARGFRAME PSTACK, 0, STACK
        ARGFRAME XSTACK, 26, STACK
        ARGFRAME IOVERLAY, 0, STATIC
        ARGFRAME DOVERLAY, 0, STATIC
        FUNCALL MT_SysGetUtcTime, osal_ConvertUTCTime
        LOCFRAME ISTACK, 0, STACK
        LOCFRAME PSTACK, 0, STACK
        LOCFRAME XSTACK, 30, STACK
        LOCFRAME IOVERLAY, 0, STATIC
        LOCFRAME DOVERLAY, 0, STATIC
        ARGFRAME ISTACK, 0, STACK
        ARGFRAME PSTACK, 0, STACK
        ARGFRAME XSTACK, 30, STACK
        ARGFRAME IOVERLAY, 0, STATIC
        ARGFRAME DOVERLAY, 0, STATIC
        FUNCALL MT_SysGetUtcTime, osal_buffer_uint32
        LOCFRAME ISTACK, 0, STACK
        LOCFRAME PSTACK, 0, STACK
        LOCFRAME XSTACK, 30, STACK
        LOCFRAME IOVERLAY, 0, STATIC
        LOCFRAME DOVERLAY, 0, STATIC
        ARGFRAME ISTACK, 0, STACK
        ARGFRAME PSTACK, 0, STACK
        ARGFRAME XSTACK, 30, STACK
        ARGFRAME IOVERLAY, 0, STATIC
        ARGFRAME DOVERLAY, 0, STATIC
        FUNCALL MT_SysGetUtcTime, MT_BuildAndSendZToolResponse
        LOCFRAME ISTACK, 0, STACK
        LOCFRAME PSTACK, 0, STACK
        LOCFRAME XSTACK, 26, STACK
        LOCFRAME IOVERLAY, 0, STATIC
        LOCFRAME DOVERLAY, 0, STATIC
        ARGFRAME ISTACK, 0, STACK
        ARGFRAME PSTACK, 0, STACK
        ARGFRAME XSTACK, 26, STACK
        ARGFRAME IOVERLAY, 0, STATIC
        ARGFRAME DOVERLAY, 0, STATIC
        FUNCALL MT_SysGetUtcTime, osal_mem_free
        LOCFRAME ISTACK, 0, STACK
        LOCFRAME PSTACK, 0, STACK
        LOCFRAME XSTACK, 26, STACK
        LOCFRAME IOVERLAY, 0, STATIC
        LOCFRAME DOVERLAY, 0, STATIC
        ARGFRAME ISTACK, 0, STACK
        ARGFRAME PSTACK, 0, STACK
        ARGFRAME XSTACK, 26, STACK
        ARGFRAME IOVERLAY, 0, STATIC
        ARGFRAME DOVERLAY, 0, STATIC
        REQUIRE ?V0
        REQUIRE ?V1
        REQUIRE ?V2
        REQUIRE ?V3
        REQUIRE ?V4
        REQUIRE ?V5
        REQUIRE ?V6
        REQUIRE ?V7
        REQUIRE ?V8
        REQUIRE ?V9
        REQUIRE ?V10
        MOV     A,#-0x13
        LCALL   ?BANKED_ENTER_XDATA
          CFI DPH0 load(1, XDATA, add(CFA_XSP16, literal(-1)))
          CFI DPL0 load(1, XDATA, add(CFA_XSP16, literal(-2)))
          CFI ?BRET_EXT load(1, XDATA, add(CFA_XSP16, literal(-3)))
          CFI ?RET_HIGH load(1, XDATA, add(CFA_XSP16, literal(-4)))
          CFI ?RET_LOW load(1, XDATA, add(CFA_XSP16, literal(-5)))
          CFI R7 load(1, XDATA, add(CFA_XSP16, literal(-6)))
          CFI V10 load(1, XDATA, add(CFA_XSP16, literal(-7)))
          CFI V9 load(1, XDATA, add(CFA_XSP16, literal(-8)))
          CFI V8 load(1, XDATA, add(CFA_XSP16, literal(-9)))
          CFI V7 load(1, XDATA, add(CFA_XSP16, literal(-10)))
          CFI V6 load(1, XDATA, add(CFA_XSP16, literal(-11)))
          CFI V5 load(1, XDATA, add(CFA_XSP16, literal(-12)))
          CFI V4 load(1, XDATA, add(CFA_XSP16, literal(-13)))
          CFI V3 load(1, XDATA, add(CFA_XSP16, literal(-14)))
          CFI V2 load(1, XDATA, add(CFA_XSP16, literal(-15)))
          CFI V1 load(1, XDATA, add(CFA_XSP16, literal(-16)))
          CFI V0 load(1, XDATA, add(CFA_XSP16, literal(-17)))
          CFI VB load(1, XDATA, add(CFA_XSP16, literal(-18)))
          CFI R6 load(1, XDATA, add(CFA_XSP16, literal(-19)))
          CFI CFA_SP SP+0
          CFI CFA_XSP16 add(XSP16, 19)
        ; Saved register size: 19
        ; Auto size: 7
        MOV     A,#-0x7
        LCALL   ?ALLOC_XSTACK8
          CFI CFA_XSP16 add(XSP16, 26)
// 1266   uint8 len;
// 1267   uint8 *buf;
// 1268 
// 1269   len = sizeof( UTCTime ) + sizeof( UTCTimeStruct );
        MOV     ?V10,#0xb
// 1270 
// 1271   buf = osal_mem_alloc( len );
        ; Setup parameters for call to function osal_mem_alloc
        MOV     R2,?V10
        MOV     R3,#0x0
        LCALL   `??osal_mem_alloc::?relay`; Banked call to: osal_mem_alloc
        MOV     ?V0,R2
        MOV     ?V1,R3
        MOV     ?V8,?V0
        MOV     ?V9,?V1
// 1272   if ( buf )
        MOV     A,?V8
        ORL     A,?V9
        JNZ     $+5
        LJMP    ??MT_SysGetUtcTime_0 & 0xFFFF
// 1273   {
// 1274     uint8 *pBuf;
// 1275     UTCTime utcSecs;
// 1276     UTCTimeStruct utcTime;
// 1277 
// 1278     // Get current 32-bit UTC time and parse it
// 1279     utcSecs = osal_getClock();
        ; Setup parameters for call to function osal_getClock
        LCALL   `??osal_getClock::?relay`; Banked call to: osal_getClock
        MOV     ?V0,R2
        MOV     ?V1,R3
        MOV     ?V2,R4
        MOV     ?V3,R5
        MOV     ?V4,?V0
        MOV     ?V5,?V1
        MOV     ?V6,?V2
        MOV     ?V7,?V3
// 1280     osal_ConvertUTCTime( &utcTime, utcSecs );
        ; Setup parameters for call to function osal_ConvertUTCTime
        MOV     R0,#?V4
        LCALL   ?PUSH_XSTACK_I_FOUR
          CFI CFA_XSP16 add(XSP16, 30)
        MOV     A,#0x4
        LCALL   ?XSTACK_DISP101_8
        LCALL   `??osal_ConvertUTCTime::?relay`; Banked call to: osal_ConvertUTCTime
        MOV     A,#0x4
        LCALL   ?DEALLOC_XSTACK8
          CFI CFA_XSP16 add(XSP16, 26)
// 1281 
// 1282     // Start with 32-bit UTC time
// 1283     pBuf = osal_buffer_uint32( buf, utcSecs );
        ; Setup parameters for call to function osal_buffer_uint32
        MOV     R0,#?V4
        LCALL   ?PUSH_XSTACK_I_FOUR
          CFI CFA_XSP16 add(XSP16, 30)
        MOV     R2,?V8
        MOV     R3,?V9
        LCALL   `??osal_buffer_uint32::?relay`; Banked call to: osal_buffer_uint32
        MOV     A,#0x4
        LCALL   ?DEALLOC_XSTACK8
          CFI CFA_XSP16 add(XSP16, 26)
        MOV     ?V0,R2
        MOV     ?V1,R3
        MOV     R6,?V0
        MOV     R7,?V1
// 1284 
// 1285     // Concatenate parsed UTC time fields
// 1286     *pBuf++ = utcTime.hour;
        MOV     A,#0x2
        LCALL   ?XSTACK_DISP0_8
        MOVX    A,@DPTR
        PUSH    A
          CFI CFA_SP SP+-1
        MOV     DPL,R6
        MOV     DPH,R7
        POP     A
          CFI CFA_SP SP+0
        MOVX    @DPTR,A
        MOV     DPL,R6
        MOV     DPH,R7
        INC     DPTR
        MOV     R6,DPL
        MOV     R7,DPH
// 1287     *pBuf++ = utcTime.minutes;
        MOV     A,#0x1
        LCALL   ?XSTACK_DISP0_8
        MOVX    A,@DPTR
        PUSH    A
          CFI CFA_SP SP+-1
        MOV     DPL,R6
        MOV     DPH,R7
        POP     A
          CFI CFA_SP SP+0
        MOVX    @DPTR,A
        MOV     DPL,R6
        MOV     DPH,R7
        INC     DPTR
        MOV     R6,DPL
        MOV     R7,DPH
// 1288     *pBuf++ = utcTime.seconds;
        MOV     DPL,?XSP + 0
        MOV     DPH,?XSP + 1
        MOVX    A,@DPTR
        PUSH    A
          CFI CFA_SP SP+-1
        MOV     DPL,R6
        MOV     DPH,R7
        POP     A
          CFI CFA_SP SP+0
        MOVX    @DPTR,A
        MOV     DPL,R6
        MOV     DPH,R7
        INC     DPTR
        MOV     R6,DPL
        MOV     R7,DPH
// 1289     *pBuf++ = utcTime.month + 1;  // Convert to human numbers
        MOV     A,#0x4
        LCALL   ?XSTACK_DISP0_8
        MOVX    A,@DPTR
        ADD     A,#0x1
        PUSH    A
          CFI CFA_SP SP+-1
        MOV     DPL,R6
        MOV     DPH,R7
        POP     A
          CFI CFA_SP SP+0
        MOVX    @DPTR,A
        MOV     DPL,R6
        MOV     DPH,R7
        INC     DPTR
        MOV     R6,DPL
        MOV     R7,DPH
// 1290     *pBuf++ = utcTime.day + 1;
        MOV     A,#0x3
        LCALL   ?XSTACK_DISP0_8
        MOVX    A,@DPTR
        ADD     A,#0x1
        PUSH    A
          CFI CFA_SP SP+-1
        MOV     DPL,R6
        MOV     DPH,R7
        POP     A
          CFI CFA_SP SP+0
        MOVX    @DPTR,A
        MOV     DPL,R6
        MOV     DPH,R7
        INC     DPTR
        MOV     R6,DPL
        MOV     R7,DPH
// 1291     *pBuf++ = LO_UINT16( utcTime.year );
        MOV     A,#0x5
        LCALL   ?XSTACK_DISP0_8
        MOVX    A,@DPTR
        MOV     R0,A
        INC     DPTR
        MOVX    A,@DPTR
        MOV     R1,A
        MOV     A,R0
        PUSH    A
          CFI CFA_SP SP+-1
        MOV     DPL,R6
        MOV     DPH,R7
        POP     A
          CFI CFA_SP SP+0
        MOVX    @DPTR,A
        MOV     DPL,R6
        MOV     DPH,R7
        INC     DPTR
        MOV     R6,DPL
        MOV     R7,DPH
// 1292     *pBuf++ = HI_UINT16( utcTime.year );
        MOV     A,#0x5
        LCALL   ?XSTACK_DISP0_8
        MOVX    A,@DPTR
        MOV     R0,A
        INC     DPTR
        MOVX    A,@DPTR
        MOV     R1,A
        CLR     A
        XCH     A,R1
        MOV     R0,A
        MOV     A,R0
        PUSH    A
          CFI CFA_SP SP+-1
        MOV     DPL,R6
        MOV     DPH,R7
        POP     A
          CFI CFA_SP SP+0
        MOVX    @DPTR,A
        MOV     DPL,R6
        MOV     DPH,R7
        INC     DPTR
        MOV     R6,DPL
        MOV     R7,DPH
// 1293 
// 1294     /* Build and send back the response */
// 1295     MT_BuildAndSendZToolResponse(((uint8)MT_RPC_CMD_SRSP | (uint8)MT_RPC_SYS_SYS),
// 1296                                    MT_SYS_GET_TIME, (uint8)(pBuf-buf), buf);
        ; Setup parameters for call to function MT_BuildAndSendZToolResponse
        MOV     R4,?V8
        MOV     R5,?V9
        MOV     R0,?V8
        MOV     A,R6
        CLR     C
        SUBB    A,R0
        MOV     R3,A
        MOV     R2,#0x11
        MOV     R1,#0x61
        LCALL   `??MT_BuildAndSendZToolResponse::?relay`; Banked call to: MT_BuildAndSendZToolResponse
// 1297 
// 1298     osal_mem_free( buf );
        ; Setup parameters for call to function osal_mem_free
        MOV     R2,?V8
        MOV     R3,?V9
        LCALL   `??osal_mem_free::?relay`; Banked call to: osal_mem_free
// 1299   }
// 1300 }
??MT_SysGetUtcTime_0:
        MOV     A,#0x7
        LCALL   ?DEALLOC_XSTACK8
          CFI CFA_XSP16 add(XSP16, 19)
        MOV     R7,#0xb
        LJMP    ?BANKED_LEAVE_XDATA
          CFI EndBlock cfiBlock18
// 1301 
// 1302 /***************************************************************************************************
// 1303  * @fn      MT_SysSetTxPower
// 1304  *
// 1305  * @brief   Set the transmit power.
// 1306  *
// 1307  * @param   pBuf - MT message containing the ZMacTransmitPower_t power level to set.
// 1308  *
// 1309  * @return  None
// 1310  ***************************************************************************************************/

        RSEG BANKED_CODE:CODE:NOROOT(0)
// 1311 void MT_SysSetTxPower(uint8 *pBuf)
MT_SysSetTxPower:
          CFI Block cfiBlock19 Using cfiCommon0
          CFI Function MT_SysSetTxPower
        CODE
// 1312 {
        FUNCALL MT_SysSetTxPower, macRadioSetTxPower
        LOCFRAME ISTACK, 0, STACK
        LOCFRAME PSTACK, 0, STACK
        LOCFRAME XSTACK, 11, STACK
        LOCFRAME IOVERLAY, 0, STATIC
        LOCFRAME DOVERLAY, 0, STATIC
        ARGFRAME ISTACK, 0, STACK
        ARGFRAME PSTACK, 0, STACK
        ARGFRAME XSTACK, 11, STACK
        ARGFRAME IOVERLAY, 0, STATIC
        ARGFRAME DOVERLAY, 0, STATIC
        FUNCALL MT_SysSetTxPower, MAC_MlmeSetReq
        LOCFRAME ISTACK, 0, STACK
        LOCFRAME PSTACK, 0, STACK
        LOCFRAME XSTACK, 11, STACK
        LOCFRAME IOVERLAY, 0, STATIC
        LOCFRAME DOVERLAY, 0, STATIC
        ARGFRAME ISTACK, 0, STACK
        ARGFRAME PSTACK, 0, STACK
        ARGFRAME XSTACK, 11, STACK
        ARGFRAME IOVERLAY, 0, STATIC
        ARGFRAME DOVERLAY, 0, STATIC
        FUNCALL MT_SysSetTxPower, MT_BuildAndSendZToolResponse
        LOCFRAME ISTACK, 0, STACK
        LOCFRAME PSTACK, 0, STACK
        LOCFRAME XSTACK, 11, STACK
        LOCFRAME IOVERLAY, 0, STATIC
        LOCFRAME DOVERLAY, 0, STATIC
        ARGFRAME ISTACK, 0, STACK
        ARGFRAME PSTACK, 0, STACK
        ARGFRAME XSTACK, 11, STACK
        ARGFRAME IOVERLAY, 0, STATIC
        ARGFRAME DOVERLAY, 0, STATIC
        REQUIRE ?V0
        MOV     A,#-0x9
        LCALL   ?BANKED_ENTER_XDATA
          CFI DPH0 load(1, XDATA, add(CFA_XSP16, literal(-1)))
          CFI DPL0 load(1, XDATA, add(CFA_XSP16, literal(-2)))
          CFI ?BRET_EXT load(1, XDATA, add(CFA_XSP16, literal(-3)))
          CFI ?RET_HIGH load(1, XDATA, add(CFA_XSP16, literal(-4)))
          CFI ?RET_LOW load(1, XDATA, add(CFA_XSP16, literal(-5)))
          CFI R7 load(1, XDATA, add(CFA_XSP16, literal(-6)))
          CFI V0 load(1, XDATA, add(CFA_XSP16, literal(-7)))
          CFI VB load(1, XDATA, add(CFA_XSP16, literal(-8)))
          CFI R6 load(1, XDATA, add(CFA_XSP16, literal(-9)))
          CFI CFA_SP SP+0
          CFI CFA_XSP16 add(XSP16, 9)
        ; Saved register size: 9
        ; Auto size: 2
        MOV     A,#-0x2
        LCALL   ?ALLOC_XSTACK8
          CFI CFA_XSP16 add(XSP16, 11)
        MOV     A,R2
        MOV     R6,A
        MOV     A,R3
        MOV     R7,A
// 1313   /* A local variable to hold the signed dBm value of TxPower that is being requested. */
// 1314   uint8 signed_dBm_of_TxPower_requeseted;
// 1315 
// 1316   /*
// 1317    * A local variable to hold the signed dBm value of TxPower that can be set which is closest to
// 1318    * the requested dBm value of TxPower, but which is also valid according to a complex set of
// 1319    * compile-time and run-time configuration which is interpreted by the macRadioSetTxPower()
// 1320    * function.
// 1321    */
// 1322   uint8 signed_dBm_of_TxPower_range_corrected;
// 1323 
// 1324   /* Parse the requested dBm from the RPC message. */
// 1325   signed_dBm_of_TxPower_requeseted = pBuf[MT_RPC_POS_DAT0];
        MOV     DPL,R6
        MOV     DPH,R7
        INC     DPTR
        INC     DPTR
        INC     DPTR
        MOVX    A,@DPTR
        PUSH    A
          CFI CFA_SP SP+-1
        MOV     DPL,?XSP + 0
        MOV     DPH,?XSP + 1
        POP     A
          CFI CFA_SP SP+0
        MOVX    @DPTR,A
// 1326 
// 1327   /*
// 1328    * MAC_MlmeSetReq() will store an out-of-range dBm parameter value into the NIB. So it is not
// 1329    * possible to learn the actual dBm value that will be set by invoking MACMlmeGetReq().
// 1330    * But this actual dBm value is a required return value in the SRSP to this SREQ. Therefore,
// 1331    * it is necessary to make this redundant pre-call to macRadioSetTxPower() here in order to run
// 1332    * the code that will properly constrain the requested dBm to a valid range based on both the
// 1333    * compile-time and the run-time configurations that affect the available valid ranges
// 1334    * (i.e. MAC_MlmeSetReq() itself will invoke for a second time the macRadioSetTxPower() function).
// 1335    */
// 1336   signed_dBm_of_TxPower_range_corrected = macRadioSetTxPower(signed_dBm_of_TxPower_requeseted);
        ; Setup parameters for call to function macRadioSetTxPower
        MOV     DPL,?XSP + 0
        MOV     DPH,?XSP + 1
        MOVX    A,@DPTR
        MOV     R1,A
        LCALL   `??macRadioSetTxPower::?relay`; Banked call to: macRadioSetTxPower
        MOV     A,R1
        PUSH    A
          CFI CFA_SP SP+-1
        MOV     A,#0x1
        LCALL   ?XSTACK_DISP0_8
        POP     A
          CFI CFA_SP SP+0
        MOVX    @DPTR,A
// 1337 
// 1338   /*
// 1339    * Call the function to store the requested dBm in the MAC PIB and to set the TxPower as closely
// 1340    * as possible within the TxPower range that is valid for the compile-time and run-time
// 1341    * configuration.
// 1342    */
// 1343   (void)MAC_MlmeSetReq(MAC_PHY_TRANSMIT_POWER_SIGNED, &signed_dBm_of_TxPower_requeseted);
        ; Setup parameters for call to function MAC_MlmeSetReq
        MOV     R2,?XSP + 0
        MOV     R3,?XSP + 1
        MOV     R1,#-0x20
        LCALL   `??MAC_MlmeSetReq::?relay`; Banked call to: MAC_MlmeSetReq
        MOV     A,R1
        MOV     ?V0,A
// 1344 
// 1345   /* Build and send back the response that includes the actual dBm TxPower that can be set. */
// 1346   MT_BuildAndSendZToolResponse(((uint8)MT_RPC_CMD_SRSP | (uint8)MT_RPC_SYS_SYS),
// 1347                                        MT_SYS_SET_TX_POWER, 1,
// 1348                                        &signed_dBm_of_TxPower_range_corrected);
        ; Setup parameters for call to function MT_BuildAndSendZToolResponse
        MOV     A,#0x1
        LCALL   ?XSTACK_DISP102_8
        MOV     R3,#0x1
        MOV     R2,#0x14
        MOV     R1,#0x61
        LCALL   `??MT_BuildAndSendZToolResponse::?relay`; Banked call to: MT_BuildAndSendZToolResponse
// 1349 }
        MOV     A,#0x2
        LCALL   ?DEALLOC_XSTACK8
          CFI CFA_XSP16 add(XSP16, 9)
        MOV     R7,#0x1
        LJMP    ?BANKED_LEAVE_XDATA
          CFI EndBlock cfiBlock19
// 1350 
// 1351 #if defined ( FEATURE_SYSTEM_STATS )
// 1352 /***************************************************************************************************
// 1353  * @fn      MT_SysZDiagsInitStats
// 1354  *
// 1355  * @brief   Initialize the statistics table in NV or restore values from
// 1356  *          NV into the Statistics table in RAM
// 1357  *
// 1358  * @param   None
// 1359  *
// 1360  * @return  None
// 1361  ***************************************************************************************************/
// 1362 void MT_SysZDiagsInitStats(void)
// 1363 {
// 1364   uint8 retValue;
// 1365 
// 1366   retValue = ZDiagsInitStats();
// 1367 
// 1368   /* Build and send back the response */
// 1369   MT_BuildAndSendZToolResponse(((uint8)MT_RPC_CMD_SRSP | (uint8)MT_RPC_SYS_SYS),
// 1370                                 MT_SYS_ZDIAGS_INIT_STATS, 1, &retValue);
// 1371 }
// 1372 
// 1373 /***************************************************************************************************
// 1374  * @fn      MT_SysZDiagsClearStats
// 1375  *
// 1376  * @brief   Clears the statistics table in RAM and NV if option flag set.
// 1377  *
// 1378  * @param   uint8 pBuf - pointer to the data
// 1379  *
// 1380  * @return  None
// 1381  ***************************************************************************************************/
// 1382 void MT_SysZDiagsClearStats(uint8 *pBuf)
// 1383 {
// 1384   uint8 cmdId;
// 1385   uint8 clearNV;
// 1386   uint32 sysClock;
// 1387   uint8 retBuf[4];
// 1388 
// 1389   /* parse header */
// 1390   cmdId = pBuf[MT_RPC_POS_CMD1];
// 1391   pBuf += MT_RPC_FRAME_HDR_SZ;
// 1392 
// 1393   clearNV = *pBuf;
// 1394 
// 1395   /* returns the system clock of the time when the statistics were cleared */
// 1396   sysClock = ZDiagsClearStats( clearNV );
// 1397 
// 1398   retBuf[0] = BREAK_UINT32( sysClock, 0);
// 1399   retBuf[1] = BREAK_UINT32( sysClock, 1);
// 1400   retBuf[2] = BREAK_UINT32( sysClock, 2);
// 1401   retBuf[3] = BREAK_UINT32( sysClock, 3);
// 1402 
// 1403   /* Build and send back the response */
// 1404   MT_BuildAndSendZToolResponse(((uint8)MT_RPC_CMD_SRSP | (uint8)MT_RPC_SYS_SYS),
// 1405                                cmdId, 4, retBuf);
// 1406 }
// 1407 
// 1408 /***************************************************************************************************
// 1409  * @fn      MT_SysZDiagsGetStatsAttr
// 1410  *
// 1411  * @brief   Reads specific system (attribute) ID statistics and/or metrics.
// 1412  *
// 1413  * @param   uint8 pBuf - pointer to the data
// 1414  *
// 1415  * @return  None
// 1416  ***************************************************************************************************/
// 1417 void MT_SysZDiagsGetStatsAttr(uint8 *pBuf)
// 1418 {
// 1419   uint8 cmdId;
// 1420   uint16 attributeId;
// 1421   uint32 attrValue;
// 1422   uint8 retBuf[4];
// 1423 
// 1424   /* parse header */
// 1425   cmdId = pBuf[MT_RPC_POS_CMD1];
// 1426   pBuf += MT_RPC_FRAME_HDR_SZ;
// 1427 
// 1428   /* Get the Attribute ID */
// 1429   attributeId = BUILD_UINT16(pBuf[0], pBuf[1]);
// 1430 
// 1431   attrValue = ZDiagsGetStatsAttr( attributeId );
// 1432 
// 1433   retBuf[0] = BREAK_UINT32( attrValue, 0);
// 1434   retBuf[1] = BREAK_UINT32( attrValue, 1);
// 1435   retBuf[2] = BREAK_UINT32( attrValue, 2);
// 1436   retBuf[3] = BREAK_UINT32( attrValue, 3);
// 1437 
// 1438   /* Build and send back the response */
// 1439   MT_BuildAndSendZToolResponse(((uint8)MT_RPC_CMD_SRSP | (uint8)MT_RPC_SYS_SYS),
// 1440                                cmdId, 4, retBuf);
// 1441 }
// 1442 
// 1443 /***************************************************************************************************
// 1444  * @fn      MT_SysZDiagsRestoreStatsFromNV
// 1445  *
// 1446  * @brief   Restores the statistics table from NV into the RAM table.
// 1447  *
// 1448  * @param   None
// 1449  *
// 1450  * @return  None
// 1451  ***************************************************************************************************/
// 1452 void MT_SysZDiagsRestoreStatsFromNV(void)
// 1453 {
// 1454   uint8 retValue;
// 1455 
// 1456   retValue = ZDiagsRestoreStatsFromNV();
// 1457 
// 1458   /* Build and send back the response */
// 1459   MT_BuildAndSendZToolResponse(((uint8)MT_RPC_CMD_SRSP | (uint8)MT_RPC_SYS_SYS),
// 1460                                 MT_SYS_ZDIAGS_RESTORE_STATS_NV, 1, &retValue);
// 1461 }
// 1462 
// 1463 /***************************************************************************************************
// 1464  * @fn      MT_SysZDiagsSaveStatsToNV
// 1465  *
// 1466  * @brief   Saves the statistics table from RAM to NV.
// 1467  *
// 1468  * @param   None
// 1469  *
// 1470  * @return  None
// 1471  ***************************************************************************************************/
// 1472 void MT_SysZDiagsSaveStatsToNV(void)
// 1473 {
// 1474   uint32 sysClock;
// 1475   uint8 retBuf[4];
// 1476 
// 1477   /* returns the system clock of the time when the statistics were saved to NV */
// 1478   sysClock = ZDiagsSaveStatsToNV();
// 1479 
// 1480   retBuf[0] = BREAK_UINT32( sysClock, 0);
// 1481   retBuf[1] = BREAK_UINT32( sysClock, 1);
// 1482   retBuf[2] = BREAK_UINT32( sysClock, 2);
// 1483   retBuf[3] = BREAK_UINT32( sysClock, 3);
// 1484 
// 1485   /* Build and send back the response */
// 1486   MT_BuildAndSendZToolResponse(((uint8)MT_RPC_CMD_SRSP | (uint8)MT_RPC_SYS_SYS),
// 1487                                MT_SYS_ZDIAGS_SAVE_STATS_TO_NV, 4, retBuf);
// 1488 }
// 1489 #endif /* FEATURE_SYSTEM_STATS */
// 1490 
// 1491 #endif /* MT_SYS_FUNC */
// 1492 
// 1493 /***************************************************************************************************
// 1494  * SUPPORT
// 1495  ***************************************************************************************************/
// 1496 
// 1497 /***************************************************************************************************
// 1498  * @fn      MT_SysResetInd()
// 1499  *
// 1500  * @brief   Sends a ZTOOL "reset response" message.
// 1501  *
// 1502  * @param   None
// 1503  *
// 1504  * @return  None
// 1505  *
// 1506  ***************************************************************************************************/

        RSEG BANKED_CODE:CODE:NOROOT(0)
// 1507 void MT_SysResetInd(void)
MT_SysResetInd:
          CFI Block cfiBlock20 Using cfiCommon0
          CFI Function MT_SysResetInd
        CODE
// 1508 {
        ; Saved register size: 0
        ; Auto size: 0
// 1509 #if 0   //chaokw
// 1510   uint8 retArray[6];
// 1511 
// 1512   retArray[0] = ResetReason();   /* Reason */
// 1513   osal_memcpy( &retArray[1], MTVersionString, 5 );   /* Revision info */
// 1514   /* Send out Reset Response message */
// 1515   MT_BuildAndSendZToolResponse(((uint8)MT_RPC_CMD_AREQ | (uint8)MT_RPC_SYS_SYS), MT_SYS_RESET_IND,
// 1516                                 sizeof(retArray), retArray);
// 1517 #endif
// 1518 }
        LJMP    ?BRET
          CFI EndBlock cfiBlock20
// 1519 
// 1520 /***************************************************************************************************
// 1521  * @fn      MT_SysOsalTimerExpired()
// 1522  *
// 1523  * @brief   Sends a SYS Osal Timer Expired
// 1524  *
// 1525  * @param   None
// 1526  *
// 1527  * @return  None
// 1528  *
// 1529  ***************************************************************************************************/

        RSEG BANKED_CODE:CODE:NOROOT(0)
// 1530 void MT_SysOsalTimerExpired(uint8 Id)
MT_SysOsalTimerExpired:
          CFI Block cfiBlock21 Using cfiCommon0
          CFI Function MT_SysOsalTimerExpired
        CODE
// 1531 {
        FUNCALL MT_SysOsalTimerExpired, MT_BuildAndSendZToolResponse
        LOCFRAME ISTACK, 0, STACK
        LOCFRAME PSTACK, 0, STACK
        LOCFRAME XSTACK, 10, STACK
        LOCFRAME IOVERLAY, 0, STATIC
        LOCFRAME DOVERLAY, 0, STATIC
        ARGFRAME ISTACK, 0, STACK
        ARGFRAME PSTACK, 0, STACK
        ARGFRAME XSTACK, 10, STACK
        ARGFRAME IOVERLAY, 0, STATIC
        ARGFRAME DOVERLAY, 0, STATIC
        MOV     A,#-0x9
        LCALL   ?BANKED_ENTER_XDATA
          CFI DPH0 load(1, XDATA, add(CFA_XSP16, literal(-1)))
          CFI DPL0 load(1, XDATA, add(CFA_XSP16, literal(-2)))
          CFI ?BRET_EXT load(1, XDATA, add(CFA_XSP16, literal(-3)))
          CFI ?RET_HIGH load(1, XDATA, add(CFA_XSP16, literal(-4)))
          CFI ?RET_LOW load(1, XDATA, add(CFA_XSP16, literal(-5)))
          CFI R7 load(1, XDATA, add(CFA_XSP16, literal(-6)))
          CFI V0 load(1, XDATA, add(CFA_XSP16, literal(-7)))
          CFI VB load(1, XDATA, add(CFA_XSP16, literal(-8)))
          CFI R6 load(1, XDATA, add(CFA_XSP16, literal(-9)))
          CFI CFA_SP SP+0
          CFI CFA_XSP16 add(XSP16, 9)
        ; Saved register size: 9
        ; Auto size: 1
        MOV     A,#-0x1
        LCALL   ?ALLOC_XSTACK8
          CFI CFA_XSP16 add(XSP16, 10)
        MOV     A,R1
        MOV     R6,A
// 1532   uint8 retValue;
// 1533   retValue = Id;
        MOV     A,R6
        PUSH    A
          CFI CFA_SP SP+-1
        MOV     DPL,?XSP + 0
        MOV     DPH,?XSP + 1
        POP     A
          CFI CFA_SP SP+0
        MOVX    @DPTR,A
// 1534   MT_BuildAndSendZToolResponse(((uint8)MT_RPC_CMD_AREQ | (uint8)MT_RPC_SYS_SYS), MT_SYS_OSAL_TIMER_EXPIRED, 1, &retValue);
        ; Setup parameters for call to function MT_BuildAndSendZToolResponse
        MOV     R4,?XSP + 0
        MOV     R5,?XSP + 1
        MOV     R3,#0x1
        MOV     R2,#-0x7f
        MOV     R1,#0x41
        LCALL   `??MT_BuildAndSendZToolResponse::?relay`; Banked call to: MT_BuildAndSendZToolResponse
// 1535 }
        MOV     A,#0x1
        LCALL   ?DEALLOC_XSTACK8
          CFI CFA_XSP16 add(XSP16, 9)
        MOV     R7,#0x1
        LJMP    ?BANKED_LEAVE_XDATA
          CFI EndBlock cfiBlock21
// 1536 
// 1537 #if defined ( MT_SYS_JAMMER_FEATURE )
// 1538 /***************************************************************************************************
// 1539  * @fn      MT_SysJammerParameters
// 1540  *
// 1541  * @brief   Set the Jammer detection parameters.
// 1542  *
// 1543  * @param   pBuf - MT message containing the parameters.
// 1544  *
// 1545  * @return  None
// 1546  ***************************************************************************************************/
// 1547 void MT_SysJammerParameters( uint8 *pBuf )
// 1548 {
// 1549   uint8 status = SUCCESS;
// 1550   
// 1551   // Adjust for the data
// 1552   pBuf += MT_RPC_FRAME_HDR_SZ;
// 1553   
// 1554   // Number of continuous events needed to detect Jam
// 1555   jammerContinuousEvents = BUILD_UINT16( pBuf[0], pBuf[1] );
// 1556   jammerDetections = jammerContinuousEvents;
// 1557   pBuf += 2;
// 1558   
// 1559   // Noise Level need to be a Jam
// 1560   jammerHighNoiseLevel = *pBuf++;
// 1561   
// 1562   // The time between each noise level reading
// 1563   jammerDetectPeriodTime = BUILD_UINT32( pBuf[0], pBuf[1], pBuf[2], pBuf[3] );
// 1564   
// 1565   // Update the timer
// 1566   osal_start_reload_timer( jammerTaskID, JAMMER_CHECK_EVT, jammerDetectPeriodTime );
// 1567   
// 1568   /* Build and send back the response that includes the actual dBm TxPower that can be set. */
// 1569   MT_BuildAndSendZToolResponse(((uint8)MT_RPC_CMD_SRSP | (uint8)MT_RPC_SYS_SYS),
// 1570                                        MT_SYS_JAMMER_PARAMETERS, 1, &status );
// 1571 }
// 1572 
// 1573 /***************************************************************************************************
// 1574  * @fn      MT_SysJammerInd()
// 1575  *
// 1576  * @brief   Sends a jammer indication message.
// 1577  *
// 1578  * @param   jammerInd - TRUE if jammer detected, FALSE if changed to undetected
// 1579  *
// 1580  * @return  None
// 1581  *
// 1582  ***************************************************************************************************/
// 1583 void MT_SysJammerInd( uint8 jammerInd )
// 1584 {
// 1585   /* Send out Reset Response message */
// 1586   MT_BuildAndSendZToolResponse(((uint8)MT_RPC_CMD_AREQ | (uint8)MT_RPC_SYS_SYS), MT_SYS_JAMMER_IND,
// 1587                                 1, &jammerInd );
// 1588 }
// 1589 
// 1590 /***************************************************************************************************
// 1591  * @fn      jammerInit()
// 1592  *
// 1593  * @brief   Jammer Detection task initialization function
// 1594  *
// 1595  * @param   taskId - task ID 
// 1596  *
// 1597  * @return  None
// 1598  *
// 1599  ***************************************************************************************************/
// 1600 void jammerInit( uint8 taskId )
// 1601 {
// 1602   jammerTaskID = taskId; 
// 1603   
// 1604   // Start the jammer check timer
// 1605   osal_start_reload_timer( taskId, JAMMER_CHECK_EVT, jammerDetectPeriodTime );
// 1606 }
// 1607 
// 1608 /***************************************************************************************************
// 1609  * @fn      jammerEventLoop()
// 1610  *
// 1611  * @brief   Jammer Detection task event processing function
// 1612  *
// 1613  * @param   taskId - task ID 
// 1614  * @param   events - task events 
// 1615  *
// 1616  * @return  remaining events
// 1617  *
// 1618  ***************************************************************************************************/
// 1619 uint16 jammerEventLoop( uint8 taskId, uint16 events )
// 1620 {
// 1621   osal_event_hdr_t  *pMsg;
// 1622 
// 1623   if (events & SYS_EVENT_MSG)
// 1624   {
// 1625     if ( (pMsg = (osal_event_hdr_t *) osal_msg_receive( taskId )) != NULL )
// 1626     {
// 1627       switch ( pMsg->event )
// 1628       {
// 1629         default:
// 1630           break;
// 1631       }
// 1632 
// 1633       osal_msg_deallocate( (byte *)pMsg );
// 1634     }
// 1635 
// 1636     events ^= SYS_EVENT_MSG;
// 1637   }
// 1638   else if ( events & JAMMER_CHECK_EVT )
// 1639   {
// 1640     // Make sure we aren't currently receiving a message
// 1641     // and the radio is active.
// 1642     if ( MAC_RX_IS_PHYSICALLY_ACTIVE() == MAC_RX_ACTIVE_NO_ACTIVITY )
// 1643     {
// 1644       int8 rssiDbm = -128;
// 1645       
// 1646       // Read the noise level
// 1647       if ( RSSISTAT & 0x01 )
// 1648       {
// 1649         /* Add the RSSI offset */  
// 1650         rssiDbm = RSSI + MAC_RADIO_RSSI_OFFSET;
// 1651 
// 1652         /* Adjust for external PA/LNA, if any */
// 1653         MAC_RADIO_RSSI_LNA_OFFSET( rssiDbm );
// 1654       
// 1655         // Check for a noise level that's high
// 1656         if ( jammerDetections && (rssiDbm  > jammerHighNoiseLevel) )
// 1657         {
// 1658           jammerDetections--;
// 1659           if ( jammerDetections == 0 )
// 1660           {
// 1661             // Jam detected
// 1662             MT_SysJammerInd( TRUE );
// 1663           }
// 1664         }
// 1665         else if ( rssiDbm <= jammerHighNoiseLevel )
// 1666         {
// 1667           if ( jammerDetections == 0 )
// 1668           {
// 1669             // Jam cleared
// 1670             MT_SysJammerInd( FALSE );
// 1671           }
// 1672           jammerDetections = jammerContinuousEvents;
// 1673         }
// 1674       }
// 1675     }
// 1676     events ^= JAMMER_CHECK_EVT;
// 1677   }
// 1678   else
// 1679   {
// 1680     events = 0;  /* Discard unknown events. */
// 1681   }
// 1682 
// 1683   return ( events );
// 1684 }
// 1685 #endif // MT_SYS_JAMMER_FEATURE
// 1686 
// 1687 #if defined ( MT_SYS_SNIFFER_FEATURE )
// 1688 /***************************************************************************************************
// 1689  * @fn      MT_SysSnifferParameters
// 1690  *
// 1691  * @brief   Set the sniffer parameters.
// 1692  *
// 1693  * @param   pBuf - MT message containing the parameters.
// 1694  *
// 1695  * @return  None
// 1696  ***************************************************************************************************/
// 1697 void MT_SysSnifferParameters( uint8 *pBuf )
// 1698 {
// 1699   uint8 status = SUCCESS;
// 1700   uint8 param;
// 1701   
// 1702   // Adjust for the data
// 1703   pBuf += MT_RPC_FRAME_HDR_SZ;
// 1704   
// 1705   // Noise Level need to be a Jam
// 1706   param = *pBuf++;
// 1707   
// 1708   if ( param == MT_SYS_SNIFFER_DISABLE )
// 1709   {
// 1710     // Disable Sniffer
// 1711     HAL_BOARD_DISABLE_INTEGRATED_SNIFFER();
// 1712     sniffer = FALSE;
// 1713   }
// 1714   else if ( param == MT_SYS_SNIFFER_ENABLE )
// 1715   {
// 1716     // Enable the Sniffer
// 1717     HAL_BOARD_ENABLE_INTEGRATED_SNIFFER();
// 1718     sniffer = TRUE;
// 1719   }
// 1720   else if ( param == MT_SYS_SNIFFER_GET_SETTING )
// 1721   {
// 1722     status = sniffer; // sniffer setting
// 1723   }
// 1724   else 
// 1725   {
// 1726     status = INVALIDPARAMETER;
// 1727   }
// 1728   
