###############################################################################
#
# IAR C/C++ Compiler V9.30.1.3056 for 8051                21/Apr/2017  17:48:47
# Copyright 2004-2015 IAR Systems AB.
#
#    Core               =  plain
#    Code model         =  banked
#    Data model         =  large
#    Calling convention =  xdata reentrant
#    Constant location  =  data_rom
#    Dptr setup         =  1,16
#                          
#    Source file        =  
#        C:\Texas Instruments\Z-Stack Mesh 1.0.0_chaokw_20160317\Z-Stack Mesh
#        1.0.0_chaokw_20160316\Z-Stack Mesh 1.0.0_LCDOK\Z-Stack Mesh
#        1.0.0\Projects\zstack\Application\NodeAuth.c
#    Command line       =  
#        -f "C:\Texas Instruments\Z-Stack Mesh 1.0.0_chaokw_20160317\Z-Stack
#        Mesh 1.0.0_chaokw_20160316\Z-Stack Mesh 1.0.0_LCDOK\Z-Stack Mesh
#        1.0.0\Projects\zstack\Samples\GenericApp\CC2530DB\..\..\..\Tools\CC2530DB\f8wRouter.cfg"
#        (-DCPU32MHZ -DROOT=__near_func -DMAC_CFG_APP_PENDING_QUEUE=TRUE
#        -DMAC_CFG_TX_DATA_MAX=5 -DMAC_CFG_TX_MAX=8 -DMAC_CFG_RX_MAX=5
#        -DRTR_NWK) -f "C:\Texas Instruments\Z-Stack Mesh
#        1.0.0_chaokw_20160317\Z-Stack Mesh 1.0.0_chaokw_20160316\Z-Stack Mesh
#        1.0.0_LCDOK\Z-Stack Mesh
#        1.0.0\Projects\zstack\Samples\GenericApp\CC2530DB\..\..\..\Tools\CC2530DB\f8wConfig.cfg"
#        (-DZIGBEEPRO -DSECURE=1 -DZG_SECURE_DYNAMIC=0 -DREFLECTOR
#        -DDEFAULT_CHANLIST=0x04000000 -DZDAPP_CONFIG_PAN_ID=0x0085
#        -DNWK_START_DELAY=100 -DEXTENDED_JOINING_RANDOM_MASK=0x007F
#        -DBEACON_REQUEST_DELAY=100 -DBEACON_REQ_DELAY_MASK=0x00FF
#        -DLINK_STATUS_JITTER_MASK=0x007F -DROUTE_EXPIRY_TIME=30
#        -DAPSC_ACK_WAIT_DURATION_POLLED=3000 -DNWK_INDIRECT_MSG_TIMEOUT=7
#        -DMAX_RREQ_ENTRIES=8 -DAPSC_MAX_FRAME_RETRIES=5
#        -DNWK_MAX_DATA_RETRIES=2 -DMAX_POLL_FAILURE_RETRIES=2 -DMAX_BCAST=9
#        -DAPS_MAX_GROUPS=16 -DMAX_RTG_ENTRIES=40 -DNWK_MAX_BINDING_ENTRIES=4
#        -DMAX_BINDING_CLUSTER_IDS=4 "-DDEFAULT_KEY={0x01, 0x03, 0x05, 0x07,
#        0x09, 0x0B, 0x0D, 0x0F, 0x00, 0x02, 0x04, 0x06, 0x08, 0x0A, 0x0C,
#        0x0D}" -DMAC_MAX_FRAME_SIZE=116 -DZDNWKMGR_MIN_TRANSMISSIONS=20
#        "-DCONST=const __code" -DGENERIC=__generic -DRFD_RCVC_ALWAYS_ON=FALSE
#        -DPOLL_RATE=1000 -DQUEUED_POLL_RATE=100 -DRESPONSE_POLL_RATE=100
#        -DREJOIN_POLL_RATE=440) -DCHANNEL_CNT=0x01 "C:\Texas
#        Instruments\Z-Stack Mesh 1.0.0_chaokw_20160317\Z-Stack Mesh
#        1.0.0_chaokw_20160316\Z-Stack Mesh 1.0.0_LCDOK\Z-Stack Mesh
#        1.0.0\Projects\zstack\Application\NodeAuth.c" -D ZTOOL_P1 -D MT_TASK
#        -D MT_SYS_FUNC -D MT_ZDO_FUNC -D LCD_SUPPORTED=DEBUG -D xNV_RESTORE -D
#        NV_INIT -D OPEN_FCS -D PANID_INCREASE -lC "C:\Texas
#        Instruments\Z-Stack Mesh 1.0.0_chaokw_20160317\Z-Stack Mesh
#        1.0.0_chaokw_20160316\Z-Stack Mesh 1.0.0_LCDOK\Z-Stack Mesh
#        1.0.0\Projects\zstack\Samples\GenericApp\CC2530DB\RouterEB\List" -lA
#        "C:\Texas Instruments\Z-Stack Mesh 1.0.0_chaokw_20160317\Z-Stack Mesh
#        1.0.0_chaokw_20160316\Z-Stack Mesh 1.0.0_LCDOK\Z-Stack Mesh
#        1.0.0\Projects\zstack\Samples\GenericApp\CC2530DB\RouterEB\List"
#        --diag_suppress Pe001,Pa010 -o "C:\Texas Instruments\Z-Stack Mesh
#        1.0.0_chaokw_20160317\Z-Stack Mesh 1.0.0_chaokw_20160316\Z-Stack Mesh
#        1.0.0_LCDOK\Z-Stack Mesh
#        1.0.0\Projects\zstack\Samples\GenericApp\CC2530DB\RouterEB\Obj" -e
#        --no_cse --no_unroll --no_inline --no_code_motion --no_tbaa --debug
#        --core=plain --dptr=16,1 --data_model=large --code_model=banked
#        --calling_convention=xdata_reentrant --place_constants=data_rom
#        --nr_virtual_regs 16 -I "C:\Texas Instruments\Z-Stack Mesh
#        1.0.0_chaokw_20160317\Z-Stack Mesh 1.0.0_chaokw_20160316\Z-Stack Mesh
#        1.0.0_LCDOK\Z-Stack Mesh
#        1.0.0\Projects\zstack\Samples\GenericApp\CC2530DB\" -I "C:\Texas
#        Instruments\Z-Stack Mesh 1.0.0_chaokw_20160317\Z-Stack Mesh
#        1.0.0_chaokw_20160316\Z-Stack Mesh 1.0.0_LCDOK\Z-Stack Mesh
#        1.0.0\Projects\zstack\Samples\GenericApp\CC2530DB\..\Source\" -I
#        "C:\Texas Instruments\Z-Stack Mesh 1.0.0_chaokw_20160317\Z-Stack Mesh
#        1.0.0_chaokw_20160316\Z-Stack Mesh 1.0.0_LCDOK\Z-Stack Mesh
#        1.0.0\Projects\zstack\Samples\GenericApp\CC2530DB\..\..\..\Application\"
#        -I "C:\Texas Instruments\Z-Stack Mesh 1.0.0_chaokw_20160317\Z-Stack
#        Mesh 1.0.0_chaokw_20160316\Z-Stack Mesh 1.0.0_LCDOK\Z-Stack Mesh
#        1.0.0\Projects\zstack\Samples\GenericApp\CC2530DB\..\..\..\ZMain\TI2530DB\"
#        -I "C:\Texas Instruments\Z-Stack Mesh 1.0.0_chaokw_20160317\Z-Stack
#        Mesh 1.0.0_chaokw_20160316\Z-Stack Mesh 1.0.0_LCDOK\Z-Stack Mesh
#        1.0.0\Projects\zstack\Samples\GenericApp\CC2530DB\..\..\..\..\..\Components\hal\include\"
#        -I "C:\Texas Instruments\Z-Stack Mesh 1.0.0_chaokw_20160317\Z-Stack
#        Mesh 1.0.0_chaokw_20160316\Z-Stack Mesh 1.0.0_LCDOK\Z-Stack Mesh
#        1.0.0\Projects\zstack\Samples\GenericApp\CC2530DB\..\..\..\..\..\Components\hal\target\CC2530EB\"
#        -I "C:\Texas Instruments\Z-Stack Mesh 1.0.0_chaokw_20160317\Z-Stack
#        Mesh 1.0.0_chaokw_20160316\Z-Stack Mesh 1.0.0_LCDOK\Z-Stack Mesh
#        1.0.0\Projects\zstack\Samples\GenericApp\CC2530DB\..\..\..\..\..\Components\mac\include\"
#        -I "C:\Texas Instruments\Z-Stack Mesh 1.0.0_chaokw_20160317\Z-Stack
#        Mesh 1.0.0_chaokw_20160316\Z-Stack Mesh 1.0.0_LCDOK\Z-Stack Mesh
#        1.0.0\Projects\zstack\Samples\GenericApp\CC2530DB\..\..\..\..\..\Components\mac\high_level\"
#        -I "C:\Texas Instruments\Z-Stack Mesh 1.0.0_chaokw_20160317\Z-Stack
#        Mesh 1.0.0_chaokw_20160316\Z-Stack Mesh 1.0.0_LCDOK\Z-Stack Mesh
#        1.0.0\Projects\zstack\Samples\GenericApp\CC2530DB\..\..\..\..\..\Components\mac\low_level\srf04\"
#        -I "C:\Texas Instruments\Z-Stack Mesh 1.0.0_chaokw_20160317\Z-Stack
#        Mesh 1.0.0_chaokw_20160316\Z-Stack Mesh 1.0.0_LCDOK\Z-Stack Mesh
#        1.0.0\Projects\zstack\Samples\GenericApp\CC2530DB\..\..\..\..\..\Components\mac\low_level\srf04\single_chip\"
#        -I "C:\Texas Instruments\Z-Stack Mesh 1.0.0_chaokw_20160317\Z-Stack
#        Mesh 1.0.0_chaokw_20160316\Z-Stack Mesh 1.0.0_LCDOK\Z-Stack Mesh
#        1.0.0\Projects\zstack\Samples\GenericApp\CC2530DB\..\..\..\..\..\Components\mt\"
#        -I "C:\Texas Instruments\Z-Stack Mesh 1.0.0_chaokw_20160317\Z-Stack
#        Mesh 1.0.0_chaokw_20160316\Z-Stack Mesh 1.0.0_LCDOK\Z-Stack Mesh
#        1.0.0\Projects\zstack\Samples\GenericApp\CC2530DB\..\..\..\..\..\Components\osal\include\"
#        -I "C:\Texas Instruments\Z-Stack Mesh 1.0.0_chaokw_20160317\Z-Stack
#        Mesh 1.0.0_chaokw_20160316\Z-Stack Mesh 1.0.0_LCDOK\Z-Stack Mesh
#        1.0.0\Projects\zstack\Samples\GenericApp\CC2530DB\..\..\..\..\..\Components\services\saddr\"
#        -I "C:\Texas Instruments\Z-Stack Mesh 1.0.0_chaokw_20160317\Z-Stack
#        Mesh 1.0.0_chaokw_20160316\Z-Stack Mesh 1.0.0_LCDOK\Z-Stack Mesh
#        1.0.0\Projects\zstack\Samples\GenericApp\CC2530DB\..\..\..\..\..\Components\services\sdata\"
#        -I "C:\Texas Instruments\Z-Stack Mesh 1.0.0_chaokw_20160317\Z-Stack
#        Mesh 1.0.0_chaokw_20160316\Z-Stack Mesh 1.0.0_LCDOK\Z-Stack Mesh
#        1.0.0\Projects\zstack\Samples\GenericApp\CC2530DB\..\..\..\..\..\Components\stack\af\"
#        -I "C:\Texas Instruments\Z-Stack Mesh 1.0.0_chaokw_20160317\Z-Stack
#        Mesh 1.0.0_chaokw_20160316\Z-Stack Mesh 1.0.0_LCDOK\Z-Stack Mesh
#        1.0.0\Projects\zstack\Samples\GenericApp\CC2530DB\..\..\..\..\..\Components\stack\nwk\"
#        -I "C:\Texas Instruments\Z-Stack Mesh 1.0.0_chaokw_20160317\Z-Stack
#        Mesh 1.0.0_chaokw_20160316\Z-Stack Mesh 1.0.0_LCDOK\Z-Stack Mesh
#        1.0.0\Projects\zstack\Samples\GenericApp\CC2530DB\..\..\..\..\..\Components\stack\sapi\"
#        -I "C:\Texas Instruments\Z-Stack Mesh 1.0.0_chaokw_20160317\Z-Stack
#        Mesh 1.0.0_chaokw_20160316\Z-Stack Mesh 1.0.0_LCDOK\Z-Stack Mesh
#        1.0.0\Projects\zstack\Samples\GenericApp\CC2530DB\..\..\..\..\..\Components\stack\sec\"
#        -I "C:\Texas Instruments\Z-Stack Mesh 1.0.0_chaokw_20160317\Z-Stack
#        Mesh 1.0.0_chaokw_20160316\Z-Stack Mesh 1.0.0_LCDOK\Z-Stack Mesh
#        1.0.0\Projects\zstack\Samples\GenericApp\CC2530DB\..\..\..\..\..\Components\stack\sys\"
#        -I "C:\Texas Instruments\Z-Stack Mesh 1.0.0_chaokw_20160317\Z-Stack
#        Mesh 1.0.0_chaokw_20160316\Z-Stack Mesh 1.0.0_LCDOK\Z-Stack Mesh
#        1.0.0\Projects\zstack\Samples\GenericApp\CC2530DB\..\..\..\..\..\Components\stack\zdo\"
#        -I "C:\Texas Instruments\Z-Stack Mesh 1.0.0_chaokw_20160317\Z-Stack
#        Mesh 1.0.0_chaokw_20160316\Z-Stack Mesh 1.0.0_LCDOK\Z-Stack Mesh
#        1.0.0\Projects\zstack\Samples\GenericApp\CC2530DB\..\..\..\..\..\Components\zmac\"
#        -I "C:\Texas Instruments\Z-Stack Mesh 1.0.0_chaokw_20160317\Z-Stack
#        Mesh 1.0.0_chaokw_20160316\Z-Stack Mesh 1.0.0_LCDOK\Z-Stack Mesh
#        1.0.0\Projects\zstack\Samples\GenericApp\CC2530DB\..\..\..\..\..\Components\zmac\f8w\"
#        -On --require_prototypes
#    List file          =  
#        C:\Texas Instruments\Z-Stack Mesh 1.0.0_chaokw_20160317\Z-Stack Mesh
#        1.0.0_chaokw_20160316\Z-Stack Mesh 1.0.0_LCDOK\Z-Stack Mesh
#        1.0.0\Projects\zstack\Samples\GenericApp\CC2530DB\RouterEB\List\NodeAuth.lst
#    Object file        =  
#        C:\Texas Instruments\Z-Stack Mesh 1.0.0_chaokw_20160317\Z-Stack Mesh
#        1.0.0_chaokw_20160316\Z-Stack Mesh 1.0.0_LCDOK\Z-Stack Mesh
#        1.0.0\Projects\zstack\Samples\GenericApp\CC2530DB\RouterEB\Obj\NodeAuth.r51
#
###############################################################################

C:\Texas Instruments\Z-Stack Mesh 1.0.0_chaokw_20160317\Z-Stack Mesh 1.0.0_chaokw_20160316\Z-Stack Mesh 1.0.0_LCDOK\Z-Stack Mesh 1.0.0\Projects\zstack\Application\NodeAuth.c
      1          /**************************************************************************************************
      2            Filename:       NodeAuth.c
      3            Revised:        2017-03-19
      4          
      5            Description -   Serial Transfer Application node authentication related func.
      6          
      7          **************************************************************************************************/
      8          
      9          
     10          /*********************************************************************
     11           * INCLUDES
     12           */
     13          #include "NodeAuth.h"

   \                                 In  segment SFR_AN, at 0xa8
   \   union <unnamed> volatile __sfr _A_IEN0
   \                     _A_IEN0:
   \   000000                DS 1

   \                                 In  segment SFR_AN, at 0xc9
   \   unsigned char volatile __sfr WDCTL
   \                     WDCTL:
   \   000000                DS 1
     14          #include "OSAL_Nv.h"
     15          #include "hal_aes.h"
     16          #include "hal_dma.h"
     17          
     18          #include "GenericApp.h"
     19          #include <string.h>  
     20          
     21          /*********************************************************************
     22           * MACROS
     23           */
     24          #define AUTH_LIST_CACHE_SIZE           (1<<4)
     25          #define AUTH_LIST_CACHE_ALIGN(_offset) (_offset & ~(AUTH_LIST_CACHE_SIZE -1))
     26          
     27          /*********************************************************************
     28           * CONSTANTS
     29           */
     30          
     31          /*********************************************************************
     32           * TYPEDEFS
     33           */
     34          
     35          /*********************************************************************
     36           * GLOBAL VARIABLES
     37           */
     38          
     39          struct
     40          {
     41              uint32 version;
     42              uint32 auth_registered_num;

   \                                 In  segment XDATA_I, align 1, keep-with-next
     43          } gAuthConfig = {
   \                     gAuthConfig:
   \   000000                DS 8
   \   000008                REQUIRE `?<Initializer for gAuthConfig>`
   \   000008                REQUIRE __INIT_XDATA_I
     44              .version = 1, // increase this and handle database upgrade if new items added!
     45              .auth_registered_num = 0
     46          };
     47          

   \                                 In  segment XDATA_Z, align 1, keep-with-next
     48          static NodeRegisterEntry gListCache[AUTH_LIST_CACHE_SIZE];
   \                     gListCache:
   \   000000                DS 160
   \   0000A0                REQUIRE __INIT_XDATA_Z

   \                                 In  segment XDATA_Z, align 1, keep-with-next
     49          static uint32 gListOffset = 0;
   \                     gListOffset:
   \   000000                DS 4
   \   000004                REQUIRE __INIT_XDATA_Z

   \                                 In  segment XDATA_Z, align 1, keep-with-next
     50          static uint32 gListNum = 0;
   \                     gListNum:
   \   000000                DS 4
   \   000004                REQUIRE __INIT_XDATA_Z
     51          
     52          //static const uint8 DEFAULT_AES_NONCE[13] = NODE_AUTH_DEFAULT_NONCE;
     53          //static const char  DEFAULT_AES_KEY[STATE_BLENGTH] = NODE_AUTH_DEFAULT_KEY;
     54          
     55          
     56          /*********************************************************************
     57           * EXTERNAL VARIABLES
     58           */
     59           extern nodeList_t *nodeList;  
     60          
     61          /*********************************************************************
     62           * LOCAL FUNCTION PROTOTYPE
     63           */
     64          #define List_cache_get(_o) (List_cache_load_on_need(_o), &gListCache[(_o)-gListOffset])
     65          #define Is_entry_deleted(_e) (0 != ((_e)->flag & NODE_REG_ENTRY_DELETED))
     66          #define Increase_registered_num() do { Set_registered_num(gAuthConfig.auth_registered_num + 1); } while(0)
     67          #define Decrease_registered_num() do { Set_registered_num(gAuthConfig.auth_registered_num - 1); } while(0)
     68          
     69          static uint8 Authlist_init( uint8 load );
     70          static void Authlist_delete_entry(uint32 index);
     71          static bool Authlist_should_insert(uint8 const* key, uint8 len, uint32 *index);
     72          
     73          static inline void List_cache_recreate( void );
     74          static void List_cache_force_load(uint32 offset);
     75          static bool List_cache_load_next( void );
     76          static uint32 List_cache_find_by_key(uint8 const* key, uint8 len);
     77          static uint32 List_cache_write_back( void );
     78          static inline bool List_cache_contain(uint32 offset);
     79          static inline void List_cache_load_on_need(uint32 offset);
     80          
     81          static void Set_registered_num(uint32 num);
     82          
     83          static uint16 Mail_uplink(uint8 port, uint8 cmd, uint8 len, void* buf);
     84          static inline uint16 Mail_uplink_registered_cnt(uint8 port);
     85          static inline uint16 Mail_uplink_key(uint8 port, uint32 index, uint8 const* key);
     86          static inline uint16 Mail_uplink_notify(uint8 port, uint8 const* extended_addr);
     87          
     88          /*********************************************************************
     89           * EXTERNAL FUNCTIONS
     90           */
     91           

   \                                 In  segment BANKED_CODE, align 1, keep-with-next
     92          uint8 Node_auth_init( void )
   \                     Node_auth_init:
     93          {
   \   000000                REQUIRE ?V0
   \   000000                REQUIRE ?V1
   \   000000   74F6         MOV     A,#-0xa
   \   000002   12....       LCALL   ?BANKED_ENTER_XDATA
   \   000005                ; Saved register size: 10
   \   000005                ; Auto size: 0
     94              uint8 rc;
     95              if ( SUCCESS == (rc = osal_nv_item_init(APP_NV_AUTH_GLOBAL_CONFIG, sizeof(gAuthConfig), &gAuthConfig)) ) 
   \   000005                ; Setup parameters for call to function osal_nv_item_init
   \   000005   75....       MOV     ?V0,#gAuthConfig & 0xff
   \   000008   75....       MOV     ?V1,#(gAuthConfig >> 8) & 0xff
   \   00000B   78..         MOV     R0,#?V0
   \   00000D   12....       LCALL   ?PUSH_XSTACK_I_TWO
   \   000010   7C08         MOV     R4,#0x8
   \   000012   7D00         MOV     R5,#0x0
   \   000014   7A01         MOV     R2,#0x1
   \   000016   7B04         MOV     R3,#0x4
   \   000018   12....       LCALL   `??osal_nv_item_init::?relay`; Banked call to: osal_nv_item_init
   \   00001B   7402         MOV     A,#0x2
   \   00001D   12....       LCALL   ?DEALLOC_XSTACK8
   \   000020   E9           MOV     A,R1
   \   000021   F8           MOV     R0,A
   \   000022   E8           MOV     A,R0
   \   000023   FE           MOV     R6,A
   \   000024   E8           MOV     A,R0
   \   000025   7029         JNZ     ??Node_auth_init_0
     96              {
     97                  osal_nv_read(APP_NV_AUTH_GLOBAL_CONFIG, 0, sizeof(gAuthConfig), &gAuthConfig);
   \   000027                ; Setup parameters for call to function osal_nv_read
   \   000027   75....       MOV     ?V0,#gAuthConfig & 0xff
   \   00002A   75....       MOV     ?V1,#(gAuthConfig >> 8) & 0xff
   \   00002D   78..         MOV     R0,#?V0
   \   00002F   12....       LCALL   ?PUSH_XSTACK_I_TWO
   \   000032   75..08       MOV     ?V0,#0x8
   \   000035   75..00       MOV     ?V1,#0x0
   \   000038   78..         MOV     R0,#?V0
   \   00003A   12....       LCALL   ?PUSH_XSTACK_I_TWO
   \   00003D   7C00         MOV     R4,#0x0
   \   00003F   7D00         MOV     R5,#0x0
   \   000041   7A01         MOV     R2,#0x1
   \   000043   7B04         MOV     R3,#0x4
   \   000045   12....       LCALL   `??osal_nv_read::?relay`; Banked call to: osal_nv_read
   \   000048   7404         MOV     A,#0x4
   \   00004A   12....       LCALL   ?DEALLOC_XSTACK8
   \   00004D   E9           MOV     A,R1
   \   00004E   8011         SJMP    ??Node_auth_init_1
     98              }
     99              else if ( NV_ITEM_UNINIT == rc )
   \                     ??Node_auth_init_0:
   \   000050   7409         MOV     A,#0x9
   \   000052   6E           XRL     A,R6
   \   000053   600C         JZ      ??Node_auth_init_1
    100              {
    101              }
    102              else
    103              {
    104                  SystemReset();
   \   000055   C2AF         CLR     0xa8.7
   \   000057   C2AF         CLR     0xa8.7
   \   000059   75C9AB       MOV     0xc9,#-0x55
   \   00005C   75C95B       MOV     0xc9,#0x5b
   \                     ??Node_auth_init_2:
   \   00005F   80FE         SJMP    ??Node_auth_init_2
    105              }
    106              if ( SUCCESS == (rc = osal_nv_item_init(
    107                      APP_NV_AUTH_KEY_LIST, 
    108                      sizeof(NodeRegisterEntry) * AUTH_LIST_MAX_LEN, 
    109                      NULL))) 
   \                     ??Node_auth_init_1:
   \   000061                ; Setup parameters for call to function osal_nv_item_init
   \   000061   E4           CLR     A
   \   000062   F5..         MOV     ?V0,A
   \   000064   F5..         MOV     ?V1,A
   \   000066   78..         MOV     R0,#?V0
   \   000068   12....       LCALL   ?PUSH_XSTACK_I_TWO
   \   00006B   7CFC         MOV     R4,#-0x4
   \   00006D   7D03         MOV     R5,#0x3
   \   00006F   7A02         MOV     R2,#0x2
   \   000071   7B04         MOV     R3,#0x4
   \   000073   12....       LCALL   `??osal_nv_item_init::?relay`; Banked call to: osal_nv_item_init
   \   000076   7402         MOV     A,#0x2
   \   000078   12....       LCALL   ?DEALLOC_XSTACK8
   \   00007B   E9           MOV     A,R1
   \   00007C   F8           MOV     R0,A
   \   00007D   E8           MOV     A,R0
   \   00007E   FE           MOV     R6,A
   \   00007F   E8           MOV     A,R0
   \   000080   7008         JNZ     ??Node_auth_init_3
    110              {
    111                  Authlist_init(TRUE);
   \   000082                ; Setup parameters for call to function Authlist_init
   \   000082   7901         MOV     R1,#0x1
   \   000084   12....       LCALL   `??Authlist_init::?relay`; Banked call to: Authlist_init
   \   000087   E9           MOV     A,R1
   \   000088   8019         SJMP    ??Node_auth_init_4
    112              }
    113              else if ( NV_ITEM_UNINIT == rc )
   \                     ??Node_auth_init_3:
   \   00008A   7409         MOV     A,#0x9
   \   00008C   6E           XRL     A,R6
   \   00008D   7008         JNZ     ??Node_auth_init_5
    114              {
    115                  Authlist_init(FALSE);
   \   00008F                ; Setup parameters for call to function Authlist_init
   \   00008F   7900         MOV     R1,#0x0
   \   000091   12....       LCALL   `??Authlist_init::?relay`; Banked call to: Authlist_init
   \   000094   E9           MOV     A,R1
   \   000095   800C         SJMP    ??Node_auth_init_4
    116              }
    117              else
    118              {
    119                  SystemReset();
   \                     ??Node_auth_init_5:
   \   000097   C2AF         CLR     0xa8.7
   \   000099   C2AF         CLR     0xa8.7
   \   00009B   75C9AB       MOV     0xc9,#-0x55
   \   00009E   75C95B       MOV     0xc9,#0x5b
   \                     ??Node_auth_init_6:
   \   0000A1   80FE         SJMP    ??Node_auth_init_6
    120              }
    121              return SUCCESS;
   \                     ??Node_auth_init_4:
   \   0000A3   7900         MOV     R1,#0x0
   \   0000A5   7F02         MOV     R7,#0x2
   \   0000A7   02....       LJMP    ?BANKED_LEAVE_XDATA
   \   0000AA                REQUIRE _A_IEN0
   \   0000AA                REQUIRE WDCTL
    122          }
    123          
    124          
    125          

   \                                 In  segment BANKED_CODE, align 1, keep-with-next
    126          void Node_auth_wipe( void )
   \                     Node_auth_wipe:
    127          {
   \   000000   C082         PUSH    DPL
   \   000002   C083         PUSH    DPH
   \   000004                ; Saved register size: 2
   \   000004                ; Auto size: 0
    128              osal_nv_delete(APP_NV_AUTH_GLOBAL_CONFIG, sizeof(gAuthConfig));
   \   000004                ; Setup parameters for call to function osal_nv_delete
   \   000004   7C08         MOV     R4,#0x8
   \   000006   7D00         MOV     R5,#0x0
   \   000008   7A01         MOV     R2,#0x1
   \   00000A   7B04         MOV     R3,#0x4
   \   00000C   12....       LCALL   `??osal_nv_delete::?relay`; Banked call to: osal_nv_delete
   \   00000F   E9           MOV     A,R1
    129              osal_nv_delete(APP_NV_AUTH_KEY_LIST, sizeof(NodeRegisterEntry) * AUTH_LIST_MAX_LEN);
   \   000010                ; Setup parameters for call to function osal_nv_delete
   \   000010   7CFC         MOV     R4,#-0x4
   \   000012   7D03         MOV     R5,#0x3
   \   000014   7A02         MOV     R2,#0x2
   \   000016   7B04         MOV     R3,#0x4
   \   000018   12....       LCALL   `??osal_nv_delete::?relay`; Banked call to: osal_nv_delete
   \   00001B   E9           MOV     A,R1
    130              Node_auth_init();
   \   00001C                ; Setup parameters for call to function Node_auth_init
   \   00001C   12....       LCALL   `??Node_auth_init::?relay`; Banked call to: Node_auth_init
   \   00001F   E9           MOV     A,R1
    131          }
   \   000020   D083         POP     DPH
   \   000022   D082         POP     DPL
   \   000024   02....       LJMP    ?BRET
    132          
    133          
    134          

   \                                 In  segment BANKED_CODE, align 1, keep-with-next
    135          static bool Authlist_should_insert(uint8 const* key, uint8 keylen, uint32 *index)
   \                     Authlist_should_insert:
    136          {
   \   000000                REQUIRE ?V0
   \   000000                REQUIRE ?V1
   \   000000                REQUIRE ?V2
   \   000000                REQUIRE ?V3
   \   000000                REQUIRE ?V4
   \   000000                REQUIRE ?V5
   \   000000                REQUIRE ?V6
   \   000000                REQUIRE ?V7
   \   000000                REQUIRE ?V8
   \   000000                REQUIRE ?V9
   \   000000                REQUIRE ?V10
   \   000000                REQUIRE ?V11
   \   000000                REQUIRE ?V12
   \   000000                REQUIRE ?V13
   \   000000                REQUIRE ?V14
   \   000000                REQUIRE ?V15
   \   000000   74E8         MOV     A,#-0x18
   \   000002   12....       LCALL   ?BANKED_ENTER_XDATA
   \   000005                ; Saved register size: 24
   \   000005                ; Auto size: 0
   \   000005   8A..         MOV     ?V14,R2
   \   000007   8B..         MOV     ?V15,R3
   \   000009   E9           MOV     A,R1
   \   00000A   FE           MOV     R6,A
   \   00000B   8C..         MOV     ?V12,R4
   \   00000D   8D..         MOV     ?V13,R5
    137              if (keylen != AUTH_LIST_KEY_LEN) {
   \   00000F   7408         MOV     A,#0x8
   \   000011   6E           XRL     A,R6
   \   000012   601E         JZ      ??Authlist_should_insert_0
    138                  *index = AUTH_LIST_INVALID_INDEX;
   \   000014   7AFF         MOV     R2,#-0x1
   \   000016   7BFF         MOV     R3,#-0x1
   \   000018   7CFF         MOV     R4,#-0x1
   \   00001A   7DFF         MOV     R5,#-0x1
   \   00001C   85..82       MOV     DPL,?V12
   \   00001F   85..83       MOV     DPH,?V13
   \   000022   EA           MOV     A,R2
   \   000023   F0           MOVX    @DPTR,A
   \   000024   A3           INC     DPTR
   \   000025   EB           MOV     A,R3
   \   000026   F0           MOVX    @DPTR,A
   \   000027   A3           INC     DPTR
   \   000028   EC           MOV     A,R4
   \   000029   F0           MOVX    @DPTR,A
   \   00002A   A3           INC     DPTR
   \   00002B   ED           MOV     A,R5
   \   00002C   F0           MOVX    @DPTR,A
    139                  return 0;
   \   00002D   7900         MOV     R1,#0x0
   \   00002F   02....       LJMP    ??Authlist_should_insert_1 & 0xFFFF
    140              }
    141              uint32 avail = AUTH_LIST_INVALID_INDEX;
   \                     ??Authlist_should_insert_0:
   \   000032   75..FF       MOV     ?V0,#-0x1
   \   000035   75..FF       MOV     ?V1,#-0x1
   \   000038   75..FF       MOV     ?V2,#-0x1
   \   00003B   75..FF       MOV     ?V3,#-0x1
    142              uint32 idx;
    143              List_cache_force_load(0);
   \   00003E                ; Setup parameters for call to function List_cache_force_load
   \   00003E   90....       MOV     DPTR,#__Constant_0
   \   000041   12....       LCALL   ?XLOAD_R2345
   \   000044   12....       LCALL   `??List_cache_force_load::?relay`; Banked call to: List_cache_force_load
    144              do {
    145                  for (idx = 0; 
   \                     ??Authlist_should_insert_2:
   \   000047   7800         MOV     R0,#0x0
   \   000049   7900         MOV     R1,#0x0
   \   00004B   7A00         MOV     R2,#0x0
   \   00004D   7B00         MOV     R3,#0x0
   \   00004F   88..         MOV     ?V4,R0
   \   000051   89..         MOV     ?V5,R1
   \   000053   8A..         MOV     ?V6,R2
   \   000055   8B..         MOV     ?V7,R3
    146                       idx + gListOffset < AUTH_LIST_MAX_LEN && idx < gListNum ;
   \                     ??Authlist_should_insert_3:
   \   000057   90....       MOV     DPTR,#__Constant_66
   \   00005A   C082         PUSH    DPL
   \   00005C   C083         PUSH    DPH
   \   00005E   85....       MOV     ?V8,?V4
   \   000061   85....       MOV     ?V9,?V5
   \   000064   85....       MOV     ?V10,?V6
   \   000067   85....       MOV     ?V11,?V7
   \   00006A   90....       MOV     DPTR,#gListOffset
   \   00006D   78..         MOV     R0,#?V8
   \   00006F   12....       LCALL   ?L_ADD_X
   \   000072   D083         POP     DPH
   \   000074   D082         POP     DPL
   \   000076   78..         MOV     R0,#?V8
   \   000078   12....       LCALL   ?UL_GE_X
   \   00007B   5003         JNC     $+5
   \   00007D   02....       LJMP    ??Authlist_should_insert_4 & 0xFFFF
   \   000080   90....       MOV     DPTR,#gListNum
   \   000083   78..         MOV     R0,#?V4
   \   000085   12....       LCALL   ?UL_GE_X
   \   000088   5003         JNC     $+5
   \   00008A   02....       LJMP    ??Authlist_should_insert_4 & 0xFFFF
    147                       ++idx)
    148                  {
    149                      if (avail == AUTH_LIST_INVALID_INDEX && 
    150                          Is_entry_deleted(&gListCache[idx]))
   \   00008D   90....       MOV     DPTR,#__Constant_ffffffff
   \   000090   78..         MOV     R0,#?V0
   \   000092   12....       LCALL   ?L_EQ_X
   \   000095   7050         JNZ     ??Authlist_should_insert_5
   \   000097   A8..         MOV     R0,?V4
   \   000099   A9..         MOV     R1,?V5
   \   00009B   E8           MOV     A,R0
   \   00009C   75F00A       MOV     B,#0xa
   \   00009F   A4           MUL     AB
   \   0000A0   C8           XCH     A,R0
   \   0000A1   AAF0         MOV     R2,B
   \   0000A3   75F000       MOV     B,#0x0
   \   0000A6   A4           MUL     AB
   \   0000A7   2A           ADD     A,R2
   \   0000A8   FA           MOV     R2,A
   \   0000A9   75F00A       MOV     B,#0xa
   \   0000AC   E9           MOV     A,R1
   \   0000AD   A4           MUL     AB
   \   0000AE   2A           ADD     A,R2
   \   0000AF   F9           MOV     R1,A
   \   0000B0   74..         MOV     A,#gListCache & 0xff
   \   0000B2   28           ADD     A,R0
   \   0000B3   F582         MOV     DPL,A
   \   0000B5   74..         MOV     A,#(gListCache >> 8) & 0xff
   \   0000B7   39           ADDC    A,R1
   \   0000B8   F583         MOV     DPH,A
   \   0000BA   E0           MOVX    A,@DPTR
   \   0000BB   F8           MOV     R0,A
   \   0000BC   A3           INC     DPTR
   \   0000BD   E0           MOVX    A,@DPTR
   \   0000BE   F9           MOV     R1,A
   \   0000BF   E8           MOV     A,R0
   \   0000C0   A2E0         MOV     C,0xE0 /* A   */.0
   \   0000C2   5023         JNC     ??Authlist_should_insert_5
    151                      {
    152                          avail = idx + gListOffset;
   \   0000C4   85....       MOV     ?V8,?V4
   \   0000C7   85....       MOV     ?V9,?V5
   \   0000CA   85....       MOV     ?V10,?V6
   \   0000CD   85....       MOV     ?V11,?V7
   \   0000D0   90....       MOV     DPTR,#gListOffset
   \   0000D3   78..         MOV     R0,#?V8
   \   0000D5   12....       LCALL   ?L_ADD_X
   \   0000D8   85....       MOV     ?V0,?V8
   \   0000DB   85....       MOV     ?V1,?V9
   \   0000DE   85....       MOV     ?V2,?V10
   \   0000E1   85....       MOV     ?V3,?V11
   \   0000E4   02....       LJMP    ??Authlist_should_insert_6 & 0xFFFF
    153                      }
    154                      else if (!Is_entry_deleted(&gListCache[idx]) &&
    155                                  osal_memcmp(key, gListCache[idx].key, keylen) )
   \                     ??Authlist_should_insert_5:
   \   0000E7   A8..         MOV     R0,?V4
   \   0000E9   A9..         MOV     R1,?V5
   \   0000EB   E8           MOV     A,R0
   \   0000EC   75F00A       MOV     B,#0xa
   \   0000EF   A4           MUL     AB
   \   0000F0   C8           XCH     A,R0
   \   0000F1   AAF0         MOV     R2,B
   \   0000F3   75F000       MOV     B,#0x0
   \   0000F6   A4           MUL     AB
   \   0000F7   2A           ADD     A,R2
   \   0000F8   FA           MOV     R2,A
   \   0000F9   75F00A       MOV     B,#0xa
   \   0000FC   E9           MOV     A,R1
   \   0000FD   A4           MUL     AB
   \   0000FE   2A           ADD     A,R2
   \   0000FF   F9           MOV     R1,A
   \   000100   74..         MOV     A,#gListCache & 0xff
   \   000102   28           ADD     A,R0
   \   000103   F582         MOV     DPL,A
   \   000105   74..         MOV     A,#(gListCache >> 8) & 0xff
   \   000107   39           ADDC    A,R1
   \   000108   F583         MOV     DPH,A
   \   00010A   E0           MOVX    A,@DPTR
   \   00010B   F8           MOV     R0,A
   \   00010C   A3           INC     DPTR
   \   00010D   E0           MOVX    A,@DPTR
   \   00010E   F9           MOV     R1,A
   \   00010F   E8           MOV     A,R0
   \   000110   A2E0         MOV     C,0xE0 /* A   */.0
   \   000112   4077         JC      ??Authlist_should_insert_6
   \   000114                ; Setup parameters for call to function osal_memcmp
   \   000114   A8..         MOV     R0,?V4
   \   000116   A9..         MOV     R1,?V5
   \   000118   E8           MOV     A,R0
   \   000119   75F00A       MOV     B,#0xa
   \   00011C   A4           MUL     AB
   \   00011D   C8           XCH     A,R0
   \   00011E   AAF0         MOV     R2,B
   \   000120   75F000       MOV     B,#0x0
   \   000123   A4           MUL     AB
   \   000124   2A           ADD     A,R2
   \   000125   FA           MOV     R2,A
   \   000126   75F00A       MOV     B,#0xa
   \   000129   E9           MOV     A,R1
   \   00012A   A4           MUL     AB
   \   00012B   2A           ADD     A,R2
   \   00012C   F9           MOV     R1,A
   \   00012D   74..         MOV     A,#(gListCache + 2) & 0xff
   \   00012F   28           ADD     A,R0
   \   000130   F5..         MOV     ?V8,A
   \   000132   74..         MOV     A,#((gListCache + 2) >> 8) & 0xff
   \   000134   39           ADDC    A,R1
   \   000135   F5..         MOV     ?V9,A
   \   000137   75..00       MOV     ?V10,#0x0
   \   00013A   78..         MOV     R0,#?V8
   \   00013C   12....       LCALL   ?PUSH_XSTACK_I_THREE
   \   00013F   EE           MOV     A,R6
   \   000140   FC           MOV     R4,A
   \   000141   7D00         MOV     R5,#0x0
   \   000143   85..82       MOV     DPL,?V14
   \   000146   85..83       MOV     DPH,?V15
   \   000149   A982         MOV     R1,DPL
   \   00014B   AA83         MOV     R2,DPH
   \   00014D   7B00         MOV     R3,#0x0
   \   00014F   12....       LCALL   `??osal_memcmp::?relay`; Banked call to: osal_memcmp
   \   000152   7403         MOV     A,#0x3
   \   000154   12....       LCALL   ?DEALLOC_XSTACK8
   \   000157   E9           MOV     A,R1
   \   000158   6031         JZ      ??Authlist_should_insert_6
    156                      {
    157                          *index = idx + gListOffset;;
   \   00015A   85....       MOV     ?V8,?V4
   \   00015D   85....       MOV     ?V9,?V5
   \   000160   85....       MOV     ?V10,?V6
   \   000163   85....       MOV     ?V11,?V7
   \   000166   90....       MOV     DPTR,#gListOffset
   \   000169   78..         MOV     R0,#?V8
   \   00016B   12....       LCALL   ?L_ADD_X
   \   00016E   AA..         MOV     R2,?V8
   \   000170   AB..         MOV     R3,?V9
   \   000172   AC..         MOV     R4,?V10
   \   000174   AD..         MOV     R5,?V11
   \   000176   85..82       MOV     DPL,?V12
   \   000179   85..83       MOV     DPH,?V13
   \   00017C   EA           MOV     A,R2
   \   00017D   F0           MOVX    @DPTR,A
   \   00017E   A3           INC     DPTR
   \   00017F   EB           MOV     A,R3
   \   000180   F0           MOVX    @DPTR,A
   \   000181   A3           INC     DPTR
   \   000182   EC           MOV     A,R4
   \   000183   F0           MOVX    @DPTR,A
   \   000184   A3           INC     DPTR
   \   000185   ED           MOV     A,R5
   \   000186   F0           MOVX    @DPTR,A
    158                          return FALSE;
   \   000187   7900         MOV     R1,#0x0
   \   000189   802F         SJMP    ??Authlist_should_insert_1
    159                      }
    160                  }
   \                     ??Authlist_should_insert_6:
   \   00018B   90....       MOV     DPTR,#__Constant_1
   \   00018E   78..         MOV     R0,#?V4
   \   000190   12....       LCALL   ?L_ADD_X
   \   000193   02....       LJMP    ??Authlist_should_insert_3 & 0xFFFF
    161              } while (List_cache_load_next());
   \                     ??Authlist_should_insert_4:
   \   000196                ; Setup parameters for call to function List_cache_load_next
   \   000196   12....       LCALL   `??List_cache_load_next::?relay`; Banked call to: List_cache_load_next
   \   000199   E9           MOV     A,R1
   \   00019A   6003         JZ      $+5
   \   00019C   02....       LJMP    ??Authlist_should_insert_2 & 0xFFFF
    162          
    163              *index = avail;
   \   00019F   85..82       MOV     DPL,?V12
   \   0001A2   85..83       MOV     DPH,?V13
   \   0001A5   78..         MOV     R0,#?V0
   \   0001A7   12....       LCALL   ?L_MOV_TO_X
    164              return avail != AUTH_LIST_INVALID_INDEX;
   \   0001AA   90....       MOV     DPTR,#__Constant_ffffffff
   \   0001AD   78..         MOV     R0,#?V0
   \   0001AF   12....       LCALL   ?L_EQ_X
   \   0001B2   6004         JZ      ??Authlist_should_insert_7
   \   0001B4   7901         MOV     R1,#0x1
   \   0001B6   8002         SJMP    ??Authlist_should_insert_1
   \                     ??Authlist_should_insert_7:
   \   0001B8   7900         MOV     R1,#0x0
   \                     ??Authlist_should_insert_1:
   \   0001BA   7F10         MOV     R7,#0x10
   \   0001BC   02....       LJMP    ?BANKED_LEAVE_XDATA
    165          }
    166          
    167          

   \                                 In  segment BANKED_CODE, align 1, keep-with-next
    168          uint8 Authlist_add(uint8 const* buf, uint8 len, uint32 *index)
   \                     Authlist_add:
    169          {
   \   000000                REQUIRE ?V0
   \   000000                REQUIRE ?V1
   \   000000                REQUIRE ?V2
   \   000000                REQUIRE ?V3
   \   000000                REQUIRE ?V4
   \   000000                REQUIRE ?V5
   \   000000                REQUIRE ?V6
   \   000000                REQUIRE ?V7
   \   000000                REQUIRE ?V8
   \   000000                REQUIRE ?V9
   \   000000                REQUIRE ?V10
   \   000000                REQUIRE ?V11
   \   000000   74EC         MOV     A,#-0x14
   \   000002   12....       LCALL   ?BANKED_ENTER_XDATA
   \   000005                ; Saved register size: 20
   \   000005                ; Auto size: 4
   \   000005   74FC         MOV     A,#-0x4
   \   000007   12....       LCALL   ?ALLOC_XSTACK8
   \   00000A   8A..         MOV     ?V0,R2
   \   00000C   8B..         MOV     ?V1,R3
   \   00000E   E9           MOV     A,R1
   \   00000F   FE           MOV     R6,A
   \   000010   8C..         MOV     ?V8,R4
   \   000012   8D..         MOV     ?V9,R5
    170              uint32 avail;
    171              NodeRegisterEntry* e;
    172          
    173              if (len != AUTH_LIST_KEY_LEN) return 0;
   \   000014   7408         MOV     A,#0x8
   \   000016   6E           XRL     A,R6
   \   000017   6005         JZ      ??Authlist_add_0
   \   000019   7900         MOV     R1,#0x0
   \   00001B   02....       LJMP    ??Authlist_add_1 & 0xFFFF
    174          
    175              List_cache_force_load(0);
   \                     ??Authlist_add_0:
   \   00001E                ; Setup parameters for call to function List_cache_force_load
   \   00001E   90....       MOV     DPTR,#__Constant_0
   \   000021   12....       LCALL   ?XLOAD_R2345
   \   000024   12....       LCALL   `??List_cache_force_load::?relay`; Banked call to: List_cache_force_load
    176          
    177              if (Authlist_should_insert(buf, len, &avail))
   \   000027                ; Setup parameters for call to function Authlist_should_insert
   \   000027   AC..         MOV     R4,?XSP + 0
   \   000029   AD..         MOV     R5,?XSP + 1
   \   00002B   EE           MOV     A,R6
   \   00002C   F9           MOV     R1,A
   \   00002D   AA..         MOV     R2,?V0
   \   00002F   AB..         MOV     R3,?V1
   \   000031   12....       LCALL   `??Authlist_should_insert::?relay`; Banked call to: Authlist_should_insert
   \   000034   E9           MOV     A,R1
   \   000035   7003         JNZ     $+5
   \   000037   02....       LJMP    ??Authlist_add_2 & 0xFFFF
    178              {
    179                  e = List_cache_get(avail);
   \   00003A                ; Setup parameters for call to function List_cache_load_on_need
   \   00003A   85..82       MOV     DPL,?XSP + 0
   \   00003D   85..83       MOV     DPH,?XSP + 1
   \   000040   12....       LCALL   ?XLOAD_R2345
   \   000043   12....       LCALL   `??List_cache_load_on_need::?relay`; Banked call to: List_cache_load_on_need
   \   000046   85..82       MOV     DPL,?XSP + 0
   \   000049   85..83       MOV     DPH,?XSP + 1
   \   00004C   78..         MOV     R0,#?V4
   \   00004E   12....       LCALL   ?L_MOV_X
   \   000051   85....       MOV     ?V10,?V4
   \   000054   85....       MOV     ?V11,?V5
   \   000057   90....       MOV     DPTR,#gListOffset
   \   00005A   78..         MOV     R0,#?V4
   \   00005C   12....       LCALL   ?L_MOV_X
   \   00005F   E5..         MOV     A,?V10
   \   000061   C3           CLR     C
   \   000062   95..         SUBB    A,?V4
   \   000064   F8           MOV     R0,A
   \   000065   E5..         MOV     A,?V11
   \   000067   95..         SUBB    A,?V5
   \   000069   F9           MOV     R1,A
   \   00006A   E8           MOV     A,R0
   \   00006B   75F00A       MOV     B,#0xa
   \   00006E   A4           MUL     AB
   \   00006F   C8           XCH     A,R0
   \   000070   AAF0         MOV     R2,B
   \   000072   75F000       MOV     B,#0x0
   \   000075   A4           MUL     AB
   \   000076   2A           ADD     A,R2
   \   000077   FA           MOV     R2,A
   \   000078   75F00A       MOV     B,#0xa
   \   00007B   E9           MOV     A,R1
   \   00007C   A4           MUL     AB
   \   00007D   2A           ADD     A,R2
   \   00007E   F9           MOV     R1,A
   \   00007F   74..         MOV     A,#gListCache & 0xff
   \   000081   28           ADD     A,R0
   \   000082   F8           MOV     R0,A
   \   000083   74..         MOV     A,#(gListCache >> 8) & 0xff
   \   000085   39           ADDC    A,R1
   \   000086   F9           MOV     R1,A
   \   000087   88..         MOV     ?V2,R0
   \   000089   89..         MOV     ?V3,R1
    180                  e->flag &= ~NODE_REG_ENTRY_DELETED;
   \   00008B   85..82       MOV     DPL,?V2
   \   00008E   85..83       MOV     DPH,?V3
   \   000091   E0           MOVX    A,@DPTR
   \   000092   54FE         ANL     A,#0xfe
   \   000094   F0           MOVX    @DPTR,A
   \   000095   A3           INC     DPTR
   \   000096   E0           MOVX    A,@DPTR
   \   000097   54FF         ANL     A,#0xff
   \   000099   F0           MOVX    @DPTR,A
    181                  osal_memcpy(e->key, buf, len);
   \   00009A                ; Setup parameters for call to function osal_memcpy
   \   00009A   85....       MOV     ?V4,?V0
   \   00009D   85....       MOV     ?V5,?V1
   \   0000A0   75..00       MOV     ?V6,#0x0
   \   0000A3   78..         MOV     R0,#?V4
   \   0000A5   12....       LCALL   ?PUSH_XSTACK_I_THREE
   \   0000A8   EE           MOV     A,R6
   \   0000A9   FC           MOV     R4,A
   \   0000AA   7D00         MOV     R5,#0x0
   \   0000AC   E5..         MOV     A,?V2
   \   0000AE   2402         ADD     A,#0x2
   \   0000B0   FA           MOV     R2,A
   \   0000B1   E4           CLR     A
   \   0000B2   35..         ADDC    A,?V3
   \   0000B4   FB           MOV     R3,A
   \   0000B5   12....       LCALL   `??osal_memcpy::?relay`; Banked call to: osal_memcpy
   \   0000B8   7403         MOV     A,#0x3
   \   0000BA   12....       LCALL   ?DEALLOC_XSTACK8
    182                  
    183                  Increase_registered_num();
   \   0000BD                ; Setup parameters for call to function Set_registered_num
   \   0000BD   90....       MOV     DPTR,#gAuthConfig + 4
   \   0000C0   78..         MOV     R0,#?V4
   \   0000C2   12....       LCALL   ?L_MOV_X
   \   0000C5   90....       MOV     DPTR,#__Constant_1
   \   0000C8   78..         MOV     R0,#?V4
   \   0000CA   12....       LCALL   ?L_ADD_X
   \   0000CD   AA..         MOV     R2,?V4
   \   0000CF   AB..         MOV     R3,?V5
   \   0000D1   AC..         MOV     R4,?V6
   \   0000D3   AD..         MOV     R5,?V7
   \   0000D5   12....       LCALL   `??Set_registered_num::?relay`; Banked call to: Set_registered_num
    184                  List_cache_write_back();
   \   0000D8                ; Setup parameters for call to function List_cache_write_back
   \   0000D8   12....       LCALL   `??List_cache_write_back::?relay`; Banked call to: List_cache_write_back
    185                  if(index) *index = avail;
   \   0000DB   E5..         MOV     A,?V8
   \   0000DD   45..         ORL     A,?V9
   \   0000DF   6012         JZ      ??Authlist_add_3
   \   0000E1   85..82       MOV     DPL,?XSP + 0
   \   0000E4   85..83       MOV     DPH,?XSP + 1
   \   0000E7   12....       LCALL   ?XLOAD_R0123
   \   0000EA   85..82       MOV     DPL,?V8
   \   0000ED   85..83       MOV     DPH,?V9
   \   0000F0   12....       LCALL   ?XSTORE_R0123
    186                  return Authlist_item_cnt();
   \                     ??Authlist_add_3:
   \   0000F3                ; Setup parameters for call to function Authlist_item_cnt
   \   0000F3   12....       LCALL   `??Authlist_item_cnt::?relay`; Banked call to: Authlist_item_cnt
   \   0000F6   801C         SJMP    ??Authlist_add_1
    187              }
    188              else if (avail == AUTH_LIST_INVALID_INDEX)
   \                     ??Authlist_add_2:
   \   0000F8   90....       MOV     DPTR,#__Constant_ffffffff
   \   0000FB   78..         MOV     R0,#?V4
   \   0000FD   12....       LCALL   ?L_MOV_X
   \   000100   85..82       MOV     DPL,?XSP + 0
   \   000103   85..83       MOV     DPH,?XSP + 1
   \   000106   78..         MOV     R0,#?V4
   \   000108   12....       LCALL   ?L_EQ_X
   \   00010B   7004         JNZ     ??Authlist_add_4
    189              {    
    190                  return 0;
   \   00010D   7900         MOV     R1,#0x0
   \   00010F   8003         SJMP    ??Authlist_add_1
    191              }
    192              else
    193              {
    194                  return Authlist_item_cnt(); 
   \                     ??Authlist_add_4:
   \   000111                ; Setup parameters for call to function Authlist_item_cnt
   \   000111   12....       LCALL   `??Authlist_item_cnt::?relay`; Banked call to: Authlist_item_cnt
   \                     ??Authlist_add_1:
   \   000114   7404         MOV     A,#0x4
   \   000116   12....       LCALL   ?DEALLOC_XSTACK8
   \   000119   7F0C         MOV     R7,#0xc
   \   00011B   02....       LJMP    ?BANKED_LEAVE_XDATA
    195              }
    196          }
    197          
    198          

   \                                 In  segment BANKED_CODE, align 1, keep-with-next
    199          uint8 Authlist_get(uint32 index, uint8* buf, uint8* len)
   \                     Authlist_get:
    200          {
   \   000000                REQUIRE ?V0
   \   000000                REQUIRE ?V1
   \   000000                REQUIRE ?V2
   \   000000                REQUIRE ?V3
   \   000000                REQUIRE ?V4
   \   000000                REQUIRE ?V5
   \   000000                REQUIRE ?V6
   \   000000                REQUIRE ?V7
   \   000000                REQUIRE ?V8
   \   000000                REQUIRE ?V9
   \   000000                REQUIRE ?V10
   \   000000                REQUIRE ?V11
   \   000000                REQUIRE ?V12
   \   000000                REQUIRE ?V13
   \   000000   74EA         MOV     A,#-0x16
   \   000002   12....       LCALL   ?BANKED_ENTER_XDATA
   \   000005                ; Saved register size: 22
   \   000005                ; Auto size: 0
   \   000005   8A..         MOV     ?V4,R2
   \   000007   8B..         MOV     ?V5,R3
   \   000009   8C..         MOV     ?V6,R4
   \   00000B   8D..         MOV     ?V7,R5
   \   00000D   7416         MOV     A,#0x16
   \   00000F   12....       LCALL   ?XSTACK_DISP0_8
   \   000012   E0           MOVX    A,@DPTR
   \   000013   F5..         MOV     ?V2,A
   \   000015   A3           INC     DPTR
   \   000016   E0           MOVX    A,@DPTR
   \   000017   F5..         MOV     ?V3,A
   \   000019   7418         MOV     A,#0x18
   \   00001B   12....       LCALL   ?XSTACK_DISP0_8
   \   00001E   E0           MOVX    A,@DPTR
   \   00001F   F5..         MOV     ?V0,A
   \   000021   A3           INC     DPTR
   \   000022   E0           MOVX    A,@DPTR
   \   000023   F5..         MOV     ?V1,A
    201              NodeRegisterEntry const* e;
    202          
    203              if (*len < AUTH_LIST_KEY_LEN) return 0;
   \   000025   85..82       MOV     DPL,?V0
   \   000028   85..83       MOV     DPH,?V1
   \   00002B   E0           MOVX    A,@DPTR
   \   00002C   C3           CLR     C
   \   00002D   9408         SUBB    A,#0x8
   \   00002F   5005         JNC     ??Authlist_get_0
   \   000031   7900         MOV     R1,#0x0
   \   000033   02....       LJMP    ??Authlist_get_1 & 0xFFFF
    204              else *len = AUTH_LIST_KEY_LEN;
   \                     ??Authlist_get_0:
   \   000036   85..82       MOV     DPL,?V0
   \   000039   85..83       MOV     DPH,?V1
   \   00003C   7408         MOV     A,#0x8
   \   00003E   F0           MOVX    @DPTR,A
    205          
    206              List_cache_load_on_need(index);
   \   00003F                ; Setup parameters for call to function List_cache_load_on_need
   \   00003F   AA..         MOV     R2,?V4
   \   000041   AB..         MOV     R3,?V5
   \   000043   AC..         MOV     R4,?V6
   \   000045   AD..         MOV     R5,?V7
   \   000047   12....       LCALL   `??List_cache_load_on_need::?relay`; Banked call to: List_cache_load_on_need
    207          
    208              e = List_cache_get(index);
   \   00004A                ; Setup parameters for call to function List_cache_load_on_need
   \   00004A   AA..         MOV     R2,?V4
   \   00004C   AB..         MOV     R3,?V5
   \   00004E   AC..         MOV     R4,?V6
   \   000050   AD..         MOV     R5,?V7
   \   000052   12....       LCALL   `??List_cache_load_on_need::?relay`; Banked call to: List_cache_load_on_need
   \   000055   85....       MOV     ?V12,?V4
   \   000058   85....       MOV     ?V13,?V5
   \   00005B   90....       MOV     DPTR,#gListOffset
   \   00005E   78..         MOV     R0,#?V8
   \   000060   12....       LCALL   ?L_MOV_X
   \   000063   E5..         MOV     A,?V12
   \   000065   C3           CLR     C
   \   000066   95..         SUBB    A,?V8
   \   000068   F8           MOV     R0,A
   \   000069   E5..         MOV     A,?V13
   \   00006B   95..         SUBB    A,?V9
   \   00006D   F9           MOV     R1,A
   \   00006E   E8           MOV     A,R0
   \   00006F   75F00A       MOV     B,#0xa
   \   000072   A4           MUL     AB
   \   000073   C8           XCH     A,R0
   \   000074   AAF0         MOV     R2,B
   \   000076   75F000       MOV     B,#0x0
   \   000079   A4           MUL     AB
   \   00007A   2A           ADD     A,R2
   \   00007B   FA           MOV     R2,A
   \   00007C   75F00A       MOV     B,#0xa
   \   00007F   E9           MOV     A,R1
   \   000080   A4           MUL     AB
   \   000081   2A           ADD     A,R2
   \   000082   F9           MOV     R1,A
   \   000083   74..         MOV     A,#gListCache & 0xff
   \   000085   28           ADD     A,R0
   \   000086   F8           MOV     R0,A
   \   000087   74..         MOV     A,#(gListCache >> 8) & 0xff
   \   000089   39           ADDC    A,R1
   \   00008A   F9           MOV     R1,A
   \   00008B   E8           MOV     A,R0
   \   00008C   FE           MOV     R6,A
   \   00008D   E9           MOV     A,R1
   \   00008E   FF           MOV     R7,A
    209              if (NULL == e || Is_entry_deleted(e))
   \   00008F   EE           MOV     A,R6
   \   000090   4F           ORL     A,R7
   \   000091   600E         JZ      ??Authlist_get_2
   \   000093   8E82         MOV     DPL,R6
   \   000095   8F83         MOV     DPH,R7
   \   000097   E0           MOVX    A,@DPTR
   \   000098   F8           MOV     R0,A
   \   000099   A3           INC     DPTR
   \   00009A   E0           MOVX    A,@DPTR
   \   00009B   F9           MOV     R1,A
   \   00009C   E8           MOV     A,R0
   \   00009D   A2E0         MOV     C,0xE0 /* A   */.0
   \   00009F   5004         JNC     ??Authlist_get_3
    210              {
    211                  return 0;
   \                     ??Authlist_get_2:
   \   0000A1   7900         MOV     R1,#0x0
   \   0000A3   802A         SJMP    ??Authlist_get_1
    212              }
    213              
    214              osal_memcpy(buf, e->key, AUTH_LIST_KEY_LEN);
   \                     ??Authlist_get_3:
   \   0000A5                ; Setup parameters for call to function osal_memcpy
   \   0000A5   8E82         MOV     DPL,R6
   \   0000A7   8F83         MOV     DPH,R7
   \   0000A9   A3           INC     DPTR
   \   0000AA   A3           INC     DPTR
   \   0000AB   A982         MOV     R1,DPL
   \   0000AD   AA83         MOV     R2,DPH
   \   0000AF   7B00         MOV     R3,#0x0
   \   0000B1   89..         MOV     ?V8,R1
   \   0000B3   8A..         MOV     ?V9,R2
   \   0000B5   8B..         MOV     ?V10,R3
   \   0000B7   78..         MOV     R0,#?V8
   \   0000B9   12....       LCALL   ?PUSH_XSTACK_I_THREE
   \   0000BC   7C08         MOV     R4,#0x8
   \   0000BE   7D00         MOV     R5,#0x0
   \   0000C0   AA..         MOV     R2,?V2
   \   0000C2   AB..         MOV     R3,?V3
   \   0000C4   12....       LCALL   `??osal_memcpy::?relay`; Banked call to: osal_memcpy
   \   0000C7   7403         MOV     A,#0x3
   \   0000C9   12....       LCALL   ?DEALLOC_XSTACK8
    215              return Authlist_item_cnt();
   \   0000CC                ; Setup parameters for call to function Authlist_item_cnt
   \   0000CC   12....       LCALL   `??Authlist_item_cnt::?relay`; Banked call to: Authlist_item_cnt
   \                     ??Authlist_get_1:
   \   0000CF   7F0E         MOV     R7,#0xe
   \   0000D1   02....       LJMP    ?BANKED_LEAVE_XDATA
    216          }
    217          

   \                                 In  segment BANKED_CODE, align 1, keep-with-next
    218          static void Authlist_delete_entry(uint32 index)
   \                     Authlist_delete_entry:
    219          {
   \   000000                REQUIRE ?V0
   \   000000                REQUIRE ?V1
   \   000000                REQUIRE ?V2
   \   000000                REQUIRE ?V3
   \   000000                REQUIRE ?V4
   \   000000                REQUIRE ?V5
   \   000000                REQUIRE ?V6
   \   000000                REQUIRE ?V7
   \   000000                REQUIRE ?V8
   \   000000                REQUIRE ?V9
   \   000000                REQUIRE ?V10
   \   000000                REQUIRE ?V11
   \   000000                REQUIRE ?V12
   \   000000                REQUIRE ?V13
   \   000000                REQUIRE ?V14
   \   000000                REQUIRE ?V15
   \   000000   74E8         MOV     A,#-0x18
   \   000002   12....       LCALL   ?BANKED_ENTER_XDATA
   \   000005                ; Saved register size: 24
   \   000005                ; Auto size: 10
   \   000005   74F6         MOV     A,#-0xa
   \   000007   12....       LCALL   ?ALLOC_XSTACK8
   \   00000A   8A..         MOV     ?V0,R2
   \   00000C   8B..         MOV     ?V1,R3
   \   00000E   8C..         MOV     ?V2,R4
   \   000010   8D..         MOV     ?V3,R5
    220              NodeRegisterEntry *last_entry_p, *to_del;
    221              NodeRegisterEntry last_entry_copy;
    222              uint32 last_index = Authlist_item_cnt() - 1;
   \   000012                ; Setup parameters for call to function Authlist_item_cnt
   \   000012   12....       LCALL   `??Authlist_item_cnt::?relay`; Banked call to: Authlist_item_cnt
   \   000015   E9           MOV     A,R1
   \   000016   F8           MOV     R0,A
   \   000017   7900         MOV     R1,#0x0
   \   000019   E8           MOV     A,R0
   \   00001A   24FF         ADD     A,#-0x1
   \   00001C   F8           MOV     R0,A
   \   00001D   E9           MOV     A,R1
   \   00001E   34FF         ADDC    A,#-0x1
   \   000020   F9           MOV     R1,A
   \   000021   E9           MOV     A,R1
   \   000022   33           RLC     A
   \   000023   95E0         SUBB    A,0xE0 /* A   */
   \   000025   FA           MOV     R2,A
   \   000026   FB           MOV     R3,A
   \   000027   88..         MOV     ?V4,R0
   \   000029   89..         MOV     ?V5,R1
   \   00002B   8A..         MOV     ?V6,R2
   \   00002D   8B..         MOV     ?V7,R3
    223          
    224              if (index >= Authlist_item_cnt() || 
    225                  index >= AUTH_LIST_MAX_LEN)
   \   00002F                ; Setup parameters for call to function Authlist_item_cnt
   \   00002F   12....       LCALL   `??Authlist_item_cnt::?relay`; Banked call to: Authlist_item_cnt
   \   000032   E9           MOV     A,R1
   \   000033   F5..         MOV     ?V8,A
   \   000035   E4           CLR     A
   \   000036   F5..         MOV     ?V9,A
   \   000038   F5..         MOV     ?V10,A
   \   00003A   F5..         MOV     ?V11,A
   \   00003C   78..         MOV     R0,#?V8
   \   00003E   79..         MOV     R1,#?V0
   \   000040   12....       LCALL   ?UL_GT
   \   000043   500A         JNC     ??Authlist_delete_entry_0
   \   000045   90....       MOV     DPTR,#__Constant_66
   \   000048   78..         MOV     R0,#?V0
   \   00004A   12....       LCALL   ?UL_GE_X
   \   00004D   5003         JNC     ??Authlist_delete_entry_1
    226              {
    227                  return;
   \                     ??Authlist_delete_entry_0:
   \   00004F   02....       LJMP    ??Authlist_delete_entry_2 & 0xFFFF
    228              }
    229              if (index != last_index) {
   \                     ??Authlist_delete_entry_1:
   \   000052   78..         MOV     R0,#?V0
   \   000054   79..         MOV     R1,#?V4
   \   000056   12....       LCALL   ?L_EQ
   \   000059   7003         JNZ     $+5
   \   00005B   02....       LJMP    ??Authlist_delete_entry_3 & 0xFFFF
    230                  // not last entry, need to fill the blank
    231                  last_entry_p = List_cache_get(last_index);
   \   00005E                ; Setup parameters for call to function List_cache_load_on_need
   \   00005E   AA..         MOV     R2,?V4
   \   000060   AB..         MOV     R3,?V5
   \   000062   AC..         MOV     R4,?V6
   \   000064   AD..         MOV     R5,?V7
   \   000066   12....       LCALL   `??List_cache_load_on_need::?relay`; Banked call to: List_cache_load_on_need
   \   000069   85....       MOV     ?V12,?V4
   \   00006C   85....       MOV     ?V13,?V5
   \   00006F   90....       MOV     DPTR,#gListOffset
   \   000072   78..         MOV     R0,#?V8
   \   000074   12....       LCALL   ?L_MOV_X
   \   000077   E5..         MOV     A,?V12
   \   000079   C3           CLR     C
   \   00007A   95..         SUBB    A,?V8
   \   00007C   F8           MOV     R0,A
   \   00007D   E5..         MOV     A,?V13
   \   00007F   95..         SUBB    A,?V9
   \   000081   F9           MOV     R1,A
   \   000082   E8           MOV     A,R0
   \   000083   75F00A       MOV     B,#0xa
   \   000086   A4           MUL     AB
   \   000087   C8           XCH     A,R0
   \   000088   AAF0         MOV     R2,B
   \   00008A   75F000       MOV     B,#0x0
   \   00008D   A4           MUL     AB
   \   00008E   2A           ADD     A,R2
   \   00008F   FA           MOV     R2,A
   \   000090   75F00A       MOV     B,#0xa
   \   000093   E9           MOV     A,R1
   \   000094   A4           MUL     AB
   \   000095   2A           ADD     A,R2
   \   000096   F9           MOV     R1,A
   \   000097   74..         MOV     A,#gListCache & 0xff
   \   000099   28           ADD     A,R0
   \   00009A   F8           MOV     R0,A
   \   00009B   74..         MOV     A,#(gListCache >> 8) & 0xff
   \   00009D   39           ADDC    A,R1
   \   00009E   F9           MOV     R1,A
   \   00009F   E8           MOV     A,R0
   \   0000A0   FE           MOV     R6,A
   \   0000A1   E9           MOV     A,R1
   \   0000A2   FF           MOV     R7,A
    232                  osal_memcpy(&last_entry_copy, last_entry_p, sizeof(NodeRegisterEntry));
   \   0000A3                ; Setup parameters for call to function osal_memcpy
   \   0000A3   8E..         MOV     ?V8,R6
   \   0000A5   8F..         MOV     ?V9,R7
   \   0000A7   75..00       MOV     ?V10,#0x0
   \   0000AA   78..         MOV     R0,#?V8
   \   0000AC   12....       LCALL   ?PUSH_XSTACK_I_THREE
   \   0000AF   7C0A         MOV     R4,#0xa
   \   0000B1   7D00         MOV     R5,#0x0
   \   0000B3   7403         MOV     A,#0x3
   \   0000B5   12....       LCALL   ?XSTACK_DISP101_8
   \   0000B8   12....       LCALL   `??osal_memcpy::?relay`; Banked call to: osal_memcpy
   \   0000BB   7403         MOV     A,#0x3
   \   0000BD   12....       LCALL   ?DEALLOC_XSTACK8
    233                  last_entry_p->flag |= NODE_REG_ENTRY_DELETED;
   \   0000C0   8E82         MOV     DPL,R6
   \   0000C2   8F83         MOV     DPH,R7
   \   0000C4   E0           MOVX    A,@DPTR
   \   0000C5   4401         ORL     A,#0x1
   \   0000C7   F0           MOVX    @DPTR,A
   \   0000C8   A3           INC     DPTR
   \   0000C9   E0           MOVX    A,@DPTR
   \   0000CA   4400         ORL     A,#0x0
   \   0000CC   F0           MOVX    @DPTR,A
    234                  osal_memset(last_entry_p->key, 0xff, AUTH_LIST_KEY_LEN);
   \   0000CD                ; Setup parameters for call to function osal_memset
   \   0000CD   7C08         MOV     R4,#0x8
   \   0000CF   7D00         MOV     R5,#0x0
   \   0000D1   79FF         MOV     R1,#-0x1
   \   0000D3   EE           MOV     A,R6
   \   0000D4   2402         ADD     A,#0x2
   \   0000D6   FA           MOV     R2,A
   \   0000D7   E4           CLR     A
   \   0000D8   3F           ADDC    A,R7
   \   0000D9   FB           MOV     R3,A
   \   0000DA   12....       LCALL   `??osal_memset::?relay`; Banked call to: osal_memset
    235                  List_cache_write_back();
   \   0000DD                ; Setup parameters for call to function List_cache_write_back
   \   0000DD   12....       LCALL   `??List_cache_write_back::?relay`; Banked call to: List_cache_write_back
   \   0000E0   8004         SJMP    ??Authlist_delete_entry_4
    236              } else {
    237                  last_entry_p = NULL;
   \                     ??Authlist_delete_entry_3:
   \   0000E2   7E00         MOV     R6,#0x0
   \   0000E4   7F00         MOV     R7,#0x0
    238              }
    239          
    240              to_del = List_cache_get(index);
   \                     ??Authlist_delete_entry_4:
   \   0000E6                ; Setup parameters for call to function List_cache_load_on_need
   \   0000E6   AA..         MOV     R2,?V0
   \   0000E8   AB..         MOV     R3,?V1
   \   0000EA   AC..         MOV     R4,?V2
   \   0000EC   AD..         MOV     R5,?V3
   \   0000EE   12....       LCALL   `??List_cache_load_on_need::?relay`; Banked call to: List_cache_load_on_need
   \   0000F1   85....       MOV     ?V12,?V0
   \   0000F4   85....       MOV     ?V13,?V1
   \   0000F7   90....       MOV     DPTR,#gListOffset
   \   0000FA   78..         MOV     R0,#?V8
   \   0000FC   12....       LCALL   ?L_MOV_X
   \   0000FF   E5..         MOV     A,?V12
   \   000101   C3           CLR     C
   \   000102   95..         SUBB    A,?V8
   \   000104   F8           MOV     R0,A
   \   000105   E5..         MOV     A,?V13
   \   000107   95..         SUBB    A,?V9
   \   000109   F9           MOV     R1,A
   \   00010A   E8           MOV     A,R0
   \   00010B   75F00A       MOV     B,#0xa
   \   00010E   A4           MUL     AB
   \   00010F   C8           XCH     A,R0
   \   000110   AAF0         MOV     R2,B
   \   000112   75F000       MOV     B,#0x0
   \   000115   A4           MUL     AB
   \   000116   2A           ADD     A,R2
   \   000117   FA           MOV     R2,A
   \   000118   75F00A       MOV     B,#0xa
   \   00011B   E9           MOV     A,R1
   \   00011C   A4           MUL     AB
   \   00011D   2A           ADD     A,R2
   \   00011E   F9           MOV     R1,A
   \   00011F   74..         MOV     A,#gListCache & 0xff
   \   000121   28           ADD     A,R0
   \   000122   F8           MOV     R0,A
   \   000123   74..         MOV     A,#(gListCache >> 8) & 0xff
   \   000125   39           ADDC    A,R1
   \   000126   F9           MOV     R1,A
   \   000127   88..         MOV     ?V14,R0
   \   000129   89..         MOV     ?V15,R1
    241              if (last_entry_p != NULL) {
   \   00012B   EE           MOV     A,R6
   \   00012C   4F           ORL     A,R7
   \   00012D   6022         JZ      ??Authlist_delete_entry_5
    242                  osal_memcpy(to_del, &last_entry_copy, sizeof(NodeRegisterEntry));
   \   00012F                ; Setup parameters for call to function osal_memcpy
   \   00012F   A8..         MOV     R0,?XSP + 0
   \   000131   A9..         MOV     R1,?XSP + 1
   \   000133   88..         MOV     ?V8,R0
   \   000135   89..         MOV     ?V9,R1
   \   000137   75..00       MOV     ?V10,#0x0
   \   00013A   78..         MOV     R0,#?V8
   \   00013C   12....       LCALL   ?PUSH_XSTACK_I_THREE
   \   00013F   7C0A         MOV     R4,#0xa
   \   000141   7D00         MOV     R5,#0x0
   \   000143   AA..         MOV     R2,?V14
   \   000145   AB..         MOV     R3,?V15
   \   000147   12....       LCALL   `??osal_memcpy::?relay`; Banked call to: osal_memcpy
   \   00014A   7403         MOV     A,#0x3
   \   00014C   12....       LCALL   ?DEALLOC_XSTACK8
   \   00014F   8021         SJMP    ??Authlist_delete_entry_6
    243              } else {
    244                  to_del->flag |= NODE_REG_ENTRY_DELETED;
   \                     ??Authlist_delete_entry_5:
   \   000151   85..82       MOV     DPL,?V14
   \   000154   85..83       MOV     DPH,?V15
   \   000157   E0           MOVX    A,@DPTR
   \   000158   4401         ORL     A,#0x1
   \   00015A   F0           MOVX    @DPTR,A
   \   00015B   A3           INC     DPTR
   \   00015C   E0           MOVX    A,@DPTR
   \   00015D   4400         ORL     A,#0x0
   \   00015F   F0           MOVX    @DPTR,A
    245                  osal_memset(to_del->key, 0xff, AUTH_LIST_KEY_LEN);
   \   000160                ; Setup parameters for call to function osal_memset
   \   000160   7C08         MOV     R4,#0x8
   \   000162   7D00         MOV     R5,#0x0
   \   000164   79FF         MOV     R1,#-0x1
   \   000166   E5..         MOV     A,?V14
   \   000168   2402         ADD     A,#0x2
   \   00016A   FA           MOV     R2,A
   \   00016B   E4           CLR     A
   \   00016C   35..         ADDC    A,?V15
   \   00016E   FB           MOV     R3,A
   \   00016F   12....       LCALL   `??osal_memset::?relay`; Banked call to: osal_memset
    246              }
    247              Decrease_registered_num();
   \                     ??Authlist_delete_entry_6:
   \   000172                ; Setup parameters for call to function Set_registered_num
   \   000172   90....       MOV     DPTR,#gAuthConfig + 4
   \   000175   78..         MOV     R0,#?V8
   \   000177   12....       LCALL   ?L_MOV_X
   \   00017A   90....       MOV     DPTR,#__Constant_ffffffff
   \   00017D   78..         MOV     R0,#?V8
   \   00017F   12....       LCALL   ?L_ADD_X
   \   000182   AA..         MOV     R2,?V8
   \   000184   AB..         MOV     R3,?V9
   \   000186   AC..         MOV     R4,?V10
   \   000188   AD..         MOV     R5,?V11
   \   00018A   12....       LCALL   `??Set_registered_num::?relay`; Banked call to: Set_registered_num
    248              List_cache_write_back();
   \   00018D                ; Setup parameters for call to function List_cache_write_back
   \   00018D   12....       LCALL   `??List_cache_write_back::?relay`; Banked call to: List_cache_write_back
    249          }
   \                     ??Authlist_delete_entry_2:
   \   000190   740A         MOV     A,#0xa
   \   000192   12....       LCALL   ?DEALLOC_XSTACK8
   \   000195   7F10         MOV     R7,#0x10
   \   000197   02....       LJMP    ?BANKED_LEAVE_XDATA
    250          
    251          

   \                                 In  segment BANKED_CODE, align 1, keep-with-next
    252          void Authlist_del(uint8 const* key, uint8 keylen, uint32* index)
   \                     Authlist_del:
    253          {
   \   000000                REQUIRE ?V0
   \   000000                REQUIRE ?V1
   \   000000                REQUIRE ?V2
   \   000000                REQUIRE ?V3
   \   000000                REQUIRE ?V4
   \   000000                REQUIRE ?V5
   \   000000                REQUIRE ?V6
   \   000000                REQUIRE ?V7
   \   000000                REQUIRE ?V8
   \   000000                REQUIRE ?V9
   \   000000                REQUIRE ?V10
   \   000000                REQUIRE ?V11
   \   000000   74EC         MOV     A,#-0x14
   \   000002   12....       LCALL   ?BANKED_ENTER_XDATA
   \   000005                ; Saved register size: 20
   \   000005                ; Auto size: 0
   \   000005   8A..         MOV     ?V8,R2
   \   000007   8B..         MOV     ?V9,R3
   \   000009   E9           MOV     A,R1
   \   00000A   FE           MOV     R6,A
   \   00000B   8C..         MOV     ?V10,R4
   \   00000D   8D..         MOV     ?V11,R5
    254              uint32 to_del;
    255              if(AUTH_LIST_INVALID_INDEX != (to_del = Authlist_find_by_key(key, keylen)))
   \   00000F                ; Setup parameters for call to function Authlist_find_by_key
   \   00000F   8E..         MOV     ?V0,R6
   \   000011   E4           CLR     A
   \   000012   F5..         MOV     ?V1,A
   \   000014   F5..         MOV     ?V2,A
   \   000016   F5..         MOV     ?V3,A
   \   000018   78..         MOV     R0,#?V0
   \   00001A   12....       LCALL   ?PUSH_XSTACK_I_FOUR
   \   00001D   AA..         MOV     R2,?V8
   \   00001F   AB..         MOV     R3,?V9
   \   000021   12....       LCALL   `??Authlist_find_by_key::?relay`; Banked call to: Authlist_find_by_key
   \   000024   7404         MOV     A,#0x4
   \   000026   12....       LCALL   ?DEALLOC_XSTACK8
   \   000029   8A..         MOV     ?V0,R2
   \   00002B   8B..         MOV     ?V1,R3
   \   00002D   8C..         MOV     ?V2,R4
   \   00002F   8D..         MOV     ?V3,R5
   \   000031   85....       MOV     ?V4,?V0
   \   000034   85....       MOV     ?V5,?V1
   \   000037   85....       MOV     ?V6,?V2
   \   00003A   85....       MOV     ?V7,?V3
   \   00003D   90....       MOV     DPTR,#__Constant_ffffffff
   \   000040   78..         MOV     R0,#?V0
   \   000042   12....       LCALL   ?L_EQ_X
   \   000045   600B         JZ      ??Authlist_del_0
    256              {
    257                  Authlist_delete_entry(to_del);
   \   000047                ; Setup parameters for call to function Authlist_delete_entry
   \   000047   AA..         MOV     R2,?V4
   \   000049   AB..         MOV     R3,?V5
   \   00004B   AC..         MOV     R4,?V6
   \   00004D   AD..         MOV     R5,?V7
   \   00004F   12....       LCALL   `??Authlist_delete_entry::?relay`; Banked call to: Authlist_delete_entry
    258              }
    259          }
   \                     ??Authlist_del_0:
   \   000052   7F0C         MOV     R7,#0xc
   \   000054   02....       LJMP    ?BANKED_LEAVE_XDATA
    260          

   \                                 In  segment BANKED_CODE, align 1, keep-with-next
    261          uint8 Authlist_item_cnt( void )
   \                     Authlist_item_cnt:
    262          {
   \   000000                REQUIRE ?V0
   \   000000                REQUIRE ?V1
   \   000000                REQUIRE ?V2
   \   000000                REQUIRE ?V3
   \   000000   74F4         MOV     A,#-0xc
   \   000002   12....       LCALL   ?BANKED_ENTER_XDATA
   \   000005                ; Saved register size: 12
   \   000005                ; Auto size: 0
    263              return gAuthConfig.auth_registered_num;
   \   000005   90....       MOV     DPTR,#gAuthConfig + 4
   \   000008   78..         MOV     R0,#?V0
   \   00000A   12....       LCALL   ?L_MOV_X
   \   00000D   A9..         MOV     R1,?V0
   \   00000F   7F04         MOV     R7,#0x4
   \   000011   02....       LJMP    ?BANKED_LEAVE_XDATA
    264          }
    265          
    266          

   \                                 In  segment BANKED_CODE, align 1, keep-with-next
    267          uint32 Authlist_find_by_key(uint8 const * key, uint32 keylen)
   \                     Authlist_find_by_key:
    268          {
   \   000000                REQUIRE ?V0
   \   000000                REQUIRE ?V1
   \   000000                REQUIRE ?V2
   \   000000                REQUIRE ?V3
   \   000000                REQUIRE ?V4
   \   000000                REQUIRE ?V5
   \   000000                REQUIRE ?V6
   \   000000                REQUIRE ?V7
   \   000000                REQUIRE ?V8
   \   000000                REQUIRE ?V9
   \   000000                REQUIRE ?V10
   \   000000                REQUIRE ?V11
   \   000000   74EC         MOV     A,#-0x14
   \   000002   12....       LCALL   ?BANKED_ENTER_XDATA
   \   000005                ; Saved register size: 20
   \   000005                ; Auto size: 0
   \   000005   EA           MOV     A,R2
   \   000006   FE           MOV     R6,A
   \   000007   EB           MOV     A,R3
   \   000008   FF           MOV     R7,A
   \   000009   7414         MOV     A,#0x14
   \   00000B   12....       LCALL   ?XSTACK_DISP0_8
   \   00000E   78..         MOV     R0,#?V4
   \   000010   12....       LCALL   ?L_MOV_X
    269              uint32 rc = AUTH_LIST_INVALID_INDEX;
   \   000013   75..FF       MOV     ?V8,#-0x1
   \   000016   75..FF       MOV     ?V9,#-0x1
   \   000019   75..FF       MOV     ?V10,#-0x1
   \   00001C   75..FF       MOV     ?V11,#-0x1
    270              if (keylen != AUTH_LIST_KEY_LEN) return rc;
   \   00001F   90....       MOV     DPTR,#__Constant_8
   \   000022   78..         MOV     R0,#?V4
   \   000024   12....       LCALL   ?L_EQ_X
   \   000027   600A         JZ      ??Authlist_find_by_key_0
   \   000029   AA..         MOV     R2,?V8
   \   00002B   AB..         MOV     R3,?V9
   \   00002D   AC..         MOV     R4,?V10
   \   00002F   AD..         MOV     R5,?V11
   \   000031   8044         SJMP    ??Authlist_find_by_key_1
    271              
    272              List_cache_force_load(0);
   \                     ??Authlist_find_by_key_0:
   \   000033                ; Setup parameters for call to function List_cache_force_load
   \   000033   90....       MOV     DPTR,#__Constant_0
   \   000036   12....       LCALL   ?XLOAD_R2345
   \   000039   12....       LCALL   `??List_cache_force_load::?relay`; Banked call to: List_cache_force_load
    273              
    274              do {
    275                  if(AUTH_LIST_INVALID_INDEX != (rc = List_cache_find_by_key(key, keylen)))
   \                     ??Authlist_find_by_key_2:
   \   00003C                ; Setup parameters for call to function List_cache_find_by_key
   \   00003C   85....       MOV     ?V0,?V4
   \   00003F   85....       MOV     ?V1,?V5
   \   000042   A9..         MOV     R1,?V0
   \   000044   EE           MOV     A,R6
   \   000045   FA           MOV     R2,A
   \   000046   EF           MOV     A,R7
   \   000047   FB           MOV     R3,A
   \   000048   12....       LCALL   `??List_cache_find_by_key::?relay`; Banked call to: List_cache_find_by_key
   \   00004B   8A..         MOV     ?V0,R2
   \   00004D   8B..         MOV     ?V1,R3
   \   00004F   8C..         MOV     ?V2,R4
   \   000051   8D..         MOV     ?V3,R5
   \   000053   85....       MOV     ?V8,?V0
   \   000056   85....       MOV     ?V9,?V1
   \   000059   85....       MOV     ?V10,?V2
   \   00005C   85....       MOV     ?V11,?V3
   \   00005F   90....       MOV     DPTR,#__Constant_ffffffff
   \   000062   78..         MOV     R0,#?V0
   \   000064   12....       LCALL   ?L_EQ_X
   \   000067   7006         JNZ     ??Authlist_find_by_key_3
    276                  {
    277                      break;
    278                  }
    279              } while (List_cache_load_next());
   \   000069                ; Setup parameters for call to function List_cache_load_next
   \   000069   12....       LCALL   `??List_cache_load_next::?relay`; Banked call to: List_cache_load_next
   \   00006C   E9           MOV     A,R1
   \   00006D   70CD         JNZ     ??Authlist_find_by_key_2
    280              return rc;
   \                     ??Authlist_find_by_key_3:
   \   00006F   AA..         MOV     R2,?V8
   \   000071   AB..         MOV     R3,?V9
   \   000073   AC..         MOV     R4,?V10
   \   000075   AD..         MOV     R5,?V11
   \                     ??Authlist_find_by_key_1:
   \   000077   7F0C         MOV     R7,#0xc
   \   000079   02....       LJMP    ?BANKED_LEAVE_XDATA
    281          }
    282          
    283          

   \                                 In  segment BANKED_CODE, align 1, keep-with-next
    284          void Node_auth_uart_msg_process(uint8 port, uint8 cmd0, uint8 cmd1, uint8 const* buf, uint8 len)  //chaokw
   \                     Node_auth_uart_msg_process:
    285          {
   \   000000                REQUIRE ?V0
   \   000000                REQUIRE ?V1
   \   000000                REQUIRE ?V2
   \   000000                REQUIRE ?V3
   \   000000                REQUIRE ?V4
   \   000000                REQUIRE ?V5
   \   000000                REQUIRE ?V6
   \   000000                REQUIRE ?V7
   \   000000                REQUIRE ?V8
   \   000000                REQUIRE ?V9
   \   000000                REQUIRE ?V10
   \   000000                REQUIRE ?V11
   \   000000   74EC         MOV     A,#-0x14
   \   000002   12....       LCALL   ?BANKED_ENTER_XDATA
   \   000005                ; Saved register size: 20
   \   000005                ; Auto size: 15
   \   000005   74F1         MOV     A,#-0xf
   \   000007   12....       LCALL   ?ALLOC_XSTACK8
   \   00000A   89..         MOV     ?V0,R1
   \   00000C   8A..         MOV     ?V11,R2
   \   00000E   8B..         MOV     ?V10,R3
   \   000010   EC           MOV     A,R4
   \   000011   FE           MOV     R6,A
   \   000012   ED           MOV     A,R5
   \   000013   FF           MOV     R7,A
   \   000014   7423         MOV     A,#0x23
   \   000016   12....       LCALL   ?XSTACK_DISP0_8
   \   000019   E0           MOVX    A,@DPTR
   \   00001A   F5..         MOV     ?V8,A
    286              if (cmd0 != NODE_AUTH_MSG_DIR_DOWNLINK) return;
   \   00001C   7401         MOV     A,#0x1
   \   00001E   65..         XRL     A,?V11
   \   000020   6003         JZ      $+5
   \   000022   02....       LJMP    ??Node_auth_uart_msg_process_0 & 0xFFFF
    287          
    288              uint32 idx;
    289              uint8 i;
    290              uint8 key[AUTH_LIST_KEY_LEN+2] = {0};
   \   000025   90....       MOV     DPTR,#`?<Constant {0, 0, 0, 0, 0, 0, 0, 0, 0, 0}>`
   \   000028   7405         MOV     A,#0x5
   \   00002A   12....       LCALL   ?XSTACK_DISP102_8
   \   00002D   740A         MOV     A,#0xa
   \   00002F   12....       LCALL   ?MOVE_LONG8_XDATA_XDATA
    291              uint8 keylen = AUTH_LIST_KEY_LEN;
   \   000032   85..82       MOV     DPL,?XSP + 0
   \   000035   85..83       MOV     DPH,?XSP + 1
   \   000038   7408         MOV     A,#0x8
   \   00003A   F0           MOVX    @DPTR,A
    292              nodeList_t *nodeSearch;
    293              uint8 deltype;
    294          
    295          
    296              switch (cmd1) 
   \   00003B   E5..         MOV     A,?V10
   \   00003D   24D0         ADD     A,#-0x30
   \   00003F   7003         JNZ     $+5
   \   000041   02....       LJMP    ??Node_auth_uart_msg_process_1 & 0xFFFF
   \   000044   14           DEC     A
   \   000045   601A         JZ      ??Node_auth_uart_msg_process_2
   \   000047   14           DEC     A
   \   000048   601F         JZ      ??Node_auth_uart_msg_process_3
   \   00004A   14           DEC     A
   \   00004B   7003         JNZ     $+5
   \   00004D   02....       LJMP    ??Node_auth_uart_msg_process_4 & 0xFFFF
   \   000050   24FB         ADD     A,#-0x5
   \   000052   7003         JNZ     $+5
   \   000054   02....       LJMP    ??Node_auth_uart_msg_process_5 & 0xFFFF
   \   000057   24F8         ADD     A,#-0x8
   \   000059   7003         JNZ     $+5
   \   00005B   02....       LJMP    ??Node_auth_uart_msg_process_6 & 0xFFFF
   \   00005E   02....       LJMP    ??Node_auth_uart_msg_process_0 & 0xFFFF
    297              {
    298                  case NODE_AUTH_MSG_CMD_COUNT: 
    299                      Mail_uplink_registered_cnt(port);
   \                     ??Node_auth_uart_msg_process_2:
   \   000061                ; Setup parameters for call to function Mail_uplink_registered_cnt
   \   000061   A9..         MOV     R1,?V0
   \   000063   12....       LCALL   `??Mail_uplink_registered_cnt::?relay`; Banked call to: Mail_uplink_registered_cnt
    300                      break;
   \   000066   02....       LJMP    ??Node_auth_uart_msg_process_0 & 0xFFFF
    301                  case NODE_AUTH_MSG_CMD_GET:
    302                      if (len != 4) break;
   \                     ??Node_auth_uart_msg_process_3:
   \   000069   7404         MOV     A,#0x4
   \   00006B   65..         XRL     A,?V8
   \   00006D   6003         JZ      $+5
   \   00006F   02....       LJMP    ??Node_auth_uart_msg_process_0 & 0xFFFF
    303                      for (idx = i = 0; i < sizeof(idx); ++i)
   \   000072   75..00       MOV     ?V1,#0x0
   \   000075   E5..         MOV     A,?V1
   \   000077   FA           MOV     R2,A
   \   000078   E4           CLR     A
   \   000079   FB           MOV     R3,A
   \   00007A   FC           MOV     R4,A
   \   00007B   FD           MOV     R5,A
   \   00007C   7401         MOV     A,#0x1
   \   00007E   12....       LCALL   ?XSTACK_DISP0_8
   \   000081   EA           MOV     A,R2
   \   000082   F0           MOVX    @DPTR,A
   \   000083   A3           INC     DPTR
   \   000084   EB           MOV     A,R3
   \   000085   F0           MOVX    @DPTR,A
   \   000086   A3           INC     DPTR
   \   000087   EC           MOV     A,R4
   \   000088   F0           MOVX    @DPTR,A
   \   000089   A3           INC     DPTR
   \   00008A   ED           MOV     A,R5
   \   00008B   F0           MOVX    @DPTR,A
   \                     ??Node_auth_uart_msg_process_7:
   \   00008C   E5..         MOV     A,?V1
   \   00008E   C3           CLR     C
   \   00008F   9404         SUBB    A,#0x4
   \   000091   504D         JNC     ??Node_auth_uart_msg_process_8
    304                      {
    305                          idx <<= 8;
   \   000093   7401         MOV     A,#0x1
   \   000095   12....       LCALL   ?XSTACK_DISP0_8
   \   000098   78..         MOV     R0,#?V4
   \   00009A   12....       LCALL   ?L_MOV_X
   \   00009D   7408         MOV     A,#0x8
   \   00009F   78..         MOV     R0,#?V4
   \   0000A1   12....       LCALL   ?L_SHL
   \   0000A4   AA..         MOV     R2,?V4
   \   0000A6   AB..         MOV     R3,?V5
   \   0000A8   AC..         MOV     R4,?V6
   \   0000AA   AD..         MOV     R5,?V7
   \   0000AC   7401         MOV     A,#0x1
   \   0000AE   12....       LCALL   ?XSTACK_DISP0_8
   \   0000B1   EA           MOV     A,R2
   \   0000B2   F0           MOVX    @DPTR,A
   \   0000B3   A3           INC     DPTR
   \   0000B4   EB           MOV     A,R3
   \   0000B5   F0           MOVX    @DPTR,A
   \   0000B6   A3           INC     DPTR
   \   0000B7   EC           MOV     A,R4
   \   0000B8   F0           MOVX    @DPTR,A
   \   0000B9   A3           INC     DPTR
   \   0000BA   ED           MOV     A,R5
   \   0000BB   F0           MOVX    @DPTR,A
    306                          idx |= buf[i];
   \   0000BC   A8..         MOV     R0,?V1
   \   0000BE   7900         MOV     R1,#0x0
   \   0000C0   EE           MOV     A,R6
   \   0000C1   28           ADD     A,R0
   \   0000C2   F582         MOV     DPL,A
   \   0000C4   EF           MOV     A,R7
   \   0000C5   39           ADDC    A,R1
   \   0000C6   F583         MOV     DPH,A
   \   0000C8   E0           MOVX    A,@DPTR
   \   0000C9   F5..         MOV     ?V4,A
   \   0000CB   E4           CLR     A
   \   0000CC   F5..         MOV     ?V5,A
   \   0000CE   F5..         MOV     ?V6,A
   \   0000D0   F5..         MOV     ?V7,A
   \   0000D2   7401         MOV     A,#0x1
   \   0000D4   12....       LCALL   ?XSTACK_DISP0_8
   \   0000D7   78..         MOV     R0,#?V4
   \   0000D9   12....       LCALL   ?L_IOR_TO_X
    307                      }
   \   0000DC   05..         INC     ?V1
   \   0000DE   80AC         SJMP    ??Node_auth_uart_msg_process_7
    308                      if (Authlist_get(idx, key, &keylen) > 0)
   \                     ??Node_auth_uart_msg_process_8:
   \   0000E0                ; Setup parameters for call to function Authlist_get
   \   0000E0   A8..         MOV     R0,?XSP + 0
   \   0000E2   A9..         MOV     R1,?XSP + 1
   \   0000E4   88..         MOV     ?V4,R0
   \   0000E6   89..         MOV     ?V5,R1
   \   0000E8   78..         MOV     R0,#?V4
   \   0000EA   12....       LCALL   ?PUSH_XSTACK_I_TWO
   \   0000ED   7407         MOV     A,#0x7
   \   0000EF   12....       LCALL   ?XSTACK_DISP100_8
   \   0000F2   88..         MOV     ?V4,R0
   \   0000F4   89..         MOV     ?V5,R1
   \   0000F6   78..         MOV     R0,#?V4
   \   0000F8   12....       LCALL   ?PUSH_XSTACK_I_TWO
   \   0000FB   7405         MOV     A,#0x5
   \   0000FD   12....       LCALL   ?XSTACK_DISP0_8
   \   000100   12....       LCALL   ?XLOAD_R2345
   \   000103   12....       LCALL   `??Authlist_get::?relay`; Banked call to: Authlist_get
   \   000106   7404         MOV     A,#0x4
   \   000108   12....       LCALL   ?DEALLOC_XSTACK8
   \   00010B   E9           MOV     A,R1
   \   00010C   7003         JNZ     $+5
   \   00010E   02....       LJMP    ??Node_auth_uart_msg_process_0 & 0xFFFF
    309                      {
    310                          for (nodeSearch = nodeList; (nodeSearch != NULL);nodeSearch = nodeSearch->nextDesc)
   \   000111   90....       MOV     DPTR,#nodeList
   \   000114   E0           MOVX    A,@DPTR
   \   000115   F8           MOV     R0,A
   \   000116   A3           INC     DPTR
   \   000117   E0           MOVX    A,@DPTR
   \   000118   F9           MOV     R1,A
   \   000119   88..         MOV     ?V2,R0
   \   00011B   89..         MOV     ?V3,R1
   \                     ??Node_auth_uart_msg_process_9:
   \   00011D   E5..         MOV     A,?V2
   \   00011F   45..         ORL     A,?V3
   \   000121   6073         JZ      ??Node_auth_uart_msg_process_10
    311                          {
    312                              if (memcmp(key, &nodeSearch->devAddr64, 8) == 0)
   \   000123                ; Setup parameters for call to function memcmp
   \   000123   75..08       MOV     ?V4,#0x8
   \   000126   75..00       MOV     ?V5,#0x0
   \   000129   78..         MOV     R0,#?V4
   \   00012B   12....       LCALL   ?PUSH_XSTACK_I_TWO
   \   00012E   E5..         MOV     A,?V2
   \   000130   2402         ADD     A,#0x2
   \   000132   FC           MOV     R4,A
   \   000133   E4           CLR     A
   \   000134   35..         ADDC    A,?V3
   \   000136   FD           MOV     R5,A
   \   000137   7407         MOV     A,#0x7
   \   000139   12....       LCALL   ?XSTACK_DISP101_8
   \   00013C   12....       LCALL   `??memcmp::?relay`   ; Banked call to: memcmp
   \   00013F   7402         MOV     A,#0x2
   \   000141   12....       LCALL   ?DEALLOC_XSTACK8
   \   000144   8A..         MOV     ?V4,R2
   \   000146   8B..         MOV     ?V5,R3
   \   000148   E5..         MOV     A,?V4
   \   00014A   45..         ORL     A,?V5
   \   00014C   7039         JNZ     ??Node_auth_uart_msg_process_11
    313                              {
    314          				key[AUTH_LIST_KEY_LEN] = BREAK_UINT16(nodeSearch->devAddr16.addr.shortAddr, 1); 
   \   00014E   E5..         MOV     A,?V2
   \   000150   240E         ADD     A,#0xe
   \   000152   F582         MOV     DPL,A
   \   000154   E4           CLR     A
   \   000155   35..         ADDC    A,?V3
   \   000157   F583         MOV     DPH,A
   \   000159   E0           MOVX    A,@DPTR
   \   00015A   F8           MOV     R0,A
   \   00015B   A3           INC     DPTR
   \   00015C   E0           MOVX    A,@DPTR
   \   00015D   F9           MOV     R1,A
   \   00015E   E4           CLR     A
   \   00015F   C9           XCH     A,R1
   \   000160   F8           MOV     R0,A
   \   000161   E8           MOV     A,R0
   \   000162   C0E0         PUSH    A
   \   000164   740D         MOV     A,#0xd
   \   000166   12....       LCALL   ?XSTACK_DISP0_8
   \   000169   D0E0         POP     A
   \   00016B   F0           MOVX    @DPTR,A
    315          				key[AUTH_LIST_KEY_LEN+1] = BREAK_UINT16(nodeSearch->devAddr16.addr.shortAddr, 0);
   \   00016C   E5..         MOV     A,?V2
   \   00016E   240E         ADD     A,#0xe
   \   000170   F582         MOV     DPL,A
   \   000172   E4           CLR     A
   \   000173   35..         ADDC    A,?V3
   \   000175   F583         MOV     DPH,A
   \   000177   E0           MOVX    A,@DPTR
   \   000178   F8           MOV     R0,A
   \   000179   A3           INC     DPTR
   \   00017A   E0           MOVX    A,@DPTR
   \   00017B   F9           MOV     R1,A
   \   00017C   E8           MOV     A,R0
   \   00017D   C0E0         PUSH    A
   \   00017F   740E         MOV     A,#0xe
   \   000181   12....       LCALL   ?XSTACK_DISP0_8
   \   000184   D0E0         POP     A
   \   000186   F0           MOVX    @DPTR,A
    316                              }	
    317                          }		
   \                     ??Node_auth_uart_msg_process_11:
   \   000187   85..82       MOV     DPL,?V2
   \   00018A   85..83       MOV     DPH,?V3
   \   00018D   E0           MOVX    A,@DPTR
   \   00018E   F5..         MOV     ?V2,A
   \   000190   A3           INC     DPTR
   \   000191   E0           MOVX    A,@DPTR
   \   000192   F5..         MOV     ?V3,A
   \   000194   8087         SJMP    ??Node_auth_uart_msg_process_9
    318                          Mail_uplink_key(port, idx, key);
   \                     ??Node_auth_uart_msg_process_10:
   \   000196                ; Setup parameters for call to function Mail_uplink_key
   \   000196   7405         MOV     A,#0x5
   \   000198   12....       LCALL   ?XSTACK_DISP100_8
   \   00019B   88..         MOV     ?V4,R0
   \   00019D   89..         MOV     ?V5,R1
   \   00019F   78..         MOV     R0,#?V4
   \   0001A1   12....       LCALL   ?PUSH_XSTACK_I_TWO
   \   0001A4   7403         MOV     A,#0x3
   \   0001A6   12....       LCALL   ?XSTACK_DISP0_8
   \   0001A9   12....       LCALL   ?XLOAD_R2345
   \   0001AC   A9..         MOV     R1,?V0
   \   0001AE   12....       LCALL   `??Mail_uplink_key::?relay`; Banked call to: Mail_uplink_key
   \   0001B1   7402         MOV     A,#0x2
   \   0001B3   12....       LCALL   ?DEALLOC_XSTACK8
    319                      }				
    320                      break;
   \   0001B6   8075         SJMP    ??Node_auth_uart_msg_process_0
    321                  case NODE_AUTH_MSG_CMD_WIPE:
    322                      Set_registered_num(0);
   \                     ??Node_auth_uart_msg_process_5:
   \   0001B8                ; Setup parameters for call to function Set_registered_num
   \   0001B8   90....       MOV     DPTR,#__Constant_0
   \   0001BB   12....       LCALL   ?XLOAD_R2345
   \   0001BE   12....       LCALL   `??Set_registered_num::?relay`; Banked call to: Set_registered_num
    323                      Node_auth_wipe();
   \   0001C1                ; Setup parameters for call to function Node_auth_wipe
   \   0001C1   12....       LCALL   `??Node_auth_wipe::?relay`; Banked call to: Node_auth_wipe
    324                      Mail_uplink_registered_cnt(port);
   \   0001C4                ; Setup parameters for call to function Mail_uplink_registered_cnt
   \   0001C4   A9..         MOV     R1,?V0
   \   0001C6   12....       LCALL   `??Mail_uplink_registered_cnt::?relay`; Banked call to: Mail_uplink_registered_cnt
    325                      break;
   \   0001C9   8062         SJMP    ??Node_auth_uart_msg_process_0
    326                  case NODE_AUTH_MSG_CMD_ADD:
    327                      if (Authlist_add(buf, len, &idx) > 0) {
   \                     ??Node_auth_uart_msg_process_1:
   \   0001CB                ; Setup parameters for call to function Authlist_add
   \   0001CB   7401         MOV     A,#0x1
   \   0001CD   12....       LCALL   ?XSTACK_DISP102_8
   \   0001D0   A9..         MOV     R1,?V8
   \   0001D2   EE           MOV     A,R6
   \   0001D3   FA           MOV     R2,A
   \   0001D4   EF           MOV     A,R7
   \   0001D5   FB           MOV     R3,A
   \   0001D6   12....       LCALL   `??Authlist_add::?relay`; Banked call to: Authlist_add
   \   0001D9   E9           MOV     A,R1
   \   0001DA   6051         JZ      ??Node_auth_uart_msg_process_0
    328                          Mail_uplink_registered_cnt(port);
   \   0001DC                ; Setup parameters for call to function Mail_uplink_registered_cnt
   \   0001DC   A9..         MOV     R1,?V0
   \   0001DE   12....       LCALL   `??Mail_uplink_registered_cnt::?relay`; Banked call to: Mail_uplink_registered_cnt
    329                      }
    330                      break;
   \   0001E1   804A         SJMP    ??Node_auth_uart_msg_process_0
    331                  case NODE_AUTH_MSG_CMD_DEL:
    332                      deltype = *buf++;
   \                     ??Node_auth_uart_msg_process_4:
   \   0001E3   8E82         MOV     DPL,R6
   \   0001E5   8F83         MOV     DPH,R7
   \   0001E7   E0           MOVX    A,@DPTR
   \   0001E8   F5..         MOV     ?V9,A
   \   0001EA   8E82         MOV     DPL,R6
   \   0001EC   8F83         MOV     DPH,R7
   \   0001EE   A3           INC     DPTR
   \   0001EF   AE82         MOV     R6,DPL
   \   0001F1   AF83         MOV     R7,DPH
    333          	     if (0x01 == deltype)
   \   0001F3   7401         MOV     A,#0x1
   \   0001F5   65..         XRL     A,?V9
   \   0001F7   7018         JNZ     ??Node_auth_uart_msg_process_12
    334          	     {
    335          	     	Authlist_del(buf, len-1, &idx);
   \   0001F9                ; Setup parameters for call to function Authlist_del
   \   0001F9   7401         MOV     A,#0x1
   \   0001FB   12....       LCALL   ?XSTACK_DISP102_8
   \   0001FE   74FF         MOV     A,#-0x1
   \   000200   25..         ADD     A,?V8
   \   000202   F9           MOV     R1,A
   \   000203   EE           MOV     A,R6
   \   000204   FA           MOV     R2,A
   \   000205   EF           MOV     A,R7
   \   000206   FB           MOV     R3,A
   \   000207   12....       LCALL   `??Authlist_del::?relay`; Banked call to: Authlist_del
    336                        Mail_uplink_registered_cnt(port);
   \   00020A                ; Setup parameters for call to function Mail_uplink_registered_cnt
   \   00020A   A9..         MOV     R1,?V0
   \   00020C   12....       LCALL   `??Mail_uplink_registered_cnt::?relay`; Banked call to: Mail_uplink_registered_cnt
   \   00020F   801C         SJMP    ??Node_auth_uart_msg_process_0
    337          	     }
    338          	     else if (0xff == deltype)
   \                     ??Node_auth_uart_msg_process_12:
   \   000211   74FF         MOV     A,#-0x1
   \   000213   65..         XRL     A,?V9
   \   000215   7016         JNZ     ??Node_auth_uart_msg_process_0
    339          	     {
    340          	       Set_registered_num(0);
   \   000217                ; Setup parameters for call to function Set_registered_num
   \   000217   90....       MOV     DPTR,#__Constant_0
   \   00021A   12....       LCALL   ?XLOAD_R2345
   \   00021D   12....       LCALL   `??Set_registered_num::?relay`; Banked call to: Set_registered_num
    341                        Node_auth_wipe();
   \   000220                ; Setup parameters for call to function Node_auth_wipe
   \   000220   12....       LCALL   `??Node_auth_wipe::?relay`; Banked call to: Node_auth_wipe
    342                        Mail_uplink_registered_cnt(port);
   \   000223                ; Setup parameters for call to function Mail_uplink_registered_cnt
   \   000223   A9..         MOV     R1,?V0
   \   000225   12....       LCALL   `??Mail_uplink_registered_cnt::?relay`; Banked call to: Mail_uplink_registered_cnt
    343          	     }
    344                      break;
   \   000228   8003         SJMP    ??Node_auth_uart_msg_process_0
    345                  case NODE_AUTH_MSG_CMD_RESET_NET:
    346                      SystemResetSoft();
   \                     ??Node_auth_uart_msg_process_6:
   \   00022A                ; Setup parameters for call to function Onboard_soft_reset
   \   00022A   12....       LCALL   Onboard_soft_reset & 0xFFFF
    347                      break;
    348                  default:
    349                      break;
    350              }
    351              return;
   \                     ??Node_auth_uart_msg_process_0:
   \   00022D   740F         MOV     A,#0xf
   \   00022F   12....       LCALL   ?DEALLOC_XSTACK8
   \   000232   7F0C         MOV     R7,#0xc
   \   000234   02....       LJMP    ?BANKED_LEAVE_XDATA
    352          }
    353          
    354          /*********************************************************************
    355           * LOCAL VARIABLES
    356           */
    357          
    358          /*********************************************************************
    359           * LOCAL FUNCTIONS
    360           */
    361          

   \                                 In  segment BANKED_CODE, align 1, keep-with-next
    362          static void Set_registered_num(uint32 num)
   \                     Set_registered_num:
    363          {
   \   000000                REQUIRE ?V0
   \   000000                REQUIRE ?V1
   \   000000                REQUIRE ?V2
   \   000000                REQUIRE ?V3
   \   000000                REQUIRE ?V4
   \   000000                REQUIRE ?V5
   \   000000   74F2         MOV     A,#-0xe
   \   000002   12....       LCALL   ?BANKED_ENTER_XDATA
   \   000005                ; Saved register size: 14
   \   000005                ; Auto size: 0
   \   000005   8A..         MOV     ?V0,R2
   \   000007   8B..         MOV     ?V1,R3
   \   000009   8C..         MOV     ?V2,R4
   \   00000B   8D..         MOV     ?V3,R5
    364              gAuthConfig.auth_registered_num = num;
   \   00000D   90....       MOV     DPTR,#gAuthConfig + 4
   \   000010   78..         MOV     R0,#?V0
   \   000012   12....       LCALL   ?L_MOV_TO_X
    365              osal_nv_write(APP_NV_AUTH_GLOBAL_CONFIG, 0, sizeof(gAuthConfig), (void*)&gAuthConfig);
   \   000015                ; Setup parameters for call to function osal_nv_write
   \   000015   75....       MOV     ?V4,#gAuthConfig & 0xff
   \   000018   75....       MOV     ?V5,#(gAuthConfig >> 8) & 0xff
   \   00001B   78..         MOV     R0,#?V4
   \   00001D   12....       LCALL   ?PUSH_XSTACK_I_TWO
   \   000020   75..08       MOV     ?V4,#0x8
   \   000023   75..00       MOV     ?V5,#0x0
   \   000026   78..         MOV     R0,#?V4
   \   000028   12....       LCALL   ?PUSH_XSTACK_I_TWO
   \   00002B   7C00         MOV     R4,#0x0
   \   00002D   7D00         MOV     R5,#0x0
   \   00002F   7A01         MOV     R2,#0x1
   \   000031   7B04         MOV     R3,#0x4
   \   000033   12....       LCALL   `??osal_nv_write::?relay`; Banked call to: osal_nv_write
   \   000036   7404         MOV     A,#0x4
   \   000038   12....       LCALL   ?DEALLOC_XSTACK8
   \   00003B   E9           MOV     A,R1
    366          }
   \   00003C   7F06         MOV     R7,#0x6
   \   00003E   02....       LJMP    ?BANKED_LEAVE_XDATA
    367          
    368          

   \                                 In  segment BANKED_CODE, align 1, keep-with-next
    369          static uint16 Mail_uplink(uint8 port, uint8 cmd, uint8 len, void* buf)
   \                     Mail_uplink:
    370          {
   \   000000                REQUIRE ?V0
   \   000000                REQUIRE ?V1
   \   000000                REQUIRE ?V2
   \   000000                REQUIRE ?V4
   \   000000                REQUIRE ?V5
   \   000000                REQUIRE ?V6
   \   000000                REQUIRE ?V8
   \   000000                REQUIRE ?V9
   \   000000   74EE         MOV     A,#-0x12
   \   000002   12....       LCALL   ?BANKED_ENTER_XDATA
   \   000005                ; Saved register size: 18
   \   000005                ; Auto size: 20
   \   000005   74EC         MOV     A,#-0x14
   \   000007   12....       LCALL   ?ALLOC_XSTACK8
   \   00000A   89..         MOV     ?V2,R1
   \   00000C   8A..         MOV     ?V0,R2
   \   00000E   8B..         MOV     ?V1,R3
   \   000010   8C..         MOV     ?V8,R4
   \   000012   8D..         MOV     ?V9,R5
    371              uint8 uartpbuf[20];
    372              uint16 rc;
    373              
    374              if (uartpbuf == NULL || buf == NULL || len == 0)
   \   000014   85..82       MOV     DPL,?XSP + 0
   \   000017   85..83       MOV     DPH,?XSP + 1
   \   00001A   E582         MOV     A,DPL
   \   00001C   4583         ORL     A,DPH
   \   00001E   600A         JZ      ??Mail_uplink_0
   \   000020   E5..         MOV     A,?V8
   \   000022   45..         ORL     A,?V9
   \   000024   6004         JZ      ??Mail_uplink_0
   \   000026   E5..         MOV     A,?V1
   \   000028   7007         JNZ     ??Mail_uplink_1
    375                  return 0;
   \                     ??Mail_uplink_0:
   \   00002A   7A00         MOV     R2,#0x0
   \   00002C   7B00         MOV     R3,#0x0
   \   00002E   02....       LJMP    ??Mail_uplink_2 & 0xFFFF
    376          
    377              uartpbuf[0] = 0xFE;
   \                     ??Mail_uplink_1:
   \   000031   85..82       MOV     DPL,?XSP + 0
   \   000034   85..83       MOV     DPH,?XSP + 1
   \   000037   74FE         MOV     A,#-0x2
   \   000039   F0           MOVX    @DPTR,A
    378              uartpbuf[1] = len;
   \   00003A   E5..         MOV     A,?V1
   \   00003C   C0E0         PUSH    A
   \   00003E   7401         MOV     A,#0x1
   \   000040   12....       LCALL   ?XSTACK_DISP0_8
   \   000043   D0E0         POP     A
   \   000045   F0           MOVX    @DPTR,A
    379              uartpbuf[2] = NODE_AUTH_MSG_DIR_UPLINK;
   \   000046   7402         MOV     A,#0x2
   \   000048   12....       LCALL   ?XSTACK_DISP0_8
   \   00004B   7480         MOV     A,#-0x80
   \   00004D   F0           MOVX    @DPTR,A
    380              uartpbuf[3] = cmd;
   \   00004E   E5..         MOV     A,?V0
   \   000050   C0E0         PUSH    A
   \   000052   7403         MOV     A,#0x3
   \   000054   12....       LCALL   ?XSTACK_DISP0_8
   \   000057   D0E0         POP     A
   \   000059   F0           MOVX    @DPTR,A
    381              osal_memcpy(&uartpbuf[4], buf, len);
   \   00005A                ; Setup parameters for call to function osal_memcpy
   \   00005A   85....       MOV     ?V4,?V8
   \   00005D   85....       MOV     ?V5,?V9
   \   000060   75..00       MOV     ?V6,#0x0
   \   000063   78..         MOV     R0,#?V4
   \   000065   12....       LCALL   ?PUSH_XSTACK_I_THREE
   \   000068   AC..         MOV     R4,?V1
   \   00006A   7D00         MOV     R5,#0x0
   \   00006C   7407         MOV     A,#0x7
   \   00006E   12....       LCALL   ?XSTACK_DISP0_8
   \   000071   AA82         MOV     R2,DPL
   \   000073   AB83         MOV     R3,DPH
   \   000075   12....       LCALL   `??osal_memcpy::?relay`; Banked call to: osal_memcpy
   \   000078   7403         MOV     A,#0x3
   \   00007A   12....       LCALL   ?DEALLOC_XSTACK8
    382          
    383          #ifdef OPEN_FCS
    384              uartpbuf[len+4] = MT_UartCalcFCS(&uartpbuf[1], len+3);
   \   00007D                ; Setup parameters for call to function MT_UartCalcFCS
   \   00007D   7403         MOV     A,#0x3
   \   00007F   25..         ADD     A,?V1
   \   000081   F9           MOV     R1,A
   \   000082   7401         MOV     A,#0x1
   \   000084   12....       LCALL   ?XSTACK_DISP0_8
   \   000087   AA82         MOV     R2,DPL
   \   000089   AB83         MOV     R3,DPH
   \   00008B   12....       LCALL   `??MT_UartCalcFCS::?relay`; Banked call to: MT_UartCalcFCS
   \   00008E   E9           MOV     A,R1
   \   00008F   C0E0         PUSH    A
   \   000091   A8..         MOV     R0,?V1
   \   000093   7900         MOV     R1,#0x0
   \   000095   85..82       MOV     DPL,?XSP + 0
   \   000098   85..83       MOV     DPH,?XSP + 1
   \   00009B   E582         MOV     A,DPL
   \   00009D   28           ADD     A,R0
   \   00009E   F582         MOV     DPL,A
   \   0000A0   E583         MOV     A,DPH
   \   0000A2   39           ADDC    A,R1
   \   0000A3   F583         MOV     DPH,A
   \   0000A5   A3           INC     DPTR
   \   0000A6   A3           INC     DPTR
   \   0000A7   A3           INC     DPTR
   \   0000A8   A3           INC     DPTR
   \   0000A9   D0E0         POP     A
   \   0000AB   F0           MOVX    @DPTR,A
    385          #else
    386              uartpbuf[len+4] = DEFAULTFCS;  
    387          #endif
    388              rc = HalUARTWrite(port, uartpbuf, len+5);    
   \   0000AC                ; Setup parameters for call to function HalUARTWrite
   \   0000AC   A8..         MOV     R0,?V1
   \   0000AE   7900         MOV     R1,#0x0
   \   0000B0   E8           MOV     A,R0
   \   0000B1   2405         ADD     A,#0x5
   \   0000B3   FC           MOV     R4,A
   \   0000B4   E4           CLR     A
   \   0000B5   39           ADDC    A,R1
   \   0000B6   FD           MOV     R5,A
   \   0000B7   AA..         MOV     R2,?XSP + 0
   \   0000B9   AB..         MOV     R3,?XSP + 1
   \   0000BB   A9..         MOV     R1,?V2
   \   0000BD   12....       LCALL   `??HalUARTWrite::?relay`; Banked call to: HalUARTWrite
   \   0000C0   8A..         MOV     ?V4,R2
   \   0000C2   8B..         MOV     ?V5,R3
   \   0000C4   AE..         MOV     R6,?V4
   \   0000C6   AF..         MOV     R7,?V5
    389              return rc;
   \   0000C8   EE           MOV     A,R6
   \   0000C9   FA           MOV     R2,A
   \   0000CA   EF           MOV     A,R7
   \   0000CB   FB           MOV     R3,A
   \                     ??Mail_uplink_2:
   \   0000CC   7414         MOV     A,#0x14
   \   0000CE   12....       LCALL   ?DEALLOC_XSTACK8
   \   0000D1   7F0A         MOV     R7,#0xa
   \   0000D3   02....       LJMP    ?BANKED_LEAVE_XDATA
    390          
    391          }
    392          
    393          

   \                                 In  segment BANKED_CODE, align 1, keep-with-next
    394          static inline uint16 Mail_uplink_registered_cnt(uint8 port)
   \                     Mail_uplink_registered_cnt:
    395          {
   \   000000                REQUIRE ?V0
   \   000000                REQUIRE ?V1
   \   000000                REQUIRE ?V2
   \   000000                REQUIRE ?V3
   \   000000                REQUIRE ?V4
   \   000000                REQUIRE ?V5
   \   000000                REQUIRE ?V6
   \   000000                REQUIRE ?V7
   \   000000                REQUIRE ?V8
   \   000000                REQUIRE ?V9
   \   000000                REQUIRE ?V10
   \   000000                REQUIRE ?V11
   \   000000   74EC         MOV     A,#-0x14
   \   000002   12....       LCALL   ?BANKED_ENTER_XDATA
   \   000005                ; Saved register size: 20
   \   000005                ; Auto size: 4
   \   000005   74FC         MOV     A,#-0x4
   \   000007   12....       LCALL   ?ALLOC_XSTACK8
   \   00000A   E9           MOV     A,R1
   \   00000B   FE           MOV     R6,A
    396              uint32 n = Authlist_item_cnt();
   \   00000C                ; Setup parameters for call to function Authlist_item_cnt
   \   00000C   12....       LCALL   `??Authlist_item_cnt::?relay`; Banked call to: Authlist_item_cnt
   \   00000F   E9           MOV     A,R1
   \   000010   F5..         MOV     ?V8,A
   \   000012   E4           CLR     A
   \   000013   F5..         MOV     ?V9,A
   \   000015   F5..         MOV     ?V10,A
   \   000017   F5..         MOV     ?V11,A
    397              uint32 n_be =
    398                  ((n >> 24) & 0xff) |
    399                  ((n >>  8) & 0xff00) |
    400                  ((n <<  8) & 0xff0000) |
    401                  ((n << 24) & 0xff000000);
   \   000019   85....       MOV     ?V4,?V8
   \   00001C   85....       MOV     ?V5,?V9
   \   00001F   85....       MOV     ?V6,?V10
   \   000022   85....       MOV     ?V7,?V11
   \   000025   7418         MOV     A,#0x18
   \   000027   78..         MOV     R0,#?V4
   \   000029   12....       LCALL   ?UL_SHR
   \   00002C   85....       MOV     ?V0,?V8
   \   00002F   85....       MOV     ?V1,?V9
   \   000032   85....       MOV     ?V2,?V10
   \   000035   85....       MOV     ?V3,?V11
   \   000038   7408         MOV     A,#0x8
   \   00003A   78..         MOV     R0,#?V0
   \   00003C   12....       LCALL   ?UL_SHR
   \   00003F   90....       MOV     DPTR,#__Constant_ff00
   \   000042   78..         MOV     R0,#?V0
   \   000044   12....       LCALL   ?L_AND_X
   \   000047   78..         MOV     R0,#?V4
   \   000049   79..         MOV     R1,#?V0
   \   00004B   12....       LCALL   ?L_IOR
   \   00004E   85....       MOV     ?V0,?V8
   \   000051   85....       MOV     ?V1,?V9
   \   000054   85....       MOV     ?V2,?V10
   \   000057   85....       MOV     ?V3,?V11
   \   00005A   7408         MOV     A,#0x8
   \   00005C   78..         MOV     R0,#?V0
   \   00005E   12....       LCALL   ?L_SHL
   \   000061   90....       MOV     DPTR,#__Constant_ff0000
   \   000064   78..         MOV     R0,#?V0
   \   000066   12....       LCALL   ?L_AND_X
   \   000069   78..         MOV     R0,#?V4
   \   00006B   79..         MOV     R1,#?V0
   \   00006D   12....       LCALL   ?L_IOR
   \   000070   85....       MOV     ?V0,?V8
   \   000073   85....       MOV     ?V1,?V9
   \   000076   85....       MOV     ?V2,?V10
   \   000079   85....       MOV     ?V3,?V11
   \   00007C   7418         MOV     A,#0x18
   \   00007E   78..         MOV     R0,#?V0
   \   000080   12....       LCALL   ?L_SHL
   \   000083   78..         MOV     R0,#?V4
   \   000085   79..         MOV     R1,#?V0
   \   000087   12....       LCALL   ?L_IOR
   \   00008A   85..82       MOV     DPL,?XSP + 0
   \   00008D   85..83       MOV     DPH,?XSP + 1
   \   000090   78..         MOV     R0,#?V4
   \   000092   12....       LCALL   ?L_MOV_TO_X
    402              return Mail_uplink(port, NODE_AUTH_MSG_CMD_COUNT, 4, &n_be);
   \   000095                ; Setup parameters for call to function Mail_uplink
   \   000095   AC..         MOV     R4,?XSP + 0
   \   000097   AD..         MOV     R5,?XSP + 1
   \   000099   7B04         MOV     R3,#0x4
   \   00009B   7A31         MOV     R2,#0x31
   \   00009D   EE           MOV     A,R6
   \   00009E   F9           MOV     R1,A
   \   00009F   12....       LCALL   `??Mail_uplink::?relay`; Banked call to: Mail_uplink
   \   0000A2   7404         MOV     A,#0x4
   \   0000A4   12....       LCALL   ?DEALLOC_XSTACK8
   \   0000A7   7F0C         MOV     R7,#0xc
   \   0000A9   02....       LJMP    ?BANKED_LEAVE_XDATA
    403          }
    404          
    405          

   \                                 In  segment BANKED_CODE, align 1, keep-with-next
    406          static inline uint16 Mail_uplink_key(uint8 port, uint32 index, uint8 const* key)  //chaokw
   \                     Mail_uplink_key:
    407          {
   \   000000                REQUIRE ?V0
   \   000000                REQUIRE ?V1
   \   000000                REQUIRE ?V2
   \   000000                REQUIRE ?V3
   \   000000                REQUIRE ?V4
   \   000000                REQUIRE ?V5
   \   000000                REQUIRE ?V6
   \   000000                REQUIRE ?V7
   \   000000                REQUIRE ?V8
   \   000000                REQUIRE ?V9
   \   000000   74EE         MOV     A,#-0x12
   \   000002   12....       LCALL   ?BANKED_ENTER_XDATA
   \   000005                ; Saved register size: 18
   \   000005                ; Auto size: 14
   \   000005   74F2         MOV     A,#-0xe
   \   000007   12....       LCALL   ?ALLOC_XSTACK8
   \   00000A   E9           MOV     A,R1
   \   00000B   FF           MOV     R7,A
   \   00000C   8A..         MOV     ?V0,R2
   \   00000E   8B..         MOV     ?V1,R3
   \   000010   8C..         MOV     ?V2,R4
   \   000012   8D..         MOV     ?V3,R5
   \   000014   7420         MOV     A,#0x20
   \   000016   12....       LCALL   ?XSTACK_DISP0_8
   \   000019   E0           MOVX    A,@DPTR
   \   00001A   F5..         MOV     ?V8,A
   \   00001C   A3           INC     DPTR
   \   00001D   E0           MOVX    A,@DPTR
   \   00001E   F5..         MOV     ?V9,A
    408              uint8 buf[sizeof(index) + AUTH_LIST_KEY_LEN+2];
    409              uint8 i;
    410          
    411              for (i = 0; i < sizeof(index); i++) {
   \   000020   7E00         MOV     R6,#0x0
   \                     ??Mail_uplink_key_0:
   \   000022   EE           MOV     A,R6
   \   000023   C3           CLR     C
   \   000024   9404         SUBB    A,#0x4
   \   000026   5037         JNC     ??Mail_uplink_key_1
    412                  buf[i] = (uint8)((index >> (8 * (sizeof(index) - i - 1))) & 0xff);
   \   000028   85....       MOV     ?V4,?V0
   \   00002B   85....       MOV     ?V5,?V1
   \   00002E   85....       MOV     ?V6,?V2
   \   000031   85....       MOV     ?V7,?V3
   \   000034   75F008       MOV     B,#0x8
   \   000037   7403         MOV     A,#0x3
   \   000039   C3           CLR     C
   \   00003A   9E           SUBB    A,R6
   \   00003B   A4           MUL     AB
   \   00003C   78..         MOV     R0,#?V4
   \   00003E   12....       LCALL   ?UL_SHR
   \   000041   E5..         MOV     A,?V4
   \   000043   C0E0         PUSH    A
   \   000045   EE           MOV     A,R6
   \   000046   F8           MOV     R0,A
   \   000047   7900         MOV     R1,#0x0
   \   000049   85..82       MOV     DPL,?XSP + 0
   \   00004C   85..83       MOV     DPH,?XSP + 1
   \   00004F   E582         MOV     A,DPL
   \   000051   28           ADD     A,R0
   \   000052   F582         MOV     DPL,A
   \   000054   E583         MOV     A,DPH
   \   000056   39           ADDC    A,R1
   \   000057   F583         MOV     DPH,A
   \   000059   D0E0         POP     A
   \   00005B   F0           MOVX    @DPTR,A
    413              }
   \   00005C   0E           INC     R6
   \   00005D   80C3         SJMP    ??Mail_uplink_key_0
    414          
    415              osal_memcpy(&buf[i], key, AUTH_LIST_KEY_LEN+2);
   \                     ??Mail_uplink_key_1:
   \   00005F                ; Setup parameters for call to function osal_memcpy
   \   00005F   85....       MOV     ?V4,?V8
   \   000062   85....       MOV     ?V5,?V9
   \   000065   75..00       MOV     ?V6,#0x0
   \   000068   78..         MOV     R0,#?V4
   \   00006A   12....       LCALL   ?PUSH_XSTACK_I_THREE
   \   00006D   7C0A         MOV     R4,#0xa
   \   00006F   7D00         MOV     R5,#0x0
   \   000071   EE           MOV     A,R6
   \   000072   F8           MOV     R0,A
   \   000073   7900         MOV     R1,#0x0
   \   000075   7403         MOV     A,#0x3
   \   000077   12....       LCALL   ?XSTACK_DISP0_8
   \   00007A   E582         MOV     A,DPL
   \   00007C   28           ADD     A,R0
   \   00007D   FA           MOV     R2,A
   \   00007E   E583         MOV     A,DPH
   \   000080   39           ADDC    A,R1
   \   000081   FB           MOV     R3,A
   \   000082   12....       LCALL   `??osal_memcpy::?relay`; Banked call to: osal_memcpy
   \   000085   7403         MOV     A,#0x3
   \   000087   12....       LCALL   ?DEALLOC_XSTACK8
    416              return Mail_uplink(port, NODE_AUTH_MSG_CMD_GET, sizeof(buf), buf);
   \   00008A                ; Setup parameters for call to function Mail_uplink
   \   00008A   AC..         MOV     R4,?XSP + 0
   \   00008C   AD..         MOV     R5,?XSP + 1
   \   00008E   7B0E         MOV     R3,#0xe
   \   000090   7A32         MOV     R2,#0x32
   \   000092   EF           MOV     A,R7
   \   000093   F9           MOV     R1,A
   \   000094   12....       LCALL   `??Mail_uplink::?relay`; Banked call to: Mail_uplink
   \   000097   740E         MOV     A,#0xe
   \   000099   12....       LCALL   ?DEALLOC_XSTACK8
   \   00009C   7F0A         MOV     R7,#0xa
   \   00009E   02....       LJMP    ?BANKED_LEAVE_XDATA
    417          }
    418          
    419          

   \                                 In  segment BANKED_CODE, align 1, keep-with-next
    420          static inline uint16 Mail_uplink_notify(uint8 port, uint8 const* extended_addr)
   \                     Mail_uplink_notify:
    421          {
   \   000000                REQUIRE ?V0
   \   000000                REQUIRE ?V1
   \   000000                REQUIRE ?V2
   \   000000                REQUIRE ?V3
   \   000000   74F4         MOV     A,#-0xc
   \   000002   12....       LCALL   ?BANKED_ENTER_XDATA
   \   000005                ; Saved register size: 12
   \   000005                ; Auto size: 8
   \   000005   74F8         MOV     A,#-0x8
   \   000007   12....       LCALL   ?ALLOC_XSTACK8
   \   00000A   89..         MOV     ?V3,R1
   \   00000C   EA           MOV     A,R2
   \   00000D   FE           MOV     R6,A
   \   00000E   EB           MOV     A,R3
   \   00000F   FF           MOV     R7,A
    422              uint8 buf[8];
    423              osal_memcpy(buf, extended_addr, 8);
   \   000010                ; Setup parameters for call to function osal_memcpy
   \   000010   8E..         MOV     ?V0,R6
   \   000012   8F..         MOV     ?V1,R7
   \   000014   75..00       MOV     ?V2,#0x0
   \   000017   78..         MOV     R0,#?V0
   \   000019   12....       LCALL   ?PUSH_XSTACK_I_THREE
   \   00001C   7C08         MOV     R4,#0x8
   \   00001E   7D00         MOV     R5,#0x0
   \   000020   7403         MOV     A,#0x3
   \   000022   12....       LCALL   ?XSTACK_DISP101_8
   \   000025   12....       LCALL   `??osal_memcpy::?relay`; Banked call to: osal_memcpy
   \   000028   7403         MOV     A,#0x3
   \   00002A   12....       LCALL   ?DEALLOC_XSTACK8
    424              return Mail_uplink(port, NODE_AUTH_MSG_CMD_REFUSE, sizeof(buf), buf);
   \   00002D                ; Setup parameters for call to function Mail_uplink
   \   00002D   AC..         MOV     R4,?XSP + 0
   \   00002F   AD..         MOV     R5,?XSP + 1
   \   000031   7B08         MOV     R3,#0x8
   \   000033   7A39         MOV     R2,#0x39
   \   000035   A9..         MOV     R1,?V3
   \   000037   12....       LCALL   `??Mail_uplink::?relay`; Banked call to: Mail_uplink
   \   00003A   7408         MOV     A,#0x8
   \   00003C   12....       LCALL   ?DEALLOC_XSTACK8
   \   00003F   7F04         MOV     R7,#0x4
   \   000041   02....       LJMP    ?BANKED_LEAVE_XDATA
    425          }
    426          
    427          
    428          

   \                                 In  segment BANKED_CODE, align 1, keep-with-next
    429          static inline void List_cache_recreate( void ) {
   \                     List_cache_recreate:
   \   000000   C082         PUSH    DPL
   \   000002   C083         PUSH    DPH
   \   000004                ; Saved register size: 2
   \   000004                ; Auto size: 0
    430              osal_memset(gListCache, 0xff, AUTH_LIST_CACHE_SIZE*sizeof(NodeRegisterEntry));
   \   000004                ; Setup parameters for call to function osal_memset
   \   000004   7CA0         MOV     R4,#-0x60
   \   000006   7D00         MOV     R5,#0x0
   \   000008   79FF         MOV     R1,#-0x1
   \   00000A   7A..         MOV     R2,#gListCache & 0xff
   \   00000C   7B..         MOV     R3,#(gListCache >> 8) & 0xff
   \   00000E   12....       LCALL   `??osal_memset::?relay`; Banked call to: osal_memset
    431          }
   \   000011   D083         POP     DPH
   \   000013   D082         POP     DPL
   \   000015   02....       LJMP    ?BRET
    432          
    433          

   \                                 In  segment BANKED_CODE, align 1, keep-with-next
    434          static inline void List_cache_load_on_need(uint32 offset) 
   \                     List_cache_load_on_need:
    435          {
   \   000000                REQUIRE ?V0
   \   000000                REQUIRE ?V1
   \   000000                REQUIRE ?V2
   \   000000                REQUIRE ?V3
   \   000000                REQUIRE ?V4
   \   000000                REQUIRE ?V5
   \   000000                REQUIRE ?V6
   \   000000                REQUIRE ?V7
   \   000000   74F0         MOV     A,#-0x10
   \   000002   12....       LCALL   ?BANKED_ENTER_XDATA
   \   000005                ; Saved register size: 16
   \   000005                ; Auto size: 0
   \   000005   8A..         MOV     ?V4,R2
   \   000007   8B..         MOV     ?V5,R3
   \   000009   8C..         MOV     ?V6,R4
   \   00000B   8D..         MOV     ?V7,R5
    436              if (!List_cache_contain(offset))
   \   00000D                ; Setup parameters for call to function List_cache_contain
   \   00000D   AA..         MOV     R2,?V4
   \   00000F   AB..         MOV     R3,?V5
   \   000011   AC..         MOV     R4,?V6
   \   000013   AD..         MOV     R5,?V7
   \   000015   12....       LCALL   `??List_cache_contain::?relay`; Banked call to: List_cache_contain
   \   000018   E9           MOV     A,R1
   \   000019   701F         JNZ     ??List_cache_load_on_need_0
    437                  List_cache_force_load(AUTH_LIST_CACHE_ALIGN(offset));
   \   00001B                ; Setup parameters for call to function List_cache_force_load
   \   00001B   85....       MOV     ?V0,?V4
   \   00001E   85....       MOV     ?V1,?V5
   \   000021   85....       MOV     ?V2,?V6
   \   000024   85....       MOV     ?V3,?V7
   \   000027   90....       MOV     DPTR,#__Constant_fffffff0
   \   00002A   78..         MOV     R0,#?V0
   \   00002C   12....       LCALL   ?L_AND_X
   \   00002F   AA..         MOV     R2,?V0
   \   000031   AB..         MOV     R3,?V1
   \   000033   AC..         MOV     R4,?V2
   \   000035   AD..         MOV     R5,?V3
   \   000037   12....       LCALL   `??List_cache_force_load::?relay`; Banked call to: List_cache_force_load
    438          }
   \                     ??List_cache_load_on_need_0:
   \   00003A   7F08         MOV     R7,#0x8
   \   00003C   02....       LJMP    ?BANKED_LEAVE_XDATA
    439          
    440          

   \                                 In  segment BANKED_CODE, align 1, keep-with-next
    441          static uint32 List_cache_write_back()
   \                     List_cache_write_back:
    442          {
   \   000000                REQUIRE ?V0
   \   000000                REQUIRE ?V1
   \   000000                REQUIRE ?V2
   \   000000                REQUIRE ?V3
   \   000000   74F4         MOV     A,#-0xc
   \   000002   12....       LCALL   ?BANKED_ENTER_XDATA
   \   000005                ; Saved register size: 12
   \   000005                ; Auto size: 0
    443              return osal_nv_write(
    444                  APP_NV_AUTH_KEY_LIST, 
    445                  gListOffset * sizeof(NodeRegisterEntry), 
    446                  gListNum * sizeof(NodeRegisterEntry), 
    447                  gListCache);
   \   000005                ; Setup parameters for call to function osal_nv_write
   \   000005   75....       MOV     ?V0,#gListCache & 0xff
   \   000008   75....       MOV     ?V1,#(gListCache >> 8) & 0xff
   \   00000B   78..         MOV     R0,#?V0
   \   00000D   12....       LCALL   ?PUSH_XSTACK_I_TWO
   \   000010   90....       MOV     DPTR,#gListNum
   \   000013   78..         MOV     R0,#?V0
   \   000015   12....       LCALL   ?L_MOV_X
   \   000018   E5..         MOV     A,?V0
   \   00001A   75F00A       MOV     B,#0xa
   \   00001D   A4           MUL     AB
   \   00001E   C5..         XCH     A,?V0
   \   000020   A8F0         MOV     R0,B
   \   000022   75F000       MOV     B,#0x0
   \   000025   A4           MUL     AB
   \   000026   28           ADD     A,R0
   \   000027   F8           MOV     R0,A
   \   000028   75F00A       MOV     B,#0xa
   \   00002B   E5..         MOV     A,?V1
   \   00002D   A4           MUL     AB
   \   00002E   28           ADD     A,R0
   \   00002F   F5..         MOV     ?V1,A
   \   000031   78..         MOV     R0,#?V0
   \   000033   12....       LCALL   ?PUSH_XSTACK_I_TWO
   \   000036   90....       MOV     DPTR,#gListOffset
   \   000039   78..         MOV     R0,#?V0
   \   00003B   12....       LCALL   ?L_MOV_X
   \   00003E   AC..         MOV     R4,?V0
   \   000040   AD..         MOV     R5,?V1
   \   000042   EC           MOV     A,R4
   \   000043   75F00A       MOV     B,#0xa
   \   000046   A4           MUL     AB
   \   000047   CC           XCH     A,R4
   \   000048   A8F0         MOV     R0,B
   \   00004A   75F000       MOV     B,#0x0
   \   00004D   A4           MUL     AB
   \   00004E   28           ADD     A,R0
   \   00004F   F8           MOV     R0,A
   \   000050   75F00A       MOV     B,#0xa
   \   000053   ED           MOV     A,R5
   \   000054   A4           MUL     AB
   \   000055   28           ADD     A,R0
   \   000056   FD           MOV     R5,A
   \   000057   7A02         MOV     R2,#0x2
   \   000059   7B04         MOV     R3,#0x4
   \   00005B   12....       LCALL   `??osal_nv_write::?relay`; Banked call to: osal_nv_write
   \   00005E   7404         MOV     A,#0x4
   \   000060   12....       LCALL   ?DEALLOC_XSTACK8
   \   000063   89..         MOV     ?V0,R1
   \   000065   AA..         MOV     R2,?V0
   \   000067   E4           CLR     A
   \   000068   FB           MOV     R3,A
   \   000069   FC           MOV     R4,A
   \   00006A   FD           MOV     R5,A
   \   00006B   7F04         MOV     R7,#0x4
   \   00006D   02....       LJMP    ?BANKED_LEAVE_XDATA
    448          }
    449          

   \                                 In  segment BANKED_CODE, align 1, keep-with-next
    450          static inline bool List_cache_contain(uint32 index)
   \                     List_cache_contain:
    451          {
   \   000000                REQUIRE ?V0
   \   000000                REQUIRE ?V1
   \   000000                REQUIRE ?V2
   \   000000                REQUIRE ?V3
   \   000000                REQUIRE ?V4
   \   000000                REQUIRE ?V5
   \   000000                REQUIRE ?V6
   \   000000                REQUIRE ?V7
   \   000000   74F0         MOV     A,#-0x10
   \   000002   12....       LCALL   ?BANKED_ENTER_XDATA
   \   000005                ; Saved register size: 16
   \   000005                ; Auto size: 0
   \   000005   8A..         MOV     ?V0,R2
   \   000007   8B..         MOV     ?V1,R3
   \   000009   8C..         MOV     ?V2,R4
   \   00000B   8D..         MOV     ?V3,R5
    452              return (gListCache != NULL) && 
    453                      (index >= gListOffset) && 
    454                      (index < gListOffset + gListNum);
   \   00000D   90....       MOV     DPTR,#gListOffset
   \   000010   78..         MOV     R0,#?V0
   \   000012   12....       LCALL   ?UL_GE_X
   \   000015   501D         JNC     ??List_cache_contain_0
   \   000017   90....       MOV     DPTR,#gListOffset
   \   00001A   78..         MOV     R0,#?V4
   \   00001C   12....       LCALL   ?L_MOV_X
   \   00001F   90....       MOV     DPTR,#gListNum
   \   000022   78..         MOV     R0,#?V4
   \   000024   12....       LCALL   ?L_ADD_X
   \   000027   78..         MOV     R0,#?V4
   \   000029   79..         MOV     R1,#?V0
   \   00002B   12....       LCALL   ?UL_GT
   \   00002E   5004         JNC     ??List_cache_contain_0
   \   000030   7901         MOV     R1,#0x1
   \   000032   8002         SJMP    ??List_cache_contain_1
   \                     ??List_cache_contain_0:
   \   000034   7900         MOV     R1,#0x0
   \                     ??List_cache_contain_1:
   \   000036   7F08         MOV     R7,#0x8
   \   000038   02....       LJMP    ?BANKED_LEAVE_XDATA
    455          }
    456          

   \                                 In  segment BANKED_CODE, align 1, keep-with-next
    457          static uint32 List_cache_find_by_key(uint8 const* key, uint8 keylen)
   \                     List_cache_find_by_key:
    458          {
   \   000000                REQUIRE ?V0
   \   000000                REQUIRE ?V1
   \   000000                REQUIRE ?V2
   \   000000                REQUIRE ?V3
   \   000000                REQUIRE ?V4
   \   000000                REQUIRE ?V5
   \   000000                REQUIRE ?V6
   \   000000                REQUIRE ?V7
   \   000000                REQUIRE ?V8
   \   000000                REQUIRE ?V9
   \   000000                REQUIRE ?V10
   \   000000                REQUIRE ?V11
   \   000000                REQUIRE ?V12
   \   000000                REQUIRE ?V13
   \   000000   74EA         MOV     A,#-0x16
   \   000002   12....       LCALL   ?BANKED_ENTER_XDATA
   \   000005                ; Saved register size: 22
   \   000005                ; Auto size: 0
   \   000005   8A..         MOV     ?V12,R2
   \   000007   8B..         MOV     ?V13,R3
   \   000009   E9           MOV     A,R1
   \   00000A   FE           MOV     R6,A
    459              uint32 idx;
    460              uint32 rc = AUTH_LIST_INVALID_INDEX;
   \   00000B   75..FF       MOV     ?V8,#-0x1
   \   00000E   75..FF       MOV     ?V9,#-0x1
   \   000011   75..FF       MOV     ?V10,#-0x1
   \   000014   75..FF       MOV     ?V11,#-0x1
    461              if (gListCache == NULL) return rc;
    462              for (idx = 0; 
   \   000017   7800         MOV     R0,#0x0
   \   000019   7900         MOV     R1,#0x0
   \   00001B   7A00         MOV     R2,#0x0
   \   00001D   7B00         MOV     R3,#0x0
   \   00001F   88..         MOV     ?V4,R0
   \   000021   89..         MOV     ?V5,R1
   \   000023   8A..         MOV     ?V6,R2
   \   000025   8B..         MOV     ?V7,R3
    463                   idx + gListOffset < AUTH_LIST_MAX_LEN && idx < gListNum ;
   \                     ??List_cache_find_by_key_0:
   \   000027   90....       MOV     DPTR,#__Constant_66
   \   00002A   C082         PUSH    DPL
   \   00002C   C083         PUSH    DPH
   \   00002E   85....       MOV     ?V0,?V4
   \   000031   85....       MOV     ?V1,?V5
   \   000034   85....       MOV     ?V2,?V6
   \   000037   85....       MOV     ?V3,?V7
   \   00003A   90....       MOV     DPTR,#gListOffset
   \   00003D   78..         MOV     R0,#?V0
   \   00003F   12....       LCALL   ?L_ADD_X
   \   000042   D083         POP     DPH
   \   000044   D082         POP     DPL
   \   000046   78..         MOV     R0,#?V0
   \   000048   12....       LCALL   ?UL_GE_X
   \   00004B   5003         JNC     $+5
   \   00004D   02....       LJMP    ??List_cache_find_by_key_1 & 0xFFFF
   \   000050   90....       MOV     DPTR,#gListNum
   \   000053   78..         MOV     R0,#?V4
   \   000055   12....       LCALL   ?UL_GE_X
   \   000058   5003         JNC     $+5
   \   00005A   02....       LJMP    ??List_cache_find_by_key_1 & 0xFFFF
    464                   ++idx)
    465              {
    466                  if ( !Is_entry_deleted(&gListCache[idx]) &&
    467                       osal_memcmp(key, gListCache[idx].key, keylen) 
    468                     )
   \   00005D   A8..         MOV     R0,?V4
   \   00005F   A9..         MOV     R1,?V5
   \   000061   E8           MOV     A,R0
   \   000062   75F00A       MOV     B,#0xa
   \   000065   A4           MUL     AB
   \   000066   C8           XCH     A,R0
   \   000067   AAF0         MOV     R2,B
   \   000069   75F000       MOV     B,#0x0
   \   00006C   A4           MUL     AB
   \   00006D   2A           ADD     A,R2
   \   00006E   FA           MOV     R2,A
   \   00006F   75F00A       MOV     B,#0xa
   \   000072   E9           MOV     A,R1
   \   000073   A4           MUL     AB
   \   000074   2A           ADD     A,R2
   \   000075   F9           MOV     R1,A
   \   000076   74..         MOV     A,#gListCache & 0xff
   \   000078   28           ADD     A,R0
   \   000079   F582         MOV     DPL,A
   \   00007B   74..         MOV     A,#(gListCache >> 8) & 0xff
   \   00007D   39           ADDC    A,R1
   \   00007E   F583         MOV     DPH,A
   \   000080   E0           MOVX    A,@DPTR
   \   000081   F8           MOV     R0,A
   \   000082   A3           INC     DPTR
   \   000083   E0           MOVX    A,@DPTR
   \   000084   F9           MOV     R1,A
   \   000085   E8           MOV     A,R0
   \   000086   A2E0         MOV     C,0xE0 /* A   */.0
   \   000088   4068         JC      ??List_cache_find_by_key_2
   \   00008A                ; Setup parameters for call to function osal_memcmp
   \   00008A   A8..         MOV     R0,?V4
   \   00008C   A9..         MOV     R1,?V5
   \   00008E   E8           MOV     A,R0
   \   00008F   75F00A       MOV     B,#0xa
   \   000092   A4           MUL     AB
   \   000093   C8           XCH     A,R0
   \   000094   AAF0         MOV     R2,B
   \   000096   75F000       MOV     B,#0x0
   \   000099   A4           MUL     AB
   \   00009A   2A           ADD     A,R2
   \   00009B   FA           MOV     R2,A
   \   00009C   75F00A       MOV     B,#0xa
   \   00009F   E9           MOV     A,R1
   \   0000A0   A4           MUL     AB
   \   0000A1   2A           ADD     A,R2
   \   0000A2   F9           MOV     R1,A
   \   0000A3   74..         MOV     A,#(gListCache + 2) & 0xff
   \   0000A5   28           ADD     A,R0
   \   0000A6   F5..         MOV     ?V0,A
   \   0000A8   74..         MOV     A,#((gListCache + 2) >> 8) & 0xff
   \   0000AA   39           ADDC    A,R1
   \   0000AB   F5..         MOV     ?V1,A
   \   0000AD   75..00       MOV     ?V2,#0x0
   \   0000B0   78..         MOV     R0,#?V0
   \   0000B2   12....       LCALL   ?PUSH_XSTACK_I_THREE
   \   0000B5   EE           MOV     A,R6
   \   0000B6   FC           MOV     R4,A
   \   0000B7   7D00         MOV     R5,#0x0
   \   0000B9   85..82       MOV     DPL,?V12
   \   0000BC   85..83       MOV     DPH,?V13
   \   0000BF   A982         MOV     R1,DPL
   \   0000C1   AA83         MOV     R2,DPH
   \   0000C3   7B00         MOV     R3,#0x0
   \   0000C5   12....       LCALL   `??osal_memcmp::?relay`; Banked call to: osal_memcmp
   \   0000C8   7403         MOV     A,#0x3
   \   0000CA   12....       LCALL   ?DEALLOC_XSTACK8
   \   0000CD   E9           MOV     A,R1
   \   0000CE   6022         JZ      ??List_cache_find_by_key_2
    469                  {
    470                      rc = idx + gListOffset;
   \   0000D0   85....       MOV     ?V0,?V4
   \   0000D3   85....       MOV     ?V1,?V5
   \   0000D6   85....       MOV     ?V2,?V6
   \   0000D9   85....       MOV     ?V3,?V7
   \   0000DC   90....       MOV     DPTR,#gListOffset
   \   0000DF   78..         MOV     R0,#?V0
   \   0000E1   12....       LCALL   ?L_ADD_X
   \   0000E4   85....       MOV     ?V8,?V0
   \   0000E7   85....       MOV     ?V9,?V1
   \   0000EA   85....       MOV     ?V10,?V2
   \   0000ED   85....       MOV     ?V11,?V3
    471                      break;
   \   0000F0   800B         SJMP    ??List_cache_find_by_key_1
    472                  }
    473              }
   \                     ??List_cache_find_by_key_2:
   \   0000F2   90....       MOV     DPTR,#__Constant_1
   \   0000F5   78..         MOV     R0,#?V4
   \   0000F7   12....       LCALL   ?L_ADD_X
   \   0000FA   02....       LJMP    ??List_cache_find_by_key_0 & 0xFFFF
    474              return rc;
   \                     ??List_cache_find_by_key_1:
   \   0000FD   AA..         MOV     R2,?V8
   \   0000FF   AB..         MOV     R3,?V9
   \   000101   AC..         MOV     R4,?V10
   \   000103   AD..         MOV     R5,?V11
   \   000105   7F0E         MOV     R7,#0xe
   \   000107   02....       LJMP    ?BANKED_LEAVE_XDATA
    475          }
    476          

   \                                 In  segment BANKED_CODE, align 1, keep-with-next
    477          static bool List_cache_load_next( void )
   \                     List_cache_load_next:
    478          {
   \   000000                REQUIRE ?V0
   \   000000                REQUIRE ?V1
   \   000000                REQUIRE ?V2
   \   000000                REQUIRE ?V3
   \   000000   74F4         MOV     A,#-0xc
   \   000002   12....       LCALL   ?BANKED_ENTER_XDATA
   \   000005                ; Saved register size: 12
   \   000005                ; Auto size: 0
    479              if (gListOffset + gListNum >= AUTH_LIST_MAX_LEN)
   \   000005   90....       MOV     DPTR,#__Constant_66
   \   000008   C082         PUSH    DPL
   \   00000A   C083         PUSH    DPH
   \   00000C   90....       MOV     DPTR,#gListOffset
   \   00000F   78..         MOV     R0,#?V0
   \   000011   12....       LCALL   ?L_MOV_X
   \   000014   90....       MOV     DPTR,#gListNum
   \   000017   78..         MOV     R0,#?V0
   \   000019   12....       LCALL   ?L_ADD_X
   \   00001C   D083         POP     DPH
   \   00001E   D082         POP     DPL
   \   000020   78..         MOV     R0,#?V0
   \   000022   12....       LCALL   ?UL_GE_X
   \   000025   5004         JNC     ??List_cache_load_next_0
    480                  return FALSE;
   \   000027   7900         MOV     R1,#0x0
   \   000029   801D         SJMP    ??List_cache_load_next_1
    481              List_cache_force_load(gListOffset + gListNum);
   \                     ??List_cache_load_next_0:
   \   00002B                ; Setup parameters for call to function List_cache_force_load
   \   00002B   90....       MOV     DPTR,#gListOffset
   \   00002E   78..         MOV     R0,#?V0
   \   000030   12....       LCALL   ?L_MOV_X
   \   000033   90....       MOV     DPTR,#gListNum
   \   000036   78..         MOV     R0,#?V0
   \   000038   12....       LCALL   ?L_ADD_X
   \   00003B   AA..         MOV     R2,?V0
   \   00003D   AB..         MOV     R3,?V1
   \   00003F   AC..         MOV     R4,?V2
   \   000041   AD..         MOV     R5,?V3
   \   000043   12....       LCALL   `??List_cache_force_load::?relay`; Banked call to: List_cache_force_load
    482              return TRUE;
   \   000046   7901         MOV     R1,#0x1
   \                     ??List_cache_load_next_1:
   \   000048   7F04         MOV     R7,#0x4
   \   00004A   02....       LJMP    ?BANKED_LEAVE_XDATA
    483          }
    484          
    485          

   \                                 In  segment BANKED_CODE, align 1, keep-with-next
    486          static void List_cache_force_load(uint32 index) {
   \                     List_cache_force_load:
   \   000000                REQUIRE ?V0
   \   000000                REQUIRE ?V1
   \   000000                REQUIRE ?V2
   \   000000                REQUIRE ?V3
   \   000000                REQUIRE ?V4
   \   000000                REQUIRE ?V5
   \   000000                REQUIRE ?V6
   \   000000                REQUIRE ?V7
   \   000000   74F0         MOV     A,#-0x10
   \   000002   12....       LCALL   ?BANKED_ENTER_XDATA
   \   000005                ; Saved register size: 16
   \   000005                ; Auto size: 0
   \   000005   8A..         MOV     ?V4,R2
   \   000007   8B..         MOV     ?V5,R3
   \   000009   8C..         MOV     ?V6,R4
   \   00000B   8D..         MOV     ?V7,R5
    487              gListNum = (
    488                  index + AUTH_LIST_CACHE_SIZE > AUTH_LIST_MAX_LEN ?
    489                  AUTH_LIST_MAX_LEN - index :
    490                  AUTH_LIST_CACHE_SIZE
    491              );
   \   00000D   90....       MOV     DPTR,#__Constant_67
   \   000010   C082         PUSH    DPL
   \   000012   C083         PUSH    DPH
   \   000014   85....       MOV     ?V0,?V4
   \   000017   85....       MOV     ?V1,?V5
   \   00001A   85....       MOV     ?V2,?V6
   \   00001D   85....       MOV     ?V3,?V7
   \   000020   90....       MOV     DPTR,#__Constant_10
   \   000023   78..         MOV     R0,#?V0
   \   000025   12....       LCALL   ?L_ADD_X
   \   000028   D083         POP     DPH
   \   00002A   D082         POP     DPL
   \   00002C   78..         MOV     R0,#?V0
   \   00002E   12....       LCALL   ?UL_GE_X
   \   000031   501D         JNC     ??List_cache_force_load_0
   \   000033   75..66       MOV     ?V0,#0x66
   \   000036   75..00       MOV     ?V1,#0x0
   \   000039   75..00       MOV     ?V2,#0x0
   \   00003C   75..00       MOV     ?V3,#0x0
   \   00003F   78..         MOV     R0,#?V0
   \   000041   79..         MOV     R1,#?V4
   \   000043   12....       LCALL   ?L_SUB
   \   000046   90....       MOV     DPTR,#gListNum
   \   000049   78..         MOV     R0,#?V0
   \   00004B   12....       LCALL   ?L_MOV_TO_X
   \   00004E   8016         SJMP    ??List_cache_force_load_1
   \                     ??List_cache_force_load_0:
   \   000050   7C10         MOV     R4,#0x10
   \   000052   7D00         MOV     R5,#0x0
   \   000054   7E00         MOV     R6,#0x0
   \   000056   7F00         MOV     R7,#0x0
   \   000058   90....       MOV     DPTR,#gListNum
   \   00005B   EC           MOV     A,R4
   \   00005C   F0           MOVX    @DPTR,A
   \   00005D   A3           INC     DPTR
   \   00005E   ED           MOV     A,R5
   \   00005F   F0           MOVX    @DPTR,A
   \   000060   A3           INC     DPTR
   \   000061   EE           MOV     A,R6
   \   000062   F0           MOVX    @DPTR,A
   \   000063   A3           INC     DPTR
   \   000064   EF           MOV     A,R7
   \   000065   F0           MOVX    @DPTR,A
    492              gListOffset = index;
   \                     ??List_cache_force_load_1:
   \   000066   90....       MOV     DPTR,#gListOffset
   \   000069   78..         MOV     R0,#?V4
   \   00006B   12....       LCALL   ?L_MOV_TO_X
    493              if ( SUCCESS != osal_nv_read(
    494                      APP_NV_AUTH_KEY_LIST, 
    495                      index * sizeof(NodeRegisterEntry), 
    496                      gListNum * sizeof(NodeRegisterEntry),
    497                      gListCache))
   \   00006E                ; Setup parameters for call to function osal_nv_read
   \   00006E   75....       MOV     ?V0,#gListCache & 0xff
   \   000071   75....       MOV     ?V1,#(gListCache >> 8) & 0xff
   \   000074   78..         MOV     R0,#?V0
   \   000076   12....       LCALL   ?PUSH_XSTACK_I_TWO
   \   000079   90....       MOV     DPTR,#gListNum
   \   00007C   78..         MOV     R0,#?V0
   \   00007E   12....       LCALL   ?L_MOV_X
   \   000081   E5..         MOV     A,?V0
   \   000083   75F00A       MOV     B,#0xa
   \   000086   A4           MUL     AB
   \   000087   C5..         XCH     A,?V0
   \   000089   A8F0         MOV     R0,B
   \   00008B   75F000       MOV     B,#0x0
   \   00008E   A4           MUL     AB
   \   00008F   28           ADD     A,R0
   \   000090   F8           MOV     R0,A
   \   000091   75F00A       MOV     B,#0xa
   \   000094   E5..         MOV     A,?V1
   \   000096   A4           MUL     AB
   \   000097   28           ADD     A,R0
   \   000098   F5..         MOV     ?V1,A
   \   00009A   78..         MOV     R0,#?V0
   \   00009C   12....       LCALL   ?PUSH_XSTACK_I_TWO
   \   00009F   AC..         MOV     R4,?V4
   \   0000A1   AD..         MOV     R5,?V5
   \   0000A3   EC           MOV     A,R4
   \   0000A4   75F00A       MOV     B,#0xa
   \   0000A7   A4           MUL     AB
   \   0000A8   CC           XCH     A,R4
   \   0000A9   A8F0         MOV     R0,B
   \   0000AB   75F000       MOV     B,#0x0
   \   0000AE   A4           MUL     AB
   \   0000AF   28           ADD     A,R0
   \   0000B0   F8           MOV     R0,A
   \   0000B1   75F00A       MOV     B,#0xa
   \   0000B4   ED           MOV     A,R5
   \   0000B5   A4           MUL     AB
   \   0000B6   28           ADD     A,R0
   \   0000B7   FD           MOV     R5,A
   \   0000B8   7A02         MOV     R2,#0x2
   \   0000BA   7B04         MOV     R3,#0x4
   \   0000BC   12....       LCALL   `??osal_nv_read::?relay`; Banked call to: osal_nv_read
   \   0000BF   7404         MOV     A,#0x4
   \   0000C1   12....       LCALL   ?DEALLOC_XSTACK8
   \   0000C4   E9           MOV     A,R1
   \   0000C5   6031         JZ      ??List_cache_force_load_2
    498              {
    499                  List_cache_recreate();
   \   0000C7                ; Setup parameters for call to function List_cache_recreate
   \   0000C7   12....       LCALL   `??List_cache_recreate::?relay`; Banked call to: List_cache_recreate
    500                  gListNum = 0;
   \   0000CA   7C00         MOV     R4,#0x0
   \   0000CC   7D00         MOV     R5,#0x0
   \   0000CE   7E00         MOV     R6,#0x0
   \   0000D0   7F00         MOV     R7,#0x0
   \   0000D2   90....       MOV     DPTR,#gListNum
   \   0000D5   EC           MOV     A,R4
   \   0000D6   F0           MOVX    @DPTR,A
   \   0000D7   A3           INC     DPTR
   \   0000D8   ED           MOV     A,R5
   \   0000D9   F0           MOVX    @DPTR,A
   \   0000DA   A3           INC     DPTR
   \   0000DB   EE           MOV     A,R6
   \   0000DC   F0           MOVX    @DPTR,A
   \   0000DD   A3           INC     DPTR
   \   0000DE   EF           MOV     A,R7
   \   0000DF   F0           MOVX    @DPTR,A
    501                  gListOffset = AUTH_LIST_INVALID_INDEX;
   \   0000E0   7CFF         MOV     R4,#-0x1
   \   0000E2   7DFF         MOV     R5,#-0x1
   \   0000E4   7EFF         MOV     R6,#-0x1
   \   0000E6   7FFF         MOV     R7,#-0x1
   \   0000E8   90....       MOV     DPTR,#gListOffset
   \   0000EB   EC           MOV     A,R4
   \   0000EC   F0           MOVX    @DPTR,A
   \   0000ED   A3           INC     DPTR
   \   0000EE   ED           MOV     A,R5
   \   0000EF   F0           MOVX    @DPTR,A
   \   0000F0   A3           INC     DPTR
   \   0000F1   EE           MOV     A,R6
   \   0000F2   F0           MOVX    @DPTR,A
   \   0000F3   A3           INC     DPTR
   \   0000F4   EF           MOV     A,R7
   \   0000F5   F0           MOVX    @DPTR,A
   \   0000F6   806A         SJMP    ??List_cache_force_load_3
    502              }
    503              else if ( gListNum != AUTH_LIST_CACHE_SIZE ) {
   \                     ??List_cache_force_load_2:
   \   0000F8   90....       MOV     DPTR,#__Constant_10
   \   0000FB   78..         MOV     R0,#?V0
   \   0000FD   12....       LCALL   ?L_MOV_X
   \   000100   90....       MOV     DPTR,#gListNum
   \   000103   78..         MOV     R0,#?V0
   \   000105   12....       LCALL   ?L_EQ_X
   \   000108   6058         JZ      ??List_cache_force_load_3
    504                  osal_memset(&gListCache[gListNum], 0xff, (AUTH_LIST_CACHE_SIZE - gListNum) * sizeof(gListCache[0]));
   \   00010A                ; Setup parameters for call to function osal_memset
   \   00010A   90....       MOV     DPTR,#gListNum
   \   00010D   78..         MOV     R0,#?V0
   \   00010F   12....       LCALL   ?L_MOV_X
   \   000112   7410         MOV     A,#0x10
   \   000114   C3           CLR     C
   \   000115   95..         SUBB    A,?V0
   \   000117   FC           MOV     R4,A
   \   000118   7400         MOV     A,#0x0
   \   00011A   95..         SUBB    A,?V1
   \   00011C   FD           MOV     R5,A
   \   00011D   EC           MOV     A,R4
   \   00011E   75F00A       MOV     B,#0xa
   \   000121   A4           MUL     AB
   \   000122   CC           XCH     A,R4
   \   000123   A8F0         MOV     R0,B
   \   000125   75F000       MOV     B,#0x0
   \   000128   A4           MUL     AB
   \   000129   28           ADD     A,R0
   \   00012A   F8           MOV     R0,A
   \   00012B   75F00A       MOV     B,#0xa
   \   00012E   ED           MOV     A,R5
   \   00012F   A4           MUL     AB
   \   000130   28           ADD     A,R0
   \   000131   FD           MOV     R5,A
   \   000132   79FF         MOV     R1,#-0x1
   \   000134   90....       MOV     DPTR,#gListNum
   \   000137   78..         MOV     R0,#?V0
   \   000139   12....       LCALL   ?L_MOV_X
   \   00013C   E5..         MOV     A,?V0
   \   00013E   75F00A       MOV     B,#0xa
   \   000141   A4           MUL     AB
   \   000142   C5..         XCH     A,?V0
   \   000144   A8F0         MOV     R0,B
   \   000146   75F000       MOV     B,#0x0
   \   000149   A4           MUL     AB
   \   00014A   28           ADD     A,R0
   \   00014B   F8           MOV     R0,A
   \   00014C   75F00A       MOV     B,#0xa
   \   00014F   E5..         MOV     A,?V1
   \   000151   A4           MUL     AB
   \   000152   28           ADD     A,R0
   \   000153   F5..         MOV     ?V1,A
   \   000155   74..         MOV     A,#gListCache & 0xff
   \   000157   25..         ADD     A,?V0
   \   000159   FA           MOV     R2,A
   \   00015A   74..         MOV     A,#(gListCache >> 8) & 0xff
   \   00015C   35..         ADDC    A,?V1
   \   00015E   FB           MOV     R3,A
   \   00015F   12....       LCALL   `??osal_memset::?relay`; Banked call to: osal_memset
    505              }
    506          }
   \                     ??List_cache_force_load_3:
   \   000162   7F08         MOV     R7,#0x8
   \   000164   02....       LJMP    ?BANKED_LEAVE_XDATA
    507          
    508          

   \                                 In  segment BANKED_CODE, align 1, keep-with-next
    509          static uint8 Authlist_init( uint8 load )
   \                     Authlist_init:
    510          {
   \   000000   74F7         MOV     A,#-0x9
   \   000002   12....       LCALL   ?BANKED_ENTER_XDATA
   \   000005                ; Saved register size: 9
   \   000005                ; Auto size: 0
   \   000005   E9           MOV     A,R1
   \   000006   FE           MOV     R6,A
    511              List_cache_recreate();
   \   000007                ; Setup parameters for call to function List_cache_recreate
   \   000007   12....       LCALL   `??List_cache_recreate::?relay`; Banked call to: List_cache_recreate
    512              if (load) List_cache_force_load(0);
   \   00000A   EE           MOV     A,R6
   \   00000B   6009         JZ      ??Authlist_init_0
   \   00000D                ; Setup parameters for call to function List_cache_force_load
   \   00000D   90....       MOV     DPTR,#__Constant_0
   \   000010   12....       LCALL   ?XLOAD_R2345
   \   000013   12....       LCALL   `??List_cache_force_load::?relay`; Banked call to: List_cache_force_load
    513              return SUCCESS;
   \                     ??Authlist_init_0:
   \   000016   7900         MOV     R1,#0x0
   \   000018   7F01         MOV     R7,#0x1
   \   00001A   02....       LJMP    ?BANKED_LEAVE_XDATA
    514          }
    515          

   \                                 In  segment BANKED_CODE, align 1, keep-with-next
    516          bool Authlist_verify_device(uint16 ShortAddress, uint8 *ExtendedAddress,
   \                     Authlist_verify_device:
    517                                          uint8 CapabilityFlags, uint8 type)
    518          {
   \   000000                REQUIRE ?V0
   \   000000                REQUIRE ?V1
   \   000000                REQUIRE ?V2
   \   000000                REQUIRE ?V4
   \   000000                REQUIRE ?V5
   \   000000                REQUIRE ?V6
   \   000000                REQUIRE ?V7
   \   000000   74F0         MOV     A,#-0x10
   \   000002   12....       LCALL   ?BANKED_ENTER_XDATA
   \   000005                ; Saved register size: 16
   \   000005                ; Auto size: 8
   \   000005   74F8         MOV     A,#-0x8
   \   000007   12....       LCALL   ?ALLOC_XSTACK8
   \   00000A   8A..         MOV     ?V0,R2
   \   00000C   8B..         MOV     ?V1,R3
   \   00000E   EC           MOV     A,R4
   \   00000F   FE           MOV     R6,A
   \   000010   ED           MOV     A,R5
   \   000011   FF           MOV     R7,A
   \   000012   89..         MOV     ?V2,R1
    519              uint8 sig[AUTH_LIST_KEY_LEN];
    520          	
    521              osal_memcpy(sig, ExtendedAddress, AUTH_LIST_KEY_LEN);
   \   000014                ; Setup parameters for call to function osal_memcpy
   \   000014   8E..         MOV     ?V4,R6
   \   000016   8F..         MOV     ?V5,R7
   \   000018   75..00       MOV     ?V6,#0x0
   \   00001B   78..         MOV     R0,#?V4
   \   00001D   12....       LCALL   ?PUSH_XSTACK_I_THREE
   \   000020   7C08         MOV     R4,#0x8
   \   000022   7D00         MOV     R5,#0x0
   \   000024   7403         MOV     A,#0x3
   \   000026   12....       LCALL   ?XSTACK_DISP101_8
   \   000029   12....       LCALL   `??osal_memcpy::?relay`; Banked call to: osal_memcpy
   \   00002C   7403         MOV     A,#0x3
   \   00002E   12....       LCALL   ?DEALLOC_XSTACK8
    522              if (AUTH_LIST_INVALID_INDEX != 
    523                      Authlist_find_by_key(sig, AUTH_LIST_KEY_LEN))
   \   000031   90....       MOV     DPTR,#__Constant_ffffffff
   \   000034   C082         PUSH    DPL
   \   000036   C083         PUSH    DPH
   \   000038                ; Setup parameters for call to function Authlist_find_by_key
   \   000038   90....       MOV     DPTR,#__Constant_8
   \   00003B   12....       LCALL   ?PUSH_XSTACK8_X_FOUR
   \   00003E   7404         MOV     A,#0x4
   \   000040   12....       LCALL   ?XSTACK_DISP101_8
   \   000043   12....       LCALL   `??Authlist_find_by_key::?relay`; Banked call to: Authlist_find_by_key
   \   000046   7404         MOV     A,#0x4
   \   000048   12....       LCALL   ?DEALLOC_XSTACK8
   \   00004B   8A..         MOV     ?V4,R2
   \   00004D   8B..         MOV     ?V5,R3
   \   00004F   8C..         MOV     ?V6,R4
   \   000051   8D..         MOV     ?V7,R5
   \   000053   D083         POP     DPH
   \   000055   D082         POP     DPL
   \   000057   78..         MOV     R0,#?V4
   \   000059   12....       LCALL   ?L_EQ_X
   \   00005C   6004         JZ      ??Authlist_verify_device_0
    524                  return TRUE;
   \   00005E   7901         MOV     R1,#0x1
   \   000060   800B         SJMP    ??Authlist_verify_device_1
    525          
    526              Mail_uplink_notify(0, ExtendedAddress);
   \                     ??Authlist_verify_device_0:
   \   000062                ; Setup parameters for call to function Mail_uplink_notify
   \   000062   EE           MOV     A,R6
   \   000063   FA           MOV     R2,A
   \   000064   EF           MOV     A,R7
   \   000065   FB           MOV     R3,A
   \   000066   7900         MOV     R1,#0x0
   \   000068   12....       LCALL   `??Mail_uplink_notify::?relay`; Banked call to: Mail_uplink_notify
    527              return FALSE;
   \   00006B   7900         MOV     R1,#0x0
   \                     ??Authlist_verify_device_1:
   \   00006D   7408         MOV     A,#0x8
   \   00006F   12....       LCALL   ?DEALLOC_XSTACK8
   \   000072   7F08         MOV     R7,#0x8
   \   000074   02....       LJMP    ?BANKED_LEAVE_XDATA
    528          }

   \                                 In  segment XDATA_ID, align 1, keep-with-next
   \                     `?<Initializer for gAuthConfig>`:
   \   000000   01000000     DD 1
   \   000004   00000000     DD 0

   \                                 In  segment BANK_RELAYS, align 1
   \                     `??Node_auth_init::?relay`:
   \   000000   12....       LCALL   ?BDISPATCH
   \   000003   ......       DC24    Node_auth_init

   \                                 In  segment BANK_RELAYS, align 1
   \                     `??Node_auth_wipe::?relay`:
   \   000000   12....       LCALL   ?BDISPATCH
   \   000003   ......       DC24    Node_auth_wipe

   \                                 In  segment BANK_RELAYS, align 1
   \                     `??Authlist_should_insert::?relay`:
   \   000000   12....       LCALL   ?BDISPATCH
   \   000003   ......       DC24    Authlist_should_insert

   \                                 In  segment BANK_RELAYS, align 1
   \                     `??Authlist_add::?relay`:
   \   000000   12....       LCALL   ?BDISPATCH
   \   000003   ......       DC24    Authlist_add

   \                                 In  segment BANK_RELAYS, align 1
   \                     `??Authlist_get::?relay`:
   \   000000   12....       LCALL   ?BDISPATCH
   \   000003   ......       DC24    Authlist_get

   \                                 In  segment BANK_RELAYS, align 1
   \                     `??Authlist_delete_entry::?relay`:
   \   000000   12....       LCALL   ?BDISPATCH
   \   000003   ......       DC24    Authlist_delete_entry

   \                                 In  segment BANK_RELAYS, align 1
   \                     `??Authlist_del::?relay`:
   \   000000   12....       LCALL   ?BDISPATCH
   \   000003   ......       DC24    Authlist_del

   \                                 In  segment BANK_RELAYS, align 1
   \                     `??Authlist_item_cnt::?relay`:
   \   000000   12....       LCALL   ?BDISPATCH
   \   000003   ......       DC24    Authlist_item_cnt

   \                                 In  segment BANK_RELAYS, align 1
   \                     `??Authlist_find_by_key::?relay`:
   \   000000   12....       LCALL   ?BDISPATCH
   \   000003   ......       DC24    Authlist_find_by_key

   \                                 In  segment BANK_RELAYS, align 1
   \                     `??Node_auth_uart_msg_process::?relay`:
   \   000000   12....       LCALL   ?BDISPATCH
   \   000003   ......       DC24    Node_auth_uart_msg_process

   \                                 In  segment BANK_RELAYS, align 1
   \                     `??Set_registered_num::?relay`:
   \   000000   12....       LCALL   ?BDISPATCH
   \   000003   ......       DC24    Set_registered_num

   \                                 In  segment BANK_RELAYS, align 1
   \                     `??Mail_uplink::?relay`:
   \   000000   12....       LCALL   ?BDISPATCH
   \   000003   ......       DC24    Mail_uplink

   \                                 In  segment BANK_RELAYS, align 1
   \                     `??Mail_uplink_registered_cnt::?relay`:
   \   000000   12....       LCALL   ?BDISPATCH
   \   000003   ......       DC24    Mail_uplink_registered_cnt

   \                                 In  segment BANK_RELAYS, align 1
   \                     `??Mail_uplink_key::?relay`:
   \   000000   12....       LCALL   ?BDISPATCH
   \   000003   ......       DC24    Mail_uplink_key

   \                                 In  segment BANK_RELAYS, align 1
   \                     `??Mail_uplink_notify::?relay`:
   \   000000   12....       LCALL   ?BDISPATCH
   \   000003   ......       DC24    Mail_uplink_notify

   \                                 In  segment BANK_RELAYS, align 1
   \                     `??List_cache_recreate::?relay`:
   \   000000   12....       LCALL   ?BDISPATCH
   \   000003   ......       DC24    List_cache_recreate

   \                                 In  segment BANK_RELAYS, align 1
   \                     `??List_cache_load_on_need::?relay`:
   \   000000   12....       LCALL   ?BDISPATCH
   \   000003   ......       DC24    List_cache_load_on_need

   \                                 In  segment BANK_RELAYS, align 1
   \                     `??List_cache_write_back::?relay`:
   \   000000   12....       LCALL   ?BDISPATCH
   \   000003   ......       DC24    List_cache_write_back

   \                                 In  segment BANK_RELAYS, align 1
   \                     `??List_cache_contain::?relay`:
   \   000000   12....       LCALL   ?BDISPATCH
   \   000003   ......       DC24    List_cache_contain

   \                                 In  segment BANK_RELAYS, align 1
   \                     `??List_cache_find_by_key::?relay`:
   \   000000   12....       LCALL   ?BDISPATCH
   \   000003   ......       DC24    List_cache_find_by_key

   \                                 In  segment BANK_RELAYS, align 1
   \                     `??List_cache_load_next::?relay`:
   \   000000   12....       LCALL   ?BDISPATCH
   \   000003   ......       DC24    List_cache_load_next

   \                                 In  segment BANK_RELAYS, align 1
   \                     `??List_cache_force_load::?relay`:
   \   000000   12....       LCALL   ?BDISPATCH
   \   000003   ......       DC24    List_cache_force_load

   \                                 In  segment BANK_RELAYS, align 1
   \                     `??Authlist_init::?relay`:
   \   000000   12....       LCALL   ?BDISPATCH
   \   000003   ......       DC24    Authlist_init

   \                                 In  segment BANK_RELAYS, align 1
   \                     `??Authlist_verify_device::?relay`:
   \   000000   12....       LCALL   ?BDISPATCH
   \   000003   ......       DC24    Authlist_verify_device

   \                                 In  segment XDATA_ROM_C, align 1
   \                     `?<Constant {0, 0, 0, 0, 0, 0, 0, 0, 0, 0}>`:
   \   000000   00           DB 0
   \   000001   00           DB 0
   \   000002   00           DB 0
   \   000003   00           DB 0
   \   000004   00           DB 0
   \   000005   00           DB 0
   \   000006   00           DB 0
   \   000007   00           DB 0
   \   000008   00           DB 0
   \   000009   00           DB 0

   \                                 In  segment XDATA_ROM_C, align 1
   \                     __Constant_0:
   \   000000   00000000     DD 0

   \                                 In  segment XDATA_ROM_C, align 1
   \                     __Constant_66:
   \   000000   66000000     DD 102

   \                                 In  segment XDATA_ROM_C, align 1
   \                     __Constant_ffffffff:
   \   000000   FFFFFFFF     DD 4294967295

   \                                 In  segment XDATA_ROM_C, align 1
   \                     __Constant_1:
   \   000000   01000000     DD 1

   \                                 In  segment XDATA_ROM_C, align 1
   \                     __Constant_8:
   \   000000   08000000     DD 8

   \                                 In  segment XDATA_ROM_C, align 1
   \                     __Constant_ff00:
   \   000000   00FF0000     DD 65280

   \                                 In  segment XDATA_ROM_C, align 1
   \                     __Constant_ff0000:
   \   000000   0000FF00     DD 16711680

   \                                 In  segment XDATA_ROM_C, align 1
   \                     __Constant_fffffff0:
   \   000000   F0FFFFFF     DD 4294967280

   \                                 In  segment XDATA_ROM_C, align 1
   \                     __Constant_10:
   \   000000   10000000     DD 16

   \                                 In  segment XDATA_ROM_C, align 1
   \                     __Constant_67:
   \   000000   67000000     DD 103

   Maximum stack usage in bytes:

   ISTACK XSTACK Function
   ------ ------ --------
      0     62   Authlist_add
        0     24   -> Authlist_item_cnt
        0     24   -> Authlist_should_insert
        0     24   -> List_cache_force_load
        0     24   -> List_cache_load_on_need
        0     24   -> List_cache_write_back
        0     24   -> Set_registered_num
        0     27   -> osal_memcpy
      0     59   Authlist_del
        0     20   -> Authlist_delete_entry
        0     24   -> Authlist_find_by_key
      0     57   Authlist_delete_entry
        0     34   -> Authlist_item_cnt
        0     34   -> List_cache_load_on_need
        0     34   -> List_cache_write_back
        0     34   -> Set_registered_num
        0     37   -> osal_memcpy
        0     34   -> osal_memset
      0     48   Authlist_find_by_key
        0     20   -> List_cache_find_by_key
        0     20   -> List_cache_force_load
        0     20   -> List_cache_load_next
      0     64   Authlist_get
        0     22   -> Authlist_item_cnt
        0     22   -> List_cache_load_on_need
        0     25   -> osal_memcpy
      0     19   Authlist_init
        0      9   -> List_cache_force_load
        0      9   -> List_cache_recreate
      0     46   Authlist_item_cnt
      2     51   Authlist_should_insert
        0     24   -> List_cache_force_load
        0     24   -> List_cache_load_next
        0     27   -> osal_memcmp
      2     29   Authlist_verify_device
        2     28   -> Authlist_find_by_key
        0     24   -> Mail_uplink_notify
        0     27   -> osal_memcpy
      0     32   List_cache_contain
      2     45   List_cache_find_by_key
        0     25   -> osal_memcmp
      2     44   List_cache_force_load
        0     16   -> List_cache_recreate
        0     16   -> osal_memset
        0     20   -> osal_nv_read
      2     36   List_cache_load_next
        0     12   -> List_cache_force_load
      0     50   List_cache_load_on_need
        0     16   -> List_cache_contain
        0     16   -> List_cache_force_load
      2     16   List_cache_recreate
        2      0   -> osal_memset
      0     50   List_cache_write_back
        0     16   -> osal_nv_write
      1     73   Mail_uplink
        0     38   -> HalUARTWrite
        0     38   -> MT_UartCalcFCS
        0     41   -> osal_memcpy
      1     72   Mail_uplink_key
        0     32   -> Mail_uplink
        0     35   -> osal_memcpy
      0     47   Mail_uplink_notify
        0     20   -> Mail_uplink
        0     23   -> osal_memcpy
      0     59   Mail_uplink_registered_cnt
        0     24   -> Authlist_item_cnt
        0     24   -> Mail_uplink
      0     14   Node_auth_init
        0     10   -> Authlist_init
        0     12   -> osal_nv_item_init
        0     14   -> osal_nv_read
      1     40   Node_auth_uart_msg_process
        0     35   -> Authlist_add
        0     35   -> Authlist_del
        0     39   -> Authlist_get
        0     37   -> Mail_uplink_key
        0     35   -> Mail_uplink_registered_cnt
        0     35   -> Node_auth_wipe
        0     35   -> Onboard_soft_reset
        0     35   -> Set_registered_num
        0     37   -> memcmp
      2     35   Node_auth_wipe
        2      0   -> Node_auth_init
        2      0   -> osal_nv_delete
      0     53   Set_registered_num
        0     18   -> osal_nv_write


   Segment part sizes:

   Bytes  Function/Label
   -----  --------------
      10  ?<Constant {0, 0, 0, 0, 0, 0, 0, 0, 0, 0}>
       8  ?<Initializer for gAuthConfig>
     286  Authlist_add
       6  Authlist_add::?relay
      87  Authlist_del
       6  Authlist_del::?relay
     410  Authlist_delete_entry
       6  Authlist_delete_entry::?relay
     124  Authlist_find_by_key
       6  Authlist_find_by_key::?relay
     212  Authlist_get
       6  Authlist_get::?relay
      29  Authlist_init
       6  Authlist_init::?relay
      20  Authlist_item_cnt
       6  Authlist_item_cnt::?relay
     447  Authlist_should_insert
       6  Authlist_should_insert::?relay
     119  Authlist_verify_device
       6  Authlist_verify_device::?relay
      59  List_cache_contain
       6  List_cache_contain::?relay
     266  List_cache_find_by_key
       6  List_cache_find_by_key::?relay
     359  List_cache_force_load
       6  List_cache_force_load::?relay
      77  List_cache_load_next
       6  List_cache_load_next::?relay
      63  List_cache_load_on_need
       6  List_cache_load_on_need::?relay
      24  List_cache_recreate
       6  List_cache_recreate::?relay
     112  List_cache_write_back
       6  List_cache_write_back::?relay
     214  Mail_uplink
       6  Mail_uplink::?relay
     161  Mail_uplink_key
       6  Mail_uplink_key::?relay
      68  Mail_uplink_notify
       6  Mail_uplink_notify::?relay
     172  Mail_uplink_registered_cnt
       6  Mail_uplink_registered_cnt::?relay
     170  Node_auth_init
       6  Node_auth_init::?relay
     567  Node_auth_uart_msg_process
       6  Node_auth_uart_msg_process::?relay
      39  Node_auth_wipe
       6  Node_auth_wipe::?relay
      65  Set_registered_num
       6  Set_registered_num::?relay
       1  WDCTL
       1  _A_IEN0
       4  __Constant_0
       4  __Constant_1
       4  __Constant_10
       4  __Constant_66
       4  __Constant_67
       4  __Constant_8
       4  __Constant_ff00
       4  __Constant_ff0000
       4  __Constant_fffffff0
       4  __Constant_ffffffff
       8  gAuthConfig
     160  gListCache
       4  gListNum
       4  gListOffset

 
 4 150 bytes in segment BANKED_CODE
   144 bytes in segment BANK_RELAYS
     2 bytes in segment SFR_AN
     8 bytes in segment XDATA_I
     8 bytes in segment XDATA_ID
    50 bytes in segment XDATA_ROM_C
   168 bytes in segment XDATA_Z
 
 4 302 bytes of CODE  memory
    10 bytes of CONST memory (+ 40 bytes shared)
     0 bytes of DATA  memory (+  2 bytes shared)
   176 bytes of XDATA memory

Errors: none
Warnings: none
