///////////////////////////////////////////////////////////////////////////////
//
// IAR C/C++ Compiler V9.30.1.3056 for 8051               21/Apr/2017  17:48:48
// Copyright 2004-2015 IAR Systems AB.
//
//    Core               =  plain
//    Code model         =  banked
//    Data model         =  large
//    Calling convention =  xdata reentrant
//    Constant location  =  data_rom
//    Dptr setup         =  1,16
//                          
//    Source file        =  
//        C:\Texas Instruments\Z-Stack Mesh 1.0.0_chaokw_20160317\Z-Stack Mesh
//        1.0.0_chaokw_20160316\Z-Stack Mesh 1.0.0_LCDOK\Z-Stack Mesh
//        1.0.0\Components\osal\common\OSAL.c
//    Command line       =  
//        -f "C:\Texas Instruments\Z-Stack Mesh 1.0.0_chaokw_20160317\Z-Stack
//        Mesh 1.0.0_chaokw_20160316\Z-Stack Mesh 1.0.0_LCDOK\Z-Stack Mesh
//        1.0.0\Projects\zstack\Samples\GenericApp\CC2530DB\..\..\..\Tools\CC2530DB\f8wRouter.cfg"
//        (-DCPU32MHZ -DROOT=__near_func -DMAC_CFG_APP_PENDING_QUEUE=TRUE
//        -DMAC_CFG_TX_DATA_MAX=5 -DMAC_CFG_TX_MAX=8 -DMAC_CFG_RX_MAX=5
//        -DRTR_NWK) -f "C:\Texas Instruments\Z-Stack Mesh
//        1.0.0_chaokw_20160317\Z-Stack Mesh 1.0.0_chaokw_20160316\Z-Stack Mesh
//        1.0.0_LCDOK\Z-Stack Mesh
//        1.0.0\Projects\zstack\Samples\GenericApp\CC2530DB\..\..\..\Tools\CC2530DB\f8wConfig.cfg"
//        (-DZIGBEEPRO -DSECURE=1 -DZG_SECURE_DYNAMIC=0 -DREFLECTOR
//        -DDEFAULT_CHANLIST=0x04000000 -DZDAPP_CONFIG_PAN_ID=0x0085
//        -DNWK_START_DELAY=100 -DEXTENDED_JOINING_RANDOM_MASK=0x007F
//        -DBEACON_REQUEST_DELAY=100 -DBEACON_REQ_DELAY_MASK=0x00FF
//        -DLINK_STATUS_JITTER_MASK=0x007F -DROUTE_EXPIRY_TIME=30
//        -DAPSC_ACK_WAIT_DURATION_POLLED=3000 -DNWK_INDIRECT_MSG_TIMEOUT=7
//        -DMAX_RREQ_ENTRIES=8 -DAPSC_MAX_FRAME_RETRIES=5
//        -DNWK_MAX_DATA_RETRIES=2 -DMAX_POLL_FAILURE_RETRIES=2 -DMAX_BCAST=9
//        -DAPS_MAX_GROUPS=16 -DMAX_RTG_ENTRIES=40 -DNWK_MAX_BINDING_ENTRIES=4
//        -DMAX_BINDING_CLUSTER_IDS=4 "-DDEFAULT_KEY={0x01, 0x03, 0x05, 0x07,
//        0x09, 0x0B, 0x0D, 0x0F, 0x00, 0x02, 0x04, 0x06, 0x08, 0x0A, 0x0C,
//        0x0D}" -DMAC_MAX_FRAME_SIZE=116 -DZDNWKMGR_MIN_TRANSMISSIONS=20
//        "-DCONST=const __code" -DGENERIC=__generic -DRFD_RCVC_ALWAYS_ON=FALSE
//        -DPOLL_RATE=1000 -DQUEUED_POLL_RATE=100 -DRESPONSE_POLL_RATE=100
//        -DREJOIN_POLL_RATE=440) -DCHANNEL_CNT=0x01 "C:\Texas
//        Instruments\Z-Stack Mesh 1.0.0_chaokw_20160317\Z-Stack Mesh
//        1.0.0_chaokw_20160316\Z-Stack Mesh 1.0.0_LCDOK\Z-Stack Mesh
//        1.0.0\Components\osal\common\OSAL.c" -D ZTOOL_P1 -D MT_TASK -D
//        MT_SYS_FUNC -D MT_ZDO_FUNC -D LCD_SUPPORTED=DEBUG -D xNV_RESTORE -D
//        NV_INIT -D OPEN_FCS -D PANID_INCREASE -lC "C:\Texas
//        Instruments\Z-Stack Mesh 1.0.0_chaokw_20160317\Z-Stack Mesh
//        1.0.0_chaokw_20160316\Z-Stack Mesh 1.0.0_LCDOK\Z-Stack Mesh
//        1.0.0\Projects\zstack\Samples\GenericApp\CC2530DB\RouterEB\List" -lA
//        "C:\Texas Instruments\Z-Stack Mesh 1.0.0_chaokw_20160317\Z-Stack Mesh
//        1.0.0_chaokw_20160316\Z-Stack Mesh 1.0.0_LCDOK\Z-Stack Mesh
//        1.0.0\Projects\zstack\Samples\GenericApp\CC2530DB\RouterEB\List"
//        --diag_suppress Pe001,Pa010 -o "C:\Texas Instruments\Z-Stack Mesh
//        1.0.0_chaokw_20160317\Z-Stack Mesh 1.0.0_chaokw_20160316\Z-Stack Mesh
//        1.0.0_LCDOK\Z-Stack Mesh
//        1.0.0\Projects\zstack\Samples\GenericApp\CC2530DB\RouterEB\Obj" -e
//        --no_cse --no_unroll --no_inline --no_code_motion --no_tbaa --debug
//        --core=plain --dptr=16,1 --data_model=large --code_model=banked
//        --calling_convention=xdata_reentrant --place_constants=data_rom
//        --nr_virtual_regs 16 -I "C:\Texas Instruments\Z-Stack Mesh
//        1.0.0_chaokw_20160317\Z-Stack Mesh 1.0.0_chaokw_20160316\Z-Stack Mesh
//        1.0.0_LCDOK\Z-Stack Mesh
//        1.0.0\Projects\zstack\Samples\GenericApp\CC2530DB\" -I "C:\Texas
//        Instruments\Z-Stack Mesh 1.0.0_chaokw_20160317\Z-Stack Mesh
//        1.0.0_chaokw_20160316\Z-Stack Mesh 1.0.0_LCDOK\Z-Stack Mesh
//        1.0.0\Projects\zstack\Samples\GenericApp\CC2530DB\..\Source\" -I
//        "C:\Texas Instruments\Z-Stack Mesh 1.0.0_chaokw_20160317\Z-Stack Mesh
//        1.0.0_chaokw_20160316\Z-Stack Mesh 1.0.0_LCDOK\Z-Stack Mesh
//        1.0.0\Projects\zstack\Samples\GenericApp\CC2530DB\..\..\..\Application\"
//        -I "C:\Texas Instruments\Z-Stack Mesh 1.0.0_chaokw_20160317\Z-Stack
//        Mesh 1.0.0_chaokw_20160316\Z-Stack Mesh 1.0.0_LCDOK\Z-Stack Mesh
//        1.0.0\Projects\zstack\Samples\GenericApp\CC2530DB\..\..\..\ZMain\TI2530DB\"
//        -I "C:\Texas Instruments\Z-Stack Mesh 1.0.0_chaokw_20160317\Z-Stack
//        Mesh 1.0.0_chaokw_20160316\Z-Stack Mesh 1.0.0_LCDOK\Z-Stack Mesh
//        1.0.0\Projects\zstack\Samples\GenericApp\CC2530DB\..\..\..\..\..\Components\hal\include\"
//        -I "C:\Texas Instruments\Z-Stack Mesh 1.0.0_chaokw_20160317\Z-Stack
//        Mesh 1.0.0_chaokw_20160316\Z-Stack Mesh 1.0.0_LCDOK\Z-Stack Mesh
//        1.0.0\Projects\zstack\Samples\GenericApp\CC2530DB\..\..\..\..\..\Components\hal\target\CC2530EB\"
//        -I "C:\Texas Instruments\Z-Stack Mesh 1.0.0_chaokw_20160317\Z-Stack
//        Mesh 1.0.0_chaokw_20160316\Z-Stack Mesh 1.0.0_LCDOK\Z-Stack Mesh
//        1.0.0\Projects\zstack\Samples\GenericApp\CC2530DB\..\..\..\..\..\Components\mac\include\"
//        -I "C:\Texas Instruments\Z-Stack Mesh 1.0.0_chaokw_20160317\Z-Stack
//        Mesh 1.0.0_chaokw_20160316\Z-Stack Mesh 1.0.0_LCDOK\Z-Stack Mesh
//        1.0.0\Projects\zstack\Samples\GenericApp\CC2530DB\..\..\..\..\..\Components\mac\high_level\"
//        -I "C:\Texas Instruments\Z-Stack Mesh 1.0.0_chaokw_20160317\Z-Stack
//        Mesh 1.0.0_chaokw_20160316\Z-Stack Mesh 1.0.0_LCDOK\Z-Stack Mesh
//        1.0.0\Projects\zstack\Samples\GenericApp\CC2530DB\..\..\..\..\..\Components\mac\low_level\srf04\"
//        -I "C:\Texas Instruments\Z-Stack Mesh 1.0.0_chaokw_20160317\Z-Stack
//        Mesh 1.0.0_chaokw_20160316\Z-Stack Mesh 1.0.0_LCDOK\Z-Stack Mesh
//        1.0.0\Projects\zstack\Samples\GenericApp\CC2530DB\..\..\..\..\..\Components\mac\low_level\srf04\single_chip\"
//        -I "C:\Texas Instruments\Z-Stack Mesh 1.0.0_chaokw_20160317\Z-Stack
//        Mesh 1.0.0_chaokw_20160316\Z-Stack Mesh 1.0.0_LCDOK\Z-Stack Mesh
//        1.0.0\Projects\zstack\Samples\GenericApp\CC2530DB\..\..\..\..\..\Components\mt\"
//        -I "C:\Texas Instruments\Z-Stack Mesh 1.0.0_chaokw_20160317\Z-Stack
//        Mesh 1.0.0_chaokw_20160316\Z-Stack Mesh 1.0.0_LCDOK\Z-Stack Mesh
//        1.0.0\Projects\zstack\Samples\GenericApp\CC2530DB\..\..\..\..\..\Components\osal\include\"
//        -I "C:\Texas Instruments\Z-Stack Mesh 1.0.0_chaokw_20160317\Z-Stack
//        Mesh 1.0.0_chaokw_20160316\Z-Stack Mesh 1.0.0_LCDOK\Z-Stack Mesh
//        1.0.0\Projects\zstack\Samples\GenericApp\CC2530DB\..\..\..\..\..\Components\services\saddr\"
//        -I "C:\Texas Instruments\Z-Stack Mesh 1.0.0_chaokw_20160317\Z-Stack
//        Mesh 1.0.0_chaokw_20160316\Z-Stack Mesh 1.0.0_LCDOK\Z-Stack Mesh
//        1.0.0\Projects\zstack\Samples\GenericApp\CC2530DB\..\..\..\..\..\Components\services\sdata\"
//        -I "C:\Texas Instruments\Z-Stack Mesh 1.0.0_chaokw_20160317\Z-Stack
//        Mesh 1.0.0_chaokw_20160316\Z-Stack Mesh 1.0.0_LCDOK\Z-Stack Mesh
//        1.0.0\Projects\zstack\Samples\GenericApp\CC2530DB\..\..\..\..\..\Components\stack\af\"
//        -I "C:\Texas Instruments\Z-Stack Mesh 1.0.0_chaokw_20160317\Z-Stack
//        Mesh 1.0.0_chaokw_20160316\Z-Stack Mesh 1.0.0_LCDOK\Z-Stack Mesh
//        1.0.0\Projects\zstack\Samples\GenericApp\CC2530DB\..\..\..\..\..\Components\stack\nwk\"
//        -I "C:\Texas Instruments\Z-Stack Mesh 1.0.0_chaokw_20160317\Z-Stack
//        Mesh 1.0.0_chaokw_20160316\Z-Stack Mesh 1.0.0_LCDOK\Z-Stack Mesh
//        1.0.0\Projects\zstack\Samples\GenericApp\CC2530DB\..\..\..\..\..\Components\stack\sapi\"
//        -I "C:\Texas Instruments\Z-Stack Mesh 1.0.0_chaokw_20160317\Z-Stack
//        Mesh 1.0.0_chaokw_20160316\Z-Stack Mesh 1.0.0_LCDOK\Z-Stack Mesh
//        1.0.0\Projects\zstack\Samples\GenericApp\CC2530DB\..\..\..\..\..\Components\stack\sec\"
//        -I "C:\Texas Instruments\Z-Stack Mesh 1.0.0_chaokw_20160317\Z-Stack
//        Mesh 1.0.0_chaokw_20160316\Z-Stack Mesh 1.0.0_LCDOK\Z-Stack Mesh
//        1.0.0\Projects\zstack\Samples\GenericApp\CC2530DB\..\..\..\..\..\Components\stack\sys\"
//        -I "C:\Texas Instruments\Z-Stack Mesh 1.0.0_chaokw_20160317\Z-Stack
//        Mesh 1.0.0_chaokw_20160316\Z-Stack Mesh 1.0.0_LCDOK\Z-Stack Mesh
//        1.0.0\Projects\zstack\Samples\GenericApp\CC2530DB\..\..\..\..\..\Components\stack\zdo\"
//        -I "C:\Texas Instruments\Z-Stack Mesh 1.0.0_chaokw_20160317\Z-Stack
//        Mesh 1.0.0_chaokw_20160316\Z-Stack Mesh 1.0.0_LCDOK\Z-Stack Mesh
//        1.0.0\Projects\zstack\Samples\GenericApp\CC2530DB\..\..\..\..\..\Components\zmac\"
//        -I "C:\Texas Instruments\Z-Stack Mesh 1.0.0_chaokw_20160317\Z-Stack
//        Mesh 1.0.0_chaokw_20160316\Z-Stack Mesh 1.0.0_LCDOK\Z-Stack Mesh
//        1.0.0\Projects\zstack\Samples\GenericApp\CC2530DB\..\..\..\..\..\Components\zmac\f8w\"
//        -On --require_prototypes
//    List file          =  
//        C:\Texas Instruments\Z-Stack Mesh 1.0.0_chaokw_20160317\Z-Stack Mesh
//        1.0.0_chaokw_20160316\Z-Stack Mesh 1.0.0_LCDOK\Z-Stack Mesh
//        1.0.0\Projects\zstack\Samples\GenericApp\CC2530DB\RouterEB\List\OSAL.s51
//
///////////////////////////////////////////////////////////////////////////////

        NAME OSAL

        RTMODEL "__SystemLibrary", "CLib"
        RTMODEL "__calling_convention", "xdata_reentrant"
        RTMODEL "__code_model", "banked"
        RTMODEL "__core", "plain"
        RTMODEL "__data_model", "large"
        RTMODEL "__dptr_size", "16"
        RTMODEL "__extended_stack", "disabled"
        RTMODEL "__location_for_constants", "data"
        RTMODEL "__number_of_dptrs", "1"
        RTMODEL "__rt_version", "1"

        RSEG DOVERLAY:DATA:NOROOT(0)
        RSEG IOVERLAY:IDATA:NOROOT(0)
        RSEG ISTACK:IDATA:NOROOT(0)
        RSEG PSTACK:XDATA:NOROOT(0)
        RSEG XSTACK:XDATA:NOROOT(0)

        EXTERN ?V0
        EXTERN ?V1
        EXTERN ?V2
        EXTERN ?V4
        EXTERN ?V5
        EXTERN ?V6
        EXTERN ?V3
        EXTERN ?V8
        EXTERN ?V9
        EXTERN ?V10
        EXTERN ?V12
        EXTERN ?V13
        EXTERN ?V14
        EXTERN ?V7
        EXTERN ?V11
        EXTERN ?V15
        EXTERN ?ALLOC_XSTACK8
        EXTERN ?BANKED_ENTER_XDATA
        EXTERN ?BANKED_LEAVE_XDATA
        EXTERN ?BDISPATCH
        EXTERN ?BRET
        EXTERN ?CALL_IND
        EXTERN ?C_GPTR_LOAD
        EXTERN ?DEALLOC_XSTACK8
        EXTERN ?L_ADD
        EXTERN ?L_MOV_X
        EXTERN ?L_SHL
        EXTERN ?MOVE_LONG8_XDATA_XDATA
        EXTERN ?PUSH_XSTACK_I_THREE
        EXTERN ?PUSH_XSTACK_I_TWO
        EXTERN ?UL_DIV_MOD
        EXTERN ?UL_SHR
        EXTERN ?XSP
        EXTERN ?XSTACK_DISP0_8
        EXTERN ?XSTACK_DISP101_8
        EXTERN ?XSTACK_DISP102_8
        EXTERN __INIT_XDATA_I
        EXTERN __INIT_XDATA_Z

        PUBLIC `??_ltoa::?relay`
        FUNCTION `??_ltoa::?relay`,0203H
        PUBLIC `??osal_buffer_uint24::?relay`
        FUNCTION `??osal_buffer_uint24::?relay`,0203H
        PUBLIC `??osal_buffer_uint32::?relay`
        FUNCTION `??osal_buffer_uint32::?relay`,0203H
        PUBLIC `??osal_build_uint16::?relay`
        FUNCTION `??osal_build_uint16::?relay`,0203H
        PUBLIC `??osal_build_uint32::?relay`
        FUNCTION `??osal_build_uint32::?relay`,0203H
        PUBLIC `??osal_clear_event::?relay`
        FUNCTION `??osal_clear_event::?relay`,0203H
        PUBLIC `??osal_init_system::?relay`
        FUNCTION `??osal_init_system::?relay`,0203H
        PUBLIC `??osal_int_disable::?relay`
        FUNCTION `??osal_int_disable::?relay`,0203H
        PUBLIC `??osal_int_enable::?relay`
        FUNCTION `??osal_int_enable::?relay`,0203H
        PUBLIC `??osal_isbufset::?relay`
        FUNCTION `??osal_isbufset::?relay`,0203H
        PUBLIC `??osal_isr_register::?relay`
        FUNCTION `??osal_isr_register::?relay`,0203H
        PUBLIC `??osal_memcmp::?relay`
        FUNCTION `??osal_memcmp::?relay`,0203H
        PUBLIC `??osal_memcpy::?relay`
        FUNCTION `??osal_memcpy::?relay`,0203H
        PUBLIC `??osal_memdup::?relay`
        FUNCTION `??osal_memdup::?relay`,0203H
        PUBLIC `??osal_memset::?relay`
        FUNCTION `??osal_memset::?relay`,0203H
        PUBLIC `??osal_msg_allocate::?relay`
        FUNCTION `??osal_msg_allocate::?relay`,0203H
        PUBLIC `??osal_msg_count::?relay`
        FUNCTION `??osal_msg_count::?relay`,0203H
        PUBLIC `??osal_msg_deallocate::?relay`
        FUNCTION `??osal_msg_deallocate::?relay`,0203H
        PUBLIC `??osal_msg_dequeue::?relay`
        FUNCTION `??osal_msg_dequeue::?relay`,0203H
        PUBLIC `??osal_msg_enqueue::?relay`
        FUNCTION `??osal_msg_enqueue::?relay`,0203H
        PUBLIC `??osal_msg_enqueue_max::?relay`
        FUNCTION `??osal_msg_enqueue_max::?relay`,0203H
        FUNCTION `??osal_msg_enqueue_push::?relay`,0203H
        PUBLIC `??osal_msg_extract::?relay`
        FUNCTION `??osal_msg_extract::?relay`,0203H
        PUBLIC `??osal_msg_find::?relay`
        FUNCTION `??osal_msg_find::?relay`,0203H
        PUBLIC `??osal_msg_push::?relay`
        FUNCTION `??osal_msg_push::?relay`,0203H
        PUBLIC `??osal_msg_push_front::?relay`
        FUNCTION `??osal_msg_push_front::?relay`,0203H
        PUBLIC `??osal_msg_receive::?relay`
        FUNCTION `??osal_msg_receive::?relay`,0203H
        PUBLIC `??osal_msg_send::?relay`
        FUNCTION `??osal_msg_send::?relay`,0203H
        PUBLIC `??osal_rand::?relay`
        FUNCTION `??osal_rand::?relay`,0203H
        PUBLIC `??osal_revmemcpy::?relay`
        FUNCTION `??osal_revmemcpy::?relay`,0203H
        PUBLIC `??osal_run_system::?relay`
        FUNCTION `??osal_run_system::?relay`,0203H
        PUBLIC `??osal_self::?relay`
        FUNCTION `??osal_self::?relay`,0203H
        PUBLIC `??osal_set_event::?relay`
        FUNCTION `??osal_set_event::?relay`,0203H
        PUBLIC `??osal_start_system::?relay`
        FUNCTION `??osal_start_system::?relay`,0203H
        PUBLIC `??osal_strlen::?relay`
        FUNCTION `??osal_strlen::?relay`,0203H
        PUBWEAK _A_IEN0
        PUBWEAK __Constant_2710
        PUBWEAK __Constant_5f5e100
        PUBLIC _ltoa
        FUNCTION _ltoa,0a1203H
        ARGFRAME XSTACK, 2, STACK
        LOCFRAME XSTACK, 56, STACK
        PUBLIC osal_buffer_uint24
        FUNCTION osal_buffer_uint24,080203H
        ARGFRAME XSTACK, 4, STACK
        LOCFRAME ISTACK, 1, STACK
        LOCFRAME XSTACK, 16, STACK
        PUBLIC osal_buffer_uint32
        FUNCTION osal_buffer_uint32,080203H
        ARGFRAME XSTACK, 4, STACK
        LOCFRAME ISTACK, 1, STACK
        LOCFRAME XSTACK, 16, STACK
        PUBLIC osal_build_uint16
        FUNCTION osal_build_uint16,0203H
        ARGFRAME XSTACK, 0, STACK
        LOCFRAME ISTACK, 2, STACK
        PUBLIC osal_build_uint32
        FUNCTION osal_build_uint32,080203H
        ARGFRAME XSTACK, 0, STACK
        LOCFRAME XSTACK, 16, STACK
        PUBLIC osal_clear_event
        FUNCTION osal_clear_event,080203H
        ARGFRAME XSTACK, 14, STACK
        ARGFRAME IOVERLAY, 0, STATIC
        ARGFRAME DOVERLAY, 0, STATIC
        LOCFRAME XSTACK, 9, STACK
        PUBLIC osal_init_system
        FUNCTION osal_init_system,021203H
        ARGFRAME XSTACK, 0, STACK
        LOCFRAME ISTACK, 2, STACK
        PUBLIC osal_int_disable
        FUNCTION osal_int_disable,0203H
        ARGFRAME XSTACK, 0, STACK
        PUBLIC osal_int_enable
        FUNCTION osal_int_enable,0203H
        ARGFRAME XSTACK, 0, STACK
        PUBLIC osal_isbufset
        FUNCTION osal_isbufset,0203H
        ARGFRAME XSTACK, 0, STACK
        LOCFRAME XSTACK, 9, STACK
        PUBLIC osal_isr_register
        FUNCTION osal_isr_register,0203H
        ARGFRAME XSTACK, 0, STACK
        PUBLIC osal_memcmp
        FUNCTION osal_memcmp,080203H
        ARGFRAME XSTACK, 3, STACK
        LOCFRAME XSTACK, 26, STACK
        PUBLIC osal_memcpy
        FUNCTION osal_memcpy,080203H
        ARGFRAME XSTACK, 18, STACK
        ARGFRAME IOVERLAY, 0, STATIC
        ARGFRAME DOVERLAY, 0, STATIC
        LOCFRAME ISTACK, 1, STACK
        LOCFRAME XSTACK, 15, STACK
        PUBLIC osal_memdup
        FUNCTION osal_memdup,0a1203H
        ARGFRAME XSTACK, 0, STACK
        LOCFRAME XSTACK, 18, STACK
        PUBLIC osal_memset
        FUNCTION osal_memset,0a1203H
        ARGFRAME XSTACK, 0, STACK
        LOCFRAME XSTACK, 13, STACK
        PUBLIC osal_msg_allocate
        FUNCTION osal_msg_allocate,0a1203H
        ARGFRAME XSTACK, 0, STACK
        LOCFRAME XSTACK, 12, STACK
        PUBLIC osal_msg_count
        FUNCTION osal_msg_count,0203H
        ARGFRAME XSTACK, 0, STACK
        LOCFRAME XSTACK, 9, STACK
        PUBLIC osal_msg_deallocate
        FUNCTION osal_msg_deallocate,0a1203H
        ARGFRAME XSTACK, 10, STACK
        ARGFRAME IOVERLAY, 0, STATIC
        ARGFRAME DOVERLAY, 0, STATIC
        LOCFRAME XSTACK, 10, STACK
        PUBLIC osal_msg_dequeue
        FUNCTION osal_msg_dequeue,0203H
        ARGFRAME XSTACK, 0, STACK
        LOCFRAME XSTACK, 9, STACK
        PUBLIC osal_msg_enqueue
        FUNCTION osal_msg_enqueue,080203H
        ARGFRAME XSTACK, 10, STACK
        ARGFRAME IOVERLAY, 0, STATIC
        ARGFRAME DOVERLAY, 0, STATIC
        LOCFRAME XSTACK, 9, STACK
        PUBLIC osal_msg_enqueue_max
        FUNCTION osal_msg_enqueue_max,080203H
        ARGFRAME XSTACK, 0, STACK
        LOCFRAME XSTACK, 11, STACK
        FUNCTION osal_msg_enqueue_push,0a1203H
        ARGFRAME XSTACK, 9, STACK
        ARGFRAME IOVERLAY, 0, STATIC
        ARGFRAME DOVERLAY, 0, STATIC
        LOCFRAME ISTACK, 1, STACK
        LOCFRAME XSTACK, 10, STACK
        PUBLIC osal_msg_extract
        FUNCTION osal_msg_extract,080203H
        ARGFRAME XSTACK, 16, STACK
        ARGFRAME IOVERLAY, 0, STATIC
        ARGFRAME DOVERLAY, 0, STATIC
        LOCFRAME XSTACK, 10, STACK
        PUBLIC osal_msg_find
        FUNCTION osal_msg_find,0203H
        ARGFRAME XSTACK, 0, STACK
        LOCFRAME XSTACK, 9, STACK
        PUBLIC osal_msg_push
        FUNCTION osal_msg_push,0203H
        ARGFRAME XSTACK, 10, STACK
        ARGFRAME IOVERLAY, 0, STATIC
        ARGFRAME DOVERLAY, 0, STATIC
        LOCFRAME XSTACK, 9, STACK
        PUBLIC osal_msg_push_front
        FUNCTION osal_msg_push_front,0a1203H
        ARGFRAME XSTACK, 0, STACK
        LOCFRAME XSTACK, 9, STACK
        PUBLIC osal_msg_receive
        FUNCTION osal_msg_receive,0a1203H
        ARGFRAME XSTACK, 0, STACK
        LOCFRAME XSTACK, 16, STACK
        PUBLIC osal_msg_send
        FUNCTION osal_msg_send,0a1203H
        ARGFRAME XSTACK, 0, STACK
        LOCFRAME XSTACK, 9, STACK
        PUBLIC osal_qHead
        PUBLIC osal_rand
        FUNCTION osal_rand,021203H
        ARGFRAME XSTACK, 0, STACK
        LOCFRAME ISTACK, 2, STACK
        PUBLIC osal_revmemcpy
        FUNCTION osal_revmemcpy,080203H
        ARGFRAME XSTACK, 3, STACK
        LOCFRAME ISTACK, 1, STACK
        LOCFRAME XSTACK, 15, STACK
        PUBLIC osal_run_system
        FUNCTION osal_run_system,0a1203H
        ARGFRAME XSTACK, 0, STACK
        ARGFRAME IOVERLAY, 0, STATIC
        ARGFRAME DOVERLAY, 0, STATIC
        LOCFRAME XSTACK, 14, STACK
        PUBLIC osal_self
        FUNCTION osal_self,0203H
        ARGFRAME XSTACK, 0, STACK
        LOCFRAME ISTACK, 2, STACK
        PUBLIC osal_set_event
        FUNCTION osal_set_event,0203H
        ARGFRAME XSTACK, 14, STACK
        ARGFRAME IOVERLAY, 0, STATIC
        ARGFRAME DOVERLAY, 0, STATIC
        LOCFRAME XSTACK, 9, STACK
        PUBLIC osal_start_system
        FUNCTION osal_start_system,021203H
        ARGFRAME XSTACK, 0, STACK
        LOCFRAME ISTACK, 2, STACK
        PUBLIC osal_strlen
        FUNCTION osal_strlen,021203H
        ARGFRAME XSTACK, 0, STACK
        LOCFRAME XSTACK, 9, STACK
        
          CFI Names cfiNames0
          CFI StackFrame CFA_SP SP IDATA
          CFI StackFrame CFA_PSP16 PSP16 XDATA
          CFI StackFrame CFA_XSP16 XSP16 XDATA
          CFI StaticOverlayFrame CFA_IOVERLAY IOVERLAY
          CFI StaticOverlayFrame CFA_DOVERLAY DOVERLAY
          CFI Resource `PSW.CY`:1, `B.BR0`:1, `B.BR1`:1, `B.BR2`:1, `B.BR3`:1
          CFI Resource `B.BR4`:1, `B.BR5`:1, `B.BR6`:1, `B.BR7`:1, `VB.BR8`:1
          CFI Resource `VB.BR9`:1, `VB.BR10`:1, `VB.BR11`:1, `VB.BR12`:1
          CFI Resource `VB.BR13`:1, `VB.BR14`:1, `VB.BR15`:1, VB:8, B:8, A:8
          CFI Resource PSW:8, DPL0:8, DPH0:8, R0:8, R1:8, R2:8, R3:8, R4:8, R5:8
          CFI Resource R6:8, R7:8, V0:8, V1:8, V2:8, V3:8, V4:8, V5:8, V6:8, V7:8
          CFI Resource V8:8, V9:8, V10:8, V11:8, V12:8, V13:8, V14:8, V15:8, SP:8
          CFI Resource PSPH:8, PSPL:8, PSP16:16, XSPH:8, XSPL:8, XSP16:16
          CFI VirtualResource ?RET:24
          CFI Resource ?BRET_EXT:8
          CFI VirtualResource ?RET_HIGH:8, ?RET_LOW:8
          CFI ResourceParts PSP16 PSPH, PSPL
          CFI ResourceParts XSP16 XSPH, XSPL
          CFI ResourceParts ?RET ?BRET_EXT, ?RET_HIGH, ?RET_LOW
          CFI EndNames cfiNames0
        
          CFI Common cfiCommon0 Using cfiNames0
          CFI CodeAlign 1
          CFI DataAlign -1
          CFI ReturnAddress ?RET CODE
          CFI CFA_DOVERLAY Used
          CFI CFA_IOVERLAY Used
          CFI CFA_SP SP+-3
          CFI CFA_PSP16 PSP16+0
          CFI CFA_XSP16 XSP16+0
          CFI `PSW.CY` SameValue
          CFI `B.BR0` SameValue
          CFI `B.BR1` SameValue
          CFI `B.BR2` SameValue
          CFI `B.BR3` SameValue
          CFI `B.BR4` SameValue
          CFI `B.BR5` SameValue
          CFI `B.BR6` SameValue
          CFI `B.BR7` SameValue
          CFI `VB.BR8` SameValue
          CFI `VB.BR9` SameValue
          CFI `VB.BR10` SameValue
          CFI `VB.BR11` SameValue
          CFI `VB.BR12` SameValue
          CFI `VB.BR13` SameValue
          CFI `VB.BR14` SameValue
          CFI `VB.BR15` SameValue
          CFI VB SameValue
          CFI B Undefined
          CFI A Undefined
          CFI PSW SameValue
          CFI DPL0 SameValue
          CFI DPH0 SameValue
          CFI R0 Undefined
          CFI R1 Undefined
          CFI R2 Undefined
          CFI R3 Undefined
          CFI R4 Undefined
          CFI R5 Undefined
          CFI R6 SameValue
          CFI R7 SameValue
          CFI V0 SameValue
          CFI V1 SameValue
          CFI V2 SameValue
          CFI V3 SameValue
          CFI V4 SameValue
          CFI V5 SameValue
          CFI V6 SameValue
          CFI V7 SameValue
          CFI V8 SameValue
          CFI V9 SameValue
          CFI V10 SameValue
          CFI V11 SameValue
          CFI V12 SameValue
          CFI V13 SameValue
          CFI V14 SameValue
          CFI V15 SameValue
          CFI PSPH Undefined
          CFI PSPL Undefined
          CFI XSPH Undefined
          CFI XSPL Undefined
          CFI ?RET Concat
          CFI ?BRET_EXT Frame(CFA_SP, 3)
          CFI ?RET_HIGH Frame(CFA_SP, 2)
          CFI ?RET_LOW Frame(CFA_SP, 1)
          CFI EndCommon cfiCommon0
        
Hal_ProcessPoll     SYMBOL "Hal_ProcessPoll"
`??Hal_ProcessPoll::?relay` SYMBOL "?relay", Hal_ProcessPoll
Onboard_rand        SYMBOL "Onboard_rand"
`??Onboard_rand::?relay` SYMBOL "?relay", Onboard_rand
_itoa               SYMBOL "_itoa"
`??_itoa::?relay`   SYMBOL "?relay", _itoa
memset              SYMBOL "memset"
`??memset::?relay`  SYMBOL "?relay", memset
osalInitTasks       SYMBOL "osalInitTasks"
`??osalInitTasks::?relay` SYMBOL "?relay", osalInitTasks
osalTimeUpdate      SYMBOL "osalTimeUpdate"
`??osalTimeUpdate::?relay` SYMBOL "?relay", osalTimeUpdate
osalTimerInit       SYMBOL "osalTimerInit"
`??osalTimerInit::?relay` SYMBOL "?relay", osalTimerInit
osal_mem_alloc      SYMBOL "osal_mem_alloc"
`??osal_mem_alloc::?relay` SYMBOL "?relay", osal_mem_alloc
osal_mem_free       SYMBOL "osal_mem_free"
`??osal_mem_free::?relay` SYMBOL "?relay", osal_mem_free
osal_mem_init       SYMBOL "osal_mem_init"
`??osal_mem_init::?relay` SYMBOL "?relay", osal_mem_init
osal_mem_kick       SYMBOL "osal_mem_kick"
`??osal_mem_kick::?relay` SYMBOL "?relay", osal_mem_kick
osal_pwrmgr_init    SYMBOL "osal_pwrmgr_init"
`??osal_pwrmgr_init::?relay` SYMBOL "?relay", osal_pwrmgr_init
strcat              SYMBOL "strcat"
`??strcat::?relay`  SYMBOL "?relay", strcat
strcpy              SYMBOL "strcpy"
`??strcpy::?relay`  SYMBOL "?relay", strcpy
strlen              SYMBOL "strlen"
`??strlen::?relay`  SYMBOL "?relay", strlen
_ltoa               SYMBOL "_ltoa"
`??_ltoa::?relay`   SYMBOL "?relay", _ltoa
osal_buffer_uint24  SYMBOL "osal_buffer_uint24"
`??osal_buffer_uint24::?relay` SYMBOL "?relay", osal_buffer_uint24
osal_buffer_uint32  SYMBOL "osal_buffer_uint32"
`??osal_buffer_uint32::?relay` SYMBOL "?relay", osal_buffer_uint32
osal_build_uint16   SYMBOL "osal_build_uint16"
`??osal_build_uint16::?relay` SYMBOL "?relay", osal_build_uint16
osal_build_uint32   SYMBOL "osal_build_uint32"
`??osal_build_uint32::?relay` SYMBOL "?relay", osal_build_uint32
osal_clear_event    SYMBOL "osal_clear_event"
`??osal_clear_event::?relay` SYMBOL "?relay", osal_clear_event
osal_init_system    SYMBOL "osal_init_system"
`??osal_init_system::?relay` SYMBOL "?relay", osal_init_system
osal_int_disable    SYMBOL "osal_int_disable"
`??osal_int_disable::?relay` SYMBOL "?relay", osal_int_disable
osal_int_enable     SYMBOL "osal_int_enable"
`??osal_int_enable::?relay` SYMBOL "?relay", osal_int_enable
osal_isbufset       SYMBOL "osal_isbufset"
`??osal_isbufset::?relay` SYMBOL "?relay", osal_isbufset
osal_isr_register   SYMBOL "osal_isr_register"
`??osal_isr_register::?relay` SYMBOL "?relay", osal_isr_register
osal_memcmp         SYMBOL "osal_memcmp"
`??osal_memcmp::?relay` SYMBOL "?relay", osal_memcmp
osal_memcpy         SYMBOL "osal_memcpy"
`??osal_memcpy::?relay` SYMBOL "?relay", osal_memcpy
osal_memdup         SYMBOL "osal_memdup"
`??osal_memdup::?relay` SYMBOL "?relay", osal_memdup
osal_memset         SYMBOL "osal_memset"
`??osal_memset::?relay` SYMBOL "?relay", osal_memset
osal_msg_allocate   SYMBOL "osal_msg_allocate"
`??osal_msg_allocate::?relay` SYMBOL "?relay", osal_msg_allocate
osal_msg_count      SYMBOL "osal_msg_count"
`??osal_msg_count::?relay` SYMBOL "?relay", osal_msg_count
osal_msg_deallocate SYMBOL "osal_msg_deallocate"
`??osal_msg_deallocate::?relay` SYMBOL "?relay", osal_msg_deallocate
osal_msg_dequeue    SYMBOL "osal_msg_dequeue"
`??osal_msg_dequeue::?relay` SYMBOL "?relay", osal_msg_dequeue
osal_msg_enqueue    SYMBOL "osal_msg_enqueue"
`??osal_msg_enqueue::?relay` SYMBOL "?relay", osal_msg_enqueue
osal_msg_enqueue_max SYMBOL "osal_msg_enqueue_max"
`??osal_msg_enqueue_max::?relay` SYMBOL "?relay", osal_msg_enqueue_max
osal_msg_extract    SYMBOL "osal_msg_extract"
`??osal_msg_extract::?relay` SYMBOL "?relay", osal_msg_extract
osal_msg_find       SYMBOL "osal_msg_find"
`??osal_msg_find::?relay` SYMBOL "?relay", osal_msg_find
osal_msg_push       SYMBOL "osal_msg_push"
`??osal_msg_push::?relay` SYMBOL "?relay", osal_msg_push
osal_msg_push_front SYMBOL "osal_msg_push_front"
`??osal_msg_push_front::?relay` SYMBOL "?relay", osal_msg_push_front
osal_msg_receive    SYMBOL "osal_msg_receive"
`??osal_msg_receive::?relay` SYMBOL "?relay", osal_msg_receive
osal_msg_send       SYMBOL "osal_msg_send"
`??osal_msg_send::?relay` SYMBOL "?relay", osal_msg_send
osal_rand           SYMBOL "osal_rand"
`??osal_rand::?relay` SYMBOL "?relay", osal_rand
osal_revmemcpy      SYMBOL "osal_revmemcpy"
`??osal_revmemcpy::?relay` SYMBOL "?relay", osal_revmemcpy
osal_run_system     SYMBOL "osal_run_system"
`??osal_run_system::?relay` SYMBOL "?relay", osal_run_system
osal_self           SYMBOL "osal_self"
`??osal_self::?relay` SYMBOL "?relay", osal_self
osal_set_event      SYMBOL "osal_set_event"
`??osal_set_event::?relay` SYMBOL "?relay", osal_set_event
osal_start_system   SYMBOL "osal_start_system"
`??osal_start_system::?relay` SYMBOL "?relay", osal_start_system
osal_strlen         SYMBOL "osal_strlen"
`??osal_strlen::?relay` SYMBOL "?relay", osal_strlen

        EXTERN `??Hal_ProcessPoll::?relay`
        FUNCTION `??Hal_ProcessPoll::?relay`,00H
        EXTERN `??Onboard_rand::?relay`
        FUNCTION `??Onboard_rand::?relay`,00H
        EXTERN `??_itoa::?relay`
        FUNCTION `??_itoa::?relay`,00H
        EXTERN `??memset::?relay`
        FUNCTION `??memset::?relay`,00H
        EXTERN `??osalInitTasks::?relay`
        FUNCTION `??osalInitTasks::?relay`,00H
        EXTERN `??osalTimeUpdate::?relay`
        FUNCTION `??osalTimeUpdate::?relay`,00H
        EXTERN `??osalTimerInit::?relay`
        FUNCTION `??osalTimerInit::?relay`,00H
        EXTERN `??osal_mem_alloc::?relay`
        FUNCTION `??osal_mem_alloc::?relay`,00H
        EXTERN `??osal_mem_free::?relay`
        FUNCTION `??osal_mem_free::?relay`,00H
        EXTERN `??osal_mem_init::?relay`
        FUNCTION `??osal_mem_init::?relay`,00H
        EXTERN `??osal_mem_kick::?relay`
        FUNCTION `??osal_mem_kick::?relay`,00H
        EXTERN `??osal_pwrmgr_init::?relay`
        FUNCTION `??osal_pwrmgr_init::?relay`,00H
        EXTERN `??strcat::?relay`
        FUNCTION `??strcat::?relay`,00H
        EXTERN `??strcpy::?relay`
        FUNCTION `??strcpy::?relay`,00H
        EXTERN `??strlen::?relay`
        FUNCTION `??strlen::?relay`,00H
        EXTERN Hal_ProcessPoll
        FUNCTION Hal_ProcessPoll,0202H
        ARGFRAME ISTACK, 0, STACK
        ARGFRAME PSTACK, 0, STACK
        ARGFRAME XSTACK, 14, STACK
        ARGFRAME IOVERLAY, 0, STATIC
        ARGFRAME DOVERLAY, 0, STATIC
        EXTERN Onboard_rand
        FUNCTION Onboard_rand,0202H
        ARGFRAME ISTACK, 2, STACK
        ARGFRAME PSTACK, 0, STACK
        ARGFRAME XSTACK, 0, STACK
        ARGFRAME IOVERLAY, 0, STATIC
        ARGFRAME DOVERLAY, 0, STATIC
        EXTERN _itoa
        FUNCTION _itoa,0202H
        ARGFRAME ISTACK, 0, STACK
        ARGFRAME PSTACK, 0, STACK
        ARGFRAME XSTACK, 56, STACK
        ARGFRAME IOVERLAY, 0, STATIC
        ARGFRAME DOVERLAY, 0, STATIC
        EXTERN memset
        FUNCTION memset,010202H
        ARGFRAME ISTACK, 0, STACK
        ARGFRAME PSTACK, 0, STACK
        ARGFRAME XSTACK, 13, STACK
        ARGFRAME IOVERLAY, 0, STATIC
        ARGFRAME DOVERLAY, 0, STATIC
        EXTERN osalInitTasks
        FUNCTION osalInitTasks,0202H
        ARGFRAME ISTACK, 2, STACK
        ARGFRAME PSTACK, 0, STACK
        ARGFRAME XSTACK, 0, STACK
        ARGFRAME IOVERLAY, 0, STATIC
        ARGFRAME DOVERLAY, 0, STATIC
        EXTERN osalTimeUpdate
        FUNCTION osalTimeUpdate,0202H
        ARGFRAME ISTACK, 0, STACK
        ARGFRAME PSTACK, 0, STACK
        ARGFRAME XSTACK, 14, STACK
        ARGFRAME IOVERLAY, 0, STATIC
        ARGFRAME DOVERLAY, 0, STATIC
        EXTERN osalTimerInit
        FUNCTION osalTimerInit,0202H
        ARGFRAME ISTACK, 2, STACK
        ARGFRAME PSTACK, 0, STACK
        ARGFRAME XSTACK, 0, STACK
        ARGFRAME IOVERLAY, 0, STATIC
        ARGFRAME DOVERLAY, 0, STATIC
        EXTERN osal_mem_alloc
        FUNCTION osal_mem_alloc,0202H
        ARGFRAME ISTACK, 0, STACK
        ARGFRAME PSTACK, 0, STACK
        ARGFRAME XSTACK, 15, STACK
        ARGFRAME IOVERLAY, 0, STATIC
        ARGFRAME DOVERLAY, 0, STATIC
        EXTERN osal_mem_free
        FUNCTION osal_mem_free,0202H
        ARGFRAME ISTACK, 0, STACK
        ARGFRAME PSTACK, 0, STACK
        ARGFRAME XSTACK, 10, STACK
        ARGFRAME IOVERLAY, 0, STATIC
        ARGFRAME DOVERLAY, 0, STATIC
        EXTERN osal_mem_init
        FUNCTION osal_mem_init,0202H
        ARGFRAME ISTACK, 2, STACK
        ARGFRAME PSTACK, 0, STACK
        ARGFRAME XSTACK, 0, STACK
        ARGFRAME IOVERLAY, 0, STATIC
        ARGFRAME DOVERLAY, 0, STATIC
        EXTERN osal_mem_kick
        FUNCTION osal_mem_kick,0202H
        ARGFRAME ISTACK, 2, STACK
        ARGFRAME PSTACK, 0, STACK
        ARGFRAME XSTACK, 0, STACK
        ARGFRAME IOVERLAY, 0, STATIC
        ARGFRAME DOVERLAY, 0, STATIC
        EXTERN osal_pwrmgr_init
        FUNCTION osal_pwrmgr_init,0202H
        ARGFRAME ISTACK, 2, STACK
        ARGFRAME PSTACK, 0, STACK
        ARGFRAME XSTACK, 0, STACK
        ARGFRAME IOVERLAY, 0, STATIC
        ARGFRAME DOVERLAY, 0, STATIC
        EXTERN strcat
        FUNCTION strcat,010202H
        ARGFRAME ISTACK, 0, STACK
        ARGFRAME PSTACK, 0, STACK
        ARGFRAME XSTACK, 56, STACK
        ARGFRAME IOVERLAY, 0, STATIC
        ARGFRAME DOVERLAY, 0, STATIC
        EXTERN strcpy
        FUNCTION strcpy,010202H
        ARGFRAME ISTACK, 0, STACK
        ARGFRAME PSTACK, 0, STACK
        ARGFRAME XSTACK, 56, STACK
        ARGFRAME IOVERLAY, 0, STATIC
        ARGFRAME DOVERLAY, 0, STATIC
        EXTERN strlen
        FUNCTION strlen,010202H
        ARGFRAME ISTACK, 0, STACK
        ARGFRAME PSTACK, 0, STACK
        ARGFRAME XSTACK, 56, STACK
        ARGFRAME IOVERLAY, 0, STATIC
        ARGFRAME DOVERLAY, 0, STATIC
        EXTERN tasksArr
        EXTERN tasksCnt
        EXTERN tasksEvents

// C:\Texas Instruments\Z-Stack Mesh 1.0.0_chaokw_20160317\Z-Stack Mesh 1.0.0_chaokw_20160316\Z-Stack Mesh 1.0.0_LCDOK\Z-Stack Mesh 1.0.0\Components\osal\common\OSAL.c
//    1 /**************************************************************************************************
//    2   Filename:       OSAL.c
//    3   Revised:        $Date: 2014-05-06 09:41:18 -0700 (Tue, 06 May 2014) $
//    4   Revision:       $Revision: 38415 $
//    5 
//    6   Description:    This API allows the software components in the Z-stack to be written
//    7                   independently of the specifics of the operating system, kernel or tasking
//    8                   environment (including control loops or connect-to-interrupt systems).
//    9 
//   10 
//   11   Copyright 2004-2014 Texas Instruments Incorporated. All rights reserved.
//   12 
//   13   IMPORTANT: Your use of this Software is limited to those specific rights
//   14   granted under the terms of a software license agreement between the user
//   15   who downloaded the software, his/her employer (which must be your employer)
//   16   and Texas Instruments Incorporated (the "License"). You may not use this
//   17   Software unless you agree to abide by the terms of the License. The License
//   18   limits your use, and you acknowledge, that the Software may not be modified,
//   19   copied or distributed unless embedded on a Texas Instruments microcontroller
//   20   or used solely and exclusively in conjunction with a Texas Instruments radio
//   21   frequency transceiver, which is integrated into your product. Other than for
//   22   the foregoing purpose, you may not use, reproduce, copy, prepare derivative
//   23   works of, modify, distribute, perform, display or sell this Software and/or
//   24   its documentation for any purpose.
//   25 
//   26   YOU FURTHER ACKNOWLEDGE AND AGREE THAT THE SOFTWARE AND DOCUMENTATION ARE
//   27   PROVIDED “AS IS” WITHOUT WARRANTY OF ANY KIND, EITHER EXPRESS OR IMPLIED,
//   28   INCLUDING WITHOUT LIMITATION, ANY WARRANTY OF MERCHANTABILITY, TITLE,
//   29   NON-INFRINGEMENT AND FITNESS FOR A PARTICULAR PURPOSE. IN NO EVENT SHALL
//   30   TEXAS INSTRUMENTS OR ITS LICENSORS BE LIABLE OR OBLIGATED UNDER CONTRACT,
//   31   NEGLIGENCE, STRICT LIABILITY, CONTRIBUTION, BREACH OF WARRANTY, OR OTHER
//   32   LEGAL EQUITABLE THEORY ANY DIRECT OR INDIRECT DAMAGES OR EXPENSES
//   33   INCLUDING BUT NOT LIMITED TO ANY INCIDENTAL, SPECIAL, INDIRECT, PUNITIVE
//   34   OR CONSEQUENTIAL DAMAGES, LOST PROFITS OR LOST DATA, COST OF PROCUREMENT
//   35   OF SUBSTITUTE GOODS, TECHNOLOGY, SERVICES, OR ANY CLAIMS BY THIRD PARTIES
//   36   (INCLUDING BUT NOT LIMITED TO ANY DEFENSE THEREOF), OR OTHER SIMILAR COSTS.
//   37 
//   38   Should you have any questions regarding your right to use this Software,
//   39   contact Texas Instruments Incorporated at www.TI.com.
//   40 **************************************************************************************************/
//   41 
//   42 /*********************************************************************
//   43  * INCLUDES
//   44  */
//   45 
//   46 #include <string.h>
//   47 
//   48 #include "comdef.h"
//   49 #include "hal_board.h"

        ASEGN SFR_AN:DATA:NOROOT,0a8H
// union <unnamed> volatile __sfr _A_IEN0
_A_IEN0:
        DATA8
        DS 1
//   50 #include "OSAL.h"
//   51 #include "OSAL_Tasks.h"
//   52 #include "OSAL_Memory.h"
//   53 #include "OSAL_PwrMgr.h"
//   54 #include "OSAL_Clock.h"
//   55 
//   56 #include "OnBoard.h"
//   57 
//   58 /* HAL */
//   59 #include "hal_drivers.h"
//   60 
//   61 #ifdef IAR_ARMCM3_LM
//   62   #include "FreeRTOSConfig.h"
//   63   #include "osal_task.h"
//   64 #endif
//   65 
//   66 /*********************************************************************
//   67  * MACROS
//   68  */
//   69 
//   70 /*********************************************************************
//   71  * CONSTANTS
//   72  */
//   73 
//   74 /*********************************************************************
//   75  * TYPEDEFS
//   76  */
//   77 
//   78 /*********************************************************************
//   79  * GLOBAL VARIABLES
//   80  */
//   81 
//   82 // Message Pool Definitions

        RSEG XDATA_Z:XDATA:NOROOT(0)
        DATA16
//   83 osal_msg_q_t osal_qHead;
osal_qHead:
        DS 2
        REQUIRE __INIT_XDATA_Z
//   84 
//   85 /*********************************************************************
//   86  * EXTERNAL VARIABLES
//   87  */
//   88 
//   89 /*********************************************************************
//   90  * EXTERNAL FUNCTIONS
//   91  */
//   92 
//   93 /*********************************************************************
//   94  * LOCAL VARIABLES
//   95  */
//   96 
//   97 // Index of active task

        RSEG XDATA_I:XDATA:NOROOT(0)
//   98 static uint8 activeTaskID = TASK_NO_TASK;
activeTaskID:
        DATA8
        DS 1
        REQUIRE `?<Initializer for activeTaskID>`
        REQUIRE __INIT_XDATA_I
//   99 
//  100 /*********************************************************************
//  101  * LOCAL FUNCTION PROTOTYPES
//  102  */
//  103 
//  104 static uint8 osal_msg_enqueue_push( uint8 destination_task, uint8 *msg_ptr, uint8 urgent );
//  105 
//  106 /*********************************************************************
//  107  * HELPER FUNCTIONS
//  108  */
//  109 /* very ugly stub so Keil can compile */
//  110 #ifdef __KEIL__
//  111 char *  itoa ( int value, char * buffer, int radix )
//  112 {
//  113   return(buffer);
//  114 }
//  115 #endif
//  116 
//  117 /*********************************************************************
//  118  * @fn      osal_strlen
//  119  *
//  120  * @brief
//  121  *
//  122  *   Calculates the length of a string.  The string must be null
//  123  *   terminated.
//  124  *
//  125  * @param   char *pString - pointer to text string
//  126  *
//  127  * @return  int - number of characters
//  128  */

        RSEG BANKED_CODE:CODE:NOROOT(0)
//  129 int osal_strlen( char *pString )
osal_strlen:
          CFI Block cfiBlock0 Using cfiCommon0
          CFI Function osal_strlen
        CODE
//  130 {
        FUNCALL osal_strlen, strlen
        LOCFRAME ISTACK, 0, STACK
        LOCFRAME PSTACK, 0, STACK
        LOCFRAME XSTACK, 9, STACK
        LOCFRAME IOVERLAY, 0, STATIC
        LOCFRAME DOVERLAY, 0, STATIC
        ARGFRAME ISTACK, 0, STACK
        ARGFRAME PSTACK, 0, STACK
        ARGFRAME XSTACK, 9, STACK
        ARGFRAME IOVERLAY, 0, STATIC
        ARGFRAME DOVERLAY, 0, STATIC
        MOV     A,#-0x9
        LCALL   ?BANKED_ENTER_XDATA
          CFI DPH0 load(1, XDATA, add(CFA_XSP16, literal(-1)))
          CFI DPL0 load(1, XDATA, add(CFA_XSP16, literal(-2)))
          CFI ?BRET_EXT load(1, XDATA, add(CFA_XSP16, literal(-3)))
          CFI ?RET_HIGH load(1, XDATA, add(CFA_XSP16, literal(-4)))
          CFI ?RET_LOW load(1, XDATA, add(CFA_XSP16, literal(-5)))
          CFI R7 load(1, XDATA, add(CFA_XSP16, literal(-6)))
          CFI V0 load(1, XDATA, add(CFA_XSP16, literal(-7)))
          CFI VB load(1, XDATA, add(CFA_XSP16, literal(-8)))
          CFI R6 load(1, XDATA, add(CFA_XSP16, literal(-9)))
          CFI CFA_SP SP+0
          CFI CFA_XSP16 add(XSP16, 9)
        ; Saved register size: 9
        ; Auto size: 0
        MOV     A,R2
        MOV     R6,A
        MOV     A,R3
        MOV     R7,A
//  131   return (int)( strlen( pString ) );
        ; Setup parameters for call to function strlen
        MOV     A,R6
        MOV     R2,A
        MOV     A,R7
        MOV     R3,A
        LCALL   `??strlen::?relay`   ; Banked call to: strlen
        MOV     R7,#0x1
        LJMP    ?BANKED_LEAVE_XDATA
//  132 }
          CFI EndBlock cfiBlock0
//  133 
//  134 /*********************************************************************
//  135  * @fn      osal_memcpy
//  136  *
//  137  * @brief
//  138  *
//  139  *   Generic memory copy.
//  140  *
//  141  *   Note: This function differs from the standard memcpy(), since
//  142  *         it returns the pointer to the next destination uint8. The
//  143  *         standard memcpy() returns the original destination address.
//  144  *
//  145  * @param   dst - destination address
//  146  * @param   src - source address
//  147  * @param   len - number of bytes to copy
//  148  *
//  149  * @return  pointer to end of destination buffer
//  150  */

        RSEG BANKED_CODE:CODE:NOROOT(0)
//  151 void *osal_memcpy( void *dst, const void GENERIC *src, unsigned int len )
osal_memcpy:
          CFI Block cfiBlock1 Using cfiCommon0
          CFI Function osal_memcpy
        CODE
//  152 {
        REQUIRE ?V0
        REQUIRE ?V1
        REQUIRE ?V2
        REQUIRE ?V4
        REQUIRE ?V5
        REQUIRE ?V6
        MOV     A,#-0xf
        LCALL   ?BANKED_ENTER_XDATA
          CFI DPH0 load(1, XDATA, add(CFA_XSP16, literal(-1)))
          CFI DPL0 load(1, XDATA, add(CFA_XSP16, literal(-2)))
          CFI ?BRET_EXT load(1, XDATA, add(CFA_XSP16, literal(-3)))
          CFI ?RET_HIGH load(1, XDATA, add(CFA_XSP16, literal(-4)))
          CFI ?RET_LOW load(1, XDATA, add(CFA_XSP16, literal(-5)))
          CFI R7 load(1, XDATA, add(CFA_XSP16, literal(-6)))
          CFI V6 load(1, XDATA, add(CFA_XSP16, literal(-7)))
          CFI V5 load(1, XDATA, add(CFA_XSP16, literal(-8)))
          CFI V4 load(1, XDATA, add(CFA_XSP16, literal(-9)))
          CFI V3 load(1, XDATA, add(CFA_XSP16, literal(-10)))
          CFI V2 load(1, XDATA, add(CFA_XSP16, literal(-11)))
          CFI V1 load(1, XDATA, add(CFA_XSP16, literal(-12)))
          CFI V0 load(1, XDATA, add(CFA_XSP16, literal(-13)))
          CFI VB load(1, XDATA, add(CFA_XSP16, literal(-14)))
          CFI R6 load(1, XDATA, add(CFA_XSP16, literal(-15)))
          CFI CFA_SP SP+0
          CFI CFA_XSP16 add(XSP16, 15)
        ; Saved register size: 15
        ; Auto size: 0
        MOV     A,R2
        MOV     R6,A
        MOV     A,R3
        MOV     R7,A
        MOV     A,#0xf
        LCALL   ?XSTACK_DISP0_8
        MOVX    A,@DPTR
        MOV     ?V4,A
        INC     DPTR
        MOVX    A,@DPTR
        MOV     ?V5,A
        INC     DPTR
        MOVX    A,@DPTR
        MOV     ?V6,A
//  153   uint8 *pDst;
//  154   const uint8 GENERIC *pSrc;
//  155 
//  156   pSrc = src;
        MOV     ?V0,?V4
        MOV     ?V1,?V5
        MOV     ?V2,?V6
//  157   pDst = dst;
        MOV     DPL,R6
        MOV     DPH,R7
//  158 
//  159   while ( len-- )
??osal_memcpy_0:
        MOV     A,R4
        MOV     R0,A
        MOV     A,R5
        MOV     R1,A
        MOV     A,R0
        ADD     A,#-0x1
        MOV     R4,A
        MOV     A,R1
        ADDC    A,#-0x1
        MOV     R5,A
        MOV     A,R0
        ORL     A,R1
        JZ      ??osal_memcpy_1
//  160     *pDst++ = *pSrc++;
        MOV     R1,?V0
        MOV     R2,?V1
        MOV     R3,?V2
        LCALL   ?C_GPTR_LOAD
        PUSH    A
          CFI CFA_SP SP+-1
        POP     A
          CFI CFA_SP SP+0
        MOVX    @DPTR,A
        MOV     A,?V0
        ADD     A,#0x1
        MOV     ?V0,A
        MOV     A,?V1
        ADDC    A,#0x0
        MOV     ?V1,A
        INC     DPTR
        SJMP    ??osal_memcpy_0
//  161 
//  162   return ( pDst );
??osal_memcpy_1:
        MOV     R2,DPL
        MOV     R3,DPH
        MOV     R7,#0x7
        LJMP    ?BANKED_LEAVE_XDATA
//  163 }
          CFI EndBlock cfiBlock1
//  164 
//  165 /*********************************************************************
//  166  * @fn      osal_revmemcpy
//  167  *
//  168  * @brief   Generic reverse memory copy.  Starts at the end of the
//  169  *   source buffer, by taking the source address pointer and moving
//  170  *   pointer ahead "len" bytes, then decrementing the pointer.
//  171  *
//  172  *   Note: This function differs from the standard memcpy(), since
//  173  *         it returns the pointer to the next destination uint8. The
//  174  *         standard memcpy() returns the original destination address.
//  175  *
//  176  * @param   dst - destination address
//  177  * @param   src - source address
//  178  * @param   len - number of bytes to copy
//  179  *
//  180  * @return  pointer to end of destination buffer
//  181  */

        RSEG BANKED_CODE:CODE:NOROOT(0)
//  182 void *osal_revmemcpy( void *dst, const void GENERIC *src, unsigned int len )
osal_revmemcpy:
          CFI Block cfiBlock2 Using cfiCommon0
          CFI Function osal_revmemcpy
        CODE
//  183 {
        REQUIRE ?V0
        REQUIRE ?V1
        REQUIRE ?V2
        REQUIRE ?V3
        REQUIRE ?V4
        REQUIRE ?V5
        REQUIRE ?V6
        MOV     A,#-0xf
        LCALL   ?BANKED_ENTER_XDATA
          CFI DPH0 load(1, XDATA, add(CFA_XSP16, literal(-1)))
          CFI DPL0 load(1, XDATA, add(CFA_XSP16, literal(-2)))
          CFI ?BRET_EXT load(1, XDATA, add(CFA_XSP16, literal(-3)))
          CFI ?RET_HIGH load(1, XDATA, add(CFA_XSP16, literal(-4)))
          CFI ?RET_LOW load(1, XDATA, add(CFA_XSP16, literal(-5)))
          CFI R7 load(1, XDATA, add(CFA_XSP16, literal(-6)))
          CFI V6 load(1, XDATA, add(CFA_XSP16, literal(-7)))
          CFI V5 load(1, XDATA, add(CFA_XSP16, literal(-8)))
          CFI V4 load(1, XDATA, add(CFA_XSP16, literal(-9)))
          CFI V3 load(1, XDATA, add(CFA_XSP16, literal(-10)))
          CFI V2 load(1, XDATA, add(CFA_XSP16, literal(-11)))
          CFI V1 load(1, XDATA, add(CFA_XSP16, literal(-12)))
          CFI V0 load(1, XDATA, add(CFA_XSP16, literal(-13)))
          CFI VB load(1, XDATA, add(CFA_XSP16, literal(-14)))
          CFI R6 load(1, XDATA, add(CFA_XSP16, literal(-15)))
          CFI CFA_SP SP+0
          CFI CFA_XSP16 add(XSP16, 15)
        ; Saved register size: 15
        ; Auto size: 0
        MOV     ?V0,R2
        MOV     ?V1,R3
        MOV     ?V2,R4
        MOV     ?V3,R5
        MOV     A,#0xf
        LCALL   ?XSTACK_DISP0_8
        MOVX    A,@DPTR
        MOV     ?V4,A
        INC     DPTR
        MOVX    A,@DPTR
        MOV     ?V5,A
        INC     DPTR
        MOVX    A,@DPTR
        MOV     ?V6,A
//  184   uint8 *pDst;
//  185   const uint8 GENERIC *pSrc;
//  186 
//  187   pSrc = src;
        MOV     R4,?V4
        MOV     R5,?V5
        MOV     R6,?V6
//  188   pSrc += (len-1);
        MOV     A,R4
        ADD     A,?V2
        MOV     R4,A
        MOV     A,R5
        ADDC    A,?V3
        MOV     R5,A
        MOV     A,R4
        ADD     A,#-0x1
        MOV     R4,A
        MOV     A,R5
        ADDC    A,#-0x1
        MOV     R5,A
//  189   pDst = dst;
        MOV     DPL,?V0
        MOV     DPH,?V1
//  190 
//  191   while ( len-- )
??osal_revmemcpy_0:
        MOV     R0,?V2
        MOV     R1,?V3
        MOV     A,R0
        ADD     A,#-0x1
        MOV     ?V2,A
        MOV     A,R1
        ADDC    A,#-0x1
        MOV     ?V3,A
        MOV     A,R0
        ORL     A,R1
        JZ      ??osal_revmemcpy_1
//  192     *pDst++ = *pSrc--;
        MOV     A,R4
        MOV     R1,A
        MOV     A,R5
        MOV     R2,A
        MOV     A,R6
        MOV     R3,A
        LCALL   ?C_GPTR_LOAD
        PUSH    A
          CFI CFA_SP SP+-1
        POP     A
          CFI CFA_SP SP+0
        MOVX    @DPTR,A
        MOV     A,R4
        ADD     A,#-0x1
        MOV     R4,A
        MOV     A,R5
        ADDC    A,#-0x1
        MOV     R5,A
        INC     DPTR
        SJMP    ??osal_revmemcpy_0
//  193 
//  194   return ( pDst );
??osal_revmemcpy_1:
        MOV     R2,DPL
        MOV     R3,DPH
        MOV     R7,#0x7
        LJMP    ?BANKED_LEAVE_XDATA
//  195 }
          CFI EndBlock cfiBlock2
//  196 
//  197 /*********************************************************************
//  198  * @fn      osal_memdup
//  199  *
//  200  * @brief   Allocates a buffer [with osal_mem_alloc()] and copies
//  201  *          the src buffer into the newly allocated space.
//  202  *
//  203  * @param   src - source address
//  204  * @param   len - number of bytes to copy
//  205  *
//  206  * @return  pointer to the new allocated buffer, or NULL if
//  207  *          allocation problem.
//  208  */

        RSEG BANKED_CODE:CODE:NOROOT(0)
//  209 void *osal_memdup( const void GENERIC *src, unsigned int len )
osal_memdup:
          CFI Block cfiBlock3 Using cfiCommon0
          CFI Function osal_memdup
        CODE
//  210 {
        FUNCALL osal_memdup, osal_mem_alloc
        LOCFRAME ISTACK, 0, STACK
        LOCFRAME PSTACK, 0, STACK
        LOCFRAME XSTACK, 15, STACK
        LOCFRAME IOVERLAY, 0, STATIC
        LOCFRAME DOVERLAY, 0, STATIC
        ARGFRAME ISTACK, 0, STACK
        ARGFRAME PSTACK, 0, STACK
        ARGFRAME XSTACK, 15, STACK
        ARGFRAME IOVERLAY, 0, STATIC
        ARGFRAME DOVERLAY, 0, STATIC
        FUNCALL osal_memdup, osal_memcpy
        LOCFRAME ISTACK, 0, STACK
        LOCFRAME PSTACK, 0, STACK
        LOCFRAME XSTACK, 18, STACK
        LOCFRAME IOVERLAY, 0, STATIC
        LOCFRAME DOVERLAY, 0, STATIC
        ARGFRAME ISTACK, 0, STACK
        ARGFRAME PSTACK, 0, STACK
        ARGFRAME XSTACK, 18, STACK
        ARGFRAME IOVERLAY, 0, STATIC
        ARGFRAME DOVERLAY, 0, STATIC
        REQUIRE ?V0
        REQUIRE ?V1
        REQUIRE ?V2
        REQUIRE ?V3
        REQUIRE ?V4
        REQUIRE ?V5
        REQUIRE ?V6
        MOV     A,#-0xf
        LCALL   ?BANKED_ENTER_XDATA
          CFI DPH0 load(1, XDATA, add(CFA_XSP16, literal(-1)))
          CFI DPL0 load(1, XDATA, add(CFA_XSP16, literal(-2)))
          CFI ?BRET_EXT load(1, XDATA, add(CFA_XSP16, literal(-3)))
          CFI ?RET_HIGH load(1, XDATA, add(CFA_XSP16, literal(-4)))
          CFI ?RET_LOW load(1, XDATA, add(CFA_XSP16, literal(-5)))
          CFI R7 load(1, XDATA, add(CFA_XSP16, literal(-6)))
          CFI V6 load(1, XDATA, add(CFA_XSP16, literal(-7)))
          CFI V5 load(1, XDATA, add(CFA_XSP16, literal(-8)))
          CFI V4 load(1, XDATA, add(CFA_XSP16, literal(-9)))
          CFI V3 load(1, XDATA, add(CFA_XSP16, literal(-10)))
          CFI V2 load(1, XDATA, add(CFA_XSP16, literal(-11)))
          CFI V1 load(1, XDATA, add(CFA_XSP16, literal(-12)))
          CFI V0 load(1, XDATA, add(CFA_XSP16, literal(-13)))
          CFI VB load(1, XDATA, add(CFA_XSP16, literal(-14)))
          CFI R6 load(1, XDATA, add(CFA_XSP16, literal(-15)))
          CFI CFA_SP SP+0
          CFI CFA_XSP16 add(XSP16, 15)
        ; Saved register size: 15
        ; Auto size: 0
        MOV     ?V4,R1
        MOV     ?V5,R2
        MOV     ?V6,R3
        MOV     A,R4
        MOV     R6,A
        MOV     A,R5
        MOV     R7,A
//  211   uint8 *pDst;
//  212 
//  213   pDst = osal_mem_alloc( len );
        ; Setup parameters for call to function osal_mem_alloc
        MOV     A,R6
        MOV     R2,A
        MOV     A,R7
        MOV     R3,A
        LCALL   `??osal_mem_alloc::?relay`; Banked call to: osal_mem_alloc
        MOV     ?V2,R2
        MOV     ?V3,R3
        MOV     ?V0,?V2
        MOV     ?V1,?V3
//  214   if ( pDst )
        MOV     A,?V0
        ORL     A,?V1
        JZ      ??osal_memdup_0
//  215   {
//  216     VOID osal_memcpy( pDst, src, len );
        ; Setup parameters for call to function osal_memcpy
        MOV     R0,#?V4
        LCALL   ?PUSH_XSTACK_I_THREE
          CFI CFA_XSP16 add(XSP16, 18)
        MOV     A,R6
        MOV     R4,A
        MOV     A,R7
        MOV     R5,A
        MOV     R2,?V0
        MOV     R3,?V1
        LCALL   `??osal_memcpy::?relay`; Banked call to: osal_memcpy
        MOV     A,#0x3
        LCALL   ?DEALLOC_XSTACK8
          CFI CFA_XSP16 add(XSP16, 15)
        MOV     ?V2,R2
        MOV     ?V3,R3
        MOV     DPL,?V2
        MOV     DPH,?V3
//  217   }
//  218 
//  219   return ( (void *)pDst );
??osal_memdup_0:
        MOV     R2,?V0
        MOV     R3,?V1
        MOV     R7,#0x7
        LJMP    ?BANKED_LEAVE_XDATA
//  220 }
          CFI EndBlock cfiBlock3
//  221 
//  222 /*********************************************************************
//  223  * @fn      osal_memcmp
//  224  *
//  225  * @brief
//  226  *
//  227  *   Generic memory compare.
//  228  *
//  229  * @param   src1 - source 1 addrexx
//  230  * @param   src2 - source 2 address
//  231  * @param   len - number of bytes to compare
//  232  *
//  233  * @return  TRUE - same, FALSE - different
//  234  */

        RSEG BANKED_CODE:CODE:NOROOT(0)
//  235 uint8 osal_memcmp( const void GENERIC *src1, const void GENERIC *src2, unsigned int len )
osal_memcmp:
          CFI Block cfiBlock4 Using cfiCommon0
          CFI Function osal_memcmp
        CODE
//  236 {
        REQUIRE ?V0
        REQUIRE ?V1
        REQUIRE ?V2
        REQUIRE ?V4
        REQUIRE ?V5
        REQUIRE ?V6
        REQUIRE ?V8
        REQUIRE ?V9
        REQUIRE ?V10
        REQUIRE ?V12
        REQUIRE ?V13
        REQUIRE ?V14
        MOV     A,#-0x17
        LCALL   ?BANKED_ENTER_XDATA
          CFI DPH0 load(1, XDATA, add(CFA_XSP16, literal(-1)))
          CFI DPL0 load(1, XDATA, add(CFA_XSP16, literal(-2)))
          CFI ?BRET_EXT load(1, XDATA, add(CFA_XSP16, literal(-3)))
          CFI ?RET_HIGH load(1, XDATA, add(CFA_XSP16, literal(-4)))
          CFI ?RET_LOW load(1, XDATA, add(CFA_XSP16, literal(-5)))
          CFI R7 load(1, XDATA, add(CFA_XSP16, literal(-6)))
          CFI V14 load(1, XDATA, add(CFA_XSP16, literal(-7)))
          CFI V13 load(1, XDATA, add(CFA_XSP16, literal(-8)))
          CFI V12 load(1, XDATA, add(CFA_XSP16, literal(-9)))
          CFI V11 load(1, XDATA, add(CFA_XSP16, literal(-10)))
          CFI V10 load(1, XDATA, add(CFA_XSP16, literal(-11)))
          CFI V9 load(1, XDATA, add(CFA_XSP16, literal(-12)))
          CFI V8 load(1, XDATA, add(CFA_XSP16, literal(-13)))
          CFI V7 load(1, XDATA, add(CFA_XSP16, literal(-14)))
          CFI V6 load(1, XDATA, add(CFA_XSP16, literal(-15)))
          CFI V5 load(1, XDATA, add(CFA_XSP16, literal(-16)))
          CFI V4 load(1, XDATA, add(CFA_XSP16, literal(-17)))
          CFI V3 load(1, XDATA, add(CFA_XSP16, literal(-18)))
          CFI V2 load(1, XDATA, add(CFA_XSP16, literal(-19)))
          CFI V1 load(1, XDATA, add(CFA_XSP16, literal(-20)))
          CFI V0 load(1, XDATA, add(CFA_XSP16, literal(-21)))
          CFI VB load(1, XDATA, add(CFA_XSP16, literal(-22)))
          CFI R6 load(1, XDATA, add(CFA_XSP16, literal(-23)))
          CFI CFA_SP SP+0
          CFI CFA_XSP16 add(XSP16, 23)
        ; Saved register size: 23
        ; Auto size: 3
        MOV     A,#-0x3
        LCALL   ?ALLOC_XSTACK8
          CFI CFA_XSP16 add(XSP16, 26)
        MOV     DPL,?XSP + 0
        MOV     DPH,?XSP + 1
        MOV     A,R1
        MOVX    @DPTR,A
        INC     DPTR
        MOV     A,R2
        MOVX    @DPTR,A
        INC     DPTR
        MOV     A,R3
        MOVX    @DPTR,A
        MOV     A,#0x1a
        LCALL   ?XSTACK_DISP0_8
        MOVX    A,@DPTR
        MOV     ?V8,A
        INC     DPTR
        MOVX    A,@DPTR
        MOV     ?V9,A
        INC     DPTR
        MOVX    A,@DPTR
        MOV     ?V10,A
//  237   const uint8 GENERIC *pSrc1;
//  238   const uint8 GENERIC *pSrc2;
//  239 
//  240   pSrc1 = src1;
        MOV     DPL,?XSP + 0
        MOV     DPH,?XSP + 1
        MOVX    A,@DPTR
        MOV     ?V4,A
        INC     DPTR
        MOVX    A,@DPTR
        MOV     ?V5,A
        INC     DPTR
        MOVX    A,@DPTR
        MOV     ?V6,A
//  241   pSrc2 = src2;
        MOV     ?V0,?V8
        MOV     ?V1,?V9
        MOV     ?V2,?V10
//  242 
//  243   while ( len-- )
??osal_memcmp_0:
        MOV     A,R4
        MOV     R0,A
        MOV     A,R5
        MOV     R1,A
        MOV     A,R0
        ADD     A,#-0x1
        MOV     R4,A
        MOV     A,R1
        ADDC    A,#-0x1
        MOV     R5,A
        MOV     A,R0
        ORL     A,R1
        JZ      ??osal_memcmp_1
//  244   {
//  245     if( *pSrc1++ != *pSrc2++ )
        MOV     R1,?V4
        MOV     R2,?V5
        MOV     R3,?V6
        MOV     ?V4,R1
        MOV     ?V5,R2
        MOV     ?V6,R3
        MOV     A,?V4
        ADD     A,#0x1
        MOV     ?V4,A
        MOV     A,?V5
        ADDC    A,#0x0
        MOV     ?V5,A
        MOV     ?V12,?V0
        MOV     ?V13,?V1
        MOV     ?V14,?V2
        MOV     ?V0,?V12
        MOV     ?V1,?V13
        MOV     ?V2,?V14
        MOV     A,?V0
        ADD     A,#0x1
        MOV     ?V0,A
        MOV     A,?V1
        ADDC    A,#0x0
        MOV     ?V1,A
        LCALL   ?C_GPTR_LOAD
        MOV     R0,A
        MOV     R1,?V12
        MOV     R2,?V13
        MOV     R3,?V14
        LCALL   ?C_GPTR_LOAD
        XRL     A,R0
        JZ      ??osal_memcmp_0
//  246       return FALSE;
        MOV     R1,#0x0
        SJMP    ??osal_memcmp_2
//  247   }
//  248   return TRUE;
??osal_memcmp_1:
        MOV     R1,#0x1
??osal_memcmp_2:
        MOV     A,#0x3
        LCALL   ?DEALLOC_XSTACK8
          CFI CFA_XSP16 add(XSP16, 23)
        MOV     R7,#0xf
        LJMP    ?BANKED_LEAVE_XDATA
//  249 }
          CFI EndBlock cfiBlock4
//  250 
//  251 
//  252 /*********************************************************************
//  253  * @fn      osal_memset
//  254  *
//  255  * @brief
//  256  *
//  257  *   Set memory buffer to value.
//  258  *
//  259  * @param   dest - pointer to buffer
//  260  * @param   value - what to set each uint8 of the message
//  261  * @param   size - how big
//  262  *
//  263  * @return  pointer to destination buffer
//  264  */

        RSEG BANKED_CODE:CODE:NOROOT(0)
//  265 void *osal_memset( void *dest, uint8 value, int len )
osal_memset:
          CFI Block cfiBlock5 Using cfiCommon0
          CFI Function osal_memset
        CODE
//  266 {
        FUNCALL osal_memset, memset
        LOCFRAME ISTACK, 0, STACK
        LOCFRAME PSTACK, 0, STACK
        LOCFRAME XSTACK, 13, STACK
        LOCFRAME IOVERLAY, 0, STATIC
        LOCFRAME DOVERLAY, 0, STATIC
        ARGFRAME ISTACK, 0, STACK
        ARGFRAME PSTACK, 0, STACK
        ARGFRAME XSTACK, 13, STACK
        ARGFRAME IOVERLAY, 0, STATIC
        ARGFRAME DOVERLAY, 0, STATIC
        REQUIRE ?V0
        REQUIRE ?V1
        REQUIRE ?V2
        MOV     A,#-0xb
        LCALL   ?BANKED_ENTER_XDATA
          CFI DPH0 load(1, XDATA, add(CFA_XSP16, literal(-1)))
          CFI DPL0 load(1, XDATA, add(CFA_XSP16, literal(-2)))
          CFI ?BRET_EXT load(1, XDATA, add(CFA_XSP16, literal(-3)))
          CFI ?RET_HIGH load(1, XDATA, add(CFA_XSP16, literal(-4)))
          CFI ?RET_LOW load(1, XDATA, add(CFA_XSP16, literal(-5)))
          CFI R7 load(1, XDATA, add(CFA_XSP16, literal(-6)))
          CFI V2 load(1, XDATA, add(CFA_XSP16, literal(-7)))
          CFI V1 load(1, XDATA, add(CFA_XSP16, literal(-8)))
          CFI V0 load(1, XDATA, add(CFA_XSP16, literal(-9)))
          CFI VB load(1, XDATA, add(CFA_XSP16, literal(-10)))
          CFI R6 load(1, XDATA, add(CFA_XSP16, literal(-11)))
          CFI CFA_SP SP+0
          CFI CFA_XSP16 add(XSP16, 11)
        ; Saved register size: 11
        ; Auto size: 0
        MOV     A,R2
        MOV     R6,A
        MOV     A,R3
        MOV     R7,A
        MOV     ?V2,R1
        MOV     ?V0,R4
        MOV     ?V1,R5
//  267   return memset( dest, value, len );
        ; Setup parameters for call to function memset
        MOV     R0,#?V0
        LCALL   ?PUSH_XSTACK_I_TWO
          CFI CFA_XSP16 add(XSP16, 13)
        MOV     R4,?V2
        MOV     R5,#0x0
        MOV     A,R6
        MOV     R2,A
        MOV     A,R7
        MOV     R3,A
        LCALL   `??memset::?relay`   ; Banked call to: memset
        MOV     A,#0x2
        LCALL   ?DEALLOC_XSTACK8
          CFI CFA_XSP16 add(XSP16, 11)
        MOV     R7,#0x3
        LJMP    ?BANKED_LEAVE_XDATA
//  268 }
          CFI EndBlock cfiBlock5
//  269 
//  270 /*********************************************************************
//  271  * @fn      osal_build_uint16
//  272  *
//  273  * @brief
//  274  *
//  275  *   Build a uint16 out of 2 bytes (0 then 1).
//  276  *
//  277  * @param   swapped - 0 then 1
//  278  *
//  279  * @return  uint16
//  280  */

        RSEG BANKED_CODE:CODE:NOROOT(0)
//  281 uint16 osal_build_uint16( uint8 *swapped )
osal_build_uint16:
          CFI Block cfiBlock6 Using cfiCommon0
          CFI Function osal_build_uint16
        CODE
//  282 {
        PUSH    DPL
          CFI DPL0 Frame(CFA_SP, 4)
          CFI CFA_SP SP+-4
        PUSH    DPH
          CFI DPH0 Frame(CFA_SP, 5)
          CFI CFA_SP SP+-5
        ; Saved register size: 2
        ; Auto size: 0
//  283   return ( BUILD_UINT16( swapped[0], swapped[1] ) );
        MOV     DPL,R2
        MOV     DPH,R3
        MOVX    A,@DPTR
        MOV     R4,A
        MOV     R5,#0x0
        MOV     DPL,R2
        MOV     DPH,R3
        INC     DPTR
        MOVX    A,@DPTR
        MOV     R0,A
        MOV     R1,#0x0
        CLR     A
        XCH     A,R0
        MOV     R1,A
        MOV     A,R4
        ADD     A,R0
        MOV     R2,A
        MOV     A,R5
        ADDC    A,R1
        MOV     R3,A
        POP     DPH
          CFI DPH0 SameValue
          CFI CFA_SP SP+-4
        POP     DPL
          CFI DPL0 SameValue
          CFI CFA_SP SP+-3
        LJMP    ?BRET
//  284 }
          CFI EndBlock cfiBlock6
//  285 
//  286 /*********************************************************************
//  287  * @fn      osal_build_uint32
//  288  *
//  289  * @brief
//  290  *
//  291  *   Build a uint32 out of sequential bytes.
//  292  *
//  293  * @param   swapped - sequential bytes
//  294  * @param   len - number of bytes in the uint8 array
//  295  *
//  296  * @return  uint32
//  297  */

        RSEG BANKED_CODE:CODE:NOROOT(0)
//  298 uint32 osal_build_uint32( uint8 *swapped, uint8 len )
osal_build_uint32:
          CFI Block cfiBlock7 Using cfiCommon0
          CFI Function osal_build_uint32
        CODE
//  299 {
        REQUIRE ?V0
        REQUIRE ?V1
        REQUIRE ?V2
        REQUIRE ?V3
        REQUIRE ?V4
        REQUIRE ?V5
        REQUIRE ?V6
        REQUIRE ?V7
        MOV     A,#-0x10
        LCALL   ?BANKED_ENTER_XDATA
          CFI DPH0 load(1, XDATA, add(CFA_XSP16, literal(-1)))
          CFI DPL0 load(1, XDATA, add(CFA_XSP16, literal(-2)))
          CFI ?BRET_EXT load(1, XDATA, add(CFA_XSP16, literal(-3)))
          CFI ?RET_HIGH load(1, XDATA, add(CFA_XSP16, literal(-4)))
          CFI ?RET_LOW load(1, XDATA, add(CFA_XSP16, literal(-5)))
          CFI R7 load(1, XDATA, add(CFA_XSP16, literal(-6)))
          CFI V7 load(1, XDATA, add(CFA_XSP16, literal(-7)))
          CFI V6 load(1, XDATA, add(CFA_XSP16, literal(-8)))
          CFI V5 load(1, XDATA, add(CFA_XSP16, literal(-9)))
          CFI V4 load(1, XDATA, add(CFA_XSP16, literal(-10)))
          CFI V3 load(1, XDATA, add(CFA_XSP16, literal(-11)))
          CFI V2 load(1, XDATA, add(CFA_XSP16, literal(-12)))
          CFI V1 load(1, XDATA, add(CFA_XSP16, literal(-13)))
          CFI V0 load(1, XDATA, add(CFA_XSP16, literal(-14)))
          CFI VB load(1, XDATA, add(CFA_XSP16, literal(-15)))
          CFI R6 load(1, XDATA, add(CFA_XSP16, literal(-16)))
          CFI CFA_SP SP+0
          CFI CFA_XSP16 add(XSP16, 16)
        ; Saved register size: 16
        ; Auto size: 0
        MOV     A,R1
        MOV     R6,A
//  300   if ( len == 2 )
        MOV     A,#0x2
        XRL     A,R6
        JNZ     ??osal_build_uint32_0
//  301     return ( BUILD_UINT32( swapped[0], swapped[1], 0L, 0L ) );
        MOV     DPL,R2
        MOV     DPH,R3
        MOVX    A,@DPTR
        MOV     ?V0,A
        CLR     A
        MOV     ?V1,A
        MOV     ?V2,A
        MOV     ?V3,A
        MOV     DPL,R2
        MOV     DPH,R3
        INC     DPTR
        MOVX    A,@DPTR
        MOV     ?V4,A
        CLR     A
        MOV     ?V5,A
        MOV     ?V6,A
        MOV     ?V7,A
        MOV     A,#0x8
        MOV     R0,#?V4
        LCALL   ?L_SHL
        MOV     R0,#?V0
        MOV     R1,#?V4
        LCALL   ?L_ADD
        MOV     R2,?V0
        MOV     R3,?V1
        MOV     R4,?V2
        MOV     R5,?V3
        LJMP    ??osal_build_uint32_1 & 0xFFFF
//  302   else if ( len == 3 )
??osal_build_uint32_0:
        MOV     A,#0x3
        XRL     A,R6
        JNZ     ??osal_build_uint32_2
//  303     return ( BUILD_UINT32( swapped[0], swapped[1], swapped[2], 0L ) );
        MOV     DPL,R2
        MOV     DPH,R3
        MOVX    A,@DPTR
        MOV     ?V0,A
        CLR     A
        MOV     ?V1,A
        MOV     ?V2,A
        MOV     ?V3,A
        MOV     DPL,R2
        MOV     DPH,R3
        INC     DPTR
        MOVX    A,@DPTR
        MOV     ?V4,A
        CLR     A
        MOV     ?V5,A
        MOV     ?V6,A
        MOV     ?V7,A
        MOV     A,#0x8
        MOV     R0,#?V4
        LCALL   ?L_SHL
        MOV     R0,#?V0
        MOV     R1,#?V4
        LCALL   ?L_ADD
        MOV     DPL,R2
        MOV     DPH,R3
        INC     DPTR
        INC     DPTR
        MOVX    A,@DPTR
        MOV     ?V4,A
        CLR     A
        MOV     ?V5,A
        MOV     ?V6,A
        MOV     ?V7,A
        MOV     A,#0x10
        MOV     R0,#?V4
        LCALL   ?L_SHL
        MOV     R0,#?V0
        MOV     R1,#?V4
        LCALL   ?L_ADD
        MOV     R2,?V0
        MOV     R3,?V1
        MOV     R4,?V2
        MOV     R5,?V3
        LJMP    ??osal_build_uint32_1 & 0xFFFF
//  304   else if ( len == 4 )
??osal_build_uint32_2:
        MOV     A,#0x4
        XRL     A,R6
        JNZ     ??osal_build_uint32_3
//  305     return ( BUILD_UINT32( swapped[0], swapped[1], swapped[2], swapped[3] ) );
        MOV     DPL,R2
        MOV     DPH,R3
        MOVX    A,@DPTR
        MOV     ?V0,A
        CLR     A
        MOV     ?V1,A
        MOV     ?V2,A
        MOV     ?V3,A
        MOV     DPL,R2
        MOV     DPH,R3
        INC     DPTR
        MOVX    A,@DPTR
        MOV     ?V4,A
        CLR     A
        MOV     ?V5,A
        MOV     ?V6,A
        MOV     ?V7,A
        MOV     A,#0x8
        MOV     R0,#?V4
        LCALL   ?L_SHL
        MOV     R0,#?V0
        MOV     R1,#?V4
        LCALL   ?L_ADD
        MOV     DPL,R2
        MOV     DPH,R3
        INC     DPTR
        INC     DPTR
        MOVX    A,@DPTR
        MOV     ?V4,A
        CLR     A
        MOV     ?V5,A
        MOV     ?V6,A
        MOV     ?V7,A
        MOV     A,#0x10
        MOV     R0,#?V4
        LCALL   ?L_SHL
        MOV     R0,#?V0
        MOV     R1,#?V4
        LCALL   ?L_ADD
        MOV     DPL,R2
        MOV     DPH,R3
        INC     DPTR
        INC     DPTR
        INC     DPTR
        MOVX    A,@DPTR
        MOV     ?V4,A
        CLR     A
        MOV     ?V5,A
        MOV     ?V6,A
        MOV     ?V7,A
        MOV     A,#0x18
        MOV     R0,#?V4
        LCALL   ?L_SHL
        MOV     R0,#?V0
        MOV     R1,#?V4
        LCALL   ?L_ADD
        MOV     R2,?V0
        MOV     R3,?V1
        MOV     R4,?V2
        MOV     R5,?V3
        SJMP    ??osal_build_uint32_1
//  306   else
//  307     return ( (uint32)swapped[0] );
??osal_build_uint32_3:
        MOV     DPL,R2
        MOV     DPH,R3
        MOVX    A,@DPTR
        MOV     ?V0,A
        MOV     R2,?V0
        CLR     A
        MOV     R3,A
        MOV     R4,A
        MOV     R5,A
??osal_build_uint32_1:
        MOV     R7,#0x8
        LJMP    ?BANKED_LEAVE_XDATA
//  308 }
          CFI EndBlock cfiBlock7
//  309 
//  310 #if !defined ( ZBIT ) && !defined ( ZBIT2 ) && !defined (UBIT)
//  311 /*********************************************************************
//  312  * @fn      _ltoa
//  313  *
//  314  * @brief
//  315  *
//  316  *   convert a long unsigned int to a string.
//  317  *
//  318  * @param  l - long to convert
//  319  * @param  buf - buffer to convert to
//  320  * @param  radix - 10 dec, 16 hex
//  321  *
//  322  * @return  pointer to buffer
//  323  */

        RSEG BANKED_CODE:CODE:NOROOT(0)
//  324 unsigned char * _ltoa(unsigned long l, unsigned char *buf, unsigned char radix)
_ltoa:
          CFI Block cfiBlock8 Using cfiCommon0
          CFI Function _ltoa
        CODE
//  325 {
        FUNCALL _ltoa, _itoa
        LOCFRAME ISTACK, 0, STACK
        LOCFRAME PSTACK, 0, STACK
        LOCFRAME XSTACK, 56, STACK
        LOCFRAME IOVERLAY, 0, STATIC
        LOCFRAME DOVERLAY, 0, STATIC
        ARGFRAME ISTACK, 0, STACK
        ARGFRAME PSTACK, 0, STACK
        ARGFRAME XSTACK, 56, STACK
        ARGFRAME IOVERLAY, 0, STATIC
        ARGFRAME DOVERLAY, 0, STATIC
        FUNCALL _ltoa, _itoa
        LOCFRAME ISTACK, 0, STACK
        LOCFRAME PSTACK, 0, STACK
        LOCFRAME XSTACK, 56, STACK
        LOCFRAME IOVERLAY, 0, STATIC
        LOCFRAME DOVERLAY, 0, STATIC
        ARGFRAME ISTACK, 0, STACK
        ARGFRAME PSTACK, 0, STACK
        ARGFRAME XSTACK, 56, STACK
        ARGFRAME IOVERLAY, 0, STATIC
        ARGFRAME DOVERLAY, 0, STATIC
        FUNCALL _ltoa, _itoa
        LOCFRAME ISTACK, 0, STACK
        LOCFRAME PSTACK, 0, STACK
        LOCFRAME XSTACK, 56, STACK
        LOCFRAME IOVERLAY, 0, STATIC
        LOCFRAME DOVERLAY, 0, STATIC
        ARGFRAME ISTACK, 0, STACK
        ARGFRAME PSTACK, 0, STACK
        ARGFRAME XSTACK, 56, STACK
        ARGFRAME IOVERLAY, 0, STATIC
        ARGFRAME DOVERLAY, 0, STATIC
        FUNCALL _ltoa, strcpy
        LOCFRAME ISTACK, 0, STACK
        LOCFRAME PSTACK, 0, STACK
        LOCFRAME XSTACK, 56, STACK
        LOCFRAME IOVERLAY, 0, STATIC
        LOCFRAME DOVERLAY, 0, STATIC
        ARGFRAME ISTACK, 0, STACK
        ARGFRAME PSTACK, 0, STACK
        ARGFRAME XSTACK, 56, STACK
        ARGFRAME IOVERLAY, 0, STATIC
        ARGFRAME DOVERLAY, 0, STATIC
        FUNCALL _ltoa, strlen
        LOCFRAME ISTACK, 0, STACK
        LOCFRAME PSTACK, 0, STACK
        LOCFRAME XSTACK, 56, STACK
        LOCFRAME IOVERLAY, 0, STATIC
        LOCFRAME DOVERLAY, 0, STATIC
        ARGFRAME ISTACK, 0, STACK
        ARGFRAME PSTACK, 0, STACK
        ARGFRAME XSTACK, 56, STACK
        ARGFRAME IOVERLAY, 0, STATIC
        ARGFRAME DOVERLAY, 0, STATIC
        FUNCALL _ltoa, strcat
        LOCFRAME ISTACK, 0, STACK
        LOCFRAME PSTACK, 0, STACK
        LOCFRAME XSTACK, 56, STACK
        LOCFRAME IOVERLAY, 0, STATIC
        LOCFRAME DOVERLAY, 0, STATIC
        ARGFRAME ISTACK, 0, STACK
        ARGFRAME PSTACK, 0, STACK
        ARGFRAME XSTACK, 56, STACK
        ARGFRAME IOVERLAY, 0, STATIC
        ARGFRAME DOVERLAY, 0, STATIC
        FUNCALL _ltoa, strcat
        LOCFRAME ISTACK, 0, STACK
        LOCFRAME PSTACK, 0, STACK
        LOCFRAME XSTACK, 56, STACK
        LOCFRAME IOVERLAY, 0, STATIC
        LOCFRAME DOVERLAY, 0, STATIC
        ARGFRAME ISTACK, 0, STACK
        ARGFRAME PSTACK, 0, STACK
        ARGFRAME XSTACK, 56, STACK
        ARGFRAME IOVERLAY, 0, STATIC
        ARGFRAME DOVERLAY, 0, STATIC
        FUNCALL _ltoa, strlen
        LOCFRAME ISTACK, 0, STACK
        LOCFRAME PSTACK, 0, STACK
        LOCFRAME XSTACK, 56, STACK
        LOCFRAME IOVERLAY, 0, STATIC
        LOCFRAME DOVERLAY, 0, STATIC
        ARGFRAME ISTACK, 0, STACK
        ARGFRAME PSTACK, 0, STACK
        ARGFRAME XSTACK, 56, STACK
        ARGFRAME IOVERLAY, 0, STATIC
        ARGFRAME DOVERLAY, 0, STATIC
        FUNCALL _ltoa, strcat
        LOCFRAME ISTACK, 0, STACK
        LOCFRAME PSTACK, 0, STACK
        LOCFRAME XSTACK, 56, STACK
        LOCFRAME IOVERLAY, 0, STATIC
        LOCFRAME DOVERLAY, 0, STATIC
        ARGFRAME ISTACK, 0, STACK
        ARGFRAME PSTACK, 0, STACK
        ARGFRAME XSTACK, 56, STACK
        ARGFRAME IOVERLAY, 0, STATIC
        ARGFRAME DOVERLAY, 0, STATIC
        FUNCALL _ltoa, strcat
        LOCFRAME ISTACK, 0, STACK
        LOCFRAME PSTACK, 0, STACK
        LOCFRAME XSTACK, 56, STACK
        LOCFRAME IOVERLAY, 0, STATIC
        LOCFRAME DOVERLAY, 0, STATIC
        ARGFRAME ISTACK, 0, STACK
        ARGFRAME PSTACK, 0, STACK
        ARGFRAME XSTACK, 56, STACK
        ARGFRAME IOVERLAY, 0, STATIC
        ARGFRAME DOVERLAY, 0, STATIC
        FUNCALL _ltoa, strcpy
        LOCFRAME ISTACK, 0, STACK
        LOCFRAME PSTACK, 0, STACK
        LOCFRAME XSTACK, 56, STACK
        LOCFRAME IOVERLAY, 0, STATIC
        LOCFRAME DOVERLAY, 0, STATIC
        ARGFRAME ISTACK, 0, STACK
        ARGFRAME PSTACK, 0, STACK
        ARGFRAME XSTACK, 56, STACK
        ARGFRAME IOVERLAY, 0, STATIC
        ARGFRAME DOVERLAY, 0, STATIC
        FUNCALL _ltoa, _itoa
        LOCFRAME ISTACK, 0, STACK
        LOCFRAME PSTACK, 0, STACK
        LOCFRAME XSTACK, 56, STACK
        LOCFRAME IOVERLAY, 0, STATIC
        LOCFRAME DOVERLAY, 0, STATIC
        ARGFRAME ISTACK, 0, STACK
        ARGFRAME PSTACK, 0, STACK
        ARGFRAME XSTACK, 56, STACK
        ARGFRAME IOVERLAY, 0, STATIC
        ARGFRAME DOVERLAY, 0, STATIC
        FUNCALL _ltoa, _itoa
        LOCFRAME ISTACK, 0, STACK
        LOCFRAME PSTACK, 0, STACK
        LOCFRAME XSTACK, 56, STACK
        LOCFRAME IOVERLAY, 0, STATIC
        LOCFRAME DOVERLAY, 0, STATIC
        ARGFRAME ISTACK, 0, STACK
        ARGFRAME PSTACK, 0, STACK
        ARGFRAME XSTACK, 56, STACK
        ARGFRAME IOVERLAY, 0, STATIC
        ARGFRAME DOVERLAY, 0, STATIC
        FUNCALL _ltoa, strcpy
        LOCFRAME ISTACK, 0, STACK
        LOCFRAME PSTACK, 0, STACK
        LOCFRAME XSTACK, 56, STACK
        LOCFRAME IOVERLAY, 0, STATIC
        LOCFRAME DOVERLAY, 0, STATIC
        ARGFRAME ISTACK, 0, STACK
        ARGFRAME PSTACK, 0, STACK
        ARGFRAME XSTACK, 56, STACK
        ARGFRAME IOVERLAY, 0, STATIC
        ARGFRAME DOVERLAY, 0, STATIC
        FUNCALL _ltoa, strlen
        LOCFRAME ISTACK, 0, STACK
        LOCFRAME PSTACK, 0, STACK
        LOCFRAME XSTACK, 56, STACK
        LOCFRAME IOVERLAY, 0, STATIC
        LOCFRAME DOVERLAY, 0, STATIC
        ARGFRAME ISTACK, 0, STACK
        ARGFRAME PSTACK, 0, STACK
        ARGFRAME XSTACK, 56, STACK
        ARGFRAME IOVERLAY, 0, STATIC
        ARGFRAME DOVERLAY, 0, STATIC
        FUNCALL _ltoa, strcat
        LOCFRAME ISTACK, 0, STACK
        LOCFRAME PSTACK, 0, STACK
        LOCFRAME XSTACK, 56, STACK
        LOCFRAME IOVERLAY, 0, STATIC
        LOCFRAME DOVERLAY, 0, STATIC
        ARGFRAME ISTACK, 0, STACK
        ARGFRAME PSTACK, 0, STACK
        ARGFRAME XSTACK, 56, STACK
        ARGFRAME IOVERLAY, 0, STATIC
        ARGFRAME DOVERLAY, 0, STATIC
        FUNCALL _ltoa, strcat
        LOCFRAME ISTACK, 0, STACK
        LOCFRAME PSTACK, 0, STACK
        LOCFRAME XSTACK, 56, STACK
        LOCFRAME IOVERLAY, 0, STATIC
        LOCFRAME DOVERLAY, 0, STATIC
        ARGFRAME ISTACK, 0, STACK
        ARGFRAME PSTACK, 0, STACK
        ARGFRAME XSTACK, 56, STACK
        ARGFRAME IOVERLAY, 0, STATIC
        ARGFRAME DOVERLAY, 0, STATIC
        FUNCALL _ltoa, strcpy
        LOCFRAME ISTACK, 0, STACK
        LOCFRAME PSTACK, 0, STACK
        LOCFRAME XSTACK, 56, STACK
        LOCFRAME IOVERLAY, 0, STATIC
        LOCFRAME DOVERLAY, 0, STATIC
        ARGFRAME ISTACK, 0, STACK
        ARGFRAME PSTACK, 0, STACK
        ARGFRAME XSTACK, 56, STACK
        ARGFRAME IOVERLAY, 0, STATIC
        ARGFRAME DOVERLAY, 0, STATIC
        REQUIRE ?V0
        REQUIRE ?V1
        REQUIRE ?V2
        REQUIRE ?V3
        REQUIRE ?V4
        REQUIRE ?V5
        REQUIRE ?V6
        REQUIRE ?V7
        REQUIRE ?V8
        REQUIRE ?V9
        REQUIRE ?V10
        REQUIRE ?V11
        REQUIRE ?V12
        REQUIRE ?V13
        REQUIRE ?V14
        REQUIRE ?V15
        MOV     A,#-0x18
        LCALL   ?BANKED_ENTER_XDATA
          CFI DPH0 load(1, XDATA, add(CFA_XSP16, literal(-1)))
          CFI DPL0 load(1, XDATA, add(CFA_XSP16, literal(-2)))
          CFI ?BRET_EXT load(1, XDATA, add(CFA_XSP16, literal(-3)))
          CFI ?RET_HIGH load(1, XDATA, add(CFA_XSP16, literal(-4)))
          CFI ?RET_LOW load(1, XDATA, add(CFA_XSP16, literal(-5)))
          CFI R7 load(1, XDATA, add(CFA_XSP16, literal(-6)))
          CFI V15 load(1, XDATA, add(CFA_XSP16, literal(-7)))
          CFI V14 load(1, XDATA, add(CFA_XSP16, literal(-8)))
          CFI V13 load(1, XDATA, add(CFA_XSP16, literal(-9)))
          CFI V12 load(1, XDATA, add(CFA_XSP16, literal(-10)))
          CFI V11 load(1, XDATA, add(CFA_XSP16, literal(-11)))
          CFI V10 load(1, XDATA, add(CFA_XSP16, literal(-12)))
          CFI V9 load(1, XDATA, add(CFA_XSP16, literal(-13)))
          CFI V8 load(1, XDATA, add(CFA_XSP16, literal(-14)))
          CFI V7 load(1, XDATA, add(CFA_XSP16, literal(-15)))
          CFI V6 load(1, XDATA, add(CFA_XSP16, literal(-16)))
          CFI V5 load(1, XDATA, add(CFA_XSP16, literal(-17)))
          CFI V4 load(1, XDATA, add(CFA_XSP16, literal(-18)))
          CFI V3 load(1, XDATA, add(CFA_XSP16, literal(-19)))
          CFI V2 load(1, XDATA, add(CFA_XSP16, literal(-20)))
          CFI V1 load(1, XDATA, add(CFA_XSP16, literal(-21)))
          CFI V0 load(1, XDATA, add(CFA_XSP16, literal(-22)))
          CFI VB load(1, XDATA, add(CFA_XSP16, literal(-23)))
          CFI R6 load(1, XDATA, add(CFA_XSP16, literal(-24)))
          CFI CFA_SP SP+0
          CFI CFA_XSP16 add(XSP16, 24)
        ; Saved register size: 24
        ; Auto size: 32
        MOV     A,#-0x20
        LCALL   ?ALLOC_XSTACK8
          CFI CFA_XSP16 add(XSP16, 56)
        MOV     ?V4,R2
        MOV     ?V5,R3
        MOV     ?V6,R4
        MOV     ?V7,R5
        MOV     ?V15,R1
//  326 #if defined( __GNUC__ )
//  327   return ( (char*)ltoa( l, buf, radix ) );
//  328 #else
//  329   unsigned char tmp1[10] = "", tmp2[10] = "", tmp3[10] = "";
        MOV     DPTR,#`?<Constant "">`
        MOV     A,#0x2
        LCALL   ?XSTACK_DISP102_8
        MOV     A,#0xa
        LCALL   ?MOVE_LONG8_XDATA_XDATA
        MOV     DPTR,#`?<Constant "">_1`
        MOV     A,#0xc
        LCALL   ?XSTACK_DISP102_8
        MOV     A,#0xa
        LCALL   ?MOVE_LONG8_XDATA_XDATA
        MOV     DPTR,#`?<Constant "">_2`
        MOV     A,#0x16
        LCALL   ?XSTACK_DISP102_8
        MOV     A,#0xa
        LCALL   ?MOVE_LONG8_XDATA_XDATA
//  330   unsigned short num1, num2, num3;
//  331   unsigned char i;
//  332 
//  333   buf[0] = '\0';
        MOV     A,#0x38
        LCALL   ?XSTACK_DISP0_8
        MOVX    A,@DPTR
        MOV     R0,A
        INC     DPTR
        MOVX    A,@DPTR
        MOV     DPH,A
        MOV     DPL,R0
        MOV     A,#0x0
        MOVX    @DPTR,A
//  334 
//  335   if ( radix == 10 )
        MOV     A,#0xa
        XRL     A,?V15
        JZ      $+5
        LJMP    ??_ltoa_0 & 0xFFFF
//  336   {
//  337     num1 = l % 10000;
        MOV     ?V0,?V4
        MOV     ?V1,?V5
        MOV     ?V2,?V6
        MOV     ?V3,?V7
        MOV     DPTR,#__Constant_2710
        MOV     R0,#?V8
        LCALL   ?L_MOV_X
        MOV     R0,#?V0
        MOV     R1,#?V8
        LCALL   ?UL_DIV_MOD
        MOV     ?V12,?V8
        MOV     ?V13,?V9
//  338     num2 = (l / 10000) % 10000;
        MOV     ?V0,?V4
        MOV     ?V1,?V5
        MOV     ?V2,?V6
        MOV     ?V3,?V7
        MOV     DPTR,#__Constant_2710
        MOV     R0,#?V8
        LCALL   ?L_MOV_X
        MOV     R0,#?V0
        MOV     R1,#?V8
        LCALL   ?UL_DIV_MOD
        MOV     DPTR,#__Constant_2710
        MOV     R0,#?V8
        LCALL   ?L_MOV_X
        MOV     R0,#?V0
        MOV     R1,#?V8
        LCALL   ?UL_DIV_MOD
        MOV     R6,?V8
        MOV     R7,?V9
//  339     num3 = (unsigned short)(l / 100000000);
        MOV     ?V8,?V4
        MOV     ?V9,?V5
        MOV     ?V10,?V6
        MOV     ?V11,?V7
        MOV     DPTR,#__Constant_5f5e100
        MOV     R0,#?V0
        LCALL   ?L_MOV_X
        MOV     R0,#?V8
        MOV     R1,#?V0
        LCALL   ?UL_DIV_MOD
        MOV     DPL,?XSP + 0
        MOV     DPH,?XSP + 1
        MOV     A,?V8
        MOVX    @DPTR,A
        INC     DPTR
        MOV     A,?V9
        MOVX    @DPTR,A
//  340 
//  341     if (num3) _itoa(num3, tmp3, 10);
        MOV     DPL,?XSP + 0
        MOV     DPH,?XSP + 1
        MOVX    A,@DPTR
        MOV     R0,A
        INC     DPTR
        MOVX    A,@DPTR
        MOV     R1,A
        MOV     A,R0
        ORL     A,R1
        JZ      ??_ltoa_1
        ; Setup parameters for call to function _itoa
        MOV     R1,#0xa
        MOV     A,#0x16
        LCALL   ?XSTACK_DISP102_8
        MOV     DPL,?XSP + 0
        MOV     DPH,?XSP + 1
        MOVX    A,@DPTR
        MOV     R2,A
        INC     DPTR
        MOVX    A,@DPTR
        MOV     R3,A
        LCALL   `??_itoa::?relay`    ; Banked call to: _itoa
//  342     if (num2) _itoa(num2, tmp2, 10);
??_ltoa_1:
        MOV     A,R6
        ORL     A,R7
        JZ      ??_ltoa_2
        ; Setup parameters for call to function _itoa
        MOV     R1,#0xa
        MOV     A,#0xc
        LCALL   ?XSTACK_DISP102_8
        MOV     A,R6
        MOV     R2,A
        MOV     A,R7
        MOV     R3,A
        LCALL   `??_itoa::?relay`    ; Banked call to: _itoa
//  343     if (num1) _itoa(num1, tmp1, 10);
??_ltoa_2:
        MOV     A,?V12
        ORL     A,?V13
        JZ      ??_ltoa_3
        ; Setup parameters for call to function _itoa
        MOV     R1,#0xa
        MOV     A,#0x2
        LCALL   ?XSTACK_DISP102_8
        MOV     R2,?V12
        MOV     R3,?V13
        LCALL   `??_itoa::?relay`    ; Banked call to: _itoa
//  344 
//  345     if (num3)
??_ltoa_3:
        MOV     DPL,?XSP + 0
        MOV     DPH,?XSP + 1
        MOVX    A,@DPTR
        MOV     R0,A
        INC     DPTR
        MOVX    A,@DPTR
        MOV     R1,A
        MOV     A,R0
        ORL     A,R1
        JZ      ??_ltoa_4
//  346     {
//  347       strcpy((char*)buf, (char const*)tmp3);
        ; Setup parameters for call to function strcpy
        MOV     A,#0x16
        LCALL   ?XSTACK_DISP102_8
        MOV     A,#0x38
        LCALL   ?XSTACK_DISP0_8
        MOVX    A,@DPTR
        MOV     R2,A
        INC     DPTR
        MOVX    A,@DPTR
        MOV     R3,A
        LCALL   `??strcpy::?relay`   ; Banked call to: strcpy
//  348       for (i = 0; i < 4 - strlen((char const*)tmp2); i++)
        MOV     ?V14,#0x0
??_ltoa_5:
        MOV     ?V0,?V14
        MOV     ?V1,#0x0
        ; Setup parameters for call to function strlen
        MOV     A,#0xc
        LCALL   ?XSTACK_DISP101_8
        LCALL   `??strlen::?relay`   ; Banked call to: strlen
        MOV     ?V2,R2
        MOV     ?V3,R3
        MOV     A,#0x4
        CLR     C
        SUBB    A,?V2
        MOV     R0,A
        MOV     A,#0x0
        SUBB    A,?V3
        MOV     R1,A
        CLR     C
        MOV     A,?V0
        SUBB    A,R0
        MOV     A,?V1
        SUBB    A,R1
        JNC     ??_ltoa_4
//  349         strcat((char*)buf, "0");
        ; Setup parameters for call to function strcat
        MOV     R4,#`?<Constant "0">` & 0xff
        MOV     R5,#(`?<Constant "0">` >> 8) & 0xff
        MOV     A,#0x38
        LCALL   ?XSTACK_DISP0_8
        MOVX    A,@DPTR
        MOV     R2,A
        INC     DPTR
        MOVX    A,@DPTR
        MOV     R3,A
        LCALL   `??strcat::?relay`   ; Banked call to: strcat
        INC     ?V14
        SJMP    ??_ltoa_5
//  350     }
//  351     strcat((char*)buf, (char const*)tmp2);
??_ltoa_4:
        ; Setup parameters for call to function strcat
        MOV     A,#0xc
        LCALL   ?XSTACK_DISP102_8
        MOV     A,#0x38
        LCALL   ?XSTACK_DISP0_8
        MOVX    A,@DPTR
        MOV     R2,A
        INC     DPTR
        MOVX    A,@DPTR
        MOV     R3,A
        LCALL   `??strcat::?relay`   ; Banked call to: strcat
//  352     if (num3 || num2)
        MOV     DPL,?XSP + 0
        MOV     DPH,?XSP + 1
        MOVX    A,@DPTR
        MOV     R0,A
        INC     DPTR
        MOVX    A,@DPTR
        MOV     R1,A
        MOV     A,R0
        ORL     A,R1
        JNZ     ??_ltoa_6
        MOV     A,R6
        ORL     A,R7
        JZ      ??_ltoa_7
//  353     {
//  354       for (i = 0; i < 4 - strlen((char const*)tmp1); i++)
??_ltoa_6:
        MOV     ?V14,#0x0
??_ltoa_8:
        MOV     ?V0,?V14
        MOV     ?V1,#0x0
        ; Setup parameters for call to function strlen
        MOV     A,#0x2
        LCALL   ?XSTACK_DISP101_8
        LCALL   `??strlen::?relay`   ; Banked call to: strlen
        MOV     ?V2,R2
        MOV     ?V3,R3
        MOV     A,#0x4
        CLR     C
        SUBB    A,?V2
        MOV     R0,A
        MOV     A,#0x0
        SUBB    A,?V3
        MOV     R1,A
        CLR     C
        MOV     A,?V0
        SUBB    A,R0
        MOV     A,?V1
        SUBB    A,R1
        JNC     ??_ltoa_7
//  355         strcat((char*)buf, "0");
        ; Setup parameters for call to function strcat
        MOV     R4,#`?<Constant "0">` & 0xff
        MOV     R5,#(`?<Constant "0">` >> 8) & 0xff
        MOV     A,#0x38
        LCALL   ?XSTACK_DISP0_8
        MOVX    A,@DPTR
        MOV     R2,A
        INC     DPTR
        MOVX    A,@DPTR
        MOV     R3,A
        LCALL   `??strcat::?relay`   ; Banked call to: strcat
        INC     ?V14
        SJMP    ??_ltoa_8
//  356     }
//  357     strcat((char*)buf, (char const*)tmp1);
??_ltoa_7:
        ; Setup parameters for call to function strcat
        MOV     A,#0x2
        LCALL   ?XSTACK_DISP102_8
        MOV     A,#0x38
        LCALL   ?XSTACK_DISP0_8
        MOVX    A,@DPTR
        MOV     R2,A
        INC     DPTR
        MOVX    A,@DPTR
        MOV     R3,A
        LCALL   `??strcat::?relay`   ; Banked call to: strcat
//  358     if (!num3 && !num2 && !num1)
        MOV     DPL,?XSP + 0
        MOV     DPH,?XSP + 1
        MOVX    A,@DPTR
        MOV     R0,A
        INC     DPTR
        MOVX    A,@DPTR
        MOV     R1,A
        MOV     A,R0
        ORL     A,R1
        JZ      $+5
        LJMP    ??_ltoa_9 & 0xFFFF
        MOV     A,R6
        ORL     A,R7
        JZ      $+5
        LJMP    ??_ltoa_9 & 0xFFFF
        MOV     A,?V12
        ORL     A,?V13
        JZ      $+5
        LJMP    ??_ltoa_9 & 0xFFFF
//  359       strcpy((char*)buf, "0");
        ; Setup parameters for call to function strcpy
        MOV     R4,#`?<Constant "0">` & 0xff
        MOV     R5,#(`?<Constant "0">` >> 8) & 0xff
        MOV     A,#0x38
        LCALL   ?XSTACK_DISP0_8
        MOVX    A,@DPTR
        MOV     R2,A
        INC     DPTR
        MOVX    A,@DPTR
        MOV     R3,A
        LCALL   `??strcpy::?relay`   ; Banked call to: strcpy
        LJMP    ??_ltoa_9 & 0xFFFF
//  360   }
//  361   else if ( radix == 16 )
??_ltoa_0:
        MOV     A,#0x10
        XRL     A,?V15
        JZ      $+5
        LJMP    ??_ltoa_10 & 0xFFFF
//  362   {
//  363     num1 = l & 0x0000FFFF;
        MOV     ?V0,?V4
        MOV     ?V1,?V5
        MOV     ?V12,?V0
        MOV     ?V13,?V1
//  364     num2 = l >> 16;
        MOV     ?V0,?V4
        MOV     ?V1,?V5
        MOV     ?V2,?V6
        MOV     ?V3,?V7
        MOV     A,#0x10
        MOV     R0,#?V0
        LCALL   ?UL_SHR
        MOV     R6,?V0
        MOV     R7,?V1
//  365 
//  366     if (num2) _itoa(num2, tmp2, 16);
        MOV     A,R6
        ORL     A,R7
        JZ      ??_ltoa_11
        ; Setup parameters for call to function _itoa
        MOV     R1,#0x10
        MOV     A,#0xc
        LCALL   ?XSTACK_DISP102_8
        MOV     A,R6
        MOV     R2,A
        MOV     A,R7
        MOV     R3,A
        LCALL   `??_itoa::?relay`    ; Banked call to: _itoa
//  367     if (num1) _itoa(num1, tmp1, 16);
??_ltoa_11:
        MOV     A,?V12
        ORL     A,?V13
        JZ      ??_ltoa_12
        ; Setup parameters for call to function _itoa
        MOV     R1,#0x10
        MOV     A,#0x2
        LCALL   ?XSTACK_DISP102_8
        MOV     R2,?V12
        MOV     R3,?V13
        LCALL   `??_itoa::?relay`    ; Banked call to: _itoa
//  368 
//  369     if (num2)
??_ltoa_12:
        MOV     A,R6
        ORL     A,R7
        JZ      ??_ltoa_13
//  370     {
//  371       strcpy((char*)buf,(char const*)tmp2);
        ; Setup parameters for call to function strcpy
        MOV     A,#0xc
        LCALL   ?XSTACK_DISP102_8
        MOV     A,#0x38
        LCALL   ?XSTACK_DISP0_8
        MOVX    A,@DPTR
        MOV     R2,A
        INC     DPTR
        MOVX    A,@DPTR
        MOV     R3,A
        LCALL   `??strcpy::?relay`   ; Banked call to: strcpy
//  372       for (i = 0; i < 4 - strlen((char const*)tmp1); i++)
        MOV     ?V14,#0x0
??_ltoa_14:
        MOV     ?V0,?V14
        MOV     ?V1,#0x0
        ; Setup parameters for call to function strlen
        MOV     A,#0x2
        LCALL   ?XSTACK_DISP101_8
        LCALL   `??strlen::?relay`   ; Banked call to: strlen
        MOV     ?V2,R2
        MOV     ?V3,R3
        MOV     A,#0x4
        CLR     C
        SUBB    A,?V2
        MOV     R0,A
        MOV     A,#0x0
        SUBB    A,?V3
        MOV     R1,A
        CLR     C
        MOV     A,?V0
        SUBB    A,R0
        MOV     A,?V1
        SUBB    A,R1
        JNC     ??_ltoa_13
//  373         strcat((char*)buf, "0");
        ; Setup parameters for call to function strcat
        MOV     R4,#`?<Constant "0">` & 0xff
        MOV     R5,#(`?<Constant "0">` >> 8) & 0xff
        MOV     A,#0x38
        LCALL   ?XSTACK_DISP0_8
        MOVX    A,@DPTR
        MOV     R2,A
        INC     DPTR
        MOVX    A,@DPTR
        MOV     R3,A
        LCALL   `??strcat::?relay`   ; Banked call to: strcat
        INC     ?V14
        SJMP    ??_ltoa_14
//  374     }
//  375     strcat((char*)buf, (char const*)tmp1);
??_ltoa_13:
        ; Setup parameters for call to function strcat
        MOV     A,#0x2
        LCALL   ?XSTACK_DISP102_8
        MOV     A,#0x38
        LCALL   ?XSTACK_DISP0_8
        MOVX    A,@DPTR
        MOV     R2,A
        INC     DPTR
        MOVX    A,@DPTR
        MOV     R3,A
        LCALL   `??strcat::?relay`   ; Banked call to: strcat
//  376     if (!num2 && !num1)
        MOV     A,R6
        ORL     A,R7
        JNZ     ??_ltoa_9
        MOV     A,?V12
        ORL     A,?V13
        JNZ     ??_ltoa_9
//  377       strcpy((char*)buf, "0");
        ; Setup parameters for call to function strcpy
        MOV     R4,#`?<Constant "0">` & 0xff
        MOV     R5,#(`?<Constant "0">` >> 8) & 0xff
        MOV     A,#0x38
        LCALL   ?XSTACK_DISP0_8
        MOVX    A,@DPTR
        MOV     R2,A
        INC     DPTR
        MOVX    A,@DPTR
        MOV     R3,A
        LCALL   `??strcpy::?relay`   ; Banked call to: strcpy
        SJMP    ??_ltoa_9
//  378   }
//  379   else
//  380     return NULL;
??_ltoa_10:
        MOV     R2,#0x0
        MOV     R3,#0x0
        SJMP    ??_ltoa_15
//  381 
//  382   return buf;
??_ltoa_9:
        MOV     A,#0x38
        LCALL   ?XSTACK_DISP0_8
        MOVX    A,@DPTR
        MOV     R2,A
        INC     DPTR
        MOVX    A,@DPTR
        MOV     R3,A
??_ltoa_15:
        MOV     A,#0x20
        LCALL   ?DEALLOC_XSTACK8
          CFI CFA_XSP16 add(XSP16, 24)
        MOV     R7,#0x10
        LJMP    ?BANKED_LEAVE_XDATA
//  383 #endif
//  384 }
          CFI EndBlock cfiBlock8
//  385 #endif // !defined(ZBIT) && !defined(ZBIT2)
//  386 
//  387 /*********************************************************************
//  388  * @fn        osal_rand
//  389  *
//  390  * @brief    Random number generator
//  391  *
//  392  * @param   none
//  393  *
//  394  * @return  uint16 - new random number
//  395  */

        RSEG BANKED_CODE:CODE:NOROOT(0)
//  396 uint16 osal_rand( void )
osal_rand:
          CFI Block cfiBlock9 Using cfiCommon0
          CFI Function osal_rand
        CODE
//  397 {
        FUNCALL osal_rand, Onboard_rand
        LOCFRAME ISTACK, 2, STACK
        LOCFRAME PSTACK, 0, STACK
        LOCFRAME XSTACK, 0, STACK
        LOCFRAME IOVERLAY, 0, STATIC
        LOCFRAME DOVERLAY, 0, STATIC
        ARGFRAME ISTACK, 2, STACK
        ARGFRAME PSTACK, 0, STACK
        ARGFRAME XSTACK, 0, STACK
        ARGFRAME IOVERLAY, 0, STATIC
        ARGFRAME DOVERLAY, 0, STATIC
        PUSH    DPL
          CFI DPL0 Frame(CFA_SP, 4)
          CFI CFA_SP SP+-4
        PUSH    DPH
          CFI DPH0 Frame(CFA_SP, 5)
          CFI CFA_SP SP+-5
        ; Saved register size: 2
        ; Auto size: 0
//  398   return ( Onboard_rand() );
        ; Setup parameters for call to function Onboard_rand
        LCALL   `??Onboard_rand::?relay`; Banked call to: Onboard_rand
        POP     DPH
          CFI DPH0 SameValue
          CFI CFA_SP SP+-4
        POP     DPL
          CFI DPL0 SameValue
          CFI CFA_SP SP+-3
        LJMP    ?BRET
//  399 }
          CFI EndBlock cfiBlock9
//  400 
//  401 /*********************************************************************
//  402  * API FUNCTIONS
//  403  *********************************************************************/
//  404 
//  405 /*********************************************************************
//  406  * @fn      osal_msg_allocate
//  407  *
//  408  * @brief
//  409  *
//  410  *    This function is called by a task to allocate a message buffer
//  411  *    into which the task will encode the particular message it wishes
//  412  *    to send.  This common buffer scheme is used to strictly limit the
//  413  *    creation of message buffers within the system due to RAM size
//  414  *    limitations on the microprocessor.   Note that all message buffers
//  415  *    are a fixed size (at least initially).  The parameter len is kept
//  416  *    in case a message pool with varying fixed message sizes is later
//  417  *    created (for example, a pool of message buffers of size LARGE,
//  418  *    MEDIUM and SMALL could be maintained and allocated based on request
//  419  *    from the tasks).
//  420  *
//  421  *
//  422  * @param   uint8 len  - wanted buffer length
//  423  *
//  424  *
//  425  * @return  pointer to allocated buffer or NULL if allocation failed.
//  426  */

        RSEG BANKED_CODE:CODE:NOROOT(0)
//  427 uint8 * osal_msg_allocate( uint16 len )
osal_msg_allocate:
          CFI Block cfiBlock10 Using cfiCommon0
          CFI Function osal_msg_allocate
        CODE
//  428 {
        FUNCALL osal_msg_allocate, osal_mem_alloc
        LOCFRAME ISTACK, 0, STACK
        LOCFRAME PSTACK, 0, STACK
        LOCFRAME XSTACK, 12, STACK
        LOCFRAME IOVERLAY, 0, STATIC
        LOCFRAME DOVERLAY, 0, STATIC
        ARGFRAME ISTACK, 0, STACK
        ARGFRAME PSTACK, 0, STACK
        ARGFRAME XSTACK, 12, STACK
        ARGFRAME IOVERLAY, 0, STATIC
        ARGFRAME DOVERLAY, 0, STATIC
        REQUIRE ?V0
        REQUIRE ?V1
        REQUIRE ?V2
        REQUIRE ?V3
        MOV     A,#-0xc
        LCALL   ?BANKED_ENTER_XDATA
          CFI DPH0 load(1, XDATA, add(CFA_XSP16, literal(-1)))
          CFI DPL0 load(1, XDATA, add(CFA_XSP16, literal(-2)))
          CFI ?BRET_EXT load(1, XDATA, add(CFA_XSP16, literal(-3)))
          CFI ?RET_HIGH load(1, XDATA, add(CFA_XSP16, literal(-4)))
          CFI ?RET_LOW load(1, XDATA, add(CFA_XSP16, literal(-5)))
          CFI R7 load(1, XDATA, add(CFA_XSP16, literal(-6)))
          CFI V3 load(1, XDATA, add(CFA_XSP16, literal(-7)))
          CFI V2 load(1, XDATA, add(CFA_XSP16, literal(-8)))
          CFI V1 load(1, XDATA, add(CFA_XSP16, literal(-9)))
          CFI V0 load(1, XDATA, add(CFA_XSP16, literal(-10)))
          CFI VB load(1, XDATA, add(CFA_XSP16, literal(-11)))
          CFI R6 load(1, XDATA, add(CFA_XSP16, literal(-12)))
          CFI CFA_SP SP+0
          CFI CFA_XSP16 add(XSP16, 12)
        ; Saved register size: 12
        ; Auto size: 0
        MOV     ?V0,R2
        MOV     ?V1,R3
//  429   osal_msg_hdr_t *hdr;
//  430 
//  431   if ( len == 0 )
        MOV     A,?V0
        ORL     A,?V1
        JNZ     ??osal_msg_allocate_0
//  432     return ( NULL );
        MOV     R2,#0x0
        MOV     R3,#0x0
        SJMP    ??osal_msg_allocate_1
//  433 
//  434   hdr = (osal_msg_hdr_t *) osal_mem_alloc( (short)(len + sizeof( osal_msg_hdr_t )) );
??osal_msg_allocate_0:
        ; Setup parameters for call to function osal_mem_alloc
        MOV     A,?V0
        ADD     A,#0x5
        MOV     R2,A
        CLR     A
        ADDC    A,?V1
        MOV     R3,A
        LCALL   `??osal_mem_alloc::?relay`; Banked call to: osal_mem_alloc
        MOV     ?V2,R2
        MOV     ?V3,R3
        MOV     R6,?V2
        MOV     R7,?V3
//  435   if ( hdr )
        MOV     A,R6
        ORL     A,R7
        JZ      ??osal_msg_allocate_2
//  436   {
//  437     hdr->next = NULL;
        MOV     DPL,R6
        MOV     DPH,R7
        MOV     A,#0x0
        MOVX    @DPTR,A
        INC     DPTR
        MOV     A,#0x0
        MOVX    @DPTR,A
//  438     hdr->len = len;
        MOV     DPL,R6
        MOV     DPH,R7
        INC     DPTR
        INC     DPTR
        MOV     A,?V0
        MOVX    @DPTR,A
        INC     DPTR
        MOV     A,?V1
        MOVX    @DPTR,A
//  439     hdr->dest_id = TASK_NO_TASK;
        MOV     DPL,R6
        MOV     DPH,R7
        INC     DPTR
        INC     DPTR
        INC     DPTR
        INC     DPTR
        MOV     A,#-0x1
        MOVX    @DPTR,A
//  440     return ( (uint8 *) (hdr + 1) );
        MOV     A,R6
        ADD     A,#0x5
        MOV     R2,A
        CLR     A
        ADDC    A,R7
        MOV     R3,A
        SJMP    ??osal_msg_allocate_1
//  441   }
//  442   else
//  443     return ( NULL );
??osal_msg_allocate_2:
        MOV     R2,#0x0
        MOV     R3,#0x0
??osal_msg_allocate_1:
        MOV     R7,#0x4
        LJMP    ?BANKED_LEAVE_XDATA
//  444 }
          CFI EndBlock cfiBlock10
//  445 
//  446 /*********************************************************************
//  447  * @fn      osal_msg_deallocate
//  448  *
//  449  * @brief
//  450  *
//  451  *    This function is used to deallocate a message buffer. This function
//  452  *    is called by a task (or processing element) after it has finished
//  453  *    processing a received message.
//  454  *
//  455  *
//  456  * @param   uint8 *msg_ptr - pointer to new message buffer
//  457  *
//  458  * @return  SUCCESS, INVALID_MSG_POINTER
//  459  */

        RSEG BANKED_CODE:CODE:NOROOT(0)
//  460 uint8 osal_msg_deallocate( uint8 *msg_ptr )
osal_msg_deallocate:
          CFI Block cfiBlock11 Using cfiCommon0
          CFI Function osal_msg_deallocate
        CODE
//  461 {
        FUNCALL osal_msg_deallocate, osal_mem_free
        LOCFRAME ISTACK, 0, STACK
        LOCFRAME PSTACK, 0, STACK
        LOCFRAME XSTACK, 10, STACK
        LOCFRAME IOVERLAY, 0, STATIC
        LOCFRAME DOVERLAY, 0, STATIC
        ARGFRAME ISTACK, 0, STACK
        ARGFRAME PSTACK, 0, STACK
        ARGFRAME XSTACK, 10, STACK
        ARGFRAME IOVERLAY, 0, STATIC
        ARGFRAME DOVERLAY, 0, STATIC
        REQUIRE ?V0
        REQUIRE ?V1
        MOV     A,#-0xa
        LCALL   ?BANKED_ENTER_XDATA
          CFI DPH0 load(1, XDATA, add(CFA_XSP16, literal(-1)))
          CFI DPL0 load(1, XDATA, add(CFA_XSP16, literal(-2)))
          CFI ?BRET_EXT load(1, XDATA, add(CFA_XSP16, literal(-3)))
          CFI ?RET_HIGH load(1, XDATA, add(CFA_XSP16, literal(-4)))
          CFI ?RET_LOW load(1, XDATA, add(CFA_XSP16, literal(-5)))
          CFI R7 load(1, XDATA, add(CFA_XSP16, literal(-6)))
          CFI V1 load(1, XDATA, add(CFA_XSP16, literal(-7)))
          CFI V0 load(1, XDATA, add(CFA_XSP16, literal(-8)))
          CFI VB load(1, XDATA, add(CFA_XSP16, literal(-9)))
          CFI R6 load(1, XDATA, add(CFA_XSP16, literal(-10)))
          CFI CFA_SP SP+0
          CFI CFA_XSP16 add(XSP16, 10)
        ; Saved register size: 10
        ; Auto size: 0
        MOV     A,R2
        MOV     R6,A
        MOV     A,R3
        MOV     R7,A
//  462   uint8 *x;
//  463 
//  464   if ( msg_ptr == NULL )
        MOV     A,R6
        ORL     A,R7
        JNZ     ??osal_msg_deallocate_0
//  465     return ( INVALID_MSG_POINTER );
        MOV     R1,#0x5
        SJMP    ??osal_msg_deallocate_1
//  466 
//  467   // don't deallocate queued buffer
//  468   if ( OSAL_MSG_ID( msg_ptr ) != TASK_NO_TASK )
??osal_msg_deallocate_0:
        MOV     A,R6
        ADD     A,#-0x1
        MOV     DPL,A
        MOV     A,R7
        ADDC    A,#-0x1
        MOV     DPH,A
        MOVX    A,@DPTR
        XRL     A,#0xff
        JZ      ??osal_msg_deallocate_2
//  469     return ( MSG_BUFFER_NOT_AVAIL );
        MOV     R1,#0x4
        SJMP    ??osal_msg_deallocate_1
//  470 
//  471   x = (uint8 *)((uint8 *)msg_ptr - sizeof( osal_msg_hdr_t ));
??osal_msg_deallocate_2:
        MOV     A,R6
        ADD     A,#-0x5
        MOV     R0,A
        MOV     A,R7
        ADDC    A,#-0x1
        MOV     R1,A
        MOV     ?V0,R0
        MOV     ?V1,R1
//  472 
//  473   osal_mem_free( (void *)x );
        ; Setup parameters for call to function osal_mem_free
        MOV     R2,?V0
        MOV     R3,?V1
        LCALL   `??osal_mem_free::?relay`; Banked call to: osal_mem_free
//  474 
//  475   return ( SUCCESS );
        MOV     R1,#0x0
??osal_msg_deallocate_1:
        MOV     R7,#0x2
        LJMP    ?BANKED_LEAVE_XDATA
//  476 }
          CFI EndBlock cfiBlock11
//  477 
//  478 /*********************************************************************
//  479  * @fn      osal_msg_send
//  480  *
//  481  * @brief
//  482  *
//  483  *    This function is called by a task to send a command message to
//  484  *    another task or processing element.  The sending_task field must
//  485  *    refer to a valid task, since the task ID will be used
//  486  *    for the response message.  This function will also set a message
//  487  *    ready event in the destination tasks event list.
//  488  *
//  489  *
//  490  * @param   uint8 destination_task - Send msg to Task ID
//  491  * @param   uint8 *msg_ptr - pointer to new message buffer
//  492  *
//  493  * @return  SUCCESS, INVALID_TASK, INVALID_MSG_POINTER
//  494  */

        RSEG BANKED_CODE:CODE:NOROOT(0)
//  495 uint8 osal_msg_send( uint8 destination_task, uint8 *msg_ptr )
osal_msg_send:
          CFI Block cfiBlock12 Using cfiCommon0
          CFI Function osal_msg_send
        CODE
//  496 {
        FUNCALL osal_msg_send, osal_msg_enqueue_push
        LOCFRAME ISTACK, 0, STACK
        LOCFRAME PSTACK, 0, STACK
        LOCFRAME XSTACK, 9, STACK
        LOCFRAME IOVERLAY, 0, STATIC
        LOCFRAME DOVERLAY, 0, STATIC
        ARGFRAME ISTACK, 0, STACK
        ARGFRAME PSTACK, 0, STACK
        ARGFRAME XSTACK, 9, STACK
        ARGFRAME IOVERLAY, 0, STATIC
        ARGFRAME DOVERLAY, 0, STATIC
        REQUIRE ?V0
        MOV     A,#-0x9
        LCALL   ?BANKED_ENTER_XDATA
          CFI DPH0 load(1, XDATA, add(CFA_XSP16, literal(-1)))
          CFI DPL0 load(1, XDATA, add(CFA_XSP16, literal(-2)))
          CFI ?BRET_EXT load(1, XDATA, add(CFA_XSP16, literal(-3)))
          CFI ?RET_HIGH load(1, XDATA, add(CFA_XSP16, literal(-4)))
          CFI ?RET_LOW load(1, XDATA, add(CFA_XSP16, literal(-5)))
          CFI R7 load(1, XDATA, add(CFA_XSP16, literal(-6)))
          CFI V0 load(1, XDATA, add(CFA_XSP16, literal(-7)))
          CFI VB load(1, XDATA, add(CFA_XSP16, literal(-8)))
          CFI R6 load(1, XDATA, add(CFA_XSP16, literal(-9)))
          CFI CFA_SP SP+0
          CFI CFA_XSP16 add(XSP16, 9)
        ; Saved register size: 9
        ; Auto size: 0
        MOV     ?V0,R1
        MOV     A,R2
        MOV     R6,A
        MOV     A,R3
        MOV     R7,A
//  497   return ( osal_msg_enqueue_push( destination_task, msg_ptr, FALSE ) );
        ; Setup parameters for call to function osal_msg_enqueue_push
        MOV     R4,#0x0
        MOV     A,R6
        MOV     R2,A
        MOV     A,R7
        MOV     R3,A
        MOV     R1,?V0
        LCALL   `??osal_msg_enqueue_push::?relay`; Banked call to: osal_msg_enqueue_push
        MOV     R7,#0x1
        LJMP    ?BANKED_LEAVE_XDATA
//  498 }
          CFI EndBlock cfiBlock12
//  499 
//  500 /*********************************************************************
//  501  * @fn      osal_msg_push_front
//  502  *
//  503  * @brief
//  504  *
//  505  *    This function is called by a task to push a command message
//  506  *    to the head of the OSAL queue. The destination_task field
//  507  *    must refer to a valid task, since the task ID will be used to
//  508  *    send the message to. This function will also set a message
//  509  *    ready event in the destination task's event list.
//  510  *
//  511  * @param   uint8 destination_task - Send msg to Task ID
//  512  * @param   uint8 *msg_ptr - pointer to message buffer
//  513  *
//  514  * @return  SUCCESS, INVALID_TASK, INVALID_MSG_POINTER
//  515  */

        RSEG BANKED_CODE:CODE:NOROOT(0)
//  516 uint8 osal_msg_push_front( uint8 destination_task, uint8 *msg_ptr )
osal_msg_push_front:
          CFI Block cfiBlock13 Using cfiCommon0
          CFI Function osal_msg_push_front
        CODE
//  517 {
        FUNCALL osal_msg_push_front, osal_msg_enqueue_push
        LOCFRAME ISTACK, 0, STACK
        LOCFRAME PSTACK, 0, STACK
        LOCFRAME XSTACK, 9, STACK
        LOCFRAME IOVERLAY, 0, STATIC
        LOCFRAME DOVERLAY, 0, STATIC
        ARGFRAME ISTACK, 0, STACK
        ARGFRAME PSTACK, 0, STACK
        ARGFRAME XSTACK, 9, STACK
        ARGFRAME IOVERLAY, 0, STATIC
        ARGFRAME DOVERLAY, 0, STATIC
        REQUIRE ?V0
        MOV     A,#-0x9
        LCALL   ?BANKED_ENTER_XDATA
          CFI DPH0 load(1, XDATA, add(CFA_XSP16, literal(-1)))
          CFI DPL0 load(1, XDATA, add(CFA_XSP16, literal(-2)))
          CFI ?BRET_EXT load(1, XDATA, add(CFA_XSP16, literal(-3)))
          CFI ?RET_HIGH load(1, XDATA, add(CFA_XSP16, literal(-4)))
          CFI ?RET_LOW load(1, XDATA, add(CFA_XSP16, literal(-5)))
          CFI R7 load(1, XDATA, add(CFA_XSP16, literal(-6)))
          CFI V0 load(1, XDATA, add(CFA_XSP16, literal(-7)))
          CFI VB load(1, XDATA, add(CFA_XSP16, literal(-8)))
          CFI R6 load(1, XDATA, add(CFA_XSP16, literal(-9)))
          CFI CFA_SP SP+0
          CFI CFA_XSP16 add(XSP16, 9)
        ; Saved register size: 9
        ; Auto size: 0
        MOV     ?V0,R1
        MOV     A,R2
        MOV     R6,A
        MOV     A,R3
        MOV     R7,A
//  518   return ( osal_msg_enqueue_push( destination_task, msg_ptr, TRUE ) );
        ; Setup parameters for call to function osal_msg_enqueue_push
        MOV     R4,#0x1
        MOV     A,R6
        MOV     R2,A
        MOV     A,R7
        MOV     R3,A
        MOV     R1,?V0
        LCALL   `??osal_msg_enqueue_push::?relay`; Banked call to: osal_msg_enqueue_push
        MOV     R7,#0x1
        LJMP    ?BANKED_LEAVE_XDATA
//  519 }
          CFI EndBlock cfiBlock13
//  520 
//  521 /*********************************************************************
//  522  * @fn      osal_msg_enqueue_push
//  523  *
//  524  * @brief
//  525  *
//  526  *    This function is called by a task to either enqueue (append to
//  527  *    queue) or push (prepend to queue) a command message to the OSAL
//  528  *    queue. The destination_task field must refer to a valid task,
//  529  *    since the task ID will be used to send the message to. This 
//  530  *    function will also set a message ready event in the destination
//  531  *    task's event list.
//  532  *
//  533  * @param   uint8 destination_task - Send msg to Task ID
//  534  * @param   uint8 *msg_ptr - pointer to message buffer
//  535  * @param   uint8 push - TRUE to push, otherwise enqueue
//  536  *
//  537  * @return  SUCCESS, INVALID_TASK, INVALID_MSG_POINTER
//  538  */

        RSEG BANKED_CODE:CODE:NOROOT(0)
//  539 static uint8 osal_msg_enqueue_push( uint8 destination_task, uint8 *msg_ptr, uint8 push )
osal_msg_enqueue_push:
          CFI Block cfiBlock14 Using cfiCommon0
          CFI Function osal_msg_enqueue_push
        CODE
//  540 {
        FUNCALL osal_msg_enqueue_push, osal_msg_deallocate
        LOCFRAME ISTACK, 0, STACK
        LOCFRAME PSTACK, 0, STACK
        LOCFRAME XSTACK, 10, STACK
        LOCFRAME IOVERLAY, 0, STATIC
        LOCFRAME DOVERLAY, 0, STATIC
        ARGFRAME ISTACK, 0, STACK
        ARGFRAME PSTACK, 0, STACK
        ARGFRAME XSTACK, 10, STACK
        ARGFRAME IOVERLAY, 0, STATIC
        ARGFRAME DOVERLAY, 0, STATIC
        FUNCALL osal_msg_enqueue_push, osal_msg_deallocate
        LOCFRAME ISTACK, 0, STACK
        LOCFRAME PSTACK, 0, STACK
        LOCFRAME XSTACK, 10, STACK
        LOCFRAME IOVERLAY, 0, STATIC
        LOCFRAME DOVERLAY, 0, STATIC
        ARGFRAME ISTACK, 0, STACK
        ARGFRAME PSTACK, 0, STACK
        ARGFRAME XSTACK, 10, STACK
        ARGFRAME IOVERLAY, 0, STATIC
        ARGFRAME DOVERLAY, 0, STATIC
        FUNCALL osal_msg_enqueue_push, osal_msg_push
        LOCFRAME ISTACK, 0, STACK
        LOCFRAME PSTACK, 0, STACK
        LOCFRAME XSTACK, 10, STACK
        LOCFRAME IOVERLAY, 0, STATIC
        LOCFRAME DOVERLAY, 0, STATIC
        ARGFRAME ISTACK, 0, STACK
        ARGFRAME PSTACK, 0, STACK
        ARGFRAME XSTACK, 10, STACK
        ARGFRAME IOVERLAY, 0, STATIC
        ARGFRAME DOVERLAY, 0, STATIC
        FUNCALL osal_msg_enqueue_push, osal_msg_enqueue
        LOCFRAME ISTACK, 0, STACK
        LOCFRAME PSTACK, 0, STACK
        LOCFRAME XSTACK, 10, STACK
        LOCFRAME IOVERLAY, 0, STATIC
        LOCFRAME DOVERLAY, 0, STATIC
        ARGFRAME ISTACK, 0, STACK
        ARGFRAME PSTACK, 0, STACK
        ARGFRAME XSTACK, 10, STACK
        ARGFRAME IOVERLAY, 0, STATIC
        ARGFRAME DOVERLAY, 0, STATIC
        FUNCALL osal_msg_enqueue_push, osal_set_event
        LOCFRAME ISTACK, 0, STACK
        LOCFRAME PSTACK, 0, STACK
        LOCFRAME XSTACK, 10, STACK
        LOCFRAME IOVERLAY, 0, STATIC
        LOCFRAME DOVERLAY, 0, STATIC
        ARGFRAME ISTACK, 0, STACK
        ARGFRAME PSTACK, 0, STACK
        ARGFRAME XSTACK, 10, STACK
        ARGFRAME IOVERLAY, 0, STATIC
        ARGFRAME DOVERLAY, 0, STATIC
        REQUIRE ?V0
        REQUIRE ?V1
        MOV     A,#-0xa
        LCALL   ?BANKED_ENTER_XDATA
          CFI DPH0 load(1, XDATA, add(CFA_XSP16, literal(-1)))
          CFI DPL0 load(1, XDATA, add(CFA_XSP16, literal(-2)))
          CFI ?BRET_EXT load(1, XDATA, add(CFA_XSP16, literal(-3)))
          CFI ?RET_HIGH load(1, XDATA, add(CFA_XSP16, literal(-4)))
          CFI ?RET_LOW load(1, XDATA, add(CFA_XSP16, literal(-5)))
          CFI R7 load(1, XDATA, add(CFA_XSP16, literal(-6)))
          CFI V1 load(1, XDATA, add(CFA_XSP16, literal(-7)))
          CFI V0 load(1, XDATA, add(CFA_XSP16, literal(-8)))
          CFI VB load(1, XDATA, add(CFA_XSP16, literal(-9)))
          CFI R6 load(1, XDATA, add(CFA_XSP16, literal(-10)))
          CFI CFA_SP SP+0
          CFI CFA_XSP16 add(XSP16, 10)
        ; Saved register size: 10
        ; Auto size: 0
        MOV     ?V0,R1
        MOV     A,R2
        MOV     R6,A
        MOV     A,R3
        MOV     R7,A
        MOV     ?V1,R4
//  541   if ( msg_ptr == NULL )
        MOV     A,R6
        ORL     A,R7
        JNZ     ??osal_msg_enqueue_push_0
//  542   {
//  543     return ( INVALID_MSG_POINTER );
        MOV     R1,#0x5
        LJMP    ??osal_msg_enqueue_push_1 & 0xFFFF
//  544   }
//  545 
//  546   if ( destination_task >= tasksCnt )
??osal_msg_enqueue_push_0:
        MOV     DPTR,#tasksCnt
        MOVX    A,@DPTR
        MOV     R0,A
        MOV     A,?V0
        CLR     C
        SUBB    A,R0
        JC      ??osal_msg_enqueue_push_2
//  547   {
//  548     osal_msg_deallocate( msg_ptr );
        ; Setup parameters for call to function osal_msg_deallocate
        MOV     A,R6
        MOV     R2,A
        MOV     A,R7
        MOV     R3,A
        LCALL   `??osal_msg_deallocate::?relay`; Banked call to: osal_msg_deallocate
        MOV     A,R1
//  549     return ( INVALID_TASK );
        MOV     R1,#0x3
        SJMP    ??osal_msg_enqueue_push_1
//  550   }
//  551 
//  552   // Check the message header
//  553   if ( OSAL_MSG_NEXT( msg_ptr ) != NULL ||
//  554        OSAL_MSG_ID( msg_ptr ) != TASK_NO_TASK )
??osal_msg_enqueue_push_2:
        MOV     A,R6
        ADD     A,#-0x5
        MOV     DPL,A
        MOV     A,R7
        ADDC    A,#-0x1
        MOV     DPH,A
        MOVX    A,@DPTR
        MOV     R0,A
        INC     DPTR
        MOVX    A,@DPTR
        MOV     R1,A
        MOV     A,R0
        ORL     A,R1
        JNZ     ??osal_msg_enqueue_push_3
        MOV     A,R6
        ADD     A,#-0x1
        MOV     DPL,A
        MOV     A,R7
        ADDC    A,#-0x1
        MOV     DPH,A
        MOVX    A,@DPTR
        XRL     A,#0xff
        JZ      ??osal_msg_enqueue_push_4
//  555   {
//  556     osal_msg_deallocate( msg_ptr );
??osal_msg_enqueue_push_3:
        ; Setup parameters for call to function osal_msg_deallocate
        MOV     A,R6
        MOV     R2,A
        MOV     A,R7
        MOV     R3,A
        LCALL   `??osal_msg_deallocate::?relay`; Banked call to: osal_msg_deallocate
        MOV     A,R1
//  557     return ( INVALID_MSG_POINTER );
        MOV     R1,#0x5
        SJMP    ??osal_msg_enqueue_push_1
//  558   }
//  559 
//  560   OSAL_MSG_ID( msg_ptr ) = destination_task;
??osal_msg_enqueue_push_4:
        MOV     A,?V0
        PUSH    A
          CFI CFA_SP SP+-1
        MOV     A,R6
        ADD     A,#-0x1
        MOV     DPL,A
        MOV     A,R7
        ADDC    A,#-0x1
        MOV     DPH,A
        POP     A
          CFI CFA_SP SP+0
        MOVX    @DPTR,A
//  561 
//  562   if ( push == TRUE )
        MOV     A,#0x1
        XRL     A,?V1
        JNZ     ??osal_msg_enqueue_push_5
//  563   {
//  564     // prepend the message
//  565     osal_msg_push( &osal_qHead, msg_ptr );
        ; Setup parameters for call to function osal_msg_push
        MOV     A,R6
        MOV     R4,A
        MOV     A,R7
        MOV     R5,A
        MOV     R2,#osal_qHead & 0xff
        MOV     R3,#(osal_qHead >> 8) & 0xff
        LCALL   `??osal_msg_push::?relay`; Banked call to: osal_msg_push
        SJMP    ??osal_msg_enqueue_push_6
//  566   }
//  567   else
//  568   {
//  569     // append the message
//  570     osal_msg_enqueue( &osal_qHead, msg_ptr );
??osal_msg_enqueue_push_5:
        ; Setup parameters for call to function osal_msg_enqueue
        MOV     A,R6
        MOV     R4,A
        MOV     A,R7
        MOV     R5,A
        MOV     R2,#osal_qHead & 0xff
        MOV     R3,#(osal_qHead >> 8) & 0xff
        LCALL   `??osal_msg_enqueue::?relay`; Banked call to: osal_msg_enqueue
//  571   }
//  572 
//  573   // Signal the task that a message is waiting
//  574   osal_set_event( destination_task, SYS_EVENT_MSG );
??osal_msg_enqueue_push_6:
        ; Setup parameters for call to function osal_set_event
        MOV     R2,#0x0
        MOV     R3,#-0x80
        MOV     R1,?V0
        LCALL   `??osal_set_event::?relay`; Banked call to: osal_set_event
        MOV     A,R1
//  575 
//  576   return ( SUCCESS );
        MOV     R1,#0x0
??osal_msg_enqueue_push_1:
        MOV     R7,#0x2
        LJMP    ?BANKED_LEAVE_XDATA
//  577 }
          CFI EndBlock cfiBlock14
//  578 
//  579 /*********************************************************************
//  580  * @fn      osal_msg_receive
//  581  *
//  582  * @brief
//  583  *
//  584  *    This function is called by a task to retrieve a received command
//  585  *    message. The calling task must deallocate the message buffer after
//  586  *    processing the message using the osal_msg_deallocate() call.
//  587  *
//  588  * @param   uint8 task_id - receiving tasks ID
//  589  *
//  590  * @return  *uint8 - message information or NULL if no message
//  591  */

        RSEG BANKED_CODE:CODE:NOROOT(0)
//  592 uint8 *osal_msg_receive( uint8 task_id )
osal_msg_receive:
          CFI Block cfiBlock15 Using cfiCommon0
          CFI Function osal_msg_receive
        CODE
//  593 {
        FUNCALL osal_msg_receive, osal_set_event
        LOCFRAME ISTACK, 0, STACK
        LOCFRAME PSTACK, 0, STACK
        LOCFRAME XSTACK, 14, STACK
        LOCFRAME IOVERLAY, 0, STATIC
        LOCFRAME DOVERLAY, 0, STATIC
        ARGFRAME ISTACK, 0, STACK
        ARGFRAME PSTACK, 0, STACK
        ARGFRAME XSTACK, 14, STACK
        ARGFRAME IOVERLAY, 0, STATIC
        ARGFRAME DOVERLAY, 0, STATIC
        FUNCALL osal_msg_receive, osal_clear_event
        LOCFRAME ISTACK, 0, STACK
        LOCFRAME PSTACK, 0, STACK
        LOCFRAME XSTACK, 14, STACK
        LOCFRAME IOVERLAY, 0, STATIC
        LOCFRAME DOVERLAY, 0, STATIC
        ARGFRAME ISTACK, 0, STACK
        ARGFRAME PSTACK, 0, STACK
        ARGFRAME XSTACK, 14, STACK
        ARGFRAME IOVERLAY, 0, STATIC
        ARGFRAME DOVERLAY, 0, STATIC
        FUNCALL osal_msg_receive, osal_msg_extract
        LOCFRAME ISTACK, 0, STACK
        LOCFRAME PSTACK, 0, STACK
        LOCFRAME XSTACK, 16, STACK
        LOCFRAME IOVERLAY, 0, STATIC
        LOCFRAME DOVERLAY, 0, STATIC
        ARGFRAME ISTACK, 0, STACK
        ARGFRAME PSTACK, 0, STACK
        ARGFRAME XSTACK, 16, STACK
        ARGFRAME IOVERLAY, 0, STATIC
        ARGFRAME DOVERLAY, 0, STATIC
        REQUIRE ?V0
        REQUIRE ?V1
        REQUIRE ?V2
        REQUIRE ?V3
        REQUIRE ?V4
        REQUIRE ?V5
        MOV     A,#-0xe
        LCALL   ?BANKED_ENTER_XDATA
          CFI DPH0 load(1, XDATA, add(CFA_XSP16, literal(-1)))
          CFI DPL0 load(1, XDATA, add(CFA_XSP16, literal(-2)))
          CFI ?BRET_EXT load(1, XDATA, add(CFA_XSP16, literal(-3)))
          CFI ?RET_HIGH load(1, XDATA, add(CFA_XSP16, literal(-4)))
          CFI ?RET_LOW load(1, XDATA, add(CFA_XSP16, literal(-5)))
          CFI R7 load(1, XDATA, add(CFA_XSP16, literal(-6)))
          CFI V5 load(1, XDATA, add(CFA_XSP16, literal(-7)))
          CFI V4 load(1, XDATA, add(CFA_XSP16, literal(-8)))
          CFI V3 load(1, XDATA, add(CFA_XSP16, literal(-9)))
          CFI V2 load(1, XDATA, add(CFA_XSP16, literal(-10)))
          CFI V1 load(1, XDATA, add(CFA_XSP16, literal(-11)))
          CFI V0 load(1, XDATA, add(CFA_XSP16, literal(-12)))
          CFI VB load(1, XDATA, add(CFA_XSP16, literal(-13)))
          CFI R6 load(1, XDATA, add(CFA_XSP16, literal(-14)))
          CFI CFA_SP SP+0
          CFI CFA_XSP16 add(XSP16, 14)
        ; Saved register size: 14
        ; Auto size: 0
        MOV     ?V3,R1
//  594   osal_msg_hdr_t *listHdr;
//  595   osal_msg_hdr_t *prevHdr = NULL;
        MOV     ?V4,#0x0
        MOV     ?V5,#0x0
//  596   osal_msg_hdr_t *foundHdr = NULL;
        MOV     R6,#0x0
        MOV     R7,#0x0
//  597   halIntState_t   intState;
//  598 
//  599   // Hold off interrupts
//  600   HAL_ENTER_CRITICAL_SECTION(intState);
        MOV     C,0xa8.7
        CLR     A
        RLC     A
        MOV     ?V2,A
        CLR     0xa8.7
//  601 
//  602   // Point to the top of the queue
//  603   listHdr = osal_qHead;
        MOV     DPTR,#osal_qHead
        MOVX    A,@DPTR
        MOV     R0,A
        INC     DPTR
        MOVX    A,@DPTR
        MOV     R1,A
        MOV     ?V0,R0
        MOV     ?V1,R1
//  604 
//  605   // Look through the queue for a message that belongs to the asking task
//  606   while ( listHdr != NULL )
??osal_msg_receive_0:
        MOV     A,?V0
        ORL     A,?V1
        JZ      ??osal_msg_receive_1
//  607   {
//  608     if ( (listHdr - 1)->dest_id == task_id )
        MOV     A,?V0
        ADD     A,#-0x1
        MOV     DPL,A
        MOV     A,?V1
        ADDC    A,#-0x1
        MOV     DPH,A
        MOVX    A,@DPTR
        XRL     A,?V3
        JNZ     ??osal_msg_receive_2
//  609     {
//  610       if ( foundHdr == NULL )
        MOV     A,R6
        ORL     A,R7
        JNZ     ??osal_msg_receive_1
//  611       {
//  612         // Save the first one
//  613         foundHdr = listHdr;
        MOV     R6,?V0
        MOV     R7,?V1
//  614       }
//  615       else
//  616       {
//  617         // Second msg found, stop looking
//  618         break;
//  619       }
//  620     }
//  621     if ( foundHdr == NULL )
??osal_msg_receive_2:
        MOV     A,R6
        ORL     A,R7
        JNZ     ??osal_msg_receive_3
//  622     {
//  623       prevHdr = listHdr;
        MOV     ?V4,?V0
        MOV     ?V5,?V1
//  624     }
//  625     listHdr = OSAL_MSG_NEXT( listHdr );
??osal_msg_receive_3:
        MOV     A,?V0
        ADD     A,#-0x5
        MOV     DPL,A
        MOV     A,?V1
        ADDC    A,#-0x1
        MOV     DPH,A
        MOVX    A,@DPTR
        MOV     ?V0,A
        INC     DPTR
        MOVX    A,@DPTR
        MOV     ?V1,A
        SJMP    ??osal_msg_receive_0
//  626   }
//  627 
//  628   // Is there more than one?
//  629   if ( listHdr != NULL )
??osal_msg_receive_1:
        MOV     A,?V0
        ORL     A,?V1
        JZ      ??osal_msg_receive_4
//  630   {
//  631     // Yes, Signal the task that a message is waiting
//  632     osal_set_event( task_id, SYS_EVENT_MSG );
        ; Setup parameters for call to function osal_set_event
        MOV     R2,#0x0
        MOV     R3,#-0x80
        MOV     R1,?V3
        LCALL   `??osal_set_event::?relay`; Banked call to: osal_set_event
        MOV     A,R1
        SJMP    ??osal_msg_receive_5
//  633   }
//  634   else
//  635   {
//  636     // No more
//  637     osal_clear_event( task_id, SYS_EVENT_MSG );
??osal_msg_receive_4:
        ; Setup parameters for call to function osal_clear_event
        MOV     R2,#0x0
        MOV     R3,#-0x80
        MOV     R1,?V3
        LCALL   `??osal_clear_event::?relay`; Banked call to: osal_clear_event
        MOV     A,R1
//  638   }
//  639 
//  640   // Did we find a message?
//  641   if ( foundHdr != NULL )
??osal_msg_receive_5:
        MOV     A,R6
        ORL     A,R7
        JZ      ??osal_msg_receive_6
//  642   {
//  643     // Take out of the link list
//  644     osal_msg_extract( &osal_qHead, foundHdr, prevHdr );
        ; Setup parameters for call to function osal_msg_extract
        MOV     R0,#?V4
        LCALL   ?PUSH_XSTACK_I_TWO
          CFI CFA_XSP16 add(XSP16, 16)
        MOV     A,R6
        MOV     R4,A
        MOV     A,R7
        MOV     R5,A
        MOV     R2,#osal_qHead & 0xff
        MOV     R3,#(osal_qHead >> 8) & 0xff
        LCALL   `??osal_msg_extract::?relay`; Banked call to: osal_msg_extract
        MOV     A,#0x2
        LCALL   ?DEALLOC_XSTACK8
          CFI CFA_XSP16 add(XSP16, 14)
//  645   }
//  646 
//  647   // Release interrupts
//  648   HAL_EXIT_CRITICAL_SECTION(intState);
??osal_msg_receive_6:
        MOV     R0,?V2
        MOV     A,?V2
        MOV     C,0xE0 /* A   */.0
        MOV     0xa8.7,C
//  649 
//  650   return ( (uint8*) foundHdr );
        MOV     A,R6
        MOV     R2,A
        MOV     A,R7
        MOV     R3,A
        MOV     R7,#0x6
        LJMP    ?BANKED_LEAVE_XDATA
          CFI EndBlock cfiBlock15
        REQUIRE _A_IEN0
//  651 }
//  652 
//  653 /**************************************************************************************************
//  654  * @fn          osal_msg_find
//  655  *
//  656  * @brief       This function finds in place an OSAL message matching the task_id and event
//  657  *              parameters.
//  658  *
//  659  * input parameters
//  660  *
//  661  * @param       task_id - The OSAL task id that the enqueued OSAL message must match.
//  662  * @param       event - The OSAL event id that the enqueued OSAL message must match.
//  663  *
//  664  * output parameters
//  665  *
//  666  * None.
//  667  *
//  668  * @return      NULL if no match, otherwise an in place pointer to the matching OSAL message.
//  669  **************************************************************************************************
//  670  */

        RSEG BANKED_CODE:CODE:NOROOT(0)
//  671 osal_event_hdr_t *osal_msg_find(uint8 task_id, uint8 event)
osal_msg_find:
          CFI Block cfiBlock16 Using cfiCommon0
          CFI Function osal_msg_find
        CODE
//  672 {
        MOV     A,#-0x9
        LCALL   ?BANKED_ENTER_XDATA
          CFI DPH0 load(1, XDATA, add(CFA_XSP16, literal(-1)))
          CFI DPL0 load(1, XDATA, add(CFA_XSP16, literal(-2)))
          CFI ?BRET_EXT load(1, XDATA, add(CFA_XSP16, literal(-3)))
          CFI ?RET_HIGH load(1, XDATA, add(CFA_XSP16, literal(-4)))
          CFI ?RET_LOW load(1, XDATA, add(CFA_XSP16, literal(-5)))
          CFI R7 load(1, XDATA, add(CFA_XSP16, literal(-6)))
          CFI V0 load(1, XDATA, add(CFA_XSP16, literal(-7)))
          CFI VB load(1, XDATA, add(CFA_XSP16, literal(-8)))
          CFI R6 load(1, XDATA, add(CFA_XSP16, literal(-9)))
          CFI CFA_SP SP+0
          CFI CFA_XSP16 add(XSP16, 9)
        ; Saved register size: 9
        ; Auto size: 0
        MOV     A,R1
        MOV     R4,A
        MOV     A,R2
        MOV     R6,A
//  673   osal_msg_hdr_t *pHdr;
//  674   halIntState_t intState;
//  675 
//  676   HAL_ENTER_CRITICAL_SECTION(intState);  // Hold off interrupts.
        MOV     C,0xa8.7
        CLR     A
        RLC     A
        MOV     R5,A
        CLR     0xa8.7
//  677 
//  678   pHdr = osal_qHead;  // Point to the top of the queue.
        MOV     DPTR,#osal_qHead
        MOVX    A,@DPTR
        MOV     R0,A
        INC     DPTR
        MOVX    A,@DPTR
        MOV     R1,A
        MOV     A,R0
        MOV     R2,A
        MOV     A,R1
        MOV     R3,A
//  679 
//  680   // Look through the queue for a message that matches the task_id and event parameters.
//  681   while (pHdr != NULL)
??osal_msg_find_0:
        MOV     A,R2
        ORL     A,R3
        JZ      ??osal_msg_find_1
//  682   {
//  683     if (((pHdr-1)->dest_id == task_id) && (((osal_event_hdr_t *)pHdr)->event == event))
        MOV     A,R2
        ADD     A,#-0x1
        MOV     DPL,A
        MOV     A,R3
        ADDC    A,#-0x1
        MOV     DPH,A
        MOVX    A,@DPTR
        XRL     A,R4
        JNZ     ??osal_msg_find_2
        MOV     DPL,R2
        MOV     DPH,R3
        MOVX    A,@DPTR
        XRL     A,R6
        JZ      ??osal_msg_find_1
//  684     {
//  685       break;
//  686     }
//  687 
//  688     pHdr = OSAL_MSG_NEXT(pHdr);
??osal_msg_find_2:
        MOV     A,R2
        ADD     A,#-0x5
        MOV     DPL,A
        MOV     A,R3
        ADDC    A,#-0x1
        MOV     DPH,A
        MOVX    A,@DPTR
        MOV     R2,A
        INC     DPTR
        MOVX    A,@DPTR
        MOV     R3,A
        SJMP    ??osal_msg_find_0
//  689   }
//  690 
//  691   HAL_EXIT_CRITICAL_SECTION(intState);  // Release interrupts.
??osal_msg_find_1:
        MOV     A,R5
        MOV     R0,A
        MOV     A,R5
        MOV     C,0xE0 /* A   */.0
        MOV     0xa8.7,C
//  692 
//  693   return (osal_event_hdr_t *)pHdr;
        MOV     R7,#0x1
        LJMP    ?BANKED_LEAVE_XDATA
          CFI EndBlock cfiBlock16
        REQUIRE _A_IEN0
//  694 }
//  695 
//  696 /**************************************************************************************************
//  697  * @fn          osal_msg_count
//  698  *
//  699  * @brief       This function counts the number of messages, in the OSAL message queue with a
//  700  *              a given task ID and message event type.
//  701  *
//  702  * input parameters
//  703  *
//  704  * @param       task_id - The OSAL task id that the enqueued OSAL message must match.
//  705  * @param       event - The OSAL event id that the enqueued OSAL message must match. 0xFF for 
//  706  *              all events.
//  707  *
//  708  * output parameters
//  709  *
//  710  * None.
//  711  *
//  712  * @return      The number of OSAL messages that match the task ID and Event.
//  713  **************************************************************************************************
//  714  */

        RSEG BANKED_CODE:CODE:NOROOT(0)
//  715 uint8 osal_msg_count( uint8 task_id, uint8 event )
osal_msg_count:
          CFI Block cfiBlock17 Using cfiCommon0
          CFI Function osal_msg_count
        CODE
//  716 {
        MOV     A,#-0x9
        LCALL   ?BANKED_ENTER_XDATA
          CFI DPH0 load(1, XDATA, add(CFA_XSP16, literal(-1)))
          CFI DPL0 load(1, XDATA, add(CFA_XSP16, literal(-2)))
          CFI ?BRET_EXT load(1, XDATA, add(CFA_XSP16, literal(-3)))
          CFI ?RET_HIGH load(1, XDATA, add(CFA_XSP16, literal(-4)))
          CFI ?RET_LOW load(1, XDATA, add(CFA_XSP16, literal(-5)))
          CFI R7 load(1, XDATA, add(CFA_XSP16, literal(-6)))
          CFI V0 load(1, XDATA, add(CFA_XSP16, literal(-7)))
          CFI VB load(1, XDATA, add(CFA_XSP16, literal(-8)))
          CFI R6 load(1, XDATA, add(CFA_XSP16, literal(-9)))
          CFI CFA_SP SP+0
          CFI CFA_XSP16 add(XSP16, 9)
        ; Saved register size: 9
        ; Auto size: 0
        MOV     A,R1
        MOV     R3,A
//  717   uint8 count = 0;
        MOV     R1,#0x0
//  718   osal_msg_hdr_t *pHdr;
//  719   halIntState_t intState;
//  720 
//  721   HAL_ENTER_CRITICAL_SECTION(intState);  // Hold off interrupts.
        MOV     C,0xa8.7
        CLR     A
        RLC     A
        MOV     R0,A
        CLR     0xa8.7
//  722 
//  723   pHdr = osal_qHead;  // Point to the top of the queue.
        MOV     DPTR,#osal_qHead
        MOVX    A,@DPTR
        MOV     R6,A
        INC     DPTR
        MOVX    A,@DPTR
        MOV     R7,A
        MOV     A,R6
        MOV     R4,A
        MOV     A,R7
        MOV     R5,A
//  724 
//  725   // Look through the queue for a message that matches the task_id and event parameters.
//  726   while (pHdr != NULL)
??osal_msg_count_0:
        MOV     A,R4
        ORL     A,R5
        JZ      ??osal_msg_count_1
//  727   {
//  728     if ( ((pHdr-1)->dest_id == task_id) 
//  729         && ((event == 0xFF) || (((osal_event_hdr_t *)pHdr)->event == event)) )
        MOV     A,R4
        ADD     A,#-0x1
        MOV     DPL,A
        MOV     A,R5
        ADDC    A,#-0x1
        MOV     DPH,A
        MOVX    A,@DPTR
        XRL     A,R3
        JNZ     ??osal_msg_count_2
        MOV     A,#-0x1
        XRL     A,R2
        JZ      ??osal_msg_count_3
        MOV     DPL,R4
        MOV     DPH,R5
        MOVX    A,@DPTR
        XRL     A,R2
        JNZ     ??osal_msg_count_2
//  730     {
//  731       count++;
??osal_msg_count_3:
        INC     R1
//  732     }
//  733 
//  734     pHdr = OSAL_MSG_NEXT(pHdr);
??osal_msg_count_2:
        MOV     A,R4
        ADD     A,#-0x5
        MOV     DPL,A
        MOV     A,R5
        ADDC    A,#-0x1
        MOV     DPH,A
        MOVX    A,@DPTR
        MOV     R4,A
        INC     DPTR
        MOVX    A,@DPTR
        MOV     R5,A
        SJMP    ??osal_msg_count_0
//  735   }
//  736 
//  737   HAL_EXIT_CRITICAL_SECTION(intState);  // Release interrupts.
??osal_msg_count_1:
        MOV     A,R0
        MOV     R6,A
        MOV     A,R0
        MOV     C,0xE0 /* A   */.0
        MOV     0xa8.7,C
//  738 
//  739   return ( count );
        MOV     R7,#0x1
        LJMP    ?BANKED_LEAVE_XDATA
          CFI EndBlock cfiBlock17
        REQUIRE _A_IEN0
//  740 }
//  741 
//  742 /*********************************************************************
//  743  * @fn      osal_msg_enqueue
//  744  *
//  745  * @brief
//  746  *
//  747  *    This function enqueues an OSAL message into an OSAL queue.
//  748  *
//  749  * @param   osal_msg_q_t *q_ptr - OSAL queue
//  750  * @param   void *msg_ptr  - OSAL message
//  751  *
//  752  * @return  none
//  753  */

        RSEG BANKED_CODE:CODE:NOROOT(0)
//  754 void osal_msg_enqueue( osal_msg_q_t *q_ptr, void *msg_ptr )
osal_msg_enqueue:
          CFI Block cfiBlock18 Using cfiCommon0
          CFI Function osal_msg_enqueue
        CODE
//  755 {
        REQUIRE ?V0
        MOV     A,#-0x9
        LCALL   ?BANKED_ENTER_XDATA
          CFI DPH0 load(1, XDATA, add(CFA_XSP16, literal(-1)))
          CFI DPL0 load(1, XDATA, add(CFA_XSP16, literal(-2)))
          CFI ?BRET_EXT load(1, XDATA, add(CFA_XSP16, literal(-3)))
          CFI ?RET_HIGH load(1, XDATA, add(CFA_XSP16, literal(-4)))
          CFI ?RET_LOW load(1, XDATA, add(CFA_XSP16, literal(-5)))
          CFI R7 load(1, XDATA, add(CFA_XSP16, literal(-6)))
          CFI V0 load(1, XDATA, add(CFA_XSP16, literal(-7)))
          CFI VB load(1, XDATA, add(CFA_XSP16, literal(-8)))
          CFI R6 load(1, XDATA, add(CFA_XSP16, literal(-9)))
          CFI CFA_SP SP+0
          CFI CFA_XSP16 add(XSP16, 9)
        ; Saved register size: 9
        ; Auto size: 0
//  756   void *list;
//  757   halIntState_t intState;
//  758 
//  759   // Hold off interrupts
//  760   HAL_ENTER_CRITICAL_SECTION(intState);
        MOV     C,0xa8.7
        CLR     A
        RLC     A
        MOV     ?V0,A
        CLR     0xa8.7
//  761 
//  762   OSAL_MSG_NEXT( msg_ptr ) = NULL;
        MOV     A,R4
        ADD     A,#-0x5
        MOV     DPL,A
        MOV     A,R5
        ADDC    A,#-0x1
        MOV     DPH,A
        MOV     A,#0x0
        MOVX    @DPTR,A
        INC     DPTR
        MOV     A,#0x0
        MOVX    @DPTR,A
//  763   // If first message in queue
//  764   if ( *q_ptr == NULL )
        MOV     DPL,R2
        MOV     DPH,R3
        MOVX    A,@DPTR
        MOV     R6,A
        INC     DPTR
        MOVX    A,@DPTR
        MOV     R7,A
        MOV     A,R6
        ORL     A,R7
        JNZ     ??osal_msg_enqueue_0
//  765   {
//  766     *q_ptr = msg_ptr;
        MOV     DPL,R2
        MOV     DPH,R3
        MOV     A,R4
        MOVX    @DPTR,A
        INC     DPTR
        MOV     A,R5
        MOVX    @DPTR,A
        SJMP    ??osal_msg_enqueue_1
//  767   }
//  768   else
//  769   {
//  770     // Find end of queue
//  771     for ( list = *q_ptr; OSAL_MSG_NEXT( list ) != NULL; list = OSAL_MSG_NEXT( list ) );
??osal_msg_enqueue_0:
        MOV     DPL,R2
        MOV     DPH,R3
        MOVX    A,@DPTR
        MOV     R6,A
        INC     DPTR
        MOVX    A,@DPTR
        MOV     R7,A
        MOV     A,R6
        MOV     R0,A
        MOV     A,R7
        MOV     R1,A
??osal_msg_enqueue_2:
        MOV     A,R0
        ADD     A,#-0x5
        MOV     DPL,A
        MOV     A,R1
        ADDC    A,#-0x1
        MOV     DPH,A
        MOVX    A,@DPTR
        MOV     R6,A
        INC     DPTR
        MOVX    A,@DPTR
        MOV     R7,A
        MOV     A,R6
        ORL     A,R7
        JZ      ??osal_msg_enqueue_3
        MOV     A,R0
        ADD     A,#-0x5
        MOV     DPL,A
        MOV     A,R1
        ADDC    A,#-0x1
        MOV     DPH,A
        MOVX    A,@DPTR
        MOV     R0,A
        INC     DPTR
        MOVX    A,@DPTR
        MOV     R1,A
        SJMP    ??osal_msg_enqueue_2
//  772 
//  773     // Add message to end of queue
//  774     OSAL_MSG_NEXT( list ) = msg_ptr;
??osal_msg_enqueue_3:
        MOV     A,R0
        ADD     A,#-0x5
        MOV     DPL,A
        MOV     A,R1
        ADDC    A,#-0x1
        MOV     DPH,A
        MOV     A,R4
        MOVX    @DPTR,A
        INC     DPTR
        MOV     A,R5
        MOVX    @DPTR,A
//  775   }
//  776 
//  777   // Re-enable interrupts
//  778   HAL_EXIT_CRITICAL_SECTION(intState);
??osal_msg_enqueue_1:
        MOV     R6,?V0
        MOV     A,?V0
        MOV     C,0xE0 /* A   */.0
        MOV     0xa8.7,C
//  779 }
        MOV     R7,#0x1
        LJMP    ?BANKED_LEAVE_XDATA
          CFI EndBlock cfiBlock18
        REQUIRE _A_IEN0
//  780 
//  781 /*********************************************************************
//  782  * @fn      osal_msg_dequeue
//  783  *
//  784  * @brief
//  785  *
//  786  *    This function dequeues an OSAL message from an OSAL queue.
//  787  *
//  788  * @param   osal_msg_q_t *q_ptr - OSAL queue
//  789  *
//  790  * @return  void * - pointer to OSAL message or NULL of queue is empty.
//  791  */

        RSEG BANKED_CODE:CODE:NOROOT(0)
//  792 void *osal_msg_dequeue( osal_msg_q_t *q_ptr )
osal_msg_dequeue:
          CFI Block cfiBlock19 Using cfiCommon0
          CFI Function osal_msg_dequeue
        CODE
//  793 {
        MOV     A,#-0x9
        LCALL   ?BANKED_ENTER_XDATA
          CFI DPH0 load(1, XDATA, add(CFA_XSP16, literal(-1)))
          CFI DPL0 load(1, XDATA, add(CFA_XSP16, literal(-2)))
          CFI ?BRET_EXT load(1, XDATA, add(CFA_XSP16, literal(-3)))
          CFI ?RET_HIGH load(1, XDATA, add(CFA_XSP16, literal(-4)))
          CFI ?RET_LOW load(1, XDATA, add(CFA_XSP16, literal(-5)))
          CFI R7 load(1, XDATA, add(CFA_XSP16, literal(-6)))
          CFI V0 load(1, XDATA, add(CFA_XSP16, literal(-7)))
          CFI VB load(1, XDATA, add(CFA_XSP16, literal(-8)))
          CFI R6 load(1, XDATA, add(CFA_XSP16, literal(-9)))
          CFI CFA_SP SP+0
          CFI CFA_XSP16 add(XSP16, 9)
        ; Saved register size: 9
        ; Auto size: 0
        MOV     A,R2
        MOV     R0,A
        MOV     A,R3
        MOV     R1,A
//  794   void *msg_ptr = NULL;
        MOV     R2,#0x0
        MOV     R3,#0x0
//  795   halIntState_t intState;
//  796 
//  797   // Hold off interrupts
//  798   HAL_ENTER_CRITICAL_SECTION(intState);
        MOV     C,0xa8.7
        CLR     A
        RLC     A
        MOV     R6,A
        CLR     0xa8.7
//  799 
//  800   if ( *q_ptr != NULL )
        MOV     DPL,R0
        MOV     DPH,R1
        MOVX    A,@DPTR
        MOV     R4,A
        INC     DPTR
        MOVX    A,@DPTR
        MOV     R5,A
        MOV     A,R4
        ORL     A,R5
        JZ      ??osal_msg_dequeue_0
//  801   {
//  802     // Dequeue message
//  803     msg_ptr = *q_ptr;
        MOV     DPL,R0
        MOV     DPH,R1
        MOVX    A,@DPTR
        MOV     R4,A
        INC     DPTR
        MOVX    A,@DPTR
        MOV     R5,A
        MOV     A,R4
        MOV     R2,A
        MOV     A,R5
        MOV     R3,A
//  804     *q_ptr = OSAL_MSG_NEXT( msg_ptr );
        MOV     A,R2
        ADD     A,#-0x5
        MOV     DPL,A
        MOV     A,R3
        ADDC    A,#-0x1
        MOV     DPH,A
        MOVX    A,@DPTR
        MOV     R4,A
        INC     DPTR
        MOVX    A,@DPTR
        MOV     R5,A
        MOV     DPL,R0
        MOV     DPH,R1
        MOV     A,R4
        MOVX    @DPTR,A
        INC     DPTR
        MOV     A,R5
        MOVX    @DPTR,A
//  805     OSAL_MSG_NEXT( msg_ptr ) = NULL;
        MOV     A,R2
        ADD     A,#-0x5
        MOV     DPL,A
        MOV     A,R3
        ADDC    A,#-0x1
        MOV     DPH,A
        MOV     A,#0x0
        MOVX    @DPTR,A
        INC     DPTR
        MOV     A,#0x0
        MOVX    @DPTR,A
//  806     OSAL_MSG_ID( msg_ptr ) = TASK_NO_TASK;
        MOV     A,R2
        ADD     A,#-0x1
        MOV     DPL,A
        MOV     A,R3
        ADDC    A,#-0x1
        MOV     DPH,A
        MOV     A,#-0x1
        MOVX    @DPTR,A
//  807   }
//  808 
//  809   // Re-enable interrupts
//  810   HAL_EXIT_CRITICAL_SECTION(intState);
??osal_msg_dequeue_0:
        MOV     A,R6
        MOV     R4,A
        MOV     A,R6
        MOV     C,0xE0 /* A   */.0
        MOV     0xa8.7,C
//  811 
//  812   return msg_ptr;
        MOV     R7,#0x1
        LJMP    ?BANKED_LEAVE_XDATA
          CFI EndBlock cfiBlock19
        REQUIRE _A_IEN0
//  813 }
//  814 
//  815 /*********************************************************************
//  816  * @fn      osal_msg_push
//  817  *
//  818  * @brief
//  819  *
//  820  *    This function pushes an OSAL message to the head of an OSAL
//  821  *    queue.
//  822  *
//  823  * @param   osal_msg_q_t *q_ptr - OSAL queue
//  824  * @param   void *msg_ptr  - OSAL message
//  825  *
//  826  * @return  none
//  827  */

        RSEG BANKED_CODE:CODE:NOROOT(0)
//  828 void osal_msg_push( osal_msg_q_t *q_ptr, void *msg_ptr )
osal_msg_push:
          CFI Block cfiBlock20 Using cfiCommon0
          CFI Function osal_msg_push
        CODE
//  829 {
        MOV     A,#-0x9
        LCALL   ?BANKED_ENTER_XDATA
          CFI DPH0 load(1, XDATA, add(CFA_XSP16, literal(-1)))
          CFI DPL0 load(1, XDATA, add(CFA_XSP16, literal(-2)))
          CFI ?BRET_EXT load(1, XDATA, add(CFA_XSP16, literal(-3)))
          CFI ?RET_HIGH load(1, XDATA, add(CFA_XSP16, literal(-4)))
          CFI ?RET_LOW load(1, XDATA, add(CFA_XSP16, literal(-5)))
          CFI R7 load(1, XDATA, add(CFA_XSP16, literal(-6)))
          CFI V0 load(1, XDATA, add(CFA_XSP16, literal(-7)))
          CFI VB load(1, XDATA, add(CFA_XSP16, literal(-8)))
          CFI R6 load(1, XDATA, add(CFA_XSP16, literal(-9)))
          CFI CFA_SP SP+0
          CFI CFA_XSP16 add(XSP16, 9)
        ; Saved register size: 9
        ; Auto size: 0
//  830   halIntState_t intState;
//  831 
//  832   // Hold off interrupts
//  833   HAL_ENTER_CRITICAL_SECTION(intState);
        MOV     C,0xa8.7
        CLR     A
        RLC     A
        MOV     R0,A
        CLR     0xa8.7
//  834 
//  835   // Push message to head of queue
//  836   OSAL_MSG_NEXT( msg_ptr ) = *q_ptr;
        MOV     DPL,R2
        MOV     DPH,R3
        MOVX    A,@DPTR
        MOV     R6,A
        INC     DPTR
        MOVX    A,@DPTR
        MOV     R7,A
        MOV     A,R4
        ADD     A,#-0x5
        MOV     DPL,A
        MOV     A,R5
        ADDC    A,#-0x1
        MOV     DPH,A
        MOV     A,R6
        MOVX    @DPTR,A
        INC     DPTR
        MOV     A,R7
        MOVX    @DPTR,A
//  837   *q_ptr = msg_ptr;
        MOV     DPL,R2
        MOV     DPH,R3
        MOV     A,R4
        MOVX    @DPTR,A
        INC     DPTR
        MOV     A,R5
        MOVX    @DPTR,A
//  838 
//  839   // Re-enable interrupts
//  840   HAL_EXIT_CRITICAL_SECTION(intState);
        MOV     A,R0
        MOV     R1,A
        MOV     A,R0
        MOV     C,0xE0 /* A   */.0
        MOV     0xa8.7,C
//  841 }
        MOV     R7,#0x1
        LJMP    ?BANKED_LEAVE_XDATA
          CFI EndBlock cfiBlock20
        REQUIRE _A_IEN0
//  842 
//  843 /*********************************************************************
//  844  * @fn      osal_msg_extract
//  845  *
//  846  * @brief
//  847  *
//  848  *    This function extracts and removes an OSAL message from the
//  849  *    middle of an OSAL queue.
//  850  *
//  851  * @param   osal_msg_q_t *q_ptr - OSAL queue
//  852  * @param   void *msg_ptr  - OSAL message to be extracted
//  853  * @param   void *prev_ptr  - OSAL message before msg_ptr in queue
//  854  *
//  855  * @return  none
//  856  */

        RSEG BANKED_CODE:CODE:NOROOT(0)
//  857 void osal_msg_extract( osal_msg_q_t *q_ptr, void *msg_ptr, void *prev_ptr )
osal_msg_extract:
          CFI Block cfiBlock21 Using cfiCommon0
          CFI Function osal_msg_extract
        CODE
//  858 {
        REQUIRE ?V0
        REQUIRE ?V1
        MOV     A,#-0xa
        LCALL   ?BANKED_ENTER_XDATA
          CFI DPH0 load(1, XDATA, add(CFA_XSP16, literal(-1)))
          CFI DPL0 load(1, XDATA, add(CFA_XSP16, literal(-2)))
          CFI ?BRET_EXT load(1, XDATA, add(CFA_XSP16, literal(-3)))
          CFI ?RET_HIGH load(1, XDATA, add(CFA_XSP16, literal(-4)))
          CFI ?RET_LOW load(1, XDATA, add(CFA_XSP16, literal(-5)))
          CFI R7 load(1, XDATA, add(CFA_XSP16, literal(-6)))
          CFI V1 load(1, XDATA, add(CFA_XSP16, literal(-7)))
          CFI V0 load(1, XDATA, add(CFA_XSP16, literal(-8)))
          CFI VB load(1, XDATA, add(CFA_XSP16, literal(-9)))
          CFI R6 load(1, XDATA, add(CFA_XSP16, literal(-10)))
          CFI CFA_SP SP+0
          CFI CFA_XSP16 add(XSP16, 10)
        ; Saved register size: 10
        ; Auto size: 0
        MOV     A,#0xa
        LCALL   ?XSTACK_DISP0_8
        MOVX    A,@DPTR
        MOV     R0,A
        INC     DPTR
        MOVX    A,@DPTR
        MOV     R1,A
//  859   halIntState_t intState;
//  860 
//  861   // Hold off interrupts
//  862   HAL_ENTER_CRITICAL_SECTION(intState);
        MOV     C,0xa8.7
        CLR     A
        RLC     A
        MOV     ?V0,A
        CLR     0xa8.7
//  863 
//  864   if ( msg_ptr == *q_ptr )
        MOV     DPL,R2
        MOV     DPH,R3
        MOVX    A,@DPTR
        MOV     R6,A
        INC     DPTR
        MOVX    A,@DPTR
        MOV     R7,A
        MOV     A,R4
        XRL     A,R6
        JNZ     ??osal_msg_extract_0
        MOV     A,R5
        XRL     A,R7
??osal_msg_extract_0:
        JNZ     ??osal_msg_extract_1
//  865   {
//  866     // remove from first
//  867     *q_ptr = OSAL_MSG_NEXT( msg_ptr );
        MOV     A,R4
        ADD     A,#-0x5
        MOV     DPL,A
        MOV     A,R5
        ADDC    A,#-0x1
        MOV     DPH,A
        MOVX    A,@DPTR
        MOV     R6,A
        INC     DPTR
        MOVX    A,@DPTR
        MOV     R7,A
        MOV     DPL,R2
        MOV     DPH,R3
        MOV     A,R6
        MOVX    @DPTR,A
        INC     DPTR
        MOV     A,R7
        MOVX    @DPTR,A
        SJMP    ??osal_msg_extract_2
//  868   }
//  869   else
//  870   {
//  871     // remove from middle
//  872     OSAL_MSG_NEXT( prev_ptr ) = OSAL_MSG_NEXT( msg_ptr );
??osal_msg_extract_1:
        MOV     A,R4
        ADD     A,#-0x5
        MOV     DPL,A
        MOV     A,R5
        ADDC    A,#-0x1
        MOV     DPH,A
        MOVX    A,@DPTR
        MOV     R6,A
        INC     DPTR
        MOVX    A,@DPTR
        MOV     R7,A
        MOV     A,R0
        ADD     A,#-0x5
        MOV     DPL,A
        MOV     A,R1
        ADDC    A,#-0x1
        MOV     DPH,A
        MOV     A,R6
        MOVX    @DPTR,A
        INC     DPTR
        MOV     A,R7
        MOVX    @DPTR,A
//  873   }
//  874   OSAL_MSG_NEXT( msg_ptr ) = NULL;
??osal_msg_extract_2:
        MOV     A,R4
        ADD     A,#-0x5
        MOV     DPL,A
        MOV     A,R5
        ADDC    A,#-0x1
        MOV     DPH,A
        MOV     A,#0x0
        MOVX    @DPTR,A
        INC     DPTR
        MOV     A,#0x0
        MOVX    @DPTR,A
//  875   OSAL_MSG_ID( msg_ptr ) = TASK_NO_TASK;
        MOV     A,R4
        ADD     A,#-0x1
        MOV     DPL,A
        MOV     A,R5
        ADDC    A,#-0x1
        MOV     DPH,A
        MOV     A,#-0x1
        MOVX    @DPTR,A
//  876 
//  877   // Re-enable interrupts
//  878   HAL_EXIT_CRITICAL_SECTION(intState);
        MOV     R6,?V0
        MOV     A,?V0
        MOV     C,0xE0 /* A   */.0
        MOV     0xa8.7,C
//  879 }
        MOV     R7,#0x2
        LJMP    ?BANKED_LEAVE_XDATA
          CFI EndBlock cfiBlock21
        REQUIRE _A_IEN0
//  880 
//  881 /*********************************************************************
//  882  * @fn      osal_msg_enqueue_max
//  883  *
//  884  * @brief
//  885  *
//  886  *    This function enqueues an OSAL message into an OSAL queue if
//  887  *    the length of the queue is less than max.
//  888  *
//  889  * @param   osal_msg_q_t *q_ptr - OSAL queue
//  890  * @param   void *msg_ptr  - OSAL message
//  891  * @param   uint8 max - maximum length of queue
//  892  *
//  893  * @return  TRUE if message was enqueued, FALSE otherwise
//  894  */

        RSEG BANKED_CODE:CODE:NOROOT(0)
//  895 uint8 osal_msg_enqueue_max( osal_msg_q_t *q_ptr, void *msg_ptr, uint8 max )
osal_msg_enqueue_max:
          CFI Block cfiBlock22 Using cfiCommon0
          CFI Function osal_msg_enqueue_max
        CODE
//  896 {
        REQUIRE ?V0
        REQUIRE ?V1
        REQUIRE ?V2
        MOV     A,#-0xb
        LCALL   ?BANKED_ENTER_XDATA
          CFI DPH0 load(1, XDATA, add(CFA_XSP16, literal(-1)))
          CFI DPL0 load(1, XDATA, add(CFA_XSP16, literal(-2)))
          CFI ?BRET_EXT load(1, XDATA, add(CFA_XSP16, literal(-3)))
          CFI ?RET_HIGH load(1, XDATA, add(CFA_XSP16, literal(-4)))
          CFI ?RET_LOW load(1, XDATA, add(CFA_XSP16, literal(-5)))
          CFI R7 load(1, XDATA, add(CFA_XSP16, literal(-6)))
          CFI V2 load(1, XDATA, add(CFA_XSP16, literal(-7)))
          CFI V1 load(1, XDATA, add(CFA_XSP16, literal(-8)))
          CFI V0 load(1, XDATA, add(CFA_XSP16, literal(-9)))
          CFI VB load(1, XDATA, add(CFA_XSP16, literal(-10)))
          CFI R6 load(1, XDATA, add(CFA_XSP16, literal(-11)))
          CFI CFA_SP SP+0
          CFI CFA_XSP16 add(XSP16, 11)
        ; Saved register size: 11
        ; Auto size: 0
        MOV     A,R2
        MOV     R6,A
        MOV     A,R3
        MOV     R7,A
        MOV     ?V2,R1
//  897   void *list;
//  898   uint8 ret = FALSE;
        MOV     R1,#0x0
//  899   halIntState_t intState;
//  900 
//  901   // Hold off interrupts
//  902   HAL_ENTER_CRITICAL_SECTION(intState);
        MOV     C,0xa8.7
        CLR     A
        RLC     A
        MOV     R0,A
        CLR     0xa8.7
//  903 
//  904   // If first message in queue
//  905   if ( *q_ptr == NULL )
        MOV     DPL,R6
        MOV     DPH,R7
        MOVX    A,@DPTR
        MOV     ?V0,A
        INC     DPTR
        MOVX    A,@DPTR
        MOV     ?V1,A
        MOV     A,?V0
        ORL     A,?V1
        JNZ     ??osal_msg_enqueue_max_0
//  906   {
//  907     *q_ptr = msg_ptr;
        MOV     DPL,R6
        MOV     DPH,R7
        MOV     A,R4
        MOVX    @DPTR,A
        INC     DPTR
        MOV     A,R5
        MOVX    @DPTR,A
//  908     ret = TRUE;
        MOV     R1,#0x1
        SJMP    ??osal_msg_enqueue_max_1
//  909   }
//  910   else
//  911   {
//  912     // Find end of queue or max
//  913     list = *q_ptr;
??osal_msg_enqueue_max_0:
        MOV     DPL,R6
        MOV     DPH,R7
        MOVX    A,@DPTR
        MOV     ?V0,A
        INC     DPTR
        MOVX    A,@DPTR
        MOV     ?V1,A
        MOV     R2,?V0
        MOV     R3,?V1
//  914     max--;
        DEC     ?V2
//  915     while ( (OSAL_MSG_NEXT( list ) != NULL) && (max > 0) )
??osal_msg_enqueue_max_2:
        MOV     A,R2
        ADD     A,#-0x5
        MOV     DPL,A
        MOV     A,R3
        ADDC    A,#-0x1
        MOV     DPH,A
        MOVX    A,@DPTR
        MOV     ?V0,A
        INC     DPTR
        MOVX    A,@DPTR
        MOV     ?V1,A
        MOV     A,?V0
        ORL     A,?V1
        JZ      ??osal_msg_enqueue_max_3
        MOV     A,?V2
        JZ      ??osal_msg_enqueue_max_3
//  916     {
//  917       list = OSAL_MSG_NEXT( list );
        MOV     A,R2
        ADD     A,#-0x5
        MOV     DPL,A
        MOV     A,R3
        ADDC    A,#-0x1
        MOV     DPH,A
        MOVX    A,@DPTR
        MOV     R2,A
        INC     DPTR
        MOVX    A,@DPTR
        MOV     R3,A
//  918       max--;
        DEC     ?V2
        SJMP    ??osal_msg_enqueue_max_2
//  919     }
//  920 
//  921     // Add message to end of queue if max not reached
//  922     if ( max != 0 )
??osal_msg_enqueue_max_3:
        MOV     A,?V2
        JZ      ??osal_msg_enqueue_max_1
//  923     {
//  924       OSAL_MSG_NEXT( list ) = msg_ptr;
        MOV     A,R2
        ADD     A,#-0x5
        MOV     DPL,A
        MOV     A,R3
        ADDC    A,#-0x1
        MOV     DPH,A
        MOV     A,R4
        MOVX    @DPTR,A
        INC     DPTR
        MOV     A,R5
        MOVX    @DPTR,A
//  925       ret = TRUE;
        MOV     R1,#0x1
//  926     }
//  927   }
//  928 
//  929   // Re-enable interrupts
//  930   HAL_EXIT_CRITICAL_SECTION(intState);
??osal_msg_enqueue_max_1:
        MOV     ?V0,R0
        MOV     A,R0
        MOV     C,0xE0 /* A   */.0
        MOV     0xa8.7,C
//  931 
//  932   return ret;
        MOV     R7,#0x3
        LJMP    ?BANKED_LEAVE_XDATA
          CFI EndBlock cfiBlock22
        REQUIRE _A_IEN0
//  933 }
//  934 
//  935 /*********************************************************************
//  936  * @fn      osal_set_event
//  937  *
//  938  * @brief
//  939  *
//  940  *    This function is called to set the event flags for a task. The
//  941  *    event passed in is OR'd into the task's event variable.
//  942  *
//  943  * @param   uint8 task_id - receiving tasks ID
//  944  * @param   uint8 event_flag - what event to set
//  945  *
//  946  * @return  SUCCESS, INVALID_TASK
//  947  */

        RSEG BANKED_CODE:CODE:NOROOT(0)
//  948 uint8 osal_set_event( uint8 task_id, uint16 event_flag )
osal_set_event:
          CFI Block cfiBlock23 Using cfiCommon0
          CFI Function osal_set_event
        CODE
//  949 {
        MOV     A,#-0x9
        LCALL   ?BANKED_ENTER_XDATA
          CFI DPH0 load(1, XDATA, add(CFA_XSP16, literal(-1)))
          CFI DPL0 load(1, XDATA, add(CFA_XSP16, literal(-2)))
          CFI ?BRET_EXT load(1, XDATA, add(CFA_XSP16, literal(-3)))
          CFI ?RET_HIGH load(1, XDATA, add(CFA_XSP16, literal(-4)))
          CFI ?RET_LOW load(1, XDATA, add(CFA_XSP16, literal(-5)))
          CFI R7 load(1, XDATA, add(CFA_XSP16, literal(-6)))
          CFI V0 load(1, XDATA, add(CFA_XSP16, literal(-7)))
          CFI VB load(1, XDATA, add(CFA_XSP16, literal(-8)))
          CFI R6 load(1, XDATA, add(CFA_XSP16, literal(-9)))
          CFI CFA_SP SP+0
          CFI CFA_XSP16 add(XSP16, 9)
        ; Saved register size: 9
        ; Auto size: 0
        MOV     A,R1
        MOV     R6,A
//  950   if ( task_id < tasksCnt )
        MOV     DPTR,#tasksCnt
        MOVX    A,@DPTR
        MOV     R0,A
        MOV     A,R6
        CLR     C
        SUBB    A,R0
        JNC     ??osal_set_event_0
//  951   {
//  952     halIntState_t   intState;
//  953     HAL_ENTER_CRITICAL_SECTION(intState);    // Hold off interrupts
        MOV     C,0xa8.7
        CLR     A
        RLC     A
        MOV     R4,A
        CLR     0xa8.7
//  954     tasksEvents[task_id] |= event_flag;  // Stuff the event bit(s)
        MOV     A,R6
        MOV     R0,A
        MOV     R1,#0x0
        MOV     A,R0
        MOV     B,#0x2
        MUL     AB
        XCH     A,R0
        MOV     R5,B
        MOV     B,#0x0
        MUL     AB
        ADD     A,R5
        MOV     R5,A
        MOV     B,#0x2
        MOV     A,R1
        MUL     AB
        ADD     A,R5
        MOV     R1,A
        MOV     DPTR,#tasksEvents
        MOVX    A,@DPTR
        ADD     A,R0
        MOV     R5,A
        INC     DPTR
        MOVX    A,@DPTR
        ADDC    A,R1
        MOV     DPL,R5
        MOV     DPH,A
        MOVX    A,@DPTR
        ORL     A,R2
        MOVX    @DPTR,A
        INC     DPTR
        MOVX    A,@DPTR
        ORL     A,R3
        MOVX    @DPTR,A
//  955     HAL_EXIT_CRITICAL_SECTION(intState);     // Release interrupts
        MOV     A,R4
        MOV     R0,A
        MOV     A,R4
        MOV     C,0xE0 /* A   */.0
        MOV     0xa8.7,C
//  956     return ( SUCCESS );
        MOV     R1,#0x0
        SJMP    ??osal_set_event_1
//  957   }
//  958    else
//  959   {
//  960     return ( INVALID_TASK );
??osal_set_event_0:
        MOV     R1,#0x3
??osal_set_event_1:
        MOV     R7,#0x1
        LJMP    ?BANKED_LEAVE_XDATA
          CFI EndBlock cfiBlock23
        REQUIRE _A_IEN0
//  961   }
//  962 }
//  963 
//  964 /*********************************************************************
//  965  * @fn      osal_clear_event
//  966  *
//  967  * @brief
//  968  *
//  969  *    This function is called to clear the event flags for a task. The
//  970  *    event passed in is masked out of the task's event variable.
//  971  *
//  972  * @param   uint8 task_id - receiving tasks ID
//  973  * @param   uint8 event_flag - what event to clear
//  974  *
//  975  * @return  SUCCESS, INVALID_TASK
//  976  */

        RSEG BANKED_CODE:CODE:NOROOT(0)
//  977 uint8 osal_clear_event( uint8 task_id, uint16 event_flag )
osal_clear_event:
          CFI Block cfiBlock24 Using cfiCommon0
          CFI Function osal_clear_event
        CODE
//  978 {
        REQUIRE ?V0
        MOV     A,#-0x9
        LCALL   ?BANKED_ENTER_XDATA
          CFI DPH0 load(1, XDATA, add(CFA_XSP16, literal(-1)))
          CFI DPL0 load(1, XDATA, add(CFA_XSP16, literal(-2)))
          CFI ?BRET_EXT load(1, XDATA, add(CFA_XSP16, literal(-3)))
          CFI ?RET_HIGH load(1, XDATA, add(CFA_XSP16, literal(-4)))
          CFI ?RET_LOW load(1, XDATA, add(CFA_XSP16, literal(-5)))
          CFI R7 load(1, XDATA, add(CFA_XSP16, literal(-6)))
          CFI V0 load(1, XDATA, add(CFA_XSP16, literal(-7)))
          CFI VB load(1, XDATA, add(CFA_XSP16, literal(-8)))
          CFI R6 load(1, XDATA, add(CFA_XSP16, literal(-9)))
          CFI CFA_SP SP+0
          CFI CFA_XSP16 add(XSP16, 9)
        ; Saved register size: 9
        ; Auto size: 0
        MOV     ?V0,R1
//  979   if ( task_id < tasksCnt )
        MOV     DPTR,#tasksCnt
        MOVX    A,@DPTR
        MOV     R0,A
        MOV     A,?V0
        CLR     C
        SUBB    A,R0
        JNC     ??osal_clear_event_0
//  980   {
//  981     halIntState_t   intState;
//  982     HAL_ENTER_CRITICAL_SECTION(intState);    // Hold off interrupts
        MOV     C,0xa8.7
        CLR     A
        RLC     A
        MOV     R6,A
        CLR     0xa8.7
//  983     tasksEvents[task_id] &= ~(event_flag);   // Clear the event bit(s)
        MOV     A,R2
        CPL     A
        MOV     R4,A
        MOV     A,R3
        CPL     A
        MOV     R5,A
        MOV     R0,?V0
        MOV     R1,#0x0
        MOV     A,R0
        MOV     B,#0x2
        MUL     AB
        XCH     A,R0
        MOV     R7,B
        MOV     B,#0x0
        MUL     AB
        ADD     A,R7
        MOV     R7,A
        MOV     B,#0x2
        MOV     A,R1
        MUL     AB
        ADD     A,R7
        MOV     R1,A
        MOV     DPTR,#tasksEvents
        MOVX    A,@DPTR
        ADD     A,R0
        MOV     R7,A
        INC     DPTR
        MOVX    A,@DPTR
        ADDC    A,R1
        MOV     DPL,R7
        MOV     DPH,A
        MOVX    A,@DPTR
        ANL     A,R4
        MOVX    @DPTR,A
        INC     DPTR
        MOVX    A,@DPTR
        ANL     A,R5
        MOVX    @DPTR,A
//  984     HAL_EXIT_CRITICAL_SECTION(intState);     // Release interrupts
        MOV     A,R6
        MOV     R0,A
        MOV     A,R6
        MOV     C,0xE0 /* A   */.0
        MOV     0xa8.7,C
//  985     return ( SUCCESS );
        MOV     R1,#0x0
        SJMP    ??osal_clear_event_1
//  986   }
//  987    else
//  988   {
//  989     return ( INVALID_TASK );
??osal_clear_event_0:
        MOV     R1,#0x3
??osal_clear_event_1:
        MOV     R7,#0x1
        LJMP    ?BANKED_LEAVE_XDATA
          CFI EndBlock cfiBlock24
        REQUIRE _A_IEN0
//  990   }
//  991 }
//  992 
//  993 /*********************************************************************
//  994  * @fn      osal_isr_register
//  995  *
//  996  * @brief
//  997  *
//  998  *   This function is called to register a service routine with an
//  999  *   interrupt. When the interrupt occurs, this service routine is called.
// 1000  *
// 1001  * @param   uint8 interrupt_id - Interrupt number
// 1002  * @param   void (*isr_ptr)( uint8* ) - function pointer to ISR
// 1003  *
// 1004  * @return  SUCCESS, INVALID_INTERRUPT_ID,
// 1005  */

        RSEG BANKED_CODE:CODE:NOROOT(0)
// 1006 uint8 osal_isr_register( uint8 interrupt_id, void (*isr_ptr)( uint8* ) )
osal_isr_register:
          CFI Block cfiBlock25 Using cfiCommon0
          CFI Function osal_isr_register
        CODE
// 1007 {
        ; Saved register size: 0
        ; Auto size: 0
        MOV     A,R1
        MOV     R0,A
// 1008   // Remove these statements when functionality is complete
// 1009   (void)interrupt_id;
// 1010   (void)isr_ptr;
// 1011   return ( SUCCESS );
        MOV     R1,#0x0
        LJMP    ?BRET
// 1012 }
          CFI EndBlock cfiBlock25
// 1013 
// 1014 /*********************************************************************
// 1015  * @fn      osal_int_enable
// 1016  *
// 1017  * @brief
// 1018  *
// 1019  *   This function is called to enable an interrupt. Once enabled,
// 1020  *   occurrence of the interrupt causes the service routine associated
// 1021  *   with that interrupt to be called.
// 1022  *
// 1023  *   If INTS_ALL is the interrupt_id, interrupts (in general) are enabled.
// 1024  *   If a single interrupt is passed in, then interrupts still have
// 1025  *   to be enabled with another call to INTS_ALL.
// 1026  *
// 1027  * @param   uint8 interrupt_id - Interrupt number
// 1028  *
// 1029  * @return  SUCCESS or INVALID_INTERRUPT_ID
// 1030  */

        RSEG BANKED_CODE:CODE:NOROOT(0)
// 1031 uint8 osal_int_enable( uint8 interrupt_id )
osal_int_enable:
          CFI Block cfiBlock26 Using cfiCommon0
          CFI Function osal_int_enable
        CODE
// 1032 {
        ; Saved register size: 0
        ; Auto size: 0
        MOV     A,R1
        MOV     R0,A
// 1033 
// 1034   if ( interrupt_id == INTS_ALL )
        MOV     A,#-0x1
        XRL     A,R0
        JNZ     ??osal_int_enable_0
// 1035   {
// 1036     HAL_ENABLE_INTERRUPTS();
        SETB    0xa8.7
// 1037     return ( SUCCESS );
        MOV     R1,#0x0
        SJMP    ??osal_int_enable_1
// 1038   }
// 1039   else
// 1040   {
// 1041     return ( INVALID_INTERRUPT_ID );
??osal_int_enable_0:
        MOV     R1,#0x7
??osal_int_enable_1:
        LJMP    ?BRET
          CFI EndBlock cfiBlock26
        REQUIRE _A_IEN0
// 1042   }
// 1043 }
// 1044 
// 1045 /*********************************************************************
// 1046  * @fn      osal_int_disable
// 1047  *
// 1048  * @brief
// 1049  *
// 1050  *   This function is called to disable an interrupt. When a disabled
// 1051  *   interrupt occurs, the service routine associated with that
// 1052  *   interrupt is not called.
// 1053  *
// 1054  *   If INTS_ALL is the interrupt_id, interrupts (in general) are disabled.
// 1055  *   If a single interrupt is passed in, then just that interrupt is disabled.
// 1056  *
// 1057  * @param   uint8 interrupt_id - Interrupt number
// 1058  *
// 1059  * @return  SUCCESS or INVALID_INTERRUPT_ID
// 1060  */

        RSEG BANKED_CODE:CODE:NOROOT(0)
// 1061 uint8 osal_int_disable( uint8 interrupt_id )
osal_int_disable:
          CFI Block cfiBlock27 Using cfiCommon0
          CFI Function osal_int_disable
        CODE
// 1062 {
        ; Saved register size: 0
        ; Auto size: 0
        MOV     A,R1
        MOV     R0,A
// 1063 
// 1064   if ( interrupt_id == INTS_ALL )
        MOV     A,#-0x1
        XRL     A,R0
        JNZ     ??osal_int_disable_0
// 1065   {
// 1066     HAL_DISABLE_INTERRUPTS();
        CLR     0xa8.7
// 1067     return ( SUCCESS );
        MOV     R1,#0x0
        SJMP    ??osal_int_disable_1
// 1068   }
// 1069   else
// 1070   {
// 1071     return ( INVALID_INTERRUPT_ID );
??osal_int_disable_0:
        MOV     R1,#0x7
??osal_int_disable_1:
        LJMP    ?BRET
          CFI EndBlock cfiBlock27
        REQUIRE _A_IEN0
// 1072   }
// 1073 }
// 1074 
// 1075 /*********************************************************************
// 1076  * @fn      osal_init_system
// 1077  *
// 1078  * @brief
// 1079  *
// 1080  *   This function initializes the "task" system by creating the
// 1081  *   tasks defined in the task table (OSAL_Tasks.h).
// 1082  *
// 1083  * @param   void
// 1084  *
// 1085  * @return  SUCCESS
// 1086  */

        RSEG BANKED_CODE:CODE:NOROOT(0)
// 1087 uint8 osal_init_system( void )
osal_init_system:
          CFI Block cfiBlock28 Using cfiCommon0
          CFI Function osal_init_system
        CODE
// 1088 {
        FUNCALL osal_init_system, osal_mem_init
        LOCFRAME ISTACK, 2, STACK
        LOCFRAME PSTACK, 0, STACK
        LOCFRAME XSTACK, 0, STACK
        LOCFRAME IOVERLAY, 0, STATIC
        LOCFRAME DOVERLAY, 0, STATIC
        ARGFRAME ISTACK, 2, STACK
        ARGFRAME PSTACK, 0, STACK
        ARGFRAME XSTACK, 0, STACK
        ARGFRAME IOVERLAY, 0, STATIC
        ARGFRAME DOVERLAY, 0, STATIC
        FUNCALL osal_init_system, osalTimerInit
        LOCFRAME ISTACK, 2, STACK
        LOCFRAME PSTACK, 0, STACK
        LOCFRAME XSTACK, 0, STACK
        LOCFRAME IOVERLAY, 0, STATIC
        LOCFRAME DOVERLAY, 0, STATIC
        ARGFRAME ISTACK, 2, STACK
        ARGFRAME PSTACK, 0, STACK
        ARGFRAME XSTACK, 0, STACK
        ARGFRAME IOVERLAY, 0, STATIC
        ARGFRAME DOVERLAY, 0, STATIC
        FUNCALL osal_init_system, osal_pwrmgr_init
        LOCFRAME ISTACK, 2, STACK
        LOCFRAME PSTACK, 0, STACK
        LOCFRAME XSTACK, 0, STACK
        LOCFRAME IOVERLAY, 0, STATIC
        LOCFRAME DOVERLAY, 0, STATIC
        ARGFRAME ISTACK, 2, STACK
        ARGFRAME PSTACK, 0, STACK
        ARGFRAME XSTACK, 0, STACK
        ARGFRAME IOVERLAY, 0, STATIC
        ARGFRAME DOVERLAY, 0, STATIC
        FUNCALL osal_init_system, osalInitTasks
        LOCFRAME ISTACK, 2, STACK
        LOCFRAME PSTACK, 0, STACK
        LOCFRAME XSTACK, 0, STACK
        LOCFRAME IOVERLAY, 0, STATIC
        LOCFRAME DOVERLAY, 0, STATIC
        ARGFRAME ISTACK, 2, STACK
        ARGFRAME PSTACK, 0, STACK
        ARGFRAME XSTACK, 0, STACK
        ARGFRAME IOVERLAY, 0, STATIC
        ARGFRAME DOVERLAY, 0, STATIC
        FUNCALL osal_init_system, osal_mem_kick
        LOCFRAME ISTACK, 2, STACK
        LOCFRAME PSTACK, 0, STACK
        LOCFRAME XSTACK, 0, STACK
        LOCFRAME IOVERLAY, 0, STATIC
        LOCFRAME DOVERLAY, 0, STATIC
        ARGFRAME ISTACK, 2, STACK
        ARGFRAME PSTACK, 0, STACK
        ARGFRAME XSTACK, 0, STACK
        ARGFRAME IOVERLAY, 0, STATIC
        ARGFRAME DOVERLAY, 0, STATIC
        PUSH    DPL
          CFI DPL0 Frame(CFA_SP, 4)
          CFI CFA_SP SP+-4
        PUSH    DPH
          CFI DPH0 Frame(CFA_SP, 5)
          CFI CFA_SP SP+-5
        ; Saved register size: 2
        ; Auto size: 0
// 1089   // Initialize the Memory Allocation System
// 1090   osal_mem_init();
        ; Setup parameters for call to function osal_mem_init
        LCALL   `??osal_mem_init::?relay`; Banked call to: osal_mem_init
// 1091 
// 1092   // Initialize the message queue
// 1093   osal_qHead = NULL;
        MOV     DPTR,#osal_qHead
        MOV     A,#0x0
        MOVX    @DPTR,A
        INC     DPTR
        MOV     A,#0x0
        MOVX    @DPTR,A
// 1094 
// 1095   // Initialize the timers
// 1096   osalTimerInit();
        ; Setup parameters for call to function osalTimerInit
        LCALL   `??osalTimerInit::?relay`; Banked call to: osalTimerInit
// 1097 
// 1098   // Initialize the Power Management System
// 1099   osal_pwrmgr_init();
        ; Setup parameters for call to function osal_pwrmgr_init
        LCALL   `??osal_pwrmgr_init::?relay`; Banked call to: osal_pwrmgr_init
// 1100 
// 1101   // Initialize the system tasks.
// 1102   osalInitTasks();
        ; Setup parameters for call to function osalInitTasks
        LCALL   `??osalInitTasks::?relay`; Banked call to: osalInitTasks
// 1103 
// 1104   // Setup efficient search for the first free block of heap.
// 1105   osal_mem_kick();
        ; Setup parameters for call to function osal_mem_kick
        LCALL   `??osal_mem_kick::?relay`; Banked call to: osal_mem_kick
// 1106 
// 1107   return ( SUCCESS );
        MOV     R1,#0x0
        POP     DPH
          CFI DPH0 SameValue
          CFI CFA_SP SP+-4
        POP     DPL
          CFI DPL0 SameValue
          CFI CFA_SP SP+-3
        LJMP    ?BRET
// 1108 }
          CFI EndBlock cfiBlock28
// 1109 
// 1110 /*********************************************************************
// 1111  * @fn      osal_start_system
// 1112  *
// 1113  * @brief
// 1114  *
// 1115  *   This function is the main loop function of the task system (if
// 1116  *   ZBIT and UBIT are not defined). This Function doesn't return.
// 1117  *
// 1118  * @param   void
// 1119  *
// 1120  * @return  none
// 1121  */

        RSEG BANKED_CODE:CODE:NOROOT(0)
// 1122 void osal_start_system( void )
osal_start_system:
          CFI Block cfiBlock29 Using cfiCommon0
          CFI Function osal_start_system
        CODE
// 1123 {
        FUNCALL osal_start_system, osal_run_system
        LOCFRAME ISTACK, 2, STACK
        LOCFRAME PSTACK, 0, STACK
        LOCFRAME XSTACK, 0, STACK
        LOCFRAME IOVERLAY, 0, STATIC
        LOCFRAME DOVERLAY, 0, STATIC
        ARGFRAME ISTACK, 2, STACK
        ARGFRAME PSTACK, 0, STACK
        ARGFRAME XSTACK, 0, STACK
        ARGFRAME IOVERLAY, 0, STATIC
        ARGFRAME DOVERLAY, 0, STATIC
        PUSH    DPL
          CFI DPL0 Frame(CFA_SP, 4)
          CFI CFA_SP SP+-4
        PUSH    DPH
          CFI DPH0 Frame(CFA_SP, 5)
          CFI CFA_SP SP+-5
        ; Saved register size: 2
        ; Auto size: 0
// 1124 #if !defined ( ZBIT ) && !defined ( UBIT )
// 1125   for(;;)  // Forever Loop
// 1126 #endif
// 1127   {
// 1128     osal_run_system();
??osal_start_system_0:
        ; Setup parameters for call to function osal_run_system
        LCALL   `??osal_run_system::?relay`; Banked call to: osal_run_system
        SJMP    ??osal_start_system_0
// 1129   }
// 1130 }
          CFI EndBlock cfiBlock29
// 1131 
// 1132 /*********************************************************************
// 1133  * @fn      osal_run_system
// 1134  *
// 1135  * @brief
// 1136  *
// 1137  *   This function will make one pass through the OSAL taskEvents table
// 1138  *   and call the task_event_processor() function for the first task that
// 1139  *   is found with at least one event pending. If there are no pending
// 1140  *   events (all tasks), this function puts the processor into Sleep.
// 1141  *
// 1142  * @param   void
// 1143  *
// 1144  * @return  none
// 1145  */

        RSEG BANKED_CODE:CODE:NOROOT(0)
// 1146 void osal_run_system( void )
osal_run_system:
          CFI Block cfiBlock30 Using cfiCommon0
          CFI Function osal_run_system
        CODE
// 1147 {
        FUNCALL osal_run_system, osalTimeUpdate
        LOCFRAME ISTACK, 0, STACK
        LOCFRAME PSTACK, 0, STACK
        LOCFRAME XSTACK, 14, STACK
        LOCFRAME IOVERLAY, 0, STATIC
        LOCFRAME DOVERLAY, 0, STATIC
        ARGFRAME ISTACK, 0, STACK
        ARGFRAME PSTACK, 0, STACK
        ARGFRAME XSTACK, 14, STACK
        ARGFRAME IOVERLAY, 0, STATIC
        ARGFRAME DOVERLAY, 0, STATIC
        FUNCALL osal_run_system, Hal_ProcessPoll
        LOCFRAME ISTACK, 0, STACK
        LOCFRAME PSTACK, 0, STACK
        LOCFRAME XSTACK, 14, STACK
        LOCFRAME IOVERLAY, 0, STATIC
        LOCFRAME DOVERLAY, 0, STATIC
        ARGFRAME ISTACK, 0, STACK
        ARGFRAME PSTACK, 0, STACK
        ARGFRAME XSTACK, 14, STACK
        ARGFRAME IOVERLAY, 0, STATIC
        ARGFRAME DOVERLAY, 0, STATIC
        REQUIRE ?V0
        REQUIRE ?V1
        REQUIRE ?V2
        REQUIRE ?V4
        REQUIRE ?V5
        MOV     A,#-0xe
        LCALL   ?BANKED_ENTER_XDATA
          CFI DPH0 load(1, XDATA, add(CFA_XSP16, literal(-1)))
          CFI DPL0 load(1, XDATA, add(CFA_XSP16, literal(-2)))
          CFI ?BRET_EXT load(1, XDATA, add(CFA_XSP16, literal(-3)))
          CFI ?RET_HIGH load(1, XDATA, add(CFA_XSP16, literal(-4)))
          CFI ?RET_LOW load(1, XDATA, add(CFA_XSP16, literal(-5)))
          CFI R7 load(1, XDATA, add(CFA_XSP16, literal(-6)))
          CFI V5 load(1, XDATA, add(CFA_XSP16, literal(-7)))
          CFI V4 load(1, XDATA, add(CFA_XSP16, literal(-8)))
          CFI V3 load(1, XDATA, add(CFA_XSP16, literal(-9)))
          CFI V2 load(1, XDATA, add(CFA_XSP16, literal(-10)))
          CFI V1 load(1, XDATA, add(CFA_XSP16, literal(-11)))
          CFI V0 load(1, XDATA, add(CFA_XSP16, literal(-12)))
          CFI VB load(1, XDATA, add(CFA_XSP16, literal(-13)))
          CFI R6 load(1, XDATA, add(CFA_XSP16, literal(-14)))
          CFI CFA_SP SP+0
          CFI CFA_XSP16 add(XSP16, 14)
        ; Saved register size: 14
        ; Auto size: 0
// 1148   uint8 idx = 0;
        MOV     ?V1,#0x0
// 1149 
// 1150 #ifndef HAL_BOARD_CC2538
// 1151   osalTimeUpdate();
        ; Setup parameters for call to function osalTimeUpdate
        LCALL   `??osalTimeUpdate::?relay`; Banked call to: osalTimeUpdate
// 1152 #endif
// 1153   
// 1154   Hal_ProcessPoll();
        ; Setup parameters for call to function Hal_ProcessPoll
        LCALL   `??Hal_ProcessPoll::?relay`; Banked call to: Hal_ProcessPoll
// 1155 
// 1156   do {
// 1157     if (tasksEvents[idx])  // Task is highest priority that is ready.
??osal_run_system_0:
        MOV     R0,?V1
        MOV     R1,#0x0
        MOV     A,R0
        MOV     B,#0x2
        MUL     AB
        XCH     A,R0
        MOV     R2,B
        MOV     B,#0x0
        MUL     AB
        ADD     A,R2
        MOV     R2,A
        MOV     B,#0x2
        MOV     A,R1
        MUL     AB
        ADD     A,R2
        MOV     R1,A
        MOV     DPTR,#tasksEvents
        MOVX    A,@DPTR
        ADD     A,R0
        MOV     R2,A
        INC     DPTR
        MOVX    A,@DPTR
        ADDC    A,R1
        MOV     DPL,R2
        MOV     DPH,A
        MOVX    A,@DPTR
        MOV     R0,A
        INC     DPTR
        MOVX    A,@DPTR
        MOV     R1,A
        MOV     A,R0
        ORL     A,R1
        JNZ     ??osal_run_system_1
// 1158     {
// 1159       break;
// 1160     }
// 1161   } while (++idx < tasksCnt);
        INC     ?V1
        MOV     DPTR,#tasksCnt
        MOVX    A,@DPTR
        MOV     R0,A
        MOV     A,?V1
        CLR     C
        SUBB    A,R0
        JC      ??osal_run_system_0
// 1162 
// 1163   if (idx < tasksCnt)
??osal_run_system_1:
        MOV     DPTR,#tasksCnt
        MOVX    A,@DPTR
        MOV     R0,A
        MOV     A,?V1
        CLR     C
        SUBB    A,R0
        JC      $+5
        LJMP    ??osal_run_system_2 & 0xFFFF
// 1164   {
// 1165     uint16 events;
// 1166     halIntState_t intState;
// 1167 
// 1168     HAL_ENTER_CRITICAL_SECTION(intState);
        MOV     C,0xa8.7
        CLR     A
        RLC     A
        MOV     ?V0,A
        CLR     0xa8.7
// 1169     events = tasksEvents[idx];
        MOV     R0,?V1
        MOV     R1,#0x0
        MOV     A,R0
        MOV     B,#0x2
        MUL     AB
        XCH     A,R0
        MOV     R2,B
        MOV     B,#0x0
        MUL     AB
        ADD     A,R2
        MOV     R2,A
        MOV     B,#0x2
        MOV     A,R1
        MUL     AB
        ADD     A,R2
        MOV     R1,A
        MOV     DPTR,#tasksEvents
        MOVX    A,@DPTR
        ADD     A,R0
        MOV     R2,A
        INC     DPTR
        MOVX    A,@DPTR
        ADDC    A,R1
        MOV     DPL,R2
        MOV     DPH,A
        MOVX    A,@DPTR
        MOV     R6,A
        INC     DPTR
        MOVX    A,@DPTR
        MOV     R7,A
// 1170     tasksEvents[idx] = 0;  // Clear the Events for this task.
        MOV     R0,?V1
        MOV     R1,#0x0
        MOV     A,R0
        MOV     B,#0x2
        MUL     AB
        XCH     A,R0
        MOV     R2,B
        MOV     B,#0x0
        MUL     AB
        ADD     A,R2
        MOV     R2,A
        MOV     B,#0x2
        MOV     A,R1
        MUL     AB
        ADD     A,R2
        MOV     R1,A
        MOV     DPTR,#tasksEvents
        MOVX    A,@DPTR
        ADD     A,R0
        MOV     R2,A
        INC     DPTR
        MOVX    A,@DPTR
        ADDC    A,R1
        MOV     DPL,R2
        MOV     DPH,A
        MOV     A,#0x0
        MOVX    @DPTR,A
        INC     DPTR
        MOV     A,#0x0
        MOVX    @DPTR,A
// 1171     HAL_EXIT_CRITICAL_SECTION(intState);
        MOV     ?V2,?V0
        MOV     A,?V0
        MOV     C,0xE0 /* A   */.0
        MOV     0xa8.7,C
// 1172 
// 1173     activeTaskID = idx;
        MOV     A,?V1
        MOV     DPTR,#activeTaskID
        MOVX    @DPTR,A
// 1174     events = (tasksArr[idx])( idx, events );
        ; Setup parameters for indirect call
        MOV     A,R6
        MOV     R2,A
        MOV     A,R7
        MOV     R3,A
        MOV     R1,?V1
        XCH     A,R1
        MOV     R4,A
        XCH     A,R1
        MOV     R0,?V1
        MOV     R1,#0x0
        MOV     A,R0
        MOV     B,#0x2
        MUL     AB
        XCH     A,R0
        MOV     R5,B
        MOV     B,#0x0
        MUL     AB
        ADD     A,R5
        MOV     R5,A
        MOV     B,#0x2
        MOV     A,R1
        MUL     AB
        ADD     A,R5
        MOV     R1,A
        MOV     A,#tasksArr & 0xff
        ADD     A,R0
        MOV     DPL,A
        MOV     A,#(tasksArr >> 8) & 0xff
        ADDC    A,R1
        MOV     DPH,A
        MOVX    A,@DPTR
        MOV     R0,A
        INC     DPTR
        MOVX    A,@DPTR
        MOV     DPH,A
        MOV     DPL,R0
        XCH     A,R4
        MOV     R1,A
        XCH     A,R4
        LCALL   ?CALL_IND
        MOV     ?V4,R2
        MOV     ?V5,R3
        MOV     R6,?V4
        MOV     R7,?V5
// 1175     activeTaskID = TASK_NO_TASK;
        MOV     DPTR,#activeTaskID
        MOV     A,#-0x1
        MOVX    @DPTR,A
// 1176 
// 1177     HAL_ENTER_CRITICAL_SECTION(intState);
        MOV     C,0xa8.7
        CLR     A
        RLC     A
        MOV     ?V0,A
        CLR     0xa8.7
// 1178     tasksEvents[idx] |= events;  // Add back unprocessed events to the current task.
        MOV     R0,?V1
        MOV     R1,#0x0
        MOV     A,R0
        MOV     B,#0x2
        MUL     AB
        XCH     A,R0
        MOV     R2,B
        MOV     B,#0x0
        MUL     AB
        ADD     A,R2
        MOV     R2,A
        MOV     B,#0x2
        MOV     A,R1
        MUL     AB
        ADD     A,R2
        MOV     R1,A
        MOV     DPTR,#tasksEvents
        MOVX    A,@DPTR
        ADD     A,R0
        MOV     R2,A
        INC     DPTR
        MOVX    A,@DPTR
        ADDC    A,R1
        MOV     DPL,R2
        MOV     DPH,A
        MOVX    A,@DPTR
        ORL     A,R6
        MOVX    @DPTR,A
        INC     DPTR
        MOVX    A,@DPTR
        ORL     A,R7
        MOVX    @DPTR,A
// 1179     HAL_EXIT_CRITICAL_SECTION(intState);
        MOV     R0,?V0
        MOV     A,?V0
        MOV     C,0xE0 /* A   */.0
        MOV     0xa8.7,C
// 1180   }
// 1181 #if defined( POWER_SAVING )
// 1182   else  // Complete pass through all task events with no activity?
// 1183   {
// 1184     osal_pwrmgr_powerconserve();  // Put the processor/system into sleep
// 1185   }
// 1186 #endif
// 1187 
// 1188   /* Yield in case cooperative scheduling is being used. */
// 1189 #if defined (configUSE_PREEMPTION) && (configUSE_PREEMPTION == 0)
// 1190   {
// 1191     osal_task_yield();
// 1192   }
// 1193 #endif
// 1194 }
??osal_run_system_2:
        MOV     R7,#0x6
        LJMP    ?BANKED_LEAVE_XDATA
          CFI EndBlock cfiBlock30
        REQUIRE _A_IEN0
// 1195 
// 1196 /*********************************************************************
// 1197  * @fn      osal_buffer_uint32
// 1198  *
// 1199  * @brief
// 1200  *
// 1201  *   Buffer an uint32 value - LSB first.
// 1202  *
// 1203  * @param   buf - buffer
// 1204  * @param   val - uint32 value
// 1205  *
// 1206  * @return  pointer to end of destination buffer
// 1207  */

        RSEG BANKED_CODE:CODE:NOROOT(0)
// 1208 uint8* osal_buffer_uint32( uint8 *buf, uint32 val )
osal_buffer_uint32:
          CFI Block cfiBlock31 Using cfiCommon0
          CFI Function osal_buffer_uint32
        CODE
// 1209 {
        REQUIRE ?V0
        REQUIRE ?V1
        REQUIRE ?V2
        REQUIRE ?V3
        REQUIRE ?V4
        REQUIRE ?V5
        REQUIRE ?V6
        REQUIRE ?V7
        MOV     A,#-0x10
        LCALL   ?BANKED_ENTER_XDATA
          CFI DPH0 load(1, XDATA, add(CFA_XSP16, literal(-1)))
          CFI DPL0 load(1, XDATA, add(CFA_XSP16, literal(-2)))
          CFI ?BRET_EXT load(1, XDATA, add(CFA_XSP16, literal(-3)))
          CFI ?RET_HIGH load(1, XDATA, add(CFA_XSP16, literal(-4)))
          CFI ?RET_LOW load(1, XDATA, add(CFA_XSP16, literal(-5)))
          CFI R7 load(1, XDATA, add(CFA_XSP16, literal(-6)))
          CFI V7 load(1, XDATA, add(CFA_XSP16, literal(-7)))
          CFI V6 load(1, XDATA, add(CFA_XSP16, literal(-8)))
          CFI V5 load(1, XDATA, add(CFA_XSP16, literal(-9)))
          CFI V4 load(1, XDATA, add(CFA_XSP16, literal(-10)))
          CFI V3 load(1, XDATA, add(CFA_XSP16, literal(-11)))
          CFI V2 load(1, XDATA, add(CFA_XSP16, literal(-12)))
          CFI V1 load(1, XDATA, add(CFA_XSP16, literal(-13)))
          CFI V0 load(1, XDATA, add(CFA_XSP16, literal(-14)))
          CFI VB load(1, XDATA, add(CFA_XSP16, literal(-15)))
          CFI R6 load(1, XDATA, add(CFA_XSP16, literal(-16)))
          CFI CFA_SP SP+0
          CFI CFA_XSP16 add(XSP16, 16)
        ; Saved register size: 16
        ; Auto size: 0
        MOV     A,#0x10
        LCALL   ?XSTACK_DISP0_8
        MOV     R0,#?V4
        LCALL   ?L_MOV_X
// 1210   *buf++ = BREAK_UINT32( val, 0 );
        MOV     R0,?V4
        MOV     R1,?V5
        MOV     A,R0
        PUSH    A
          CFI CFA_SP SP+-1
        MOV     DPL,R2
        MOV     DPH,R3
        POP     A
          CFI CFA_SP SP+0
        MOVX    @DPTR,A
        MOV     DPL,R2
        MOV     DPH,R3
        INC     DPTR
        MOV     R2,DPL
        MOV     R3,DPH
// 1211   *buf++ = BREAK_UINT32( val, 1 );
        MOV     ?V0,?V4
        MOV     ?V1,?V5
        CLR     A
        XCH     A,?V1
        MOV     ?V0,A
        MOV     A,?V0
        PUSH    A
          CFI CFA_SP SP+-1
        MOV     DPL,R2
        MOV     DPH,R3
        POP     A
          CFI CFA_SP SP+0
        MOVX    @DPTR,A
        MOV     DPL,R2
        MOV     DPH,R3
        INC     DPTR
        MOV     R2,DPL
        MOV     R3,DPH
// 1212   *buf++ = BREAK_UINT32( val, 2 );
        MOV     ?V0,?V4
        MOV     ?V1,?V5
        MOV     ?V2,?V6
        MOV     ?V3,?V7
        MOV     A,#0x10
        MOV     R0,#?V0
        LCALL   ?UL_SHR
        MOV     A,?V0
        PUSH    A
          CFI CFA_SP SP+-1
        MOV     DPL,R2
        MOV     DPH,R3
        POP     A
          CFI CFA_SP SP+0
        MOVX    @DPTR,A
        MOV     DPL,R2
        MOV     DPH,R3
        INC     DPTR
        MOV     R2,DPL
        MOV     R3,DPH
// 1213   *buf++ = BREAK_UINT32( val, 3 );
        MOV     ?V0,?V4
        MOV     ?V1,?V5
        MOV     ?V2,?V6
        MOV     ?V3,?V7
        MOV     A,#0x18
        MOV     R0,#?V0
        LCALL   ?UL_SHR
        MOV     A,?V0
        PUSH    A
          CFI CFA_SP SP+-1
        MOV     DPL,R2
        MOV     DPH,R3
        POP     A
          CFI CFA_SP SP+0
        MOVX    @DPTR,A
        MOV     DPL,R2
        MOV     DPH,R3
        INC     DPTR
        MOV     R2,DPL
        MOV     R3,DPH
// 1214 
// 1215   return buf;
        MOV     R7,#0x8
        LJMP    ?BANKED_LEAVE_XDATA
// 1216 }
          CFI EndBlock cfiBlock31
// 1217 
// 1218 /*********************************************************************
// 1219  * @fn      osal_buffer_uint24
// 1220  *
// 1221  * @brief
// 1222  *
// 1223  *   Buffer an uint24 value - LSB first. Note that type uint24 is
// 1224  *   typedef to uint32 in comdef.h
// 1225  *
// 1226  * @param   buf - buffer
// 1227  * @param   val - uint24 value
// 1228  *
// 1229  * @return  pointer to end of destination buffer
// 1230  */

        RSEG BANKED_CODE:CODE:NOROOT(0)
// 1231 uint8* osal_buffer_uint24( uint8 *buf, uint24 val )
osal_buffer_uint24:
          CFI Block cfiBlock32 Using cfiCommon0
          CFI Function osal_buffer_uint24
        CODE
// 1232 {
        REQUIRE ?V0
        REQUIRE ?V1
        REQUIRE ?V2
        REQUIRE ?V3
        REQUIRE ?V4
        REQUIRE ?V5
        REQUIRE ?V6
        REQUIRE ?V7
        MOV     A,#-0x10
        LCALL   ?BANKED_ENTER_XDATA
          CFI DPH0 load(1, XDATA, add(CFA_XSP16, literal(-1)))
          CFI DPL0 load(1, XDATA, add(CFA_XSP16, literal(-2)))
          CFI ?BRET_EXT load(1, XDATA, add(CFA_XSP16, literal(-3)))
          CFI ?RET_HIGH load(1, XDATA, add(CFA_XSP16, literal(-4)))
          CFI ?RET_LOW load(1, XDATA, add(CFA_XSP16, literal(-5)))
          CFI R7 load(1, XDATA, add(CFA_XSP16, literal(-6)))
          CFI V7 load(1, XDATA, add(CFA_XSP16, literal(-7)))
          CFI V6 load(1, XDATA, add(CFA_XSP16, literal(-8)))
          CFI V5 load(1, XDATA, add(CFA_XSP16, literal(-9)))
          CFI V4 load(1, XDATA, add(CFA_XSP16, literal(-10)))
          CFI V3 load(1, XDATA, add(CFA_XSP16, literal(-11)))
          CFI V2 load(1, XDATA, add(CFA_XSP16, literal(-12)))
          CFI V1 load(1, XDATA, add(CFA_XSP16, literal(-13)))
          CFI V0 load(1, XDATA, add(CFA_XSP16, literal(-14)))
          CFI VB load(1, XDATA, add(CFA_XSP16, literal(-15)))
          CFI R6 load(1, XDATA, add(CFA_XSP16, literal(-16)))
          CFI CFA_SP SP+0
          CFI CFA_XSP16 add(XSP16, 16)
        ; Saved register size: 16
        ; Auto size: 0
        MOV     A,#0x10
        LCALL   ?XSTACK_DISP0_8
        MOV     R0,#?V4
        LCALL   ?L_MOV_X
// 1233   *buf++ = BREAK_UINT32( val, 0 );
        MOV     R0,?V4
        MOV     R1,?V5
        MOV     A,R0
        PUSH    A
          CFI CFA_SP SP+-1
        MOV     DPL,R2
        MOV     DPH,R3
        POP     A
          CFI CFA_SP SP+0
        MOVX    @DPTR,A
        MOV     DPL,R2
        MOV     DPH,R3
        INC     DPTR
        MOV     R2,DPL
        MOV     R3,DPH
// 1234   *buf++ = BREAK_UINT32( val, 1 );
        MOV     ?V0,?V4
        MOV     ?V1,?V5
        CLR     A
        XCH     A,?V1
        MOV     ?V0,A
        MOV     A,?V0
        PUSH    A
          CFI CFA_SP SP+-1
        MOV     DPL,R2
        MOV     DPH,R3
        POP     A
          CFI CFA_SP SP+0
        MOVX    @DPTR,A
        MOV     DPL,R2
        MOV     DPH,R3
        INC     DPTR
        MOV     R2,DPL
        MOV     R3,DPH
// 1235   *buf++ = BREAK_UINT32( val, 2 );
        MOV     ?V0,?V4
        MOV     ?V1,?V5
        MOV     ?V2,?V6
        MOV     ?V3,?V7
        MOV     A,#0x10
        MOV     R0,#?V0
        LCALL   ?UL_SHR
        MOV     A,?V0
        PUSH    A
          CFI CFA_SP SP+-1
        MOV     DPL,R2
        MOV     DPH,R3
        POP     A
          CFI CFA_SP SP+0
        MOVX    @DPTR,A
        MOV     DPL,R2
        MOV     DPH,R3
        INC     DPTR
        MOV     R2,DPL
        MOV     R3,DPH
// 1236 
// 1237   return buf;
        MOV     R7,#0x8
        LJMP    ?BANKED_LEAVE_XDATA
// 1238 }
          CFI EndBlock cfiBlock32
// 1239 
// 1240 /*********************************************************************
// 1241  * @fn      osal_isbufset
// 1242  *
// 1243  * @brief
// 1244  *
// 1245  *   Is all of the array elements set to a value?
// 1246  *
// 1247  * @param   buf - buffer to check
// 1248  * @param   val - value to check each array element for
// 1249  * @param   len - length to check
// 1250  *
// 1251  * @return  TRUE if all "val"
// 1252  *          FALSE otherwise
// 1253  */

        RSEG BANKED_CODE:CODE:NOROOT(0)
// 1254 uint8 osal_isbufset( uint8 *buf, uint8 val, uint8 len )
osal_isbufset:
          CFI Block cfiBlock33 Using cfiCommon0
          CFI Function osal_isbufset
        CODE
// 1255 {
        MOV     A,#-0x9
        LCALL   ?BANKED_ENTER_XDATA
          CFI DPH0 load(1, XDATA, add(CFA_XSP16, literal(-1)))
          CFI DPL0 load(1, XDATA, add(CFA_XSP16, literal(-2)))
          CFI ?BRET_EXT load(1, XDATA, add(CFA_XSP16, literal(-3)))
          CFI ?RET_HIGH load(1, XDATA, add(CFA_XSP16, literal(-4)))
          CFI ?RET_LOW load(1, XDATA, add(CFA_XSP16, literal(-5)))
          CFI R7 load(1, XDATA, add(CFA_XSP16, literal(-6)))
          CFI V0 load(1, XDATA, add(CFA_XSP16, literal(-7)))
          CFI VB load(1, XDATA, add(CFA_XSP16, literal(-8)))
          CFI R6 load(1, XDATA, add(CFA_XSP16, literal(-9)))
          CFI CFA_SP SP+0
          CFI CFA_XSP16 add(XSP16, 9)
        ; Saved register size: 9
        ; Auto size: 0
        MOV     A,R1
        MOV     R6,A
// 1256   uint8 x;
// 1257 
// 1258   if ( buf == NULL )
        MOV     A,R2
        ORL     A,R3
        JNZ     ??osal_isbufset_0
// 1259   {
// 1260     return ( FALSE );
        MOV     R1,#0x0
        SJMP    ??osal_isbufset_1
// 1261   }
// 1262 
// 1263   for ( x = 0; x < len; x++ )
??osal_isbufset_0:
        MOV     R5,#0x0
??osal_isbufset_2:
        MOV     A,R5
        CLR     C
        SUBB    A,R4
        JNC     ??osal_isbufset_3
// 1264   {
// 1265     // Check for non-initialized value
// 1266     if ( buf[x] != val )
        MOV     A,R5
        MOV     R0,A
        MOV     R1,#0x0
        MOV     A,R2
        ADD     A,R0
        MOV     DPL,A
        MOV     A,R3
        ADDC    A,R1
        MOV     DPH,A
        MOVX    A,@DPTR
        XRL     A,R6
        JZ      ??osal_isbufset_4
// 1267     {
// 1268       return ( FALSE );
        MOV     R1,#0x0
        SJMP    ??osal_isbufset_1
// 1269     }
// 1270   }
??osal_isbufset_4:
        INC     R5
        SJMP    ??osal_isbufset_2
// 1271   return ( TRUE );
??osal_isbufset_3:
        MOV     R1,#0x1
??osal_isbufset_1:
        MOV     R7,#0x1
        LJMP    ?BANKED_LEAVE_XDATA
// 1272 }
          CFI EndBlock cfiBlock33
// 1273 
// 1274 /*********************************************************************
// 1275  * @fn      osal_self
// 1276  *
// 1277  * @brief
// 1278  *
// 1279  *   This function returns the task ID of the current (active) task.
// 1280  *
// 1281  * @param   void
// 1282  *
// 1283  * @return   active task ID or TASK_NO_TASK if no task is active
// 1284  */

        RSEG BANKED_CODE:CODE:NOROOT(0)
// 1285 uint8 osal_self( void )
osal_self:
          CFI Block cfiBlock34 Using cfiCommon0
          CFI Function osal_self
        CODE
// 1286 {
        PUSH    DPL
          CFI DPL0 Frame(CFA_SP, 4)
          CFI CFA_SP SP+-4
        PUSH    DPH
          CFI DPH0 Frame(CFA_SP, 5)
          CFI CFA_SP SP+-5
        ; Saved register size: 2
        ; Auto size: 0
// 1287   return ( activeTaskID );
        MOV     DPTR,#activeTaskID
        MOVX    A,@DPTR
        MOV     R1,A
        POP     DPH
          CFI DPH0 SameValue
          CFI CFA_SP SP+-4
        POP     DPL
          CFI DPL0 SameValue
          CFI CFA_SP SP+-3
        LJMP    ?BRET
// 1288 }
          CFI EndBlock cfiBlock34

        RSEG XDATA_ID:CODE:NOROOT(0)
`?<Initializer for activeTaskID>`:
        DATA8
        DB 255

        RSEG BANK_RELAYS:CODE:REORDER:NOROOT(0)
`??osal_strlen::?relay`:
        CODE
        LCALL   ?BDISPATCH
        DATA24
        DC24    osal_strlen

        RSEG BANK_RELAYS:CODE:REORDER:NOROOT(0)
`??osal_memcpy::?relay`:
        CODE
        LCALL   ?BDISPATCH
        DATA24
        DC24    osal_memcpy

        RSEG BANK_RELAYS:CODE:REORDER:NOROOT(0)
`??osal_revmemcpy::?relay`:
        CODE
        LCALL   ?BDISPATCH
        DATA24
        DC24    osal_revmemcpy

        RSEG BANK_RELAYS:CODE:REORDER:NOROOT(0)
`??osal_memdup::?relay`:
        CODE
        LCALL   ?BDISPATCH
        DATA24
        DC24    osal_memdup

        RSEG BANK_RELAYS:CODE:REORDER:NOROOT(0)
`??osal_memcmp::?relay`:
        CODE
        LCALL   ?BDISPATCH
        DATA24
        DC24    osal_memcmp

        RSEG BANK_RELAYS:CODE:REORDER:NOROOT(0)
`??osal_memset::?relay`:
        CODE
        LCALL   ?BDISPATCH
        DATA24
        DC24    osal_memset

        RSEG BANK_RELAYS:CODE:REORDER:NOROOT(0)
`??osal_build_uint16::?relay`:
        CODE
        LCALL   ?BDISPATCH
        DATA24
        DC24    osal_build_uint16

        RSEG BANK_RELAYS:CODE:REORDER:NOROOT(0)
`??osal_build_uint32::?relay`:
        CODE
        LCALL   ?BDISPATCH
        DATA24
        DC24    osal_build_uint32

        RSEG BANK_RELAYS:CODE:REORDER:NOROOT(0)
`??_ltoa::?relay`:
        CODE
        LCALL   ?BDISPATCH
        DATA24
        DC24    _ltoa

        RSEG BANK_RELAYS:CODE:REORDER:NOROOT(0)
`??osal_rand::?relay`:
        CODE
        LCALL   ?BDISPATCH
        DATA24
        DC24    osal_rand

        RSEG BANK_RELAYS:CODE:REORDER:NOROOT(0)
`??osal_msg_allocate::?relay`:
        CODE
        LCALL   ?BDISPATCH
        DATA24
        DC24    osal_msg_allocate

        RSEG BANK_RELAYS:CODE:REORDER:NOROOT(0)
`??osal_msg_deallocate::?relay`:
        CODE
        LCALL   ?BDISPATCH
        DATA24
        DC24    osal_msg_deallocate

        RSEG BANK_RELAYS:CODE:REORDER:NOROOT(0)
`??osal_msg_send::?relay`:
        CODE
        LCALL   ?BDISPATCH
        DATA24
        DC24    osal_msg_send

        RSEG BANK_RELAYS:CODE:REORDER:NOROOT(0)
`??osal_msg_push_front::?relay`:
        CODE
        LCALL   ?BDISPATCH
        DATA24
        DC24    osal_msg_push_front

        RSEG BANK_RELAYS:CODE:REORDER:NOROOT(0)
`??osal_msg_enqueue_push::?relay`:
        CODE
        LCALL   ?BDISPATCH
        DATA24
        DC24    osal_msg_enqueue_push

        RSEG BANK_RELAYS:CODE:REORDER:NOROOT(0)
`??osal_msg_receive::?relay`:
        CODE
        LCALL   ?BDISPATCH
        DATA24
        DC24    osal_msg_receive

        RSEG BANK_RELAYS:CODE:REORDER:NOROOT(0)
`??osal_msg_find::?relay`:
        CODE
        LCALL   ?BDISPATCH
        DATA24
        DC24    osal_msg_find

        RSEG BANK_RELAYS:CODE:REORDER:NOROOT(0)
`??osal_msg_count::?relay`:
        CODE
        LCALL   ?BDISPATCH
        DATA24
        DC24    osal_msg_count

        RSEG BANK_RELAYS:CODE:REORDER:NOROOT(0)
`??osal_msg_enqueue::?relay`:
        CODE
        LCALL   ?BDISPATCH
        DATA24
        DC24    osal_msg_enqueue

        RSEG BANK_RELAYS:CODE:REORDER:NOROOT(0)
`??osal_msg_dequeue::?relay`:
        CODE
        LCALL   ?BDISPATCH
        DATA24
        DC24    osal_msg_dequeue

        RSEG BANK_RELAYS:CODE:REORDER:NOROOT(0)
`??osal_msg_push::?relay`:
        CODE
        LCALL   ?BDISPATCH
        DATA24
        DC24    osal_msg_push

        RSEG BANK_RELAYS:CODE:REORDER:NOROOT(0)
`??osal_msg_extract::?relay`:
        CODE
        LCALL   ?BDISPATCH
        DATA24
        DC24    osal_msg_extract

        RSEG BANK_RELAYS:CODE:REORDER:NOROOT(0)
`??osal_msg_enqueue_max::?relay`:
        CODE
        LCALL   ?BDISPATCH
        DATA24
        DC24    osal_msg_enqueue_max

        RSEG BANK_RELAYS:CODE:REORDER:NOROOT(0)
`??osal_set_event::?relay`:
        CODE
        LCALL   ?BDISPATCH
        DATA24
        DC24    osal_set_event

        RSEG BANK_RELAYS:CODE:REORDER:NOROOT(0)
`??osal_clear_event::?relay`:
        CODE
        LCALL   ?BDISPATCH
        DATA24
        DC24    osal_clear_event

        RSEG BANK_RELAYS:CODE:REORDER:NOROOT(0)
`??osal_isr_register::?relay`:
        CODE
        LCALL   ?BDISPATCH
        DATA24
        DC24    osal_isr_register

        RSEG BANK_RELAYS:CODE:REORDER:NOROOT(0)
`??osal_int_enable::?relay`:
        CODE
        LCALL   ?BDISPATCH
        DATA24
        DC24    osal_int_enable

        RSEG BANK_RELAYS:CODE:REORDER:NOROOT(0)
`??osal_int_disable::?relay`:
        CODE
        LCALL   ?BDISPATCH
        DATA24
        DC24    osal_int_disable

        RSEG BANK_RELAYS:CODE:REORDER:NOROOT(0)
`??osal_init_system::?relay`:
        CODE
        LCALL   ?BDISPATCH
        DATA24
        DC24    osal_init_system

        RSEG BANK_RELAYS:CODE:REORDER:NOROOT(0)
`??osal_start_system::?relay`:
        CODE
        LCALL   ?BDISPATCH
        DATA24
        DC24    osal_start_system

        RSEG BANK_RELAYS:CODE:REORDER:NOROOT(0)
`??osal_run_system::?relay`:
        CODE
        LCALL   ?BDISPATCH
        DATA24
        DC24    osal_run_system

        RSEG BANK_RELAYS:CODE:REORDER:NOROOT(0)
`??osal_buffer_uint32::?relay`:
        CODE
        LCALL   ?BDISPATCH
        DATA24
        DC24    osal_buffer_uint32

        RSEG BANK_RELAYS:CODE:REORDER:NOROOT(0)
`??osal_buffer_uint24::?relay`:
        CODE
        LCALL   ?BDISPATCH
        DATA24
        DC24    osal_buffer_uint24

        RSEG BANK_RELAYS:CODE:REORDER:NOROOT(0)
`??osal_isbufset::?relay`:
        CODE
        LCALL   ?BDISPATCH
        DATA24
        DC24    osal_isbufset

        RSEG BANK_RELAYS:CODE:REORDER:NOROOT(0)
`??osal_self::?relay`:
        CODE
        LCALL   ?BDISPATCH
        DATA24
        DC24    osal_self

        RSEG XDATA_ROM_C:CONST:REORDER:NOROOT(0)
        DATA8
`?<Constant "">`:
        DB ""
        DB 0, 0, 0, 0, 0, 0, 0, 0
        DB 0

        RSEG XDATA_ROM_C:CONST:REORDER:NOROOT(0)
        DATA8
`?<Constant "">_1`:
        DB ""
        DB 0, 0, 0, 0, 0, 0, 0, 0
        DB 0

        RSEG XDATA_ROM_C:CONST:REORDER:NOROOT(0)
        DATA8
`?<Constant "">_2`:
        DB ""
        DB 0, 0, 0, 0, 0, 0, 0, 0
        DB 0

        RSEG XDATA_ROM_C:CONST:REORDER:NOROOT(0)
        DATA16
`?<Constant "0">`:
        DB "0"

        RSEG XDATA_ROM_C:CONST:REORDER:NOROOT(0)
        DATA32
__Constant_2710:
        DD 10000

        RSEG XDATA_ROM_C:CONST:REORDER:NOROOT(0)
        DATA32
__Constant_5f5e100:
        DD 100000000

        END
// 1289 
// 1290 /*********************************************************************
// 1291  */
// 
// 3 870 bytes in segment BANKED_CODE
//   210 bytes in segment BANK_RELAYS
//     1 byte  in segment SFR_AN
//     1 byte  in segment XDATA_I
//     1 byte  in segment XDATA_ID
//    40 bytes in segment XDATA_ROM_C
//     2 bytes in segment XDATA_Z
// 
// 4 081 bytes of CODE  memory
//    32 bytes of CONST memory (+ 8 bytes shared)
//     0 bytes of DATA  memory (+ 1 byte  shared)
//     3 bytes of XDATA memory
//
//Errors: none
//Warnings: none
