///////////////////////////////////////////////////////////////////////////////
//
// IAR C/C++ Compiler V9.30.1.3056 for 8051               21/Apr/2017  13:45:58
// Copyright 2004-2015 IAR Systems AB.
//
//    Core               =  plain
//    Code model         =  banked
//    Data model         =  large
//    Calling convention =  xdata reentrant
//    Constant location  =  data_rom
//    Dptr setup         =  1,16
//                          
//    Source file        =  
//        C:\Texas Instruments\Z-Stack Mesh 1.0.0_chaokw_20160317\Z-Stack Mesh
//        1.0.0_chaokw_20160316\Z-Stack Mesh 1.0.0_LCDOK\Z-Stack Mesh
//        1.0.0\Projects\zstack\Samples\GenericApp\Source\GenericApp.c
//    Command line       =  
//        -f "C:\Texas Instruments\Z-Stack Mesh 1.0.0_chaokw_20160317\Z-Stack
//        Mesh 1.0.0_chaokw_20160316\Z-Stack Mesh 1.0.0_LCDOK\Z-Stack Mesh
//        1.0.0\Projects\zstack\Samples\GenericApp\CC2530DB\..\..\..\Tools\CC2530DB\f8wRouter.cfg"
//        (-DCPU32MHZ -DROOT=__near_func -DMAC_CFG_APP_PENDING_QUEUE=TRUE
//        -DMAC_CFG_TX_DATA_MAX=5 -DMAC_CFG_TX_MAX=8 -DMAC_CFG_RX_MAX=5
//        -DRTR_NWK) -f "C:\Texas Instruments\Z-Stack Mesh
//        1.0.0_chaokw_20160317\Z-Stack Mesh 1.0.0_chaokw_20160316\Z-Stack Mesh
//        1.0.0_LCDOK\Z-Stack Mesh
//        1.0.0\Projects\zstack\Samples\GenericApp\CC2530DB\..\..\..\Tools\CC2530DB\f8wConfig.cfg"
//        (-DZIGBEEPRO -DSECURE=1 -DZG_SECURE_DYNAMIC=0 -DREFLECTOR
//        -DDEFAULT_CHANLIST=0x04000000 -DZDAPP_CONFIG_PAN_ID=0x0100
//        -DNWK_START_DELAY=100 -DEXTENDED_JOINING_RANDOM_MASK=0x007F
//        -DBEACON_REQUEST_DELAY=100 -DBEACON_REQ_DELAY_MASK=0x00FF
//        -DLINK_STATUS_JITTER_MASK=0x007F -DROUTE_EXPIRY_TIME=30
//        -DAPSC_ACK_WAIT_DURATION_POLLED=3000 -DNWK_INDIRECT_MSG_TIMEOUT=7
//        -DMAX_RREQ_ENTRIES=8 -DAPSC_MAX_FRAME_RETRIES=5
//        -DNWK_MAX_DATA_RETRIES=2 -DMAX_POLL_FAILURE_RETRIES=2 -DMAX_BCAST=9
//        -DAPS_MAX_GROUPS=16 -DMAX_RTG_ENTRIES=40 -DNWK_MAX_BINDING_ENTRIES=4
//        -DMAX_BINDING_CLUSTER_IDS=4 "-DDEFAULT_KEY={0x01, 0x03, 0x05, 0x07,
//        0x09, 0x0B, 0x0D, 0x0F, 0x00, 0x02, 0x04, 0x06, 0x08, 0x0A, 0x0C,
//        0x0D}" -DMAC_MAX_FRAME_SIZE=116 -DZDNWKMGR_MIN_TRANSMISSIONS=20
//        "-DCONST=const __code" -DGENERIC=__generic -DRFD_RCVC_ALWAYS_ON=FALSE
//        -DPOLL_RATE=1000 -DQUEUED_POLL_RATE=100 -DRESPONSE_POLL_RATE=100
//        -DREJOIN_POLL_RATE=440) -DCHANNEL_CNT=0x01 "C:\Texas
//        Instruments\Z-Stack Mesh 1.0.0_chaokw_20160317\Z-Stack Mesh
//        1.0.0_chaokw_20160316\Z-Stack Mesh 1.0.0_LCDOK\Z-Stack Mesh
//        1.0.0\Projects\zstack\Samples\GenericApp\Source\GenericApp.c" -D
//        ZTOOL_P1 -D MT_TASK -D MT_SYS_FUNC -D MT_ZDO_FUNC -D
//        LCD_SUPPORTED=DEBUG -D xNV_RESTORE -D NV_INIT -D OPEN_FCS -D
//        PANID_INCREASE -D MAKE_CRC_SHDW -lC "C:\Texas Instruments\Z-Stack
//        Mesh 1.0.0_chaokw_20160317\Z-Stack Mesh 1.0.0_chaokw_20160316\Z-Stack
//        Mesh 1.0.0_LCDOK\Z-Stack Mesh
//        1.0.0\Projects\zstack\Samples\GenericApp\CC2530DB\RouterEB-SBL\List"
//        -lA "C:\Texas Instruments\Z-Stack Mesh 1.0.0_chaokw_20160317\Z-Stack
//        Mesh 1.0.0_chaokw_20160316\Z-Stack Mesh 1.0.0_LCDOK\Z-Stack Mesh
//        1.0.0\Projects\zstack\Samples\GenericApp\CC2530DB\RouterEB-SBL\List"
//        --diag_suppress Pe001,Pa010 -o "C:\Texas Instruments\Z-Stack Mesh
//        1.0.0_chaokw_20160317\Z-Stack Mesh 1.0.0_chaokw_20160316\Z-Stack Mesh
//        1.0.0_LCDOK\Z-Stack Mesh
//        1.0.0\Projects\zstack\Samples\GenericApp\CC2530DB\RouterEB-SBL\Obj"
//        -e --no_code_motion --debug --core=plain --dptr=16,1
//        --data_model=large --code_model=banked
//        --calling_convention=xdata_reentrant --place_constants=data_rom
//        --nr_virtual_regs 16 -I "C:\Texas Instruments\Z-Stack Mesh
//        1.0.0_chaokw_20160317\Z-Stack Mesh 1.0.0_chaokw_20160316\Z-Stack Mesh
//        1.0.0_LCDOK\Z-Stack Mesh
//        1.0.0\Projects\zstack\Samples\GenericApp\CC2530DB\" -I "C:\Texas
//        Instruments\Z-Stack Mesh 1.0.0_chaokw_20160317\Z-Stack Mesh
//        1.0.0_chaokw_20160316\Z-Stack Mesh 1.0.0_LCDOK\Z-Stack Mesh
//        1.0.0\Projects\zstack\Samples\GenericApp\CC2530DB\..\Source\" -I
//        "C:\Texas Instruments\Z-Stack Mesh 1.0.0_chaokw_20160317\Z-Stack Mesh
//        1.0.0_chaokw_20160316\Z-Stack Mesh 1.0.0_LCDOK\Z-Stack Mesh
//        1.0.0\Projects\zstack\Samples\GenericApp\CC2530DB\..\..\..\Application\"
//        -I "C:\Texas Instruments\Z-Stack Mesh 1.0.0_chaokw_20160317\Z-Stack
//        Mesh 1.0.0_chaokw_20160316\Z-Stack Mesh 1.0.0_LCDOK\Z-Stack Mesh
//        1.0.0\Projects\zstack\Samples\GenericApp\CC2530DB\..\..\..\ZMain\TI2530DB\"
//        -I "C:\Texas Instruments\Z-Stack Mesh 1.0.0_chaokw_20160317\Z-Stack
//        Mesh 1.0.0_chaokw_20160316\Z-Stack Mesh 1.0.0_LCDOK\Z-Stack Mesh
//        1.0.0\Projects\zstack\Samples\GenericApp\CC2530DB\..\..\..\..\..\Components\hal\include\"
//        -I "C:\Texas Instruments\Z-Stack Mesh 1.0.0_chaokw_20160317\Z-Stack
//        Mesh 1.0.0_chaokw_20160316\Z-Stack Mesh 1.0.0_LCDOK\Z-Stack Mesh
//        1.0.0\Projects\zstack\Samples\GenericApp\CC2530DB\..\..\..\..\..\Components\hal\target\CC2530EB\"
//        -I "C:\Texas Instruments\Z-Stack Mesh 1.0.0_chaokw_20160317\Z-Stack
//        Mesh 1.0.0_chaokw_20160316\Z-Stack Mesh 1.0.0_LCDOK\Z-Stack Mesh
//        1.0.0\Projects\zstack\Samples\GenericApp\CC2530DB\..\..\..\..\..\Components\mac\include\"
//        -I "C:\Texas Instruments\Z-Stack Mesh 1.0.0_chaokw_20160317\Z-Stack
//        Mesh 1.0.0_chaokw_20160316\Z-Stack Mesh 1.0.0_LCDOK\Z-Stack Mesh
//        1.0.0\Projects\zstack\Samples\GenericApp\CC2530DB\..\..\..\..\..\Components\mac\high_level\"
//        -I "C:\Texas Instruments\Z-Stack Mesh 1.0.0_chaokw_20160317\Z-Stack
//        Mesh 1.0.0_chaokw_20160316\Z-Stack Mesh 1.0.0_LCDOK\Z-Stack Mesh
//        1.0.0\Projects\zstack\Samples\GenericApp\CC2530DB\..\..\..\..\..\Components\mac\low_level\srf04\"
//        -I "C:\Texas Instruments\Z-Stack Mesh 1.0.0_chaokw_20160317\Z-Stack
//        Mesh 1.0.0_chaokw_20160316\Z-Stack Mesh 1.0.0_LCDOK\Z-Stack Mesh
//        1.0.0\Projects\zstack\Samples\GenericApp\CC2530DB\..\..\..\..\..\Components\mac\low_level\srf04\single_chip\"
//        -I "C:\Texas Instruments\Z-Stack Mesh 1.0.0_chaokw_20160317\Z-Stack
//        Mesh 1.0.0_chaokw_20160316\Z-Stack Mesh 1.0.0_LCDOK\Z-Stack Mesh
//        1.0.0\Projects\zstack\Samples\GenericApp\CC2530DB\..\..\..\..\..\Components\mt\"
//        -I "C:\Texas Instruments\Z-Stack Mesh 1.0.0_chaokw_20160317\Z-Stack
//        Mesh 1.0.0_chaokw_20160316\Z-Stack Mesh 1.0.0_LCDOK\Z-Stack Mesh
//        1.0.0\Projects\zstack\Samples\GenericApp\CC2530DB\..\..\..\..\..\Components\osal\include\"
//        -I "C:\Texas Instruments\Z-Stack Mesh 1.0.0_chaokw_20160317\Z-Stack
//        Mesh 1.0.0_chaokw_20160316\Z-Stack Mesh 1.0.0_LCDOK\Z-Stack Mesh
//        1.0.0\Projects\zstack\Samples\GenericApp\CC2530DB\..\..\..\..\..\Components\services\saddr\"
//        -I "C:\Texas Instruments\Z-Stack Mesh 1.0.0_chaokw_20160317\Z-Stack
//        Mesh 1.0.0_chaokw_20160316\Z-Stack Mesh 1.0.0_LCDOK\Z-Stack Mesh
//        1.0.0\Projects\zstack\Samples\GenericApp\CC2530DB\..\..\..\..\..\Components\services\sdata\"
//        -I "C:\Texas Instruments\Z-Stack Mesh 1.0.0_chaokw_20160317\Z-Stack
//        Mesh 1.0.0_chaokw_20160316\Z-Stack Mesh 1.0.0_LCDOK\Z-Stack Mesh
//        1.0.0\Projects\zstack\Samples\GenericApp\CC2530DB\..\..\..\..\..\Components\stack\af\"
//        -I "C:\Texas Instruments\Z-Stack Mesh 1.0.0_chaokw_20160317\Z-Stack
//        Mesh 1.0.0_chaokw_20160316\Z-Stack Mesh 1.0.0_LCDOK\Z-Stack Mesh
//        1.0.0\Projects\zstack\Samples\GenericApp\CC2530DB\..\..\..\..\..\Components\stack\nwk\"
//        -I "C:\Texas Instruments\Z-Stack Mesh 1.0.0_chaokw_20160317\Z-Stack
//        Mesh 1.0.0_chaokw_20160316\Z-Stack Mesh 1.0.0_LCDOK\Z-Stack Mesh
//        1.0.0\Projects\zstack\Samples\GenericApp\CC2530DB\..\..\..\..\..\Components\stack\sapi\"
//        -I "C:\Texas Instruments\Z-Stack Mesh 1.0.0_chaokw_20160317\Z-Stack
//        Mesh 1.0.0_chaokw_20160316\Z-Stack Mesh 1.0.0_LCDOK\Z-Stack Mesh
//        1.0.0\Projects\zstack\Samples\GenericApp\CC2530DB\..\..\..\..\..\Components\stack\sec\"
//        -I "C:\Texas Instruments\Z-Stack Mesh 1.0.0_chaokw_20160317\Z-Stack
//        Mesh 1.0.0_chaokw_20160316\Z-Stack Mesh 1.0.0_LCDOK\Z-Stack Mesh
//        1.0.0\Projects\zstack\Samples\GenericApp\CC2530DB\..\..\..\..\..\Components\stack\sys\"
//        -I "C:\Texas Instruments\Z-Stack Mesh 1.0.0_chaokw_20160317\Z-Stack
//        Mesh 1.0.0_chaokw_20160316\Z-Stack Mesh 1.0.0_LCDOK\Z-Stack Mesh
//        1.0.0\Projects\zstack\Samples\GenericApp\CC2530DB\..\..\..\..\..\Components\stack\zdo\"
//        -I "C:\Texas Instruments\Z-Stack Mesh 1.0.0_chaokw_20160317\Z-Stack
//        Mesh 1.0.0_chaokw_20160316\Z-Stack Mesh 1.0.0_LCDOK\Z-Stack Mesh
//        1.0.0\Projects\zstack\Samples\GenericApp\CC2530DB\..\..\..\..\..\Components\zmac\"
//        -I "C:\Texas Instruments\Z-Stack Mesh 1.0.0_chaokw_20160317\Z-Stack
//        Mesh 1.0.0_chaokw_20160316\Z-Stack Mesh 1.0.0_LCDOK\Z-Stack Mesh
//        1.0.0\Projects\zstack\Samples\GenericApp\CC2530DB\..\..\..\..\..\Components\zmac\f8w\"
//        -Ohz --require_prototypes
//    List file          =  
//        C:\Texas Instruments\Z-Stack Mesh 1.0.0_chaokw_20160317\Z-Stack Mesh
//        1.0.0_chaokw_20160316\Z-Stack Mesh 1.0.0_LCDOK\Z-Stack Mesh
//        1.0.0\Projects\zstack\Samples\GenericApp\CC2530DB\RouterEB-SBL\List\GenericApp.s51
//
///////////////////////////////////////////////////////////////////////////////

        NAME GenericApp

        RTMODEL "__SystemLibrary", "CLib"
        RTMODEL "__calling_convention", "xdata_reentrant"
        RTMODEL "__code_model", "banked"
        RTMODEL "__core", "plain"
        RTMODEL "__data_model", "large"
        RTMODEL "__dptr_size", "16"
        RTMODEL "__extended_stack", "disabled"
        RTMODEL "__location_for_constants", "data"
        RTMODEL "__number_of_dptrs", "1"
        RTMODEL "__rt_version", "1"

        RSEG DOVERLAY:DATA:NOROOT(0)
        RSEG IOVERLAY:IDATA:NOROOT(0)
        RSEG ISTACK:IDATA:NOROOT(0)
        RSEG PSTACK:XDATA:NOROOT(0)
        RSEG XSTACK:XDATA:NOROOT(0)

        EXTERN ?V0
        EXTERN ?V1
        EXTERN ?V2
        EXTERN ?V3
        EXTERN ?V4
        EXTERN ?V5
        EXTERN ?V6
        EXTERN ?V7
        EXTERN ?V8
        EXTERN ?V9
        EXTERN ?V10
        EXTERN ?ALLOC_XSTACK8
        EXTERN ?BANKED_ENTER_XDATA
        EXTERN ?BANKED_LEAVE_XDATA
        EXTERN ?BDISPATCH
        EXTERN ?BRET
        EXTERN ?DEALLOC_XSTACK8
        EXTERN ?L_EQ_X
        EXTERN ?L_MOV_TO_X
        EXTERN ?L_MOV_X
        EXTERN ?MOVE_LONG8_XDATA_XDATA
        EXTERN ?PUSH_XSTACK8_X
        EXTERN ?PUSH_XSTACK8_X_FOUR
        EXTERN ?PUSH_XSTACK_I_ONE
        EXTERN ?PUSH_XSTACK_I_THREE
        EXTERN ?PUSH_XSTACK_I_TWO
        EXTERN ?UL_GT_X
        EXTERN ?UL_SHR
        EXTERN ?US_SWITCH_DENSE
        EXTERN ?US_SWITCH_SPARSE
        EXTERN ?XLOAD_R0123
        EXTERN ?XSP
        EXTERN ?XSTACK_DISP0_8
        EXTERN ?XSTACK_DISP100_8
        EXTERN ?XSTACK_DISP101_8
        EXTERN ?XSTACK_DISP102_8
        EXTERN ?XSTORE_R0123
        EXTERN ?XSTORE_R2345
        EXTERN __INIT_XDATA_I
        EXTERN __INIT_XDATA_Z

        PUBLIC `??CustomApp_NodeDelete::?relay`
        FUNCTION `??CustomApp_NodeDelete::?relay`,0203H
        PUBLIC `??CustomApp_NodeFindMacAddrList::?relay`
        FUNCTION `??CustomApp_NodeFindMacAddrList::?relay`,0203H
        PUBLIC `??CustomApp_NodeFindNwkAddrList::?relay`
        FUNCTION `??CustomApp_NodeFindNwkAddrList::?relay`,0203H
        PUBLIC `??CustomApp_NodeRegister::?relay`
        FUNCTION `??CustomApp_NodeRegister::?relay`,0203H
        PUBLIC `??CustomApp_coordinater_broadcast_ping::?relay`
        FUNCTION `??CustomApp_coordinater_broadcast_ping::?relay`,0203H
        PUBLIC `??CustomApp_coordinater_broadcast_ping_init::?r`
        FUNCTION `??CustomApp_coordinater_broadcast_ping_init::?r`,0203H
        PUBLIC `??CustomApp_get_connected_node_count::?relay`
        FUNCTION `??CustomApp_get_connected_node_count::?relay`,0203H
        PUBLIC `??CustomApp_linkstatus_init::?relay`
        FUNCTION `??CustomApp_linkstatus_init::?relay`,0203H
        PUBLIC `??CustomApp_linkstatus_updated::?relay`
        FUNCTION `??CustomApp_linkstatus_updated::?relay`,0203H
        PUBLIC `??CustomApp_loadstatus_ind::?relay`
        FUNCTION `??CustomApp_loadstatus_ind::?relay`,0203H
        PUBLIC `??CustomApp_node_deregister_ind::?relay`
        FUNCTION `??CustomApp_node_deregister_ind::?relay`,0203H
        PUBLIC `??CustomApp_node_register_ind::?relay`
        FUNCTION `??CustomApp_node_register_ind::?relay`,0203H
        PUBLIC `??CustomApp_ping_request_init::?relay`
        FUNCTION `??CustomApp_ping_request_init::?relay`,0203H
        PUBLIC `??CustomApp_ping_timeout_check::?relay`
        FUNCTION `??CustomApp_ping_timeout_check::?relay`,0203H
        PUBLIC `??CustomApp_ping_timeout_check_init::?relay`
        FUNCTION `??CustomApp_ping_timeout_check_init::?relay`,0203H
        PUBLIC `??CustomApp_process_ping::?relay`
        FUNCTION `??CustomApp_process_ping::?relay`,0203H
        PUBLIC `??CustomApp_send_ping_req::?relay`
        FUNCTION `??CustomApp_send_ping_req::?relay`,0203H
        PUBLIC `??CustomApp_send_ping_rsp::?relay`
        FUNCTION `??CustomApp_send_ping_rsp::?relay`,0203H
        PUBLIC `??CustomApp_zigbee_start_ind::?relay`
        FUNCTION `??CustomApp_zigbee_start_ind::?relay`,0203H
        PUBLIC `??GenericApp_Device_JoinReq::?relay`
        FUNCTION `??GenericApp_Device_JoinReq::?relay`,0203H
        PUBLIC `??GenericApp_Device_JoinRsp::?relay`
        FUNCTION `??GenericApp_Device_JoinRsp::?relay`,0203H
        PUBLIC `??GenericApp_Free_Join_DeviceInfo::?relay`
        FUNCTION `??GenericApp_Free_Join_DeviceInfo::?relay`,0203H
        PUBLIC `??GenericApp_Get_PermitJoin::?relay`
        FUNCTION `??GenericApp_Get_PermitJoin::?relay`,0203H
        FUNCTION `??GenericApp_HandleKeys::?relay`,0203H
        PUBLIC `??GenericApp_Init::?relay`
        FUNCTION `??GenericApp_Init::?relay`,0203H
        FUNCTION `??GenericApp_MessageMSGCB::?relay`,0203H
        PUBLIC `??GenericApp_ProcessEvent::?relay`
        FUNCTION `??GenericApp_ProcessEvent::?relay`,0203H
        FUNCTION `??GenericApp_ProcessZDOMsgs::?relay`,0203H
        PUBLIC CustomApp_NodeDelete
        FUNCTION CustomApp_NodeDelete,021203H
        ARGFRAME XSTACK, 12, STACK
        ARGFRAME IOVERLAY, 0, STATIC
        ARGFRAME DOVERLAY, 0, STATIC
        LOCFRAME XSTACK, 9, STACK
        PUBLIC CustomApp_NodeFindMacAddrList
        FUNCTION CustomApp_NodeFindMacAddrList,0a1203H
        ARGFRAME XSTACK, 10, STACK
        ARGFRAME IOVERLAY, 0, STATIC
        ARGFRAME DOVERLAY, 0, STATIC
        LOCFRAME XSTACK, 10, STACK
        PUBLIC CustomApp_NodeFindNwkAddrList
        FUNCTION CustomApp_NodeFindNwkAddrList,0203H
        ARGFRAME XSTACK, 13, STACK
        ARGFRAME IOVERLAY, 0, STATIC
        ARGFRAME DOVERLAY, 0, STATIC
        LOCFRAME ISTACK, 2, STACK
        PUBLIC CustomApp_NodeRegister
        FUNCTION CustomApp_NodeRegister,0a1203H
        ARGFRAME XSTACK, 63, STACK
        ARGFRAME IOVERLAY, 0, STATIC
        ARGFRAME DOVERLAY, 0, STATIC
        LOCFRAME XSTACK, 10, STACK
        PUBLIC CustomApp_coordinater_broadcast_ping
        FUNCTION CustomApp_coordinater_broadcast_ping,0a1203H
        ARGFRAME XSTACK, 24, STACK
        ARGFRAME IOVERLAY, 0, STATIC
        ARGFRAME DOVERLAY, 0, STATIC
        LOCFRAME XSTACK, 21, STACK
        PUBLIC CustomApp_coordinater_broadcast_ping_init
        FUNCTION CustomApp_coordinater_broadcast_ping_init,021203H
        ARGFRAME XSTACK, 24, STACK
        ARGFRAME IOVERLAY, 0, STATIC
        ARGFRAME DOVERLAY, 0, STATIC
        LOCFRAME ISTACK, 2, STACK
        LOCFRAME XSTACK, 4, STACK
        PUBLIC CustomApp_get_connected_node_count
        FUNCTION CustomApp_get_connected_node_count,0203H
        ARGFRAME XSTACK, 12, STACK
        ARGFRAME IOVERLAY, 0, STATIC
        ARGFRAME DOVERLAY, 0, STATIC
        LOCFRAME ISTACK, 2, STACK
        PUBLIC CustomApp_linkstatus_init
        FUNCTION CustomApp_linkstatus_init,021203H
        ARGFRAME XSTACK, 0, STACK
        LOCFRAME ISTACK, 2, STACK
        LOCFRAME XSTACK, 4, STACK
        PUBLIC CustomApp_linkstatus_updated
        FUNCTION CustomApp_linkstatus_updated,0a1203H
        ARGFRAME XSTACK, 24, STACK
        ARGFRAME IOVERLAY, 0, STATIC
        ARGFRAME DOVERLAY, 0, STATIC
        LOCFRAME XSTACK, 36, STACK
        PUBLIC CustomApp_loadstatus_ind
        FUNCTION CustomApp_loadstatus_ind,0a1203H
        ARGFRAME XSTACK, 24, STACK
        ARGFRAME IOVERLAY, 0, STATIC
        ARGFRAME DOVERLAY, 0, STATIC
        LOCFRAME ISTACK, 1, STACK
        LOCFRAME XSTACK, 30, STACK
        PUBLIC CustomApp_node_deregister_ind
        FUNCTION CustomApp_node_deregister_ind,0a1203H
        ARGFRAME XSTACK, 36, STACK
        ARGFRAME IOVERLAY, 0, STATIC
        ARGFRAME DOVERLAY, 0, STATIC
        LOCFRAME ISTACK, 1, STACK
        LOCFRAME XSTACK, 27, STACK
        PUBLIC CustomApp_node_register_ind
        FUNCTION CustomApp_node_register_ind,0a1203H
        ARGFRAME XSTACK, 63, STACK
        ARGFRAME IOVERLAY, 0, STATIC
        ARGFRAME DOVERLAY, 0, STATIC
        LOCFRAME ISTACK, 1, STACK
        LOCFRAME XSTACK, 45, STACK
        PUBLIC CustomApp_ping_request_init
        FUNCTION CustomApp_ping_request_init,021203H
        ARGFRAME XSTACK, 24, STACK
        ARGFRAME IOVERLAY, 0, STATIC
        ARGFRAME DOVERLAY, 0, STATIC
        LOCFRAME ISTACK, 2, STACK
        LOCFRAME XSTACK, 4, STACK
        PUBLIC CustomApp_ping_timeout_check
        FUNCTION CustomApp_ping_timeout_check,0a1203H
        ARGFRAME XSTACK, 24, STACK
        ARGFRAME IOVERLAY, 0, STATIC
        ARGFRAME DOVERLAY, 0, STATIC
        LOCFRAME XSTACK, 16, STACK
        PUBLIC CustomApp_ping_timeout_check_init
        FUNCTION CustomApp_ping_timeout_check_init,021203H
        ARGFRAME XSTACK, 24, STACK
        ARGFRAME IOVERLAY, 0, STATIC
        ARGFRAME DOVERLAY, 0, STATIC
        LOCFRAME ISTACK, 2, STACK
        LOCFRAME XSTACK, 4, STACK
        PUBLIC CustomApp_process_ping
        FUNCTION CustomApp_process_ping,0a1203H
        ARGFRAME XSTACK, 12, STACK
        ARGFRAME IOVERLAY, 0, STATIC
        ARGFRAME DOVERLAY, 0, STATIC
        LOCFRAME XSTACK, 37, STACK
        PUBLIC CustomApp_send_ping_req
        FUNCTION CustomApp_send_ping_req,0a1203H
        ARGFRAME XSTACK, 24, STACK
        ARGFRAME IOVERLAY, 0, STATIC
        ARGFRAME DOVERLAY, 0, STATIC
        LOCFRAME ISTACK, 1, STACK
        LOCFRAME XSTACK, 25, STACK
        PUBLIC CustomApp_send_ping_rsp
        FUNCTION CustomApp_send_ping_rsp,0a1203H
        ARGFRAME XSTACK, 13, STACK
        ARGFRAME IOVERLAY, 0, STATIC
        ARGFRAME DOVERLAY, 0, STATIC
        LOCFRAME XSTACK, 21, STACK
        PUBLIC CustomApp_zigbee_start_ind
        FUNCTION CustomApp_zigbee_start_ind,0a1203H
        ARGFRAME XSTACK, 9, STACK
        ARGFRAME IOVERLAY, 0, STATIC
        ARGFRAME DOVERLAY, 0, STATIC
        LOCFRAME ISTACK, 1, STACK
        LOCFRAME XSTACK, 28, STACK
        PUBLIC GenericApp_ClusterList
        PUBLIC GenericApp_Device_JoinReq
        FUNCTION GenericApp_Device_JoinReq,0a1203H
        ARGFRAME XSTACK, 24, STACK
        ARGFRAME IOVERLAY, 0, STATIC
        ARGFRAME DOVERLAY, 0, STATIC
        LOCFRAME ISTACK, 1, STACK
        LOCFRAME XSTACK, 227, STACK
        PUBLIC GenericApp_Device_JoinRsp
        FUNCTION GenericApp_Device_JoinRsp,0a1203H
        ARGFRAME XSTACK, 12, STACK
        ARGFRAME IOVERLAY, 0, STATIC
        ARGFRAME DOVERLAY, 0, STATIC
        LOCFRAME ISTACK, 1, STACK
        LOCFRAME XSTACK, 136, STACK
        PUBLIC GenericApp_DstAddr
        PUBLIC GenericApp_Free_Join_DeviceInfo
        FUNCTION GenericApp_Free_Join_DeviceInfo,021203H
        ARGFRAME XSTACK, 24, STACK
        ARGFRAME IOVERLAY, 0, STATIC
        ARGFRAME DOVERLAY, 0, STATIC
        LOCFRAME XSTACK, 9, STACK
        PUBLIC GenericApp_Get_PermitJoin
        FUNCTION GenericApp_Get_PermitJoin,0a1203H
        ARGFRAME XSTACK, 12, STACK
        ARGFRAME IOVERLAY, 0, STATIC
        ARGFRAME DOVERLAY, 0, STATIC
        LOCFRAME XSTACK, 26, STACK
        FUNCTION GenericApp_HandleKeys,0a1203H
        ARGFRAME XSTACK, 24, STACK
        ARGFRAME IOVERLAY, 0, STATIC
        ARGFRAME DOVERLAY, 0, STATIC
        LOCFRAME XSTACK, 30, STACK
        PUBLIC GenericApp_Init
        FUNCTION GenericApp_Init,021203H
        ARGFRAME XSTACK, 0, STACK
        LOCFRAME XSTACK, 9, STACK
        FUNCTION GenericApp_MessageMSGCB,0a1203H
        ARGFRAME XSTACK, 24, STACK
        ARGFRAME IOVERLAY, 0, STATIC
        ARGFRAME DOVERLAY, 0, STATIC
        LOCFRAME XSTACK, 13, STACK
        PUBLIC GenericApp_NwkState
        PUBLIC GenericApp_ProcessEvent
        FUNCTION GenericApp_ProcessEvent,0a1203H
        ARGFRAME XSTACK, 0, STACK
        LOCFRAME XSTACK, 33, STACK
        FUNCTION GenericApp_ProcessZDOMsgs,0a1203H
        ARGFRAME XSTACK, 24, STACK
        ARGFRAME IOVERLAY, 0, STATIC
        ARGFRAME DOVERLAY, 0, STATIC
        LOCFRAME XSTACK, 63, STACK
        PUBLIC GenericApp_SimpleDesc
        PUBLIC GenericApp_TaskID
        PUBLIC GenericApp_TransID
        PUBLIC GenericApp_epDesc
        PUBLIC SerialApp_TxAddr_broadcast
        PUBLIC SerialApp_TxAddr_group
        PUBLIC SerialApp_TxAddr_p2p
        PUBWEAK __Constant_1388
        PUBWEAK __Constant_2710
        PUBWEAK __Constant_3a98
        PUBWEAK __Constant_65
        PUBWEAK __Constant_7d0
        PUBLIC cnt
        PUBLIC fw_version
        PUBLIC nodeList
        PUBLIC pingRspTime
        PUBLIC ping_error_cnt
        PUBLIC ping_result
        PUBLIC transfer_join_times
        PUBLIC zc_online_report_cnt
        PUBLIC zr_online_report_cnt
        
          CFI Names cfiNames0
          CFI StackFrame CFA_SP SP IDATA
          CFI StackFrame CFA_PSP16 PSP16 XDATA
          CFI StackFrame CFA_XSP16 XSP16 XDATA
          CFI StaticOverlayFrame CFA_IOVERLAY IOVERLAY
          CFI StaticOverlayFrame CFA_DOVERLAY DOVERLAY
          CFI Resource `PSW.CY`:1, `B.BR0`:1, `B.BR1`:1, `B.BR2`:1, `B.BR3`:1
          CFI Resource `B.BR4`:1, `B.BR5`:1, `B.BR6`:1, `B.BR7`:1, `VB.BR8`:1
          CFI Resource `VB.BR9`:1, `VB.BR10`:1, `VB.BR11`:1, `VB.BR12`:1
          CFI Resource `VB.BR13`:1, `VB.BR14`:1, `VB.BR15`:1, VB:8, B:8, A:8
          CFI Resource PSW:8, DPL0:8, DPH0:8, R0:8, R1:8, R2:8, R3:8, R4:8, R5:8
          CFI Resource R6:8, R7:8, V0:8, V1:8, V2:8, V3:8, V4:8, V5:8, V6:8, V7:8
          CFI Resource V8:8, V9:8, V10:8, V11:8, V12:8, V13:8, V14:8, V15:8, SP:8
          CFI Resource PSPH:8, PSPL:8, PSP16:16, XSPH:8, XSPL:8, XSP16:16
          CFI VirtualResource ?RET:24
          CFI Resource ?BRET_EXT:8
          CFI VirtualResource ?RET_HIGH:8, ?RET_LOW:8
          CFI ResourceParts PSP16 PSPH, PSPL
          CFI ResourceParts XSP16 XSPH, XSPL
          CFI ResourceParts ?RET ?BRET_EXT, ?RET_HIGH, ?RET_LOW
          CFI EndNames cfiNames0
        
          CFI Common cfiCommon0 Using cfiNames0
          CFI CodeAlign 1
          CFI DataAlign -1
          CFI ReturnAddress ?RET CODE
          CFI CFA_DOVERLAY Used
          CFI CFA_IOVERLAY Used
          CFI CFA_SP SP+-3
          CFI CFA_PSP16 PSP16+0
          CFI CFA_XSP16 XSP16+0
          CFI `PSW.CY` SameValue
          CFI `B.BR0` SameValue
          CFI `B.BR1` SameValue
          CFI `B.BR2` SameValue
          CFI `B.BR3` SameValue
          CFI `B.BR4` SameValue
          CFI `B.BR5` SameValue
          CFI `B.BR6` SameValue
          CFI `B.BR7` SameValue
          CFI `VB.BR8` SameValue
          CFI `VB.BR9` SameValue
          CFI `VB.BR10` SameValue
          CFI `VB.BR11` SameValue
          CFI `VB.BR12` SameValue
          CFI `VB.BR13` SameValue
          CFI `VB.BR14` SameValue
          CFI `VB.BR15` SameValue
          CFI VB SameValue
          CFI B Undefined
          CFI A Undefined
          CFI PSW SameValue
          CFI DPL0 SameValue
          CFI DPH0 SameValue
          CFI R0 Undefined
          CFI R1 Undefined
          CFI R2 Undefined
          CFI R3 Undefined
          CFI R4 Undefined
          CFI R5 Undefined
          CFI R6 SameValue
          CFI R7 SameValue
          CFI V0 SameValue
          CFI V1 SameValue
          CFI V2 SameValue
          CFI V3 SameValue
          CFI V4 SameValue
          CFI V5 SameValue
          CFI V6 SameValue
          CFI V7 SameValue
          CFI V8 SameValue
          CFI V9 SameValue
          CFI V10 SameValue
          CFI V11 SameValue
          CFI V12 SameValue
          CFI V13 SameValue
          CFI V14 SameValue
          CFI V15 SameValue
          CFI PSPH Undefined
          CFI PSPL Undefined
          CFI XSPH Undefined
          CFI XSPL Undefined
          CFI ?RET Concat
          CFI ?BRET_EXT Frame(CFA_SP, 3)
          CFI ?RET_HIGH Frame(CFA_SP, 2)
          CFI ?RET_LOW Frame(CFA_SP, 1)
          CFI EndCommon cfiCommon0
        
        
          CFI Common cfiCommon1 Using cfiNames0
          CFI CodeAlign 1
          CFI DataAlign -1
          CFI ReturnAddress ?RET CODE
          CFI CFA_DOVERLAY Used
          CFI CFA_IOVERLAY Used
          CFI CFA_SP SP+-2
          CFI CFA_PSP16 PSP16+0
          CFI CFA_XSP16 XSP16+0
          CFI `PSW.CY` SameValue
          CFI `B.BR0` SameValue
          CFI `B.BR1` SameValue
          CFI `B.BR2` SameValue
          CFI `B.BR3` SameValue
          CFI `B.BR4` SameValue
          CFI `B.BR5` SameValue
          CFI `B.BR6` SameValue
          CFI `B.BR7` SameValue
          CFI `VB.BR8` SameValue
          CFI `VB.BR9` SameValue
          CFI `VB.BR10` SameValue
          CFI `VB.BR11` SameValue
          CFI `VB.BR12` SameValue
          CFI `VB.BR13` SameValue
          CFI `VB.BR14` SameValue
          CFI `VB.BR15` SameValue
          CFI VB SameValue
          CFI B SameValue
          CFI A SameValue
          CFI PSW SameValue
          CFI DPL0 SameValue
          CFI DPH0 SameValue
          CFI R0 SameValue
          CFI R1 SameValue
          CFI R2 SameValue
          CFI R3 SameValue
          CFI R4 SameValue
          CFI R5 SameValue
          CFI R6 SameValue
          CFI R7 SameValue
          CFI V0 SameValue
          CFI V1 SameValue
          CFI V2 SameValue
          CFI V3 SameValue
          CFI V4 SameValue
          CFI V5 SameValue
          CFI V6 SameValue
          CFI V7 SameValue
          CFI V8 SameValue
          CFI V9 SameValue
          CFI V10 SameValue
          CFI V11 SameValue
          CFI V12 SameValue
          CFI V13 SameValue
          CFI V14 SameValue
          CFI V15 SameValue
          CFI PSPH Undefined
          CFI PSPL Undefined
          CFI XSPH Undefined
          CFI XSPL Undefined
          CFI ?RET Concat
          CFI ?BRET_EXT SameValue
          CFI ?RET_HIGH Frame(CFA_SP, 2)
          CFI ?RET_LOW Frame(CFA_SP, 1)
          CFI EndCommon cfiCommon1
        
AF_DataRequest      SYMBOL "AF_DataRequest"
`??AF_DataRequest::?relay` SYMBOL "?relay", AF_DataRequest
Authlist_item_cnt   SYMBOL "Authlist_item_cnt"
`??Authlist_item_cnt::?relay` SYMBOL "?relay", Authlist_item_cnt
Authlist_verify_device SYMBOL "Authlist_verify_device"
`??Authlist_verify_device::?relay` SYMBOL "?relay", Authlist_verify_device
CustomApp_AF_Broadcast_Data_Process SYMBOL "CustomApp_AF_Broadcast_Data_Process"
`??CustomApp_AF_Broadcast_Data_Process::?relay` SYMBOL "?relay", CustomApp_AF_Broadcast_Data_Process
CustomApp_AF_Group_Data_Process SYMBOL "CustomApp_AF_Group_Data_Process"
`??CustomApp_AF_Group_Data_Process::?relay` SYMBOL "?relay", CustomApp_AF_Group_Data_Process
CustomApp_AF_P2P_Data_Process SYMBOL "CustomApp_AF_P2P_Data_Process"
`??CustomApp_AF_P2P_Data_Process::?relay` SYMBOL "?relay", CustomApp_AF_P2P_Data_Process
CustomApp_Coordinator_Online SYMBOL "CustomApp_Coordinator_Online"
`??CustomApp_Coordinator_Online::?relay` SYMBOL "?relay", CustomApp_Coordinator_Online
CustomApp_FW_Update SYMBOL "CustomApp_FW_Update"
`??CustomApp_FW_Update::?relay` SYMBOL "?relay", CustomApp_FW_Update
CustomApp_Get_Active_Cnt SYMBOL "CustomApp_Get_Active_Cnt"
`??CustomApp_Get_Active_Cnt::?relay` SYMBOL "?relay", CustomApp_Get_Active_Cnt
CustomApp_Get_ExtAddr SYMBOL "CustomApp_Get_ExtAddr"
`??CustomApp_Get_ExtAddr::?relay` SYMBOL "?relay", CustomApp_Get_ExtAddr
CustomApp_Get_Flex_Devinfo SYMBOL "CustomApp_Get_Flex_Devinfo"
`??CustomApp_Get_Flex_Devinfo::?relay` SYMBOL "?relay", CustomApp_Get_Flex_Devinfo
CustomApp_Get_NWKInfo SYMBOL "CustomApp_Get_NWKInfo"
`??CustomApp_Get_NWKInfo::?relay` SYMBOL "?relay", CustomApp_Get_NWKInfo
CustomApp_Get_Version SYMBOL "CustomApp_Get_Version"
`??CustomApp_Get_Version::?relay` SYMBOL "?relay", CustomApp_Get_Version
CustomApp_Send_BroadCast_Data SYMBOL "CustomApp_Send_BroadCast_Data"
`??CustomApp_Send_BroadCast_Data::?relay` SYMBOL "?relay", CustomApp_Send_BroadCast_Data
CustomApp_Send_Group_Data SYMBOL "CustomApp_Send_Group_Data"
`??CustomApp_Send_Group_Data::?relay` SYMBOL "?relay", CustomApp_Send_Group_Data
CustomApp_Send_P2P_Data SYMBOL "CustomApp_Send_P2P_Data"
`??CustomApp_Send_P2P_Data::?relay` SYMBOL "?relay", CustomApp_Send_P2P_Data
CustomApp_Set_Multiway SYMBOL "CustomApp_Set_Multiway"
`??CustomApp_Set_Multiway::?relay` SYMBOL "?relay", CustomApp_Set_Multiway
CustomApp_coordinator_online_req SYMBOL "CustomApp_coordinator_online_req"
`??CustomApp_coordinator_online_req::?relay` SYMBOL "?relay", CustomApp_coordinator_online_req
CustomApp_router_online_req SYMBOL "CustomApp_router_online_req"
`??CustomApp_router_online_req::?relay` SYMBOL "?relay", CustomApp_router_online_req
HalLcdWriteString   SYMBOL "HalLcdWriteString"
`??HalLcdWriteString::?relay` SYMBOL "?relay", HalLcdWriteString
HalLcdWriteStringValue SYMBOL "HalLcdWriteStringValue"
`??HalLcdWriteStringValue::?relay` SYMBOL "?relay", HalLcdWriteStringValue
HalLedSet           SYMBOL "HalLedSet"
`??HalLedSet::?relay` SYMBOL "?relay", HalLedSet
HalUARTWrite        SYMBOL "HalUARTWrite"
`??HalUARTWrite::?relay` SYMBOL "?relay", HalUARTWrite
MT_UartCalcFCS      SYMBOL "MT_UartCalcFCS"
`??MT_UartCalcFCS::?relay` SYMBOL "?relay", MT_UartCalcFCS
NLME_GetExtAddr     SYMBOL "NLME_GetExtAddr"
`??NLME_GetExtAddr::?relay` SYMBOL "?relay", NLME_GetExtAddr
NLME_GetShortAddr   SYMBOL "NLME_GetShortAddr"
`??NLME_GetShortAddr::?relay` SYMBOL "?relay", NLME_GetShortAddr
RegisterForKeys     SYMBOL "RegisterForKeys"
`??RegisterForKeys::?relay` SYMBOL "?relay", RegisterForKeys
Register_Group_Multiway SYMBOL "Register_Group_Multiway"
`??Register_Group_Multiway::?relay` SYMBOL "?relay", Register_Group_Multiway
ZDO_ParseDeviceAnnce SYMBOL "ZDO_ParseDeviceAnnce"
`??ZDO_ParseDeviceAnnce::?relay` SYMBOL "?relay", ZDO_ParseDeviceAnnce
ZDO_ParseEPListRsp  SYMBOL "ZDO_ParseEPListRsp"
`??ZDO_ParseEPListRsp::?relay` SYMBOL "?relay", ZDO_ParseEPListRsp
ZDO_RegisterForZDOMsg SYMBOL "ZDO_RegisterForZDOMsg"
`??ZDO_RegisterForZDOMsg::?relay` SYMBOL "?relay", ZDO_RegisterForZDOMsg
ZDP_EndDeviceBindReq SYMBOL "ZDP_EndDeviceBindReq"
`??ZDP_EndDeviceBindReq::?relay` SYMBOL "?relay", ZDP_EndDeviceBindReq
ZDP_MatchDescReq    SYMBOL "ZDP_MatchDescReq"
`??ZDP_MatchDescReq::?relay` SYMBOL "?relay", ZDP_MatchDescReq
abs                 SYMBOL "abs"
`??abs::?relay`     SYMBOL "?relay", abs
afRegister          SYMBOL "afRegister"
`??afRegister::?relay` SYMBOL "?relay", afRegister
osal_getClock       SYMBOL "osal_getClock"
`??osal_getClock::?relay` SYMBOL "?relay", osal_getClock
osal_mem_alloc      SYMBOL "osal_mem_alloc"
`??osal_mem_alloc::?relay` SYMBOL "?relay", osal_mem_alloc
osal_mem_free       SYMBOL "osal_mem_free"
`??osal_mem_free::?relay` SYMBOL "?relay", osal_mem_free
osal_memcmp         SYMBOL "osal_memcmp"
`??osal_memcmp::?relay` SYMBOL "?relay", osal_memcmp
osal_memcpy         SYMBOL "osal_memcpy"
`??osal_memcpy::?relay` SYMBOL "?relay", osal_memcpy
osal_memset         SYMBOL "osal_memset"
`??osal_memset::?relay` SYMBOL "?relay", osal_memset
osal_msg_allocate   SYMBOL "osal_msg_allocate"
`??osal_msg_allocate::?relay` SYMBOL "?relay", osal_msg_allocate
osal_msg_deallocate SYMBOL "osal_msg_deallocate"
`??osal_msg_deallocate::?relay` SYMBOL "?relay", osal_msg_deallocate
osal_msg_receive    SYMBOL "osal_msg_receive"
`??osal_msg_receive::?relay` SYMBOL "?relay", osal_msg_receive
osal_start_timerEx  SYMBOL "osal_start_timerEx"
`??osal_start_timerEx::?relay` SYMBOL "?relay", osal_start_timerEx
osal_stop_timerEx   SYMBOL "osal_stop_timerEx"
`??osal_stop_timerEx::?relay` SYMBOL "?relay", osal_stop_timerEx
osal_strlen         SYMBOL "osal_strlen"
`??osal_strlen::?relay` SYMBOL "?relay", osal_strlen
sAddrExtCmp         SYMBOL "sAddrExtCmp"
`??sAddrExtCmp::?relay` SYMBOL "?relay", sAddrExtCmp
CustomApp_NodeDelete SYMBOL "CustomApp_NodeDelete"
`??CustomApp_NodeDelete::?relay` SYMBOL "?relay", CustomApp_NodeDelete
CustomApp_NodeFindMacAddrList SYMBOL "CustomApp_NodeFindMacAddrList"
`??CustomApp_NodeFindMacAddrList::?relay` SYMBOL "?relay", CustomApp_NodeFindMacAddrList
CustomApp_NodeFindNwkAddrList SYMBOL "CustomApp_NodeFindNwkAddrList"
`??CustomApp_NodeFindNwkAddrList::?relay` SYMBOL "?relay", CustomApp_NodeFindNwkAddrList
CustomApp_NodeRegister SYMBOL "CustomApp_NodeRegister"
`??CustomApp_NodeRegister::?relay` SYMBOL "?relay", CustomApp_NodeRegister
CustomApp_coordinater_broadcast_ping SYMBOL "CustomApp_coordinater_broadcast_ping"
`??CustomApp_coordinater_broadcast_ping::?relay` SYMBOL "?relay", CustomApp_coordinater_broadcast_ping
CustomApp_coordinater_broadcast_ping_init SYMBOL "CustomApp_coordinater_broadcast_ping_init"
`??CustomApp_coordinater_broadcast_ping_init::?r` SYMBOL "?relay", CustomApp_coordinater_broadcast_ping_init
CustomApp_get_connected_node_count SYMBOL "CustomApp_get_connected_node_count"
`??CustomApp_get_connected_node_count::?relay` SYMBOL "?relay", CustomApp_get_connected_node_count
CustomApp_linkstatus_init SYMBOL "CustomApp_linkstatus_init"
`??CustomApp_linkstatus_init::?relay` SYMBOL "?relay", CustomApp_linkstatus_init
CustomApp_linkstatus_updated SYMBOL "CustomApp_linkstatus_updated"
`??CustomApp_linkstatus_updated::?relay` SYMBOL "?relay", CustomApp_linkstatus_updated
CustomApp_loadstatus_ind SYMBOL "CustomApp_loadstatus_ind"
`??CustomApp_loadstatus_ind::?relay` SYMBOL "?relay", CustomApp_loadstatus_ind
CustomApp_node_deregister_ind SYMBOL "CustomApp_node_deregister_ind"
`??CustomApp_node_deregister_ind::?relay` SYMBOL "?relay", CustomApp_node_deregister_ind
CustomApp_node_register_ind SYMBOL "CustomApp_node_register_ind"
`??CustomApp_node_register_ind::?relay` SYMBOL "?relay", CustomApp_node_register_ind
CustomApp_ping_request_init SYMBOL "CustomApp_ping_request_init"
`??CustomApp_ping_request_init::?relay` SYMBOL "?relay", CustomApp_ping_request_init
CustomApp_ping_timeout_check SYMBOL "CustomApp_ping_timeout_check"
`??CustomApp_ping_timeout_check::?relay` SYMBOL "?relay", CustomApp_ping_timeout_check
CustomApp_ping_timeout_check_init SYMBOL "CustomApp_ping_timeout_check_init"
`??CustomApp_ping_timeout_check_init::?relay` SYMBOL "?relay", CustomApp_ping_timeout_check_init
CustomApp_process_ping SYMBOL "CustomApp_process_ping"
`??CustomApp_process_ping::?relay` SYMBOL "?relay", CustomApp_process_ping
CustomApp_send_ping_req SYMBOL "CustomApp_send_ping_req"
`??CustomApp_send_ping_req::?relay` SYMBOL "?relay", CustomApp_send_ping_req
CustomApp_send_ping_rsp SYMBOL "CustomApp_send_ping_rsp"
`??CustomApp_send_ping_rsp::?relay` SYMBOL "?relay", CustomApp_send_ping_rsp
CustomApp_zigbee_start_ind SYMBOL "CustomApp_zigbee_start_ind"
`??CustomApp_zigbee_start_ind::?relay` SYMBOL "?relay", CustomApp_zigbee_start_ind
GenericApp_Device_JoinReq SYMBOL "GenericApp_Device_JoinReq"
`??GenericApp_Device_JoinReq::?relay` SYMBOL "?relay", GenericApp_Device_JoinReq
GenericApp_Device_JoinRsp SYMBOL "GenericApp_Device_JoinRsp"
`??GenericApp_Device_JoinRsp::?relay` SYMBOL "?relay", GenericApp_Device_JoinRsp
GenericApp_Free_Join_DeviceInfo SYMBOL "GenericApp_Free_Join_DeviceInfo"
`??GenericApp_Free_Join_DeviceInfo::?relay` SYMBOL "?relay", GenericApp_Free_Join_DeviceInfo
GenericApp_Get_PermitJoin SYMBOL "GenericApp_Get_PermitJoin"
`??GenericApp_Get_PermitJoin::?relay` SYMBOL "?relay", GenericApp_Get_PermitJoin
GenericApp_Init     SYMBOL "GenericApp_Init"
`??GenericApp_Init::?relay` SYMBOL "?relay", GenericApp_Init
GenericApp_ProcessEvent SYMBOL "GenericApp_ProcessEvent"
`??GenericApp_ProcessEvent::?relay` SYMBOL "?relay", GenericApp_ProcessEvent

        EXTERN `??AF_DataRequest::?relay`
        FUNCTION `??AF_DataRequest::?relay`,00H
        EXTERN `??Authlist_item_cnt::?relay`
        FUNCTION `??Authlist_item_cnt::?relay`,00H
        EXTERN `??Authlist_verify_device::?relay`
        FUNCTION `??Authlist_verify_device::?relay`,00H
        EXTERN `??CustomApp_AF_Broadcast_Data_Process::?relay`
        FUNCTION `??CustomApp_AF_Broadcast_Data_Process::?relay`,00H
        EXTERN `??CustomApp_AF_Group_Data_Process::?relay`
        FUNCTION `??CustomApp_AF_Group_Data_Process::?relay`,00H
        EXTERN `??CustomApp_AF_P2P_Data_Process::?relay`
        FUNCTION `??CustomApp_AF_P2P_Data_Process::?relay`,00H
        EXTERN `??CustomApp_Coordinator_Online::?relay`
        FUNCTION `??CustomApp_Coordinator_Online::?relay`,00H
        EXTERN `??CustomApp_FW_Update::?relay`
        FUNCTION `??CustomApp_FW_Update::?relay`,00H
        EXTERN `??CustomApp_Get_Active_Cnt::?relay`
        FUNCTION `??CustomApp_Get_Active_Cnt::?relay`,00H
        EXTERN `??CustomApp_Get_ExtAddr::?relay`
        FUNCTION `??CustomApp_Get_ExtAddr::?relay`,00H
        EXTERN `??CustomApp_Get_Flex_Devinfo::?relay`
        FUNCTION `??CustomApp_Get_Flex_Devinfo::?relay`,00H
        EXTERN `??CustomApp_Get_NWKInfo::?relay`
        FUNCTION `??CustomApp_Get_NWKInfo::?relay`,00H
        EXTERN `??CustomApp_Get_Version::?relay`
        FUNCTION `??CustomApp_Get_Version::?relay`,00H
        EXTERN `??CustomApp_Send_BroadCast_Data::?relay`
        FUNCTION `??CustomApp_Send_BroadCast_Data::?relay`,00H
        EXTERN `??CustomApp_Send_Group_Data::?relay`
        FUNCTION `??CustomApp_Send_Group_Data::?relay`,00H
        EXTERN `??CustomApp_Send_P2P_Data::?relay`
        FUNCTION `??CustomApp_Send_P2P_Data::?relay`,00H
        EXTERN `??CustomApp_Set_Multiway::?relay`
        FUNCTION `??CustomApp_Set_Multiway::?relay`,00H
        EXTERN `??CustomApp_coordinator_online_req::?relay`
        FUNCTION `??CustomApp_coordinator_online_req::?relay`,00H
        EXTERN `??CustomApp_router_online_req::?relay`
        FUNCTION `??CustomApp_router_online_req::?relay`,00H
        EXTERN `??HalLcdWriteString::?relay`
        FUNCTION `??HalLcdWriteString::?relay`,00H
        EXTERN `??HalLcdWriteStringValue::?relay`
        FUNCTION `??HalLcdWriteStringValue::?relay`,00H
        EXTERN `??HalLedSet::?relay`
        FUNCTION `??HalLedSet::?relay`,00H
        EXTERN `??HalUARTWrite::?relay`
        FUNCTION `??HalUARTWrite::?relay`,00H
        EXTERN `??MT_UartCalcFCS::?relay`
        FUNCTION `??MT_UartCalcFCS::?relay`,00H
        EXTERN `??NLME_GetExtAddr::?relay`
        FUNCTION `??NLME_GetExtAddr::?relay`,00H
        EXTERN `??NLME_GetShortAddr::?relay`
        FUNCTION `??NLME_GetShortAddr::?relay`,00H
        EXTERN `??RegisterForKeys::?relay`
        FUNCTION `??RegisterForKeys::?relay`,00H
        EXTERN `??Register_Group_Multiway::?relay`
        FUNCTION `??Register_Group_Multiway::?relay`,00H
        EXTERN `??ZDO_ParseDeviceAnnce::?relay`
        FUNCTION `??ZDO_ParseDeviceAnnce::?relay`,00H
        EXTERN `??ZDO_ParseEPListRsp::?relay`
        FUNCTION `??ZDO_ParseEPListRsp::?relay`,00H
        EXTERN `??ZDO_RegisterForZDOMsg::?relay`
        FUNCTION `??ZDO_RegisterForZDOMsg::?relay`,00H
        EXTERN `??ZDP_EndDeviceBindReq::?relay`
        FUNCTION `??ZDP_EndDeviceBindReq::?relay`,00H
        EXTERN `??ZDP_MatchDescReq::?relay`
        FUNCTION `??ZDP_MatchDescReq::?relay`,00H
        EXTERN `??abs::?relay`
        FUNCTION `??abs::?relay`,00H
        EXTERN `??afRegister::?relay`
        FUNCTION `??afRegister::?relay`,00H
        EXTERN `??osal_getClock::?relay`
        FUNCTION `??osal_getClock::?relay`,00H
        EXTERN `??osal_mem_alloc::?relay`
        FUNCTION `??osal_mem_alloc::?relay`,00H
        EXTERN `??osal_mem_free::?relay`
        FUNCTION `??osal_mem_free::?relay`,00H
        EXTERN `??osal_memcmp::?relay`
        FUNCTION `??osal_memcmp::?relay`,00H
        EXTERN `??osal_memcpy::?relay`
        FUNCTION `??osal_memcpy::?relay`,00H
        EXTERN `??osal_memset::?relay`
        FUNCTION `??osal_memset::?relay`,00H
        EXTERN `??osal_msg_allocate::?relay`
        FUNCTION `??osal_msg_allocate::?relay`,00H
        EXTERN `??osal_msg_deallocate::?relay`
        FUNCTION `??osal_msg_deallocate::?relay`,00H
        EXTERN `??osal_msg_receive::?relay`
        FUNCTION `??osal_msg_receive::?relay`,00H
        EXTERN `??osal_start_timerEx::?relay`
        FUNCTION `??osal_start_timerEx::?relay`,00H
        EXTERN `??osal_stop_timerEx::?relay`
        FUNCTION `??osal_stop_timerEx::?relay`,00H
        EXTERN `??osal_strlen::?relay`
        FUNCTION `??osal_strlen::?relay`,00H
        EXTERN `??sAddrExtCmp::?relay`
        FUNCTION `??sAddrExtCmp::?relay`,00H
        EXTERN AF_DataRequest
        FUNCTION AF_DataRequest,0202H
        ARGFRAME ISTACK, 0, STACK
        ARGFRAME PSTACK, 0, STACK
        ARGFRAME XSTACK, 227, STACK
        ARGFRAME IOVERLAY, 0, STATIC
        ARGFRAME DOVERLAY, 0, STATIC
        EXTERN Authlist_item_cnt
        FUNCTION Authlist_item_cnt,0202H
        ARGFRAME ISTACK, 0, STACK
        ARGFRAME PSTACK, 0, STACK
        ARGFRAME XSTACK, 12, STACK
        ARGFRAME IOVERLAY, 0, STATIC
        ARGFRAME DOVERLAY, 0, STATIC
        EXTERN Authlist_verify_device
        FUNCTION Authlist_verify_device,0202H
        ARGFRAME ISTACK, 0, STACK
        ARGFRAME PSTACK, 0, STACK
        ARGFRAME XSTACK, 128, STACK
        ARGFRAME IOVERLAY, 0, STATIC
        ARGFRAME DOVERLAY, 0, STATIC
        EXTERN CustomApp_AF_Broadcast_Data_Process
        FUNCTION CustomApp_AF_Broadcast_Data_Process,0202H
        ARGFRAME ISTACK, 0, STACK
        ARGFRAME PSTACK, 0, STACK
        ARGFRAME XSTACK, 12, STACK
        ARGFRAME IOVERLAY, 0, STATIC
        ARGFRAME DOVERLAY, 0, STATIC
        EXTERN CustomApp_AF_Group_Data_Process
        FUNCTION CustomApp_AF_Group_Data_Process,0202H
        ARGFRAME ISTACK, 0, STACK
        ARGFRAME PSTACK, 0, STACK
        ARGFRAME XSTACK, 12, STACK
        ARGFRAME IOVERLAY, 0, STATIC
        ARGFRAME DOVERLAY, 0, STATIC
        EXTERN CustomApp_AF_P2P_Data_Process
        FUNCTION CustomApp_AF_P2P_Data_Process,0202H
        ARGFRAME ISTACK, 0, STACK
        ARGFRAME PSTACK, 0, STACK
        ARGFRAME XSTACK, 12, STACK
        ARGFRAME IOVERLAY, 0, STATIC
        ARGFRAME DOVERLAY, 0, STATIC
        EXTERN CustomApp_Coordinator_Online
        FUNCTION CustomApp_Coordinator_Online,0202H
        ARGFRAME ISTACK, 0, STACK
        ARGFRAME PSTACK, 0, STACK
        ARGFRAME XSTACK, 12, STACK
        ARGFRAME IOVERLAY, 0, STATIC
        ARGFRAME DOVERLAY, 0, STATIC
        EXTERN CustomApp_FW_Update
        FUNCTION CustomApp_FW_Update,0202H
        ARGFRAME ISTACK, 0, STACK
        ARGFRAME PSTACK, 0, STACK
        ARGFRAME XSTACK, 24, STACK
        ARGFRAME IOVERLAY, 0, STATIC
        ARGFRAME DOVERLAY, 0, STATIC
        EXTERN CustomApp_Get_Active_Cnt
        FUNCTION CustomApp_Get_Active_Cnt,0202H
        ARGFRAME ISTACK, 0, STACK
        ARGFRAME PSTACK, 0, STACK
        ARGFRAME XSTACK, 24, STACK
        ARGFRAME IOVERLAY, 0, STATIC
        ARGFRAME DOVERLAY, 0, STATIC
        EXTERN CustomApp_Get_ExtAddr
        FUNCTION CustomApp_Get_ExtAddr,0202H
        ARGFRAME ISTACK, 0, STACK
        ARGFRAME PSTACK, 0, STACK
        ARGFRAME XSTACK, 24, STACK
        ARGFRAME IOVERLAY, 0, STATIC
        ARGFRAME DOVERLAY, 0, STATIC
        EXTERN CustomApp_Get_Flex_Devinfo
        FUNCTION CustomApp_Get_Flex_Devinfo,0202H
        ARGFRAME ISTACK, 0, STACK
        ARGFRAME PSTACK, 0, STACK
        ARGFRAME XSTACK, 12, STACK
        ARGFRAME IOVERLAY, 0, STATIC
        ARGFRAME DOVERLAY, 0, STATIC
        EXTERN CustomApp_Get_NWKInfo
        FUNCTION CustomApp_Get_NWKInfo,0202H
        ARGFRAME ISTACK, 0, STACK
        ARGFRAME PSTACK, 0, STACK
        ARGFRAME XSTACK, 24, STACK
        ARGFRAME IOVERLAY, 0, STATIC
        ARGFRAME DOVERLAY, 0, STATIC
        EXTERN CustomApp_Get_Version
        FUNCTION CustomApp_Get_Version,0202H
        ARGFRAME ISTACK, 0, STACK
        ARGFRAME PSTACK, 0, STACK
        ARGFRAME XSTACK, 24, STACK
        ARGFRAME IOVERLAY, 0, STATIC
        ARGFRAME DOVERLAY, 0, STATIC
        EXTERN CustomApp_Send_BroadCast_Data
        FUNCTION CustomApp_Send_BroadCast_Data,0202H
        ARGFRAME ISTACK, 0, STACK
        ARGFRAME PSTACK, 0, STACK
        ARGFRAME XSTACK, 24, STACK
        ARGFRAME IOVERLAY, 0, STATIC
        ARGFRAME DOVERLAY, 0, STATIC
        EXTERN CustomApp_Send_Group_Data
        FUNCTION CustomApp_Send_Group_Data,0202H
        ARGFRAME ISTACK, 0, STACK
        ARGFRAME PSTACK, 0, STACK
        ARGFRAME XSTACK, 24, STACK
        ARGFRAME IOVERLAY, 0, STATIC
        ARGFRAME DOVERLAY, 0, STATIC
        EXTERN CustomApp_Send_P2P_Data
        FUNCTION CustomApp_Send_P2P_Data,0202H
        ARGFRAME ISTACK, 0, STACK
        ARGFRAME PSTACK, 0, STACK
        ARGFRAME XSTACK, 24, STACK
        ARGFRAME IOVERLAY, 0, STATIC
        ARGFRAME DOVERLAY, 0, STATIC
        EXTERN CustomApp_Set_Multiway
        FUNCTION CustomApp_Set_Multiway,0202H
        ARGFRAME ISTACK, 0, STACK
        ARGFRAME PSTACK, 0, STACK
        ARGFRAME XSTACK, 24, STACK
        ARGFRAME IOVERLAY, 0, STATIC
        ARGFRAME DOVERLAY, 0, STATIC
        EXTERN CustomApp_coordinator_online_req
        FUNCTION CustomApp_coordinator_online_req,0202H
        ARGFRAME ISTACK, 0, STACK
        ARGFRAME PSTACK, 0, STACK
        ARGFRAME XSTACK, 24, STACK
        ARGFRAME IOVERLAY, 0, STATIC
        ARGFRAME DOVERLAY, 0, STATIC
        EXTERN CustomApp_router_online_req
        FUNCTION CustomApp_router_online_req,0202H
        ARGFRAME ISTACK, 0, STACK
        ARGFRAME PSTACK, 0, STACK
        ARGFRAME XSTACK, 25, STACK
        ARGFRAME IOVERLAY, 0, STATIC
        ARGFRAME DOVERLAY, 0, STATIC
        EXTERN HalLcdWriteString
        FUNCTION HalLcdWriteString,0202H
        ARGFRAME ISTACK, 0, STACK
        ARGFRAME PSTACK, 0, STACK
        ARGFRAME XSTACK, 12, STACK
        ARGFRAME IOVERLAY, 0, STATIC
        ARGFRAME DOVERLAY, 0, STATIC
        EXTERN HalLcdWriteStringValue
        FUNCTION HalLcdWriteStringValue,0202H
        ARGFRAME ISTACK, 0, STACK
        ARGFRAME PSTACK, 0, STACK
        ARGFRAME XSTACK, 40, STACK
        ARGFRAME IOVERLAY, 0, STATIC
        ARGFRAME DOVERLAY, 0, STATIC
        EXTERN HalLedSet
        FUNCTION HalLedSet,0202H
        ARGFRAME ISTACK, 0, STACK
        ARGFRAME PSTACK, 0, STACK
        ARGFRAME XSTACK, 39, STACK
        ARGFRAME IOVERLAY, 0, STATIC
        ARGFRAME DOVERLAY, 0, STATIC
        EXTERN HalUARTWrite
        FUNCTION HalUARTWrite,0202H
        ARGFRAME ISTACK, 0, STACK
        ARGFRAME PSTACK, 0, STACK
        ARGFRAME XSTACK, 42, STACK
        ARGFRAME IOVERLAY, 0, STATIC
        ARGFRAME DOVERLAY, 0, STATIC
        EXTERN MT_UartCalcFCS
        FUNCTION MT_UartCalcFCS,0202H
        ARGFRAME ISTACK, 0, STACK
        ARGFRAME PSTACK, 0, STACK
        ARGFRAME XSTACK, 218, STACK
        ARGFRAME IOVERLAY, 0, STATIC
        ARGFRAME DOVERLAY, 0, STATIC
        EXTERN NLME_GetExtAddr
        FUNCTION NLME_GetExtAddr,0202H
        ARGFRAME ISTACK, 0, STACK
        ARGFRAME PSTACK, 0, STACK
        ARGFRAME XSTACK, 27, STACK
        ARGFRAME IOVERLAY, 0, STATIC
        ARGFRAME DOVERLAY, 0, STATIC
        EXTERN NLME_GetShortAddr
        FUNCTION NLME_GetShortAddr,0202H
        ARGFRAME ISTACK, 0, STACK
        ARGFRAME PSTACK, 0, STACK
        ARGFRAME XSTACK, 218, STACK
        ARGFRAME IOVERLAY, 0, STATIC
        ARGFRAME DOVERLAY, 0, STATIC
        EXTERN Onboard_soft_reset
        FUNCTION Onboard_soft_reset,0202H
        ARGFRAME ISTACK, 0, STACK
        ARGFRAME PSTACK, 0, STACK
        ARGFRAME XSTACK, 24, STACK
        ARGFRAME IOVERLAY, 0, STATIC
        ARGFRAME DOVERLAY, 0, STATIC
        EXTERN RegisterForKeys
        FUNCTION RegisterForKeys,0202H
        ARGFRAME ISTACK, 0, STACK
        ARGFRAME PSTACK, 0, STACK
        ARGFRAME XSTACK, 9, STACK
        ARGFRAME IOVERLAY, 0, STATIC
        ARGFRAME DOVERLAY, 0, STATIC
        EXTERN Register_Group_Multiway
        FUNCTION Register_Group_Multiway,0202H
        ARGFRAME ISTACK, 0, STACK
        ARGFRAME PSTACK, 0, STACK
        ARGFRAME XSTACK, 9, STACK
        ARGFRAME IOVERLAY, 0, STATIC
        ARGFRAME DOVERLAY, 0, STATIC
        EXTERN ZDO_ParseDeviceAnnce
        FUNCTION ZDO_ParseDeviceAnnce,0202H
        ARGFRAME ISTACK, 0, STACK
        ARGFRAME PSTACK, 0, STACK
        ARGFRAME XSTACK, 39, STACK
        ARGFRAME IOVERLAY, 0, STATIC
        ARGFRAME DOVERLAY, 0, STATIC
        EXTERN ZDO_ParseEPListRsp
        FUNCTION ZDO_ParseEPListRsp,0202H
        ARGFRAME ISTACK, 0, STACK
        ARGFRAME PSTACK, 0, STACK
        ARGFRAME XSTACK, 39, STACK
        ARGFRAME IOVERLAY, 0, STATIC
        ARGFRAME DOVERLAY, 0, STATIC
        EXTERN ZDO_RegisterForZDOMsg
        FUNCTION ZDO_RegisterForZDOMsg,0202H
        ARGFRAME ISTACK, 0, STACK
        ARGFRAME PSTACK, 0, STACK
        ARGFRAME XSTACK, 9, STACK
        ARGFRAME IOVERLAY, 0, STATIC
        ARGFRAME DOVERLAY, 0, STATIC
        EXTERN ZDP_EndDeviceBindReq
        FUNCTION ZDP_EndDeviceBindReq,0202H
        ARGFRAME ISTACK, 0, STACK
        ARGFRAME PSTACK, 0, STACK
        ARGFRAME XSTACK, 30, STACK
        ARGFRAME IOVERLAY, 0, STATIC
        ARGFRAME DOVERLAY, 0, STATIC
        EXTERN ZDP_MatchDescReq
        FUNCTION ZDP_MatchDescReq,0202H
        ARGFRAME ISTACK, 0, STACK
        ARGFRAME PSTACK, 0, STACK
        ARGFRAME XSTACK, 29, STACK
        ARGFRAME IOVERLAY, 0, STATIC
        ARGFRAME DOVERLAY, 0, STATIC
        EXTERN _NIB
        EXTERN abs
        FUNCTION abs,010202H
        ARGFRAME ISTACK, 0, STACK
        ARGFRAME PSTACK, 0, STACK
        ARGFRAME XSTACK, 16, STACK
        ARGFRAME IOVERLAY, 0, STATIC
        ARGFRAME DOVERLAY, 0, STATIC
        EXTERN afRegister
        FUNCTION afRegister,0202H
        ARGFRAME ISTACK, 0, STACK
        ARGFRAME PSTACK, 0, STACK
        ARGFRAME XSTACK, 9, STACK
        ARGFRAME IOVERLAY, 0, STATIC
        ARGFRAME DOVERLAY, 0, STATIC
        EXTERN devState
        EXTERN join_device_extaddr
        EXTERN osal_getClock
        FUNCTION osal_getClock,0202H
        ARGFRAME ISTACK, 0, STACK
        ARGFRAME PSTACK, 0, STACK
        ARGFRAME XSTACK, 16, STACK
        ARGFRAME IOVERLAY, 0, STATIC
        ARGFRAME DOVERLAY, 0, STATIC
        EXTERN osal_mem_alloc
        FUNCTION osal_mem_alloc,0202H
        ARGFRAME ISTACK, 0, STACK
        ARGFRAME PSTACK, 0, STACK
        ARGFRAME XSTACK, 39, STACK
        ARGFRAME IOVERLAY, 0, STATIC
        ARGFRAME DOVERLAY, 0, STATIC
        EXTERN osal_mem_free
        FUNCTION osal_mem_free,0202H
        ARGFRAME ISTACK, 0, STACK
        ARGFRAME PSTACK, 0, STACK
        ARGFRAME XSTACK, 39, STACK
        ARGFRAME IOVERLAY, 0, STATIC
        ARGFRAME DOVERLAY, 0, STATIC
        EXTERN osal_memcmp
        FUNCTION osal_memcmp,0202H
        ARGFRAME ISTACK, 0, STACK
        ARGFRAME PSTACK, 0, STACK
        ARGFRAME XSTACK, 26, STACK
        ARGFRAME IOVERLAY, 0, STATIC
        ARGFRAME DOVERLAY, 0, STATIC
        EXTERN osal_memcpy
        FUNCTION osal_memcpy,0202H
        ARGFRAME ISTACK, 0, STACK
        ARGFRAME PSTACK, 0, STACK
        ARGFRAME XSTACK, 221, STACK
        ARGFRAME IOVERLAY, 0, STATIC
        ARGFRAME DOVERLAY, 0, STATIC
        EXTERN osal_memset
        FUNCTION osal_memset,0202H
        ARGFRAME ISTACK, 0, STACK
        ARGFRAME PSTACK, 0, STACK
        ARGFRAME XSTACK, 127, STACK
        ARGFRAME IOVERLAY, 0, STATIC
        ARGFRAME DOVERLAY, 0, STATIC
        EXTERN osal_msg_allocate
        FUNCTION osal_msg_allocate,0202H
        ARGFRAME ISTACK, 0, STACK
        ARGFRAME PSTACK, 0, STACK
        ARGFRAME XSTACK, 218, STACK
        ARGFRAME IOVERLAY, 0, STATIC
        ARGFRAME DOVERLAY, 0, STATIC
        EXTERN osal_msg_deallocate
        FUNCTION osal_msg_deallocate,0202H
        ARGFRAME ISTACK, 0, STACK
        ARGFRAME PSTACK, 0, STACK
        ARGFRAME XSTACK, 218, STACK
        ARGFRAME IOVERLAY, 0, STATIC
        ARGFRAME DOVERLAY, 0, STATIC
        EXTERN osal_msg_receive
        FUNCTION osal_msg_receive,0202H
        ARGFRAME ISTACK, 0, STACK
        ARGFRAME PSTACK, 0, STACK
        ARGFRAME XSTACK, 24, STACK
        ARGFRAME IOVERLAY, 0, STATIC
        ARGFRAME DOVERLAY, 0, STATIC
        EXTERN osal_start_timerEx
        FUNCTION osal_start_timerEx,0202H
        ARGFRAME ISTACK, 2, STACK
        ARGFRAME PSTACK, 0, STACK
        ARGFRAME XSTACK, 28, STACK
        ARGFRAME IOVERLAY, 0, STATIC
        ARGFRAME DOVERLAY, 0, STATIC
        EXTERN osal_stop_timerEx
        FUNCTION osal_stop_timerEx,0202H
        ARGFRAME ISTACK, 0, STACK
        ARGFRAME PSTACK, 0, STACK
        ARGFRAME XSTACK, 24, STACK
        ARGFRAME IOVERLAY, 0, STATIC
        ARGFRAME DOVERLAY, 0, STATIC
        EXTERN osal_strlen
        FUNCTION osal_strlen,0202H
        ARGFRAME ISTACK, 0, STACK
        ARGFRAME PSTACK, 0, STACK
        ARGFRAME XSTACK, 24, STACK
        ARGFRAME IOVERLAY, 0, STATIC
        ARGFRAME DOVERLAY, 0, STATIC
        EXTERN sAddrExtCmp
        FUNCTION sAddrExtCmp,0202H
        ARGFRAME ISTACK, 0, STACK
        ARGFRAME PSTACK, 0, STACK
        ARGFRAME XSTACK, 10, STACK
        ARGFRAME IOVERLAY, 0, STATIC
        ARGFRAME DOVERLAY, 0, STATIC
        EXTERN zdo_join_device
        EXTERN zgConfigPANID

// C:\Texas Instruments\Z-Stack Mesh 1.0.0_chaokw_20160317\Z-Stack Mesh 1.0.0_chaokw_20160316\Z-Stack Mesh 1.0.0_LCDOK\Z-Stack Mesh 1.0.0\Projects\zstack\Samples\GenericApp\Source\GenericApp.c
//    1 /******************************************************************************
//    2   Filename:       GenericApp.c
//    3   Revised:        $Date: 2014-09-07 13:36:30 -0700 (Sun, 07 Sep 2014) $
//    4   Revision:       $Revision: 40046 $
//    5 
//    6   Description:    Generic Application (no Profile).
//    7 
//    8 
//    9   Copyright 2004-2014 Texas Instruments Incorporated. All rights reserved.
//   10 
//   11   IMPORTANT: Your use of this Software is limited to those specific rights
//   12   granted under the terms of a software license agreement between the user
//   13   who downloaded the software, his/her employer (which must be your employer)
//   14   and Texas Instruments Incorporated (the "License"). You may not use this
//   15   Software unless you agree to abide by the terms of the License. The License
//   16   limits your use, and you acknowledge, that the Software may not be modified,
//   17   copied or distributed unless embedded on a Texas Instruments microcontroller
//   18   or used solely and exclusively in conjunction with a Texas Instruments radio
//   19   frequency transceiver, which is integrated into your product. Other than for
//   20   the foregoing purpose, you may not use, reproduce, copy, prepare derivative
//   21   works of, modify, distribute, perform, display or sell this Software and/or
//   22   its documentation for any purpose.
//   23 
//   24   YOU FURTHER ACKNOWLEDGE AND AGREE THAT THE SOFTWARE AND DOCUMENTATION ARE
//   25   PROVIDED AS IS WITHOUT WARRANTY OF ANY KIND, EITHER EXPRESS OR IMPLIED,
//   26   INCLUDING WITHOUT LIMITATION, ANY WARRANTY OF MERCHANTABILITY, TITLE,
//   27   NON-INFRINGEMENT AND FITNESS FOR A PARTICULAR PURPOSE. IN NO EVENT SHALL
//   28   TEXAS INSTRUMENTS OR ITS LICENSORS BE LIABLE OR OBLIGATED UNDER CONTRACT,
//   29   NEGLIGENCE, STRICT LIABILITY, CONTRIBUTION, BREACH OF WARRANTY, OR OTHER
//   30   LEGAL EQUITABLE THEORY ANY DIRECT OR INDIRECT DAMAGES OR EXPENSES
//   31   INCLUDING BUT NOT LIMITED TO ANY INCIDENTAL, SPECIAL, INDIRECT, PUNITIVE
//   32   OR CONSEQUENTIAL DAMAGES, LOST PROFITS OR LOST DATA, COST OF PROCUREMENT
//   33   OF SUBSTITUTE GOODS, TECHNOLOGY, SERVICES, OR ANY CLAIMS BY THIRD PARTIES
//   34   (INCLUDING BUT NOT LIMITED TO ANY DEFENSE THEREOF), OR OTHER SIMILAR COSTS.
//   35 
//   36   Should you have any questions regarding your right to use this Software,
//   37   contact Texas Instruments Incorporated at www.TI.com.
//   38 ******************************************************************************/
//   39 
//   40 /*********************************************************************
//   41   This application isn't intended to do anything useful - it is
//   42   intended to be a simple example of an application's structure.
//   43 
//   44   This application periodically sends a "Hello World" message to
//   45   another "Generic" application (see 'txMsgDelay'). The application
//   46   will also receive "Hello World" packets.
//   47 
//   48   This application doesn't have a profile, so it handles everything
//   49   directly - by itself.
//   50 
//   51   Key control:
//   52     SW1:  changes the delay between TX packets
//   53     SW2:  initiates end device binding
//   54     SW3:
//   55     SW4:  initiates a match description request
//   56 *********************************************************************/
//   57 
//   58 /*********************************************************************
//   59  * INCLUDES
//   60  */
//   61 #include "OSAL.h"
//   62 #include "AF.h"
//   63 #include "ZDApp.h"
//   64 #include "ZDObject.h"
//   65 #include "ZDProfile.h"
//   66 
//   67 #include "GenericApp.h"
//   68 #include "DebugTrace.h"
//   69 
//   70 #if !defined( WIN32 ) || defined( ZBIT )
//   71   #include "OnBoard.h"
//   72 #endif
//   73 
//   74 /* HAL */
//   75 #include "hal_lcd.h"
//   76 #include "hal_led.h"
//   77 #include "hal_key.h"
//   78 #include "hal_uart.h"
//   79 
//   80 #include "MT_UART.h"
//   81 #include "OSAL_Clock.h"
//   82 
//   83 #include "ZDSecMgr.h"
//   84 #include "ProtocolHandler.h"
//   85 #include "NodeAuth.h"
//   86 
//   87 #include "stdlib.h"
//   88 
//   89 /* RTOS */
//   90 #if defined( IAR_ARMCM3_LM )
//   91 #include "RTOS_App.h"
//   92 #endif
//   93 
//   94 /*********************************************************************
//   95  * MACROS
//   96  */
//   97 
//   98 /*********************************************************************
//   99  * CONSTANTS
//  100  */
//  101 
//  102 /*********************************************************************
//  103  * TYPEDEFS
//  104  */
//  105 
//  106 /*********************************************************************
//  107  * GLOBAL VARIABLES
//  108  */
//  109 // This list should be filled with Application specific Cluster IDs.

        RSEG XDATA_ROM_C:CONST:REORDER:NOROOT(0)
        DATA8
//  110 const cId_t GenericApp_ClusterList[GENERICAPP_MAX_CLUSTERS] =
GenericApp_ClusterList:
        DATA16
        DW 1
        DW 2
        DW 3
        DW 4
        DW 5
        DW 6
        DW 7
//  111 {
//  112   GENERICAPP_CLUSTERID,					  
//  113   GENERICAPP_DATA_P2P_CLUSTERID, 		  
//  114   GENERICAPP_GROUP_CLUSTERID,		  
//  115   GENERICAPP_CMD_P2P_CLUSTERID,			  
//  116   GENERICAPP_BROADCAST_CLUSTERID,
//  117   GENERICAPP_P2P_PERMIT_JOIN_REQ_CLUSTERID,
//  118   GENERICAPP_P2P_PERMIT_JOIN_RSP_CLUSTERID
//  119 };
//  120 

        RSEG XDATA_ROM_C:CONST:REORDER:NOROOT(0)
        DATA8
//  121 const SimpleDescriptionFormat_t GenericApp_SimpleDesc =
GenericApp_SimpleDesc:
        DB 10
        DATA16
        DW 3844
        DW 1
        DATA8
        DB 0
        DB 7
        DATA16
        DW GenericApp_ClusterList
        DATA8
        DB 7
        DATA16
        DW GenericApp_ClusterList
//  122 {
//  123   GENERICAPP_ENDPOINT,              //  int Endpoint;
//  124   GENERICAPP_PROFID,                //  uint16 AppProfId[2];
//  125   GENERICAPP_DEVICEID,              //  uint16 AppDeviceId[2];
//  126   GENERICAPP_DEVICE_VERSION,        //  int   AppDevVer:4;
//  127   GENERICAPP_FLAGS,                 //  int   AppFlags:4;
//  128   GENERICAPP_MAX_CLUSTERS,          //  byte  AppNumInClusters;
//  129   (cId_t *)GenericApp_ClusterList,  //  byte *pAppInClusterList;
//  130   GENERICAPP_MAX_CLUSTERS,          //  byte  AppNumInClusters;
//  131   (cId_t *)GenericApp_ClusterList   //  byte *pAppInClusterList;
//  132 };
//  133 
//  134 // This is the Endpoint/Interface description.  It is defined here, but
//  135 // filled-in in GenericApp_Init().  Another way to go would be to fill
//  136 // in the structure here and make it a "const" (in code space).  The
//  137 // way it's defined in this sample app it is define in RAM.

        RSEG XDATA_Z:XDATA:NOROOT(0)
        DATA8
//  138 endPointDesc_t GenericApp_epDesc;
GenericApp_epDesc:
        DS 6
        REQUIRE __INIT_XDATA_Z
//  139 
//  140 

        RSEG XDATA_Z:XDATA:NOROOT(0)
        DATA16
//  141 nodeList_t *nodeList = NULL;
nodeList:
        DS 2
        REQUIRE __INIT_XDATA_Z
//  142 
//  143 
//  144 
//  145 /*********************************************************************
//  146  * EXTERNAL VARIABLES
//  147  */
//  148 
//  149 /*********************************************************************
//  150  * EXTERNAL FUNCTIONS
//  151  */
//  152 
//  153 /*********************************************************************
//  154  * LOCAL VARIABLES
//  155  */

        RSEG XDATA_Z:XDATA:NOROOT(0)
        DATA8
//  156 byte GenericApp_TaskID;   // Task ID for internal task/event processing
GenericApp_TaskID:
        DS 1
        REQUIRE __INIT_XDATA_Z
//  157                           // This variable will be received when
//  158                           // GenericApp_Init() is called.
//  159 

        RSEG XDATA_Z:XDATA:NOROOT(0)
        DATA8
//  160 devStates_t GenericApp_NwkState;
GenericApp_NwkState:
        DS 1
        REQUIRE __INIT_XDATA_Z
//  161 

        RSEG XDATA_Z:XDATA:NOROOT(0)
        DATA8
//  162 byte GenericApp_TransID;  // This is the unique message ID (counter)
GenericApp_TransID:
        DS 1
        REQUIRE __INIT_XDATA_Z
//  163 

        RSEG XDATA_Z:XDATA:NOROOT(0)
        DATA8
//  164 afAddrType_t GenericApp_DstAddr;
GenericApp_DstAddr:
        DS 12
        REQUIRE __INIT_XDATA_Z

        RSEG XDATA_Z:XDATA:NOROOT(0)
        DATA8
//  165 afAddrType_t SerialApp_TxAddr_broadcast;
SerialApp_TxAddr_broadcast:
        DS 12
        REQUIRE __INIT_XDATA_Z

        RSEG XDATA_Z:XDATA:NOROOT(0)
        DATA8
//  166 afAddrType_t SerialApp_TxAddr_group;
SerialApp_TxAddr_group:
        DS 12
        REQUIRE __INIT_XDATA_Z

        RSEG XDATA_Z:XDATA:NOROOT(0)
        DATA8
//  167 afAddrType_t SerialApp_TxAddr_p2p;
SerialApp_TxAddr_p2p:
        DS 12
        REQUIRE __INIT_XDATA_Z
//  168 
//  169 

        RSEG XDATA_Z:XDATA:NOROOT(0)
        DATA8
//  170 uint8 ping_result;
ping_result:
        DS 1
        REQUIRE __INIT_XDATA_Z

        RSEG XDATA_Z:XDATA:NOROOT(0)
        DATA8
//  171 uint8 ping_error_cnt;
ping_error_cnt:
        DS 1
        REQUIRE __INIT_XDATA_Z
//  172 

        RSEG XDATA_Z:XDATA:NOROOT(0)
        DATA8
//  173 uint8 zc_online_report_cnt =0;
zc_online_report_cnt:
        DS 1
        REQUIRE __INIT_XDATA_Z

        RSEG XDATA_Z:XDATA:NOROOT(0)
        DATA8
//  174 uint8 zr_online_report_cnt =0;
zr_online_report_cnt:
        DS 1
        REQUIRE __INIT_XDATA_Z
//  175 
//  176 
//  177 // Number of recieved messages

        RSEG XDATA_Z:XDATA:NOROOT(0)
        DATA16
//  178 static uint16 rxMsgCount;
rxMsgCount:
        DS 2
        REQUIRE __INIT_XDATA_Z
//  179 
//  180 #if defined( LCD_SUPPORTED )		

        RSEG XDATA_Z:XDATA:NOROOT(0)
        DATA16
//  181 static uint16 askWhiteListCount;   //chaokw panid
askWhiteListCount:
        DS 2
        REQUIRE __INIT_XDATA_Z
//  182 #endif
//  183 
//  184 // Time interval between sending messages

        RSEG XDATA_I:XDATA:NOROOT(0)
//  185 static uint32 txMsgDelay = GENERICAPP_SEND_MSG_TIMEOUT;
txMsgDelay:
        DATA32
        DS 4
        REQUIRE `?<Initializer for txMsgDelay>`
        REQUIRE __INIT_XDATA_I
//  186 

        RSEG XDATA_I:XDATA:NOROOT(0)
//  187 const uint8* fw_version = ZIGBEE_FW_VERSION;
fw_version:
        DATA16
        DS 2
        REQUIRE `?<Initializer for fw_version>`
        REQUIRE __INIT_XDATA_I
//  188 

        RSEG XDATA_Z:XDATA:NOROOT(0)
        DATA8
//  189 uint8 transfer_join_times = 0;  //chaokw
transfer_join_times:
        DS 1
        REQUIRE __INIT_XDATA_Z
//  190 
//  191 #if( ZSTACK_DEVICE_BUILD != DEVICE_BUILD_COORDINATOR)		

        RSEG XDATA_Z:XDATA:NOROOT(0)
        DATA32
//  192 uint32 pingRspTime = 0;   //chaokw ping
pingRspTime:
        DS 4
        REQUIRE __INIT_XDATA_Z
//  193 #endif
//  194 
//  195 /*********************************************************************
//  196  * LOCAL FUNCTIONS
//  197  */
//  198 static void GenericApp_ProcessZDOMsgs( zdoIncomingMsg_t *inMsg );
//  199 static void GenericApp_HandleKeys( byte shift, byte keys );
//  200 static void GenericApp_MessageMSGCB( afIncomingMSGPacket_t *pckt );
//  201 static void GenericApp_SendTheMessage( void );
//  202 
//  203 #if defined( IAR_ARMCM3_LM )
//  204 static void GenericApp_ProcessRtosMessage( void );
//  205 #endif
//  206 
//  207 /*********************************************************************
//  208  * NETWORK LAYER CALLBACKS
//  209  */
//  210 
//  211 /*********************************************************************
//  212  * PUBLIC FUNCTIONS
//  213  */
//  214 
//  215 /*********************************************************************
//  216  * @fn      GenericApp_Init
//  217  *
//  218  * @brief   Initialization function for the Generic App Task.
//  219  *          This is called during initialization and should contain
//  220  *          any application specific initialization (ie. hardware
//  221  *          initialization/setup, table initialization, power up
//  222  *          notificaiton ... ).
//  223  *
//  224  * @param   task_id - the ID assigned by OSAL.  This ID should be
//  225  *                    used to send messages and set timers.
//  226  *
//  227  * @return  none
//  228  */

        RSEG BANKED_CODE:CODE:NOROOT(0)
//  229 void GenericApp_Init( uint8 task_id )
GenericApp_Init:
          CFI Block cfiBlock0 Using cfiCommon0
          CFI Function GenericApp_Init
        CODE
//  230 {
        FUNCALL GenericApp_Init, afRegister
        LOCFRAME ISTACK, 0, STACK
        LOCFRAME PSTACK, 0, STACK
        LOCFRAME XSTACK, 9, STACK
        LOCFRAME IOVERLAY, 0, STATIC
        LOCFRAME DOVERLAY, 0, STATIC
        ARGFRAME ISTACK, 0, STACK
        ARGFRAME PSTACK, 0, STACK
        ARGFRAME XSTACK, 9, STACK
        ARGFRAME IOVERLAY, 0, STATIC
        ARGFRAME DOVERLAY, 0, STATIC
        FUNCALL GenericApp_Init, RegisterForKeys
        LOCFRAME ISTACK, 0, STACK
        LOCFRAME PSTACK, 0, STACK
        LOCFRAME XSTACK, 9, STACK
        LOCFRAME IOVERLAY, 0, STATIC
        LOCFRAME DOVERLAY, 0, STATIC
        ARGFRAME ISTACK, 0, STACK
        ARGFRAME PSTACK, 0, STACK
        ARGFRAME XSTACK, 9, STACK
        ARGFRAME IOVERLAY, 0, STATIC
        ARGFRAME DOVERLAY, 0, STATIC
        FUNCALL GenericApp_Init, HalLcdWriteString
        LOCFRAME ISTACK, 0, STACK
        LOCFRAME PSTACK, 0, STACK
        LOCFRAME XSTACK, 9, STACK
        LOCFRAME IOVERLAY, 0, STATIC
        LOCFRAME DOVERLAY, 0, STATIC
        ARGFRAME ISTACK, 0, STACK
        ARGFRAME PSTACK, 0, STACK
        ARGFRAME XSTACK, 9, STACK
        ARGFRAME IOVERLAY, 0, STATIC
        ARGFRAME DOVERLAY, 0, STATIC
        FUNCALL GenericApp_Init, ZDO_RegisterForZDOMsg
        LOCFRAME ISTACK, 0, STACK
        LOCFRAME PSTACK, 0, STACK
        LOCFRAME XSTACK, 9, STACK
        LOCFRAME IOVERLAY, 0, STATIC
        LOCFRAME DOVERLAY, 0, STATIC
        ARGFRAME ISTACK, 0, STACK
        ARGFRAME PSTACK, 0, STACK
        ARGFRAME XSTACK, 9, STACK
        ARGFRAME IOVERLAY, 0, STATIC
        ARGFRAME DOVERLAY, 0, STATIC
        FUNCALL GenericApp_Init, ZDO_RegisterForZDOMsg
        LOCFRAME ISTACK, 0, STACK
        LOCFRAME PSTACK, 0, STACK
        LOCFRAME XSTACK, 9, STACK
        LOCFRAME IOVERLAY, 0, STATIC
        LOCFRAME DOVERLAY, 0, STATIC
        ARGFRAME ISTACK, 0, STACK
        ARGFRAME PSTACK, 0, STACK
        ARGFRAME XSTACK, 9, STACK
        ARGFRAME IOVERLAY, 0, STATIC
        ARGFRAME DOVERLAY, 0, STATIC
        FUNCALL GenericApp_Init, CustomApp_zigbee_start_ind
        LOCFRAME ISTACK, 0, STACK
        LOCFRAME PSTACK, 0, STACK
        LOCFRAME XSTACK, 9, STACK
        LOCFRAME IOVERLAY, 0, STATIC
        LOCFRAME DOVERLAY, 0, STATIC
        ARGFRAME ISTACK, 0, STACK
        ARGFRAME PSTACK, 0, STACK
        ARGFRAME XSTACK, 9, STACK
        ARGFRAME IOVERLAY, 0, STATIC
        ARGFRAME DOVERLAY, 0, STATIC
        FUNCALL GenericApp_Init, Register_Group_Multiway
        LOCFRAME ISTACK, 0, STACK
        LOCFRAME PSTACK, 0, STACK
        LOCFRAME XSTACK, 9, STACK
        LOCFRAME IOVERLAY, 0, STATIC
        LOCFRAME DOVERLAY, 0, STATIC
        ARGFRAME ISTACK, 0, STACK
        ARGFRAME PSTACK, 0, STACK
        ARGFRAME XSTACK, 9, STACK
        ARGFRAME IOVERLAY, 0, STATIC
        ARGFRAME DOVERLAY, 0, STATIC
        MOV     A,#-0x9
        LCALL   ?BANKED_ENTER_XDATA
          CFI DPH0 load(1, XDATA, add(CFA_XSP16, literal(-1)))
          CFI DPL0 load(1, XDATA, add(CFA_XSP16, literal(-2)))
          CFI ?BRET_EXT load(1, XDATA, add(CFA_XSP16, literal(-3)))
          CFI ?RET_HIGH load(1, XDATA, add(CFA_XSP16, literal(-4)))
          CFI ?RET_LOW load(1, XDATA, add(CFA_XSP16, literal(-5)))
          CFI R7 load(1, XDATA, add(CFA_XSP16, literal(-6)))
          CFI V0 load(1, XDATA, add(CFA_XSP16, literal(-7)))
          CFI VB load(1, XDATA, add(CFA_XSP16, literal(-8)))
          CFI R6 load(1, XDATA, add(CFA_XSP16, literal(-9)))
          CFI CFA_SP SP+0
          CFI CFA_XSP16 add(XSP16, 9)
        ; Saved register size: 9
        ; Auto size: 0
        MOV     A,R1
//  231   GenericApp_TaskID = task_id;
        MOV     DPTR,#GenericApp_TaskID
        MOVX    @DPTR,A
//  232   GenericApp_NwkState = DEV_INIT;
        MOV     DPTR,#GenericApp_NwkState
        MOV     A,#0x1
        MOVX    @DPTR,A
//  233   GenericApp_TransID = 0;
        MOV     DPTR,#GenericApp_TransID
        CLR     A
        MOVX    @DPTR,A
//  234 
//  235   // Device hardware initialization can be added here or in main() (Zmain.c).
//  236   // If the hardware is application specific - add it here.
//  237   // If the hardware is other parts of the device add it in main().
//  238 
//  239   GenericApp_DstAddr.addrMode = (afAddrMode_t)Addr16Bit;
        MOV     DPTR,#GenericApp_DstAddr + 8
        LCALL   ?Subroutine13 & 0xFFFF
//  240   GenericApp_DstAddr.endPoint = GENERICAPP_ENDPOINT;
//  241   GenericApp_DstAddr.addr.shortAddr = 0;
??CrossCallReturnLabel_76:
        MOV     DPTR,#GenericApp_DstAddr
        CLR     A
        MOVX    @DPTR,A
        INC     DPTR
        MOVX    @DPTR,A
//  242 
//  243   // Fill out the endpoint description.
//  244   GenericApp_epDesc.endPoint = GENERICAPP_ENDPOINT;
        MOV     DPTR,#GenericApp_epDesc
        MOV     A,#0xa
        MOVX    @DPTR,A
//  245   GenericApp_epDesc.task_id = &GenericApp_TaskID;
        INC     DPTR
        MOV     A,#GenericApp_TaskID & 0xff
        MOVX    @DPTR,A
        INC     DPTR
        MOV     A,#(GenericApp_TaskID >> 8) & 0xff
        MOVX    @DPTR,A
//  246   GenericApp_epDesc.simpleDesc
//  247             = (SimpleDescriptionFormat_t *)&GenericApp_SimpleDesc;
        INC     DPTR
        MOV     A,#GenericApp_SimpleDesc & 0xff
        MOVX    @DPTR,A
        INC     DPTR
        MOV     A,#(GenericApp_SimpleDesc >> 8) & 0xff
        MOVX    @DPTR,A
//  248   GenericApp_epDesc.latencyReq = noLatencyReqs;
        INC     DPTR
        CLR     A
        MOVX    @DPTR,A
//  249 
//  250 
//  251     //broadcast to everyone
//  252     SerialApp_TxAddr_broadcast.addrMode = (afAddrMode_t)AddrBroadcast;
        MOV     DPTR,#SerialApp_TxAddr_broadcast + 8
        MOV     A,#0xf
        LCALL   ??Subroutine45_0 & 0xFFFF
//  253     SerialApp_TxAddr_broadcast.endPoint = GENERICAPP_ENDPOINT;
//  254     SerialApp_TxAddr_broadcast.addr.shortAddr = 0xFFFF;
??CrossCallReturnLabel_78:
        MOV     DPTR,#SerialApp_TxAddr_broadcast
        MOV     A,#-0x1
        MOVX    @DPTR,A
        INC     DPTR
        MOVX    @DPTR,A
//  255 
//  256     //send to group
//  257     SerialApp_TxAddr_group.addrMode = (afAddrMode_t)AddrGroup;
        MOV     DPTR,#SerialApp_TxAddr_group + 8
        MOV     A,#0x1
        LCALL   ??Subroutine45_0 & 0xFFFF
//  258     SerialApp_TxAddr_group.endPoint = GENERICAPP_ENDPOINT;
//  259     SerialApp_TxAddr_group.addr.shortAddr = 0x0000;
??CrossCallReturnLabel_79:
        MOV     DPTR,#SerialApp_TxAddr_group
        CLR     A
        MOVX    @DPTR,A
        INC     DPTR
        MOVX    @DPTR,A
//  260 	
//  261     //point  to point
//  262     SerialApp_TxAddr_p2p.addrMode = (afAddrMode_t)Addr16Bit;
        MOV     DPTR,#SerialApp_TxAddr_p2p + 8
        LCALL   ?Subroutine13 & 0xFFFF
//  263     SerialApp_TxAddr_p2p.endPoint = GENERICAPP_ENDPOINT;
//  264     SerialApp_TxAddr_p2p.addr.shortAddr = 0x0000;
??CrossCallReturnLabel_77:
        MOV     DPTR,#SerialApp_TxAddr_p2p
        CLR     A
        MOVX    @DPTR,A
        INC     DPTR
        MOVX    @DPTR,A
//  265 
//  266 
//  267   // Register the endpoint description with the AF
//  268   afRegister( &GenericApp_epDesc );
        ; Setup parameters for call to function afRegister
        MOV     R2,#GenericApp_epDesc & 0xff
        MOV     R3,#(GenericApp_epDesc >> 8) & 0xff
        LCALL   `??afRegister::?relay`; Banked call to: afRegister
//  269 
//  270   // Register for all key events - This app will handle all key events
//  271   RegisterForKeys( GenericApp_TaskID );
        ; Setup parameters for call to function RegisterForKeys
        MOV     DPTR,#GenericApp_TaskID
        MOVX    A,@DPTR
        MOV     R1,A
        LCALL   `??RegisterForKeys::?relay`; Banked call to: RegisterForKeys
//  272 
//  273   // Update the display
//  274 #if defined ( LCD_SUPPORTED )
//  275   HalLcdWriteString( "GenericApp", HAL_LCD_LINE_1 );
        ; Setup parameters for call to function HalLcdWriteString
        MOV     R1,#0x1
        MOV     R2,#`?<Constant "GenericApp">` & 0xff
        MOV     R3,#(`?<Constant "GenericApp">` >> 8) & 0xff
        LCALL   `??HalLcdWriteString::?relay`; Banked call to: HalLcdWriteString
//  276 #endif
//  277 
//  278   ZDO_RegisterForZDOMsg( GenericApp_TaskID, End_Device_Bind_rsp );
        ; Setup parameters for call to function ZDO_RegisterForZDOMsg
        MOV     R2,#0x20
        MOV     R3,#-0x80
        MOV     DPTR,#GenericApp_TaskID
        MOVX    A,@DPTR
        MOV     R1,A
        LCALL   `??ZDO_RegisterForZDOMsg::?relay`; Banked call to: ZDO_RegisterForZDOMsg
//  279   ZDO_RegisterForZDOMsg( GenericApp_TaskID, Match_Desc_rsp );
        ; Setup parameters for call to function ZDO_RegisterForZDOMsg
        MOV     R2,#0x6
        MOV     R3,#-0x80
        MOV     DPTR,#GenericApp_TaskID
        MOVX    A,@DPTR
        MOV     R1,A
        LCALL   `??ZDO_RegisterForZDOMsg::?relay`; Banked call to: ZDO_RegisterForZDOMsg
//  280   
//  281 #if( ZSTACK_DEVICE_BUILD == DEVICE_BUILD_COORDINATOR)
//  282     ZDO_RegisterForZDOMsg( GenericApp_TaskID, Device_annce );  //chaokw
//  283 #endif 
//  284 
//  285 
//  286 #if defined( IAR_ARMCM3_LM )
//  287   // Register this task with RTOS task initiator
//  288   RTOS_RegisterApp( task_id, GENERICAPP_RTOS_MSG_EVT );
//  289 #endif
//  290 
//  291     CustomApp_zigbee_start_ind(); //chaokw lucis	
        ; Setup parameters for call to function CustomApp_zigbee_start_ind
        LCALL   `??CustomApp_zigbee_start_ind::?relay`; Banked call to: CustomApp_zigbee_start_ind
//  292 
//  293 #if( ZSTACK_DEVICE_BUILD != DEVICE_BUILD_COORDINATOR)	
//  294     Register_Group_Multiway();
        ; Setup parameters for call to function Register_Group_Multiway
        LCALL   `??Register_Group_Multiway::?relay`; Banked call to: Register_Group_Multiway
//  295 #endif
//  296     
//  297 #if( ZSTACK_DEVICE_BUILD == DEVICE_BUILD_COORDINATOR)
//  298     CustomApp_loadstatus_ind();
//  299     CustomApp_linkstatus_init();   //chaokw debug
//  300 
//  301 
//  302     //CustomApp_coordinater_broadcast_ping();
//  303 	
//  304 #if  NODE_AUTH 	
//  305     Node_auth_init();
//  306 #endif    
//  307 #endif    
//  308 
//  309 #if defined( ZDO_COORDINATOR ) && defined( WIFI_FREQUENCY_SELECT )
//  310     //CustomApp_WifiChannelReq();
//  311 #endif
//  312 
//  313 #ifdef WDT_IN_PM1
//  314   osal_start_timerEx( GenericApp_TaskID,
//  315                       GENERICAPP_FEED_DOG_EVT,
//  316                       GENERICAPP_FEED_DOG_TIME_MAX);
//  317 #endif
//  318 
//  319 }
          CFI EndBlock cfiBlock0
        REQUIRE ?Subroutine0
        ; // Fall through to label ?Subroutine0

        RSEG BANKED_CODE:CODE:NOROOT(0)
?Subroutine0:
          CFI Block cfiBlock1 Using cfiCommon0
          CFI NoFunction
          CFI CFA_SP SP+0
          CFI CFA_XSP16 add(XSP16, 9)
          CFI VB load(1, XDATA, add(CFA_XSP16, literal(-8)))
          CFI DPL0 load(1, XDATA, add(CFA_XSP16, literal(-2)))
          CFI DPH0 load(1, XDATA, add(CFA_XSP16, literal(-1)))
          CFI R6 load(1, XDATA, add(CFA_XSP16, literal(-9)))
          CFI R7 load(1, XDATA, add(CFA_XSP16, literal(-6)))
          CFI V0 load(1, XDATA, add(CFA_XSP16, literal(-7)))
          CFI ?BRET_EXT load(1, XDATA, add(CFA_XSP16, literal(-3)))
          CFI ?RET_HIGH load(1, XDATA, add(CFA_XSP16, literal(-4)))
          CFI ?RET_LOW load(1, XDATA, add(CFA_XSP16, literal(-5)))
        MOV     R7,#0x1
        LJMP    ?BANKED_LEAVE_XDATA
          CFI EndBlock cfiBlock1

        RSEG BANKED_CODE:CODE:NOROOT(0)
?Subroutine13:
          CFI Block cfiCond2 Using cfiCommon0
          CFI Function GenericApp_Init
          CFI Conditional ??CrossCallReturnLabel_76
          CFI R6 load(1, XDATA, add(CFA_XSP16, literal(-9)))
          CFI VB load(1, XDATA, add(CFA_XSP16, literal(-8)))
          CFI V0 load(1, XDATA, add(CFA_XSP16, literal(-7)))
          CFI R7 load(1, XDATA, add(CFA_XSP16, literal(-6)))
          CFI ?RET_LOW load(1, XDATA, add(CFA_XSP16, literal(-5)))
          CFI ?RET_HIGH load(1, XDATA, add(CFA_XSP16, literal(-4)))
          CFI ?BRET_EXT load(1, XDATA, add(CFA_XSP16, literal(-3)))
          CFI DPL0 load(1, XDATA, add(CFA_XSP16, literal(-2)))
          CFI DPH0 load(1, XDATA, add(CFA_XSP16, literal(-1)))
          CFI CFA_SP SP+-2
          CFI CFA_XSP16 add(XSP16, 9)
          CFI Block cfiCond3 Using cfiCommon0
          CFI (cfiCond3) Function GenericApp_Init
          CFI (cfiCond3) Conditional ??CrossCallReturnLabel_77
          CFI (cfiCond3) R6 load(1, XDATA, add(CFA_XSP16, literal(-9)))
          CFI (cfiCond3) VB load(1, XDATA, add(CFA_XSP16, literal(-8)))
          CFI (cfiCond3) V0 load(1, XDATA, add(CFA_XSP16, literal(-7)))
          CFI (cfiCond3) R7 load(1, XDATA, add(CFA_XSP16, literal(-6)))
          CFI (cfiCond3) ?RET_LOW load(1, XDATA, add(CFA_XSP16, literal(-5)))
          CFI (cfiCond3) ?RET_HIGH load(1, XDATA, add(CFA_XSP16, literal(-4)))
          CFI (cfiCond3) ?BRET_EXT load(1, XDATA, add(CFA_XSP16, literal(-3)))
          CFI (cfiCond3) DPL0 load(1, XDATA, add(CFA_XSP16, literal(-2)))
          CFI (cfiCond3) DPH0 load(1, XDATA, add(CFA_XSP16, literal(-1)))
          CFI (cfiCond3) CFA_SP SP+-2
          CFI (cfiCond3) CFA_XSP16 add(XSP16, 9)
          CFI Block cfiPicker4 Using cfiCommon1
          CFI (cfiPicker4) NoFunction
          CFI (cfiPicker4) Picker
        MOV     A,#0x2
          CFI EndBlock cfiCond2
          CFI EndBlock cfiCond3
          CFI EndBlock cfiPicker4
        REQUIRE ??Subroutine45_0
        ; // Fall through to label ??Subroutine45_0

        RSEG BANKED_CODE:CODE:NOROOT(0)
??Subroutine45_0:
          CFI Block cfiCond5 Using cfiCommon0
          CFI Function GenericApp_Init
          CFI Conditional ??CrossCallReturnLabel_78
          CFI R6 load(1, XDATA, add(CFA_XSP16, literal(-9)))
          CFI VB load(1, XDATA, add(CFA_XSP16, literal(-8)))
          CFI V0 load(1, XDATA, add(CFA_XSP16, literal(-7)))
          CFI R7 load(1, XDATA, add(CFA_XSP16, literal(-6)))
          CFI ?RET_LOW load(1, XDATA, add(CFA_XSP16, literal(-5)))
          CFI ?RET_HIGH load(1, XDATA, add(CFA_XSP16, literal(-4)))
          CFI ?BRET_EXT load(1, XDATA, add(CFA_XSP16, literal(-3)))
          CFI DPL0 load(1, XDATA, add(CFA_XSP16, literal(-2)))
          CFI DPH0 load(1, XDATA, add(CFA_XSP16, literal(-1)))
          CFI CFA_SP SP+-2
          CFI CFA_XSP16 add(XSP16, 9)
          CFI Block cfiCond6 Using cfiCommon0
          CFI (cfiCond6) Function GenericApp_Init
          CFI (cfiCond6) Conditional ??CrossCallReturnLabel_79
          CFI (cfiCond6) R6 load(1, XDATA, add(CFA_XSP16, literal(-9)))
          CFI (cfiCond6) VB load(1, XDATA, add(CFA_XSP16, literal(-8)))
          CFI (cfiCond6) V0 load(1, XDATA, add(CFA_XSP16, literal(-7)))
          CFI (cfiCond6) R7 load(1, XDATA, add(CFA_XSP16, literal(-6)))
          CFI (cfiCond6) ?RET_LOW load(1, XDATA, add(CFA_XSP16, literal(-5)))
          CFI (cfiCond6) ?RET_HIGH load(1, XDATA, add(CFA_XSP16, literal(-4)))
          CFI (cfiCond6) ?BRET_EXT load(1, XDATA, add(CFA_XSP16, literal(-3)))
          CFI (cfiCond6) DPL0 load(1, XDATA, add(CFA_XSP16, literal(-2)))
          CFI (cfiCond6) DPH0 load(1, XDATA, add(CFA_XSP16, literal(-1)))
          CFI (cfiCond6) CFA_SP SP+-2
          CFI (cfiCond6) CFA_XSP16 add(XSP16, 9)
          CFI Block cfiCond7 Using cfiCommon0
          CFI (cfiCond7) Function GenericApp_Init
          CFI (cfiCond7) Conditional ??CrossCallReturnLabel_76
          CFI (cfiCond7) R6 load(1, XDATA, add(CFA_XSP16, literal(-9)))
          CFI (cfiCond7) VB load(1, XDATA, add(CFA_XSP16, literal(-8)))
          CFI (cfiCond7) V0 load(1, XDATA, add(CFA_XSP16, literal(-7)))
          CFI (cfiCond7) R7 load(1, XDATA, add(CFA_XSP16, literal(-6)))
          CFI (cfiCond7) ?RET_LOW load(1, XDATA, add(CFA_XSP16, literal(-5)))
          CFI (cfiCond7) ?RET_HIGH load(1, XDATA, add(CFA_XSP16, literal(-4)))
          CFI (cfiCond7) ?BRET_EXT load(1, XDATA, add(CFA_XSP16, literal(-3)))
          CFI (cfiCond7) DPL0 load(1, XDATA, add(CFA_XSP16, literal(-2)))
          CFI (cfiCond7) DPH0 load(1, XDATA, add(CFA_XSP16, literal(-1)))
          CFI (cfiCond7) CFA_SP SP+-2
          CFI (cfiCond7) CFA_XSP16 add(XSP16, 9)
          CFI Block cfiCond8 Using cfiCommon0
          CFI (cfiCond8) Function GenericApp_Init
          CFI (cfiCond8) Conditional ??CrossCallReturnLabel_77
          CFI (cfiCond8) R6 load(1, XDATA, add(CFA_XSP16, literal(-9)))
          CFI (cfiCond8) VB load(1, XDATA, add(CFA_XSP16, literal(-8)))
          CFI (cfiCond8) V0 load(1, XDATA, add(CFA_XSP16, literal(-7)))
          CFI (cfiCond8) R7 load(1, XDATA, add(CFA_XSP16, literal(-6)))
          CFI (cfiCond8) ?RET_LOW load(1, XDATA, add(CFA_XSP16, literal(-5)))
          CFI (cfiCond8) ?RET_HIGH load(1, XDATA, add(CFA_XSP16, literal(-4)))
          CFI (cfiCond8) ?BRET_EXT load(1, XDATA, add(CFA_XSP16, literal(-3)))
          CFI (cfiCond8) DPL0 load(1, XDATA, add(CFA_XSP16, literal(-2)))
          CFI (cfiCond8) DPH0 load(1, XDATA, add(CFA_XSP16, literal(-1)))
          CFI (cfiCond8) CFA_SP SP+-2
          CFI (cfiCond8) CFA_XSP16 add(XSP16, 9)
          CFI Block cfiPicker9 Using cfiCommon1
          CFI (cfiPicker9) NoFunction
          CFI (cfiPicker9) Picker
        MOVX    @DPTR,A
        INC     DPTR
        MOV     A,#0xa
        MOVX    @DPTR,A
        RET
          CFI EndBlock cfiCond5
          CFI EndBlock cfiCond6
          CFI EndBlock cfiCond7
          CFI EndBlock cfiCond8
          CFI EndBlock cfiPicker9
//  320 
//  321 /*********************************************************************
//  322  * @fn      GenericApp_ProcessEvent
//  323  *
//  324  * @brief   Generic Application Task event processor.  This function
//  325  *          is called to process all events for the task.  Events
//  326  *          include timers, messages and any other user defined events.
//  327  *
//  328  * @param   task_id  - The OSAL assigned task ID.
//  329  * @param   events - events to process.  This is a bit map and can
//  330  *                   contain more than one event.
//  331  *
//  332  * @return  none
//  333  */

        RSEG BANKED_CODE:CODE:NOROOT(0)
//  334 uint16 GenericApp_ProcessEvent( uint8 task_id, uint16 events )
GenericApp_ProcessEvent:
          CFI Block cfiBlock10 Using cfiCommon0
          CFI Function GenericApp_ProcessEvent
        CODE
//  335 {
        FUNCALL GenericApp_ProcessEvent, osal_msg_receive
        LOCFRAME ISTACK, 0, STACK
        LOCFRAME PSTACK, 0, STACK
        LOCFRAME XSTACK, 24, STACK
        LOCFRAME IOVERLAY, 0, STATIC
        LOCFRAME DOVERLAY, 0, STATIC
        ARGFRAME ISTACK, 0, STACK
        ARGFRAME PSTACK, 0, STACK
        ARGFRAME XSTACK, 24, STACK
        ARGFRAME IOVERLAY, 0, STATIC
        ARGFRAME DOVERLAY, 0, STATIC
        FUNCALL GenericApp_ProcessEvent, CustomApp_Set_Multiway
        LOCFRAME ISTACK, 0, STACK
        LOCFRAME PSTACK, 0, STACK
        LOCFRAME XSTACK, 24, STACK
        LOCFRAME IOVERLAY, 0, STATIC
        LOCFRAME DOVERLAY, 0, STATIC
        ARGFRAME ISTACK, 0, STACK
        ARGFRAME PSTACK, 0, STACK
        ARGFRAME XSTACK, 24, STACK
        ARGFRAME IOVERLAY, 0, STATIC
        ARGFRAME DOVERLAY, 0, STATIC
        FUNCALL GenericApp_ProcessEvent, osal_msg_deallocate
        LOCFRAME ISTACK, 0, STACK
        LOCFRAME PSTACK, 0, STACK
        LOCFRAME XSTACK, 24, STACK
        LOCFRAME IOVERLAY, 0, STATIC
        LOCFRAME DOVERLAY, 0, STATIC
        ARGFRAME ISTACK, 0, STACK
        ARGFRAME PSTACK, 0, STACK
        ARGFRAME XSTACK, 24, STACK
        ARGFRAME IOVERLAY, 0, STATIC
        ARGFRAME DOVERLAY, 0, STATIC
        FUNCALL GenericApp_ProcessEvent, osal_msg_receive
        LOCFRAME ISTACK, 0, STACK
        LOCFRAME PSTACK, 0, STACK
        LOCFRAME XSTACK, 24, STACK
        LOCFRAME IOVERLAY, 0, STATIC
        LOCFRAME DOVERLAY, 0, STATIC
        ARGFRAME ISTACK, 0, STACK
        ARGFRAME PSTACK, 0, STACK
        ARGFRAME XSTACK, 24, STACK
        ARGFRAME IOVERLAY, 0, STATIC
        ARGFRAME DOVERLAY, 0, STATIC
        FUNCALL GenericApp_ProcessEvent, GenericApp_ProcessZDOMsgs
        LOCFRAME ISTACK, 0, STACK
        LOCFRAME PSTACK, 0, STACK
        LOCFRAME XSTACK, 24, STACK
        LOCFRAME IOVERLAY, 0, STATIC
        LOCFRAME DOVERLAY, 0, STATIC
        ARGFRAME ISTACK, 0, STACK
        ARGFRAME PSTACK, 0, STACK
        ARGFRAME XSTACK, 24, STACK
        ARGFRAME IOVERLAY, 0, STATIC
        ARGFRAME DOVERLAY, 0, STATIC
        FUNCALL GenericApp_ProcessEvent, GenericApp_HandleKeys
        LOCFRAME ISTACK, 0, STACK
        LOCFRAME PSTACK, 0, STACK
        LOCFRAME XSTACK, 24, STACK
        LOCFRAME IOVERLAY, 0, STATIC
        LOCFRAME DOVERLAY, 0, STATIC
        ARGFRAME ISTACK, 0, STACK
        ARGFRAME PSTACK, 0, STACK
        ARGFRAME XSTACK, 24, STACK
        ARGFRAME IOVERLAY, 0, STATIC
        ARGFRAME DOVERLAY, 0, STATIC
        FUNCALL GenericApp_ProcessEvent, HalLcdWriteStringValue
        LOCFRAME ISTACK, 0, STACK
        LOCFRAME PSTACK, 0, STACK
        LOCFRAME XSTACK, 25, STACK
        LOCFRAME IOVERLAY, 0, STATIC
        LOCFRAME DOVERLAY, 0, STATIC
        ARGFRAME ISTACK, 0, STACK
        ARGFRAME PSTACK, 0, STACK
        ARGFRAME XSTACK, 25, STACK
        ARGFRAME IOVERLAY, 0, STATIC
        ARGFRAME DOVERLAY, 0, STATIC
        FUNCALL GenericApp_ProcessEvent, HalLcdWriteStringValue
        LOCFRAME ISTACK, 0, STACK
        LOCFRAME PSTACK, 0, STACK
        LOCFRAME XSTACK, 25, STACK
        LOCFRAME IOVERLAY, 0, STATIC
        LOCFRAME DOVERLAY, 0, STATIC
        ARGFRAME ISTACK, 0, STACK
        ARGFRAME PSTACK, 0, STACK
        ARGFRAME XSTACK, 25, STACK
        ARGFRAME IOVERLAY, 0, STATIC
        ARGFRAME DOVERLAY, 0, STATIC
        FUNCALL GenericApp_ProcessEvent, GenericApp_MessageMSGCB
        LOCFRAME ISTACK, 0, STACK
        LOCFRAME PSTACK, 0, STACK
        LOCFRAME XSTACK, 24, STACK
        LOCFRAME IOVERLAY, 0, STATIC
        LOCFRAME DOVERLAY, 0, STATIC
        ARGFRAME ISTACK, 0, STACK
        ARGFRAME PSTACK, 0, STACK
        ARGFRAME XSTACK, 24, STACK
        ARGFRAME IOVERLAY, 0, STATIC
        ARGFRAME DOVERLAY, 0, STATIC
        FUNCALL GenericApp_ProcessEvent, Onboard_soft_reset
        LOCFRAME ISTACK, 0, STACK
        LOCFRAME PSTACK, 0, STACK
        LOCFRAME XSTACK, 24, STACK
        LOCFRAME IOVERLAY, 0, STATIC
        LOCFRAME DOVERLAY, 0, STATIC
        ARGFRAME ISTACK, 0, STACK
        ARGFRAME PSTACK, 0, STACK
        ARGFRAME XSTACK, 24, STACK
        ARGFRAME IOVERLAY, 0, STATIC
        ARGFRAME DOVERLAY, 0, STATIC
        FUNCALL GenericApp_ProcessEvent, HalLcdWriteStringValue
        LOCFRAME ISTACK, 0, STACK
        LOCFRAME PSTACK, 0, STACK
        LOCFRAME XSTACK, 25, STACK
        LOCFRAME IOVERLAY, 0, STATIC
        LOCFRAME DOVERLAY, 0, STATIC
        ARGFRAME ISTACK, 0, STACK
        ARGFRAME PSTACK, 0, STACK
        ARGFRAME XSTACK, 25, STACK
        ARGFRAME IOVERLAY, 0, STATIC
        ARGFRAME DOVERLAY, 0, STATIC
        FUNCALL GenericApp_ProcessEvent, HalLcdWriteStringValue
        LOCFRAME ISTACK, 0, STACK
        LOCFRAME PSTACK, 0, STACK
        LOCFRAME XSTACK, 25, STACK
        LOCFRAME IOVERLAY, 0, STATIC
        LOCFRAME DOVERLAY, 0, STATIC
        ARGFRAME ISTACK, 0, STACK
        ARGFRAME PSTACK, 0, STACK
        ARGFRAME XSTACK, 25, STACK
        ARGFRAME IOVERLAY, 0, STATIC
        ARGFRAME DOVERLAY, 0, STATIC
        FUNCALL GenericApp_ProcessEvent, CustomApp_loadstatus_ind
        LOCFRAME ISTACK, 0, STACK
        LOCFRAME PSTACK, 0, STACK
        LOCFRAME XSTACK, 24, STACK
        LOCFRAME IOVERLAY, 0, STATIC
        LOCFRAME DOVERLAY, 0, STATIC
        ARGFRAME ISTACK, 0, STACK
        ARGFRAME PSTACK, 0, STACK
        ARGFRAME XSTACK, 24, STACK
        ARGFRAME IOVERLAY, 0, STATIC
        ARGFRAME DOVERLAY, 0, STATIC
        FUNCALL GenericApp_ProcessEvent, CustomApp_ping_request_init
        LOCFRAME ISTACK, 0, STACK
        LOCFRAME PSTACK, 0, STACK
        LOCFRAME XSTACK, 24, STACK
        LOCFRAME IOVERLAY, 0, STATIC
        LOCFRAME DOVERLAY, 0, STATIC
        ARGFRAME ISTACK, 0, STACK
        ARGFRAME PSTACK, 0, STACK
        ARGFRAME XSTACK, 24, STACK
        ARGFRAME IOVERLAY, 0, STATIC
        ARGFRAME DOVERLAY, 0, STATIC
        FUNCALL GenericApp_ProcessEvent, CustomApp_ping_timeout_check_init
        LOCFRAME ISTACK, 0, STACK
        LOCFRAME PSTACK, 0, STACK
        LOCFRAME XSTACK, 24, STACK
        LOCFRAME IOVERLAY, 0, STATIC
        LOCFRAME DOVERLAY, 0, STATIC
        ARGFRAME ISTACK, 0, STACK
        ARGFRAME PSTACK, 0, STACK
        ARGFRAME XSTACK, 24, STACK
        ARGFRAME IOVERLAY, 0, STATIC
        ARGFRAME DOVERLAY, 0, STATIC
        FUNCALL GenericApp_ProcessEvent, CustomApp_send_ping_req
        LOCFRAME ISTACK, 0, STACK
        LOCFRAME PSTACK, 0, STACK
        LOCFRAME XSTACK, 24, STACK
        LOCFRAME IOVERLAY, 0, STATIC
        LOCFRAME DOVERLAY, 0, STATIC
        ARGFRAME ISTACK, 0, STACK
        ARGFRAME PSTACK, 0, STACK
        ARGFRAME XSTACK, 24, STACK
        ARGFRAME IOVERLAY, 0, STATIC
        ARGFRAME DOVERLAY, 0, STATIC
        FUNCALL GenericApp_ProcessEvent, osal_start_timerEx
        LOCFRAME ISTACK, 0, STACK
        LOCFRAME PSTACK, 0, STACK
        LOCFRAME XSTACK, 28, STACK
        LOCFRAME IOVERLAY, 0, STATIC
        LOCFRAME DOVERLAY, 0, STATIC
        ARGFRAME ISTACK, 0, STACK
        ARGFRAME PSTACK, 0, STACK
        ARGFRAME XSTACK, 28, STACK
        ARGFRAME IOVERLAY, 0, STATIC
        ARGFRAME DOVERLAY, 0, STATIC
        FUNCALL GenericApp_ProcessEvent, CustomApp_coordinator_online_req
        LOCFRAME ISTACK, 0, STACK
        LOCFRAME PSTACK, 0, STACK
        LOCFRAME XSTACK, 24, STACK
        LOCFRAME IOVERLAY, 0, STATIC
        LOCFRAME DOVERLAY, 0, STATIC
        ARGFRAME ISTACK, 0, STACK
        ARGFRAME PSTACK, 0, STACK
        ARGFRAME XSTACK, 24, STACK
        ARGFRAME IOVERLAY, 0, STATIC
        ARGFRAME DOVERLAY, 0, STATIC
        FUNCALL GenericApp_ProcessEvent, osal_start_timerEx
        LOCFRAME ISTACK, 0, STACK
        LOCFRAME PSTACK, 0, STACK
        LOCFRAME XSTACK, 28, STACK
        LOCFRAME IOVERLAY, 0, STATIC
        LOCFRAME DOVERLAY, 0, STATIC
        ARGFRAME ISTACK, 0, STACK
        ARGFRAME PSTACK, 0, STACK
        ARGFRAME XSTACK, 28, STACK
        ARGFRAME IOVERLAY, 0, STATIC
        ARGFRAME DOVERLAY, 0, STATIC
        FUNCALL GenericApp_ProcessEvent, CustomApp_coordinater_broadcast_ping_init
        LOCFRAME ISTACK, 0, STACK
        LOCFRAME PSTACK, 0, STACK
        LOCFRAME XSTACK, 24, STACK
        LOCFRAME IOVERLAY, 0, STATIC
        LOCFRAME DOVERLAY, 0, STATIC
        ARGFRAME ISTACK, 0, STACK
        ARGFRAME PSTACK, 0, STACK
        ARGFRAME XSTACK, 24, STACK
        ARGFRAME IOVERLAY, 0, STATIC
        ARGFRAME DOVERLAY, 0, STATIC
        FUNCALL GenericApp_ProcessEvent, CustomApp_Send_P2P_Data
        LOCFRAME ISTACK, 0, STACK
        LOCFRAME PSTACK, 0, STACK
        LOCFRAME XSTACK, 24, STACK
        LOCFRAME IOVERLAY, 0, STATIC
        LOCFRAME DOVERLAY, 0, STATIC
        ARGFRAME ISTACK, 0, STACK
        ARGFRAME PSTACK, 0, STACK
        ARGFRAME XSTACK, 24, STACK
        ARGFRAME IOVERLAY, 0, STATIC
        ARGFRAME DOVERLAY, 0, STATIC
        FUNCALL GenericApp_ProcessEvent, CustomApp_Send_Group_Data
        LOCFRAME ISTACK, 0, STACK
        LOCFRAME PSTACK, 0, STACK
        LOCFRAME XSTACK, 24, STACK
        LOCFRAME IOVERLAY, 0, STATIC
        LOCFRAME DOVERLAY, 0, STATIC
        ARGFRAME ISTACK, 0, STACK
        ARGFRAME PSTACK, 0, STACK
        ARGFRAME XSTACK, 24, STACK
        ARGFRAME IOVERLAY, 0, STATIC
        ARGFRAME DOVERLAY, 0, STATIC
        FUNCALL GenericApp_ProcessEvent, CustomApp_Send_BroadCast_Data
        LOCFRAME ISTACK, 0, STACK
        LOCFRAME PSTACK, 0, STACK
        LOCFRAME XSTACK, 24, STACK
        LOCFRAME IOVERLAY, 0, STATIC
        LOCFRAME DOVERLAY, 0, STATIC
        ARGFRAME ISTACK, 0, STACK
        ARGFRAME PSTACK, 0, STACK
        ARGFRAME XSTACK, 24, STACK
        ARGFRAME IOVERLAY, 0, STATIC
        ARGFRAME DOVERLAY, 0, STATIC
        FUNCALL GenericApp_ProcessEvent, CustomApp_Get_ExtAddr
        LOCFRAME ISTACK, 0, STACK
        LOCFRAME PSTACK, 0, STACK
        LOCFRAME XSTACK, 24, STACK
        LOCFRAME IOVERLAY, 0, STATIC
        LOCFRAME DOVERLAY, 0, STATIC
        ARGFRAME ISTACK, 0, STACK
        ARGFRAME PSTACK, 0, STACK
        ARGFRAME XSTACK, 24, STACK
        ARGFRAME IOVERLAY, 0, STATIC
        ARGFRAME DOVERLAY, 0, STATIC
        FUNCALL GenericApp_ProcessEvent, CustomApp_Get_NWKInfo
        LOCFRAME ISTACK, 0, STACK
        LOCFRAME PSTACK, 0, STACK
        LOCFRAME XSTACK, 24, STACK
        LOCFRAME IOVERLAY, 0, STATIC
        LOCFRAME DOVERLAY, 0, STATIC
        ARGFRAME ISTACK, 0, STACK
        ARGFRAME PSTACK, 0, STACK
        ARGFRAME XSTACK, 24, STACK
        ARGFRAME IOVERLAY, 0, STATIC
        ARGFRAME DOVERLAY, 0, STATIC
        FUNCALL GenericApp_ProcessEvent, CustomApp_Get_Active_Cnt
        LOCFRAME ISTACK, 0, STACK
        LOCFRAME PSTACK, 0, STACK
        LOCFRAME XSTACK, 24, STACK
        LOCFRAME IOVERLAY, 0, STATIC
        LOCFRAME DOVERLAY, 0, STATIC
        ARGFRAME ISTACK, 0, STACK
        ARGFRAME PSTACK, 0, STACK
        ARGFRAME XSTACK, 24, STACK
        ARGFRAME IOVERLAY, 0, STATIC
        ARGFRAME DOVERLAY, 0, STATIC
        FUNCALL GenericApp_ProcessEvent, CustomApp_Get_Version
        LOCFRAME ISTACK, 0, STACK
        LOCFRAME PSTACK, 0, STACK
        LOCFRAME XSTACK, 24, STACK
        LOCFRAME IOVERLAY, 0, STATIC
        LOCFRAME DOVERLAY, 0, STATIC
        ARGFRAME ISTACK, 0, STACK
        ARGFRAME PSTACK, 0, STACK
        ARGFRAME XSTACK, 24, STACK
        ARGFRAME IOVERLAY, 0, STATIC
        ARGFRAME DOVERLAY, 0, STATIC
        FUNCALL GenericApp_ProcessEvent, CustomApp_FW_Update
        LOCFRAME ISTACK, 0, STACK
        LOCFRAME PSTACK, 0, STACK
        LOCFRAME XSTACK, 24, STACK
        LOCFRAME IOVERLAY, 0, STATIC
        LOCFRAME DOVERLAY, 0, STATIC
        ARGFRAME ISTACK, 0, STACK
        ARGFRAME PSTACK, 0, STACK
        ARGFRAME XSTACK, 24, STACK
        ARGFRAME IOVERLAY, 0, STATIC
        ARGFRAME DOVERLAY, 0, STATIC
        FUNCALL GenericApp_ProcessEvent, osal_strlen
        LOCFRAME ISTACK, 0, STACK
        LOCFRAME PSTACK, 0, STACK
        LOCFRAME XSTACK, 24, STACK
        LOCFRAME IOVERLAY, 0, STATIC
        LOCFRAME DOVERLAY, 0, STATIC
        ARGFRAME ISTACK, 0, STACK
        ARGFRAME PSTACK, 0, STACK
        ARGFRAME XSTACK, 24, STACK
        ARGFRAME IOVERLAY, 0, STATIC
        ARGFRAME DOVERLAY, 0, STATIC
        FUNCALL GenericApp_ProcessEvent, AF_DataRequest
        LOCFRAME ISTACK, 0, STACK
        LOCFRAME PSTACK, 0, STACK
        LOCFRAME XSTACK, 33, STACK
        LOCFRAME IOVERLAY, 0, STATIC
        LOCFRAME DOVERLAY, 0, STATIC
        ARGFRAME ISTACK, 0, STACK
        ARGFRAME PSTACK, 0, STACK
        ARGFRAME XSTACK, 33, STACK
        ARGFRAME IOVERLAY, 0, STATIC
        ARGFRAME DOVERLAY, 0, STATIC
        FUNCALL GenericApp_ProcessEvent, osal_start_timerEx
        LOCFRAME ISTACK, 0, STACK
        LOCFRAME PSTACK, 0, STACK
        LOCFRAME XSTACK, 28, STACK
        LOCFRAME IOVERLAY, 0, STATIC
        LOCFRAME DOVERLAY, 0, STATIC
        ARGFRAME ISTACK, 0, STACK
        ARGFRAME PSTACK, 0, STACK
        ARGFRAME XSTACK, 28, STACK
        ARGFRAME IOVERLAY, 0, STATIC
        ARGFRAME DOVERLAY, 0, STATIC
        FUNCALL GenericApp_ProcessEvent, osal_stop_timerEx
        LOCFRAME ISTACK, 0, STACK
        LOCFRAME PSTACK, 0, STACK
        LOCFRAME XSTACK, 24, STACK
        LOCFRAME IOVERLAY, 0, STATIC
        LOCFRAME DOVERLAY, 0, STATIC
        ARGFRAME ISTACK, 0, STACK
        ARGFRAME PSTACK, 0, STACK
        ARGFRAME XSTACK, 24, STACK
        ARGFRAME IOVERLAY, 0, STATIC
        ARGFRAME DOVERLAY, 0, STATIC
        FUNCALL GenericApp_ProcessEvent, CustomApp_send_ping_req
        LOCFRAME ISTACK, 0, STACK
        LOCFRAME PSTACK, 0, STACK
        LOCFRAME XSTACK, 24, STACK
        LOCFRAME IOVERLAY, 0, STATIC
        LOCFRAME DOVERLAY, 0, STATIC
        ARGFRAME ISTACK, 0, STACK
        ARGFRAME PSTACK, 0, STACK
        ARGFRAME XSTACK, 24, STACK
        ARGFRAME IOVERLAY, 0, STATIC
        ARGFRAME DOVERLAY, 0, STATIC
        FUNCALL GenericApp_ProcessEvent, osal_start_timerEx
        LOCFRAME ISTACK, 0, STACK
        LOCFRAME PSTACK, 0, STACK
        LOCFRAME XSTACK, 28, STACK
        LOCFRAME IOVERLAY, 0, STATIC
        LOCFRAME DOVERLAY, 0, STATIC
        ARGFRAME ISTACK, 0, STACK
        ARGFRAME PSTACK, 0, STACK
        ARGFRAME XSTACK, 28, STACK
        ARGFRAME IOVERLAY, 0, STATIC
        ARGFRAME DOVERLAY, 0, STATIC
        FUNCALL GenericApp_ProcessEvent, osal_stop_timerEx
        LOCFRAME ISTACK, 0, STACK
        LOCFRAME PSTACK, 0, STACK
        LOCFRAME XSTACK, 24, STACK
        LOCFRAME IOVERLAY, 0, STATIC
        LOCFRAME DOVERLAY, 0, STATIC
        ARGFRAME ISTACK, 0, STACK
        ARGFRAME PSTACK, 0, STACK
        ARGFRAME XSTACK, 24, STACK
        ARGFRAME IOVERLAY, 0, STATIC
        ARGFRAME DOVERLAY, 0, STATIC
        FUNCALL GenericApp_ProcessEvent, CustomApp_linkstatus_updated
        LOCFRAME ISTACK, 0, STACK
        LOCFRAME PSTACK, 0, STACK
        LOCFRAME XSTACK, 24, STACK
        LOCFRAME IOVERLAY, 0, STATIC
        LOCFRAME DOVERLAY, 0, STATIC
        ARGFRAME ISTACK, 0, STACK
        ARGFRAME PSTACK, 0, STACK
        ARGFRAME XSTACK, 24, STACK
        ARGFRAME IOVERLAY, 0, STATIC
        ARGFRAME DOVERLAY, 0, STATIC
        FUNCALL GenericApp_ProcessEvent, osal_start_timerEx
        LOCFRAME ISTACK, 0, STACK
        LOCFRAME PSTACK, 0, STACK
        LOCFRAME XSTACK, 28, STACK
        LOCFRAME IOVERLAY, 0, STATIC
        LOCFRAME DOVERLAY, 0, STATIC
        ARGFRAME ISTACK, 0, STACK
        ARGFRAME PSTACK, 0, STACK
        ARGFRAME XSTACK, 28, STACK
        ARGFRAME IOVERLAY, 0, STATIC
        ARGFRAME DOVERLAY, 0, STATIC
        FUNCALL GenericApp_ProcessEvent, osal_stop_timerEx
        LOCFRAME ISTACK, 0, STACK
        LOCFRAME PSTACK, 0, STACK
        LOCFRAME XSTACK, 24, STACK
        LOCFRAME IOVERLAY, 0, STATIC
        LOCFRAME DOVERLAY, 0, STATIC
        ARGFRAME ISTACK, 0, STACK
        ARGFRAME PSTACK, 0, STACK
        ARGFRAME XSTACK, 24, STACK
        ARGFRAME IOVERLAY, 0, STATIC
        ARGFRAME DOVERLAY, 0, STATIC
        FUNCALL GenericApp_ProcessEvent, CustomApp_ping_timeout_check
        LOCFRAME ISTACK, 0, STACK
        LOCFRAME PSTACK, 0, STACK
        LOCFRAME XSTACK, 24, STACK
        LOCFRAME IOVERLAY, 0, STATIC
        LOCFRAME DOVERLAY, 0, STATIC
        ARGFRAME ISTACK, 0, STACK
        ARGFRAME PSTACK, 0, STACK
        ARGFRAME XSTACK, 24, STACK
        ARGFRAME IOVERLAY, 0, STATIC
        ARGFRAME DOVERLAY, 0, STATIC
        FUNCALL GenericApp_ProcessEvent, osal_start_timerEx
        LOCFRAME ISTACK, 0, STACK
        LOCFRAME PSTACK, 0, STACK
        LOCFRAME XSTACK, 28, STACK
        LOCFRAME IOVERLAY, 0, STATIC
        LOCFRAME DOVERLAY, 0, STATIC
        ARGFRAME ISTACK, 0, STACK
        ARGFRAME PSTACK, 0, STACK
        ARGFRAME XSTACK, 28, STACK
        ARGFRAME IOVERLAY, 0, STATIC
        ARGFRAME DOVERLAY, 0, STATIC
        FUNCALL GenericApp_ProcessEvent, osal_stop_timerEx
        LOCFRAME ISTACK, 0, STACK
        LOCFRAME PSTACK, 0, STACK
        LOCFRAME XSTACK, 24, STACK
        LOCFRAME IOVERLAY, 0, STATIC
        LOCFRAME DOVERLAY, 0, STATIC
        ARGFRAME ISTACK, 0, STACK
        ARGFRAME PSTACK, 0, STACK
        ARGFRAME XSTACK, 24, STACK
        ARGFRAME IOVERLAY, 0, STATIC
        ARGFRAME DOVERLAY, 0, STATIC
        FUNCALL GenericApp_ProcessEvent, CustomApp_coordinater_broadcast_ping
        LOCFRAME ISTACK, 0, STACK
        LOCFRAME PSTACK, 0, STACK
        LOCFRAME XSTACK, 24, STACK
        LOCFRAME IOVERLAY, 0, STATIC
        LOCFRAME DOVERLAY, 0, STATIC
        ARGFRAME ISTACK, 0, STACK
        ARGFRAME PSTACK, 0, STACK
        ARGFRAME XSTACK, 24, STACK
        ARGFRAME IOVERLAY, 0, STATIC
        ARGFRAME DOVERLAY, 0, STATIC
        FUNCALL GenericApp_ProcessEvent, osal_start_timerEx
        LOCFRAME ISTACK, 0, STACK
        LOCFRAME PSTACK, 0, STACK
        LOCFRAME XSTACK, 28, STACK
        LOCFRAME IOVERLAY, 0, STATIC
        LOCFRAME DOVERLAY, 0, STATIC
        ARGFRAME ISTACK, 0, STACK
        ARGFRAME PSTACK, 0, STACK
        ARGFRAME XSTACK, 28, STACK
        ARGFRAME IOVERLAY, 0, STATIC
        ARGFRAME DOVERLAY, 0, STATIC
        FUNCALL GenericApp_ProcessEvent, Onboard_soft_reset
        LOCFRAME ISTACK, 0, STACK
        LOCFRAME PSTACK, 0, STACK
        LOCFRAME XSTACK, 24, STACK
        LOCFRAME IOVERLAY, 0, STATIC
        LOCFRAME DOVERLAY, 0, STATIC
        ARGFRAME ISTACK, 0, STACK
        ARGFRAME PSTACK, 0, STACK
        ARGFRAME XSTACK, 24, STACK
        ARGFRAME IOVERLAY, 0, STATIC
        ARGFRAME DOVERLAY, 0, STATIC
        FUNCALL GenericApp_ProcessEvent, CustomApp_loadstatus_ind
        LOCFRAME ISTACK, 0, STACK
        LOCFRAME PSTACK, 0, STACK
        LOCFRAME XSTACK, 24, STACK
        LOCFRAME IOVERLAY, 0, STATIC
        LOCFRAME DOVERLAY, 0, STATIC
        ARGFRAME ISTACK, 0, STACK
        ARGFRAME PSTACK, 0, STACK
        ARGFRAME XSTACK, 24, STACK
        ARGFRAME IOVERLAY, 0, STATIC
        ARGFRAME DOVERLAY, 0, STATIC
        FUNCALL GenericApp_ProcessEvent, osal_stop_timerEx
        LOCFRAME ISTACK, 0, STACK
        LOCFRAME PSTACK, 0, STACK
        LOCFRAME XSTACK, 24, STACK
        LOCFRAME IOVERLAY, 0, STATIC
        LOCFRAME DOVERLAY, 0, STATIC
        ARGFRAME ISTACK, 0, STACK
        ARGFRAME PSTACK, 0, STACK
        ARGFRAME XSTACK, 24, STACK
        ARGFRAME IOVERLAY, 0, STATIC
        ARGFRAME DOVERLAY, 0, STATIC
        FUNCALL GenericApp_ProcessEvent, CustomApp_coordinator_online_req
        LOCFRAME ISTACK, 0, STACK
        LOCFRAME PSTACK, 0, STACK
        LOCFRAME XSTACK, 24, STACK
        LOCFRAME IOVERLAY, 0, STATIC
        LOCFRAME DOVERLAY, 0, STATIC
        ARGFRAME ISTACK, 0, STACK
        ARGFRAME PSTACK, 0, STACK
        ARGFRAME XSTACK, 24, STACK
        ARGFRAME IOVERLAY, 0, STATIC
        ARGFRAME DOVERLAY, 0, STATIC
        FUNCALL GenericApp_ProcessEvent, osal_start_timerEx
        LOCFRAME ISTACK, 0, STACK
        LOCFRAME PSTACK, 0, STACK
        LOCFRAME XSTACK, 28, STACK
        LOCFRAME IOVERLAY, 0, STATIC
        LOCFRAME DOVERLAY, 0, STATIC
        ARGFRAME ISTACK, 0, STACK
        ARGFRAME PSTACK, 0, STACK
        ARGFRAME XSTACK, 28, STACK
        ARGFRAME IOVERLAY, 0, STATIC
        ARGFRAME DOVERLAY, 0, STATIC
        FUNCALL GenericApp_ProcessEvent, GenericApp_Device_JoinReq
        LOCFRAME ISTACK, 0, STACK
        LOCFRAME PSTACK, 0, STACK
        LOCFRAME XSTACK, 24, STACK
        LOCFRAME IOVERLAY, 0, STATIC
        LOCFRAME DOVERLAY, 0, STATIC
        ARGFRAME ISTACK, 0, STACK
        ARGFRAME PSTACK, 0, STACK
        ARGFRAME XSTACK, 24, STACK
        ARGFRAME IOVERLAY, 0, STATIC
        ARGFRAME DOVERLAY, 0, STATIC
        FUNCALL GenericApp_ProcessEvent, osal_start_timerEx
        LOCFRAME ISTACK, 0, STACK
        LOCFRAME PSTACK, 0, STACK
        LOCFRAME XSTACK, 28, STACK
        LOCFRAME IOVERLAY, 0, STATIC
        LOCFRAME DOVERLAY, 0, STATIC
        ARGFRAME ISTACK, 0, STACK
        ARGFRAME PSTACK, 0, STACK
        ARGFRAME XSTACK, 28, STACK
        ARGFRAME IOVERLAY, 0, STATIC
        ARGFRAME DOVERLAY, 0, STATIC
        FUNCALL GenericApp_ProcessEvent, GenericApp_Free_Join_DeviceInfo
        LOCFRAME ISTACK, 0, STACK
        LOCFRAME PSTACK, 0, STACK
        LOCFRAME XSTACK, 24, STACK
        LOCFRAME IOVERLAY, 0, STATIC
        LOCFRAME DOVERLAY, 0, STATIC
        ARGFRAME ISTACK, 0, STACK
        ARGFRAME PSTACK, 0, STACK
        ARGFRAME XSTACK, 24, STACK
        ARGFRAME IOVERLAY, 0, STATIC
        ARGFRAME DOVERLAY, 0, STATIC
        REQUIRE ?V0
        REQUIRE ?V1
        REQUIRE ?V2
        REQUIRE ?V3
        MOV     A,#-0xc
        LCALL   ?BANKED_ENTER_XDATA
          CFI DPH0 load(1, XDATA, add(CFA_XSP16, literal(-1)))
          CFI DPL0 load(1, XDATA, add(CFA_XSP16, literal(-2)))
          CFI ?BRET_EXT load(1, XDATA, add(CFA_XSP16, literal(-3)))
          CFI ?RET_HIGH load(1, XDATA, add(CFA_XSP16, literal(-4)))
          CFI ?RET_LOW load(1, XDATA, add(CFA_XSP16, literal(-5)))
          CFI R7 load(1, XDATA, add(CFA_XSP16, literal(-6)))
          CFI V3 load(1, XDATA, add(CFA_XSP16, literal(-7)))
          CFI V2 load(1, XDATA, add(CFA_XSP16, literal(-8)))
          CFI V1 load(1, XDATA, add(CFA_XSP16, literal(-9)))
          CFI V0 load(1, XDATA, add(CFA_XSP16, literal(-10)))
          CFI VB load(1, XDATA, add(CFA_XSP16, literal(-11)))
          CFI R6 load(1, XDATA, add(CFA_XSP16, literal(-12)))
          CFI CFA_SP SP+0
          CFI CFA_XSP16 add(XSP16, 12)
        ; Saved register size: 12
        ; Auto size: 12
        MOV     A,#-0xc
        LCALL   ?ALLOC_XSTACK8
          CFI CFA_XSP16 add(XSP16, 24)
        MOV     A,R2
        MOV     R6,A
        MOV     A,R3
        MOV     R7,A
//  336   afIncomingMSGPacket_t *MSGpkt;
//  337   afDataConfirm_t *afDataConfirm;
//  338 
//  339   // Data Confirmation message fields
//  340   byte sentEP;
//  341 #if( ZSTACK_DEVICE_BUILD != DEVICE_BUILD_COORDINATOR) 
//  342   ZStatus_t sentStatus;
//  343 #endif 
//  344   byte sentTransID;       // This should match the value sent
//  345   (void)task_id;  // Intentionally unreferenced parameter
//  346 
//  347   if (events & GENERICAPP_FEED_DOG_EVT)
        ANL     A,#0x4
        JZ      ??GenericApp_ProcessEvent_0
//  348   {
//  349 #ifdef WDT_IN_PM1
//  350         WatchDogFeedDog();
//  351         osal_start_timerEx( GenericApp_TaskID,
//  352                       GENERICAPP_FEED_DOG_EVT,
//  353                       GENERICAPP_FEED_DOG_TIME_MAX);
//  354 #endif
//  355         return (events ^ GENERICAPP_FEED_DOG_EVT);
        MOV     A,R7
        XRL     A,#0x4
        LJMP    ??GenericApp_ProcessEvent_1 & 0xFFFF
//  356   }
//  357 
//  358   if ( events & SYS_EVENT_MSG )
??GenericApp_ProcessEvent_0:
        MOV     A,R7
        ANL     A,#0x80
        JNZ     $+5
        LJMP    ??GenericApp_ProcessEvent_2 & 0xFFFF
//  359   {
//  360     MSGpkt = (afIncomingMSGPacket_t *)osal_msg_receive( GenericApp_TaskID );
        ; Setup parameters for call to function osal_msg_receive
        SJMP    ??GenericApp_ProcessEvent_3
//  361     while ( MSGpkt )
//  362     {
//  363       switch ( MSGpkt->hdr.event )
//  364       {
//  365         case ZDO_CB_MSG:
//  366           GenericApp_ProcessZDOMsgs( (zdoIncomingMsg_t *)MSGpkt );
//  367           break;
//  368 
//  369         case KEY_CHANGE:
//  370           GenericApp_HandleKeys( ((keyChange_t *)MSGpkt)->state, ((keyChange_t *)MSGpkt)->keys );
//  371           break;
//  372 
//  373         case AF_DATA_CONFIRM_CMD:	
//  374           // This message is received as a confirmation of a data packet sent.
//  375           // The status is of ZStatus_t type [defined in ZComDef.h]
//  376           // The message fields are defined in AF.h
//  377           afDataConfirm = (afDataConfirm_t *)MSGpkt;
//  378 
//  379           sentEP = afDataConfirm->endpoint;
//  380           (void)sentEP;  // This info not used now
//  381           sentTransID = afDataConfirm->transID;
//  382           (void)sentTransID;  // This info not used now
//  383 
//  384 #if 1   //chaokw ping
//  385 #if( ZSTACK_DEVICE_BUILD != DEVICE_BUILD_COORDINATOR)		
//  386           sentStatus = afDataConfirm->hdr.status;
//  387           // Action taken when confirmation is received.
//  388           if ( sentStatus != ZSuccess )
//  389           {
//  390             // The data wasn't delivered -- Do something
//  391 #if defined( LCD_SUPPORTED )
//  392                 HalLcdWriteStringValue( (char*)"aps ack:", sentStatus, 16, HAL_LCD_LINE_2 );  //chaokw		
//  393 #endif
//  394 
//  395 //---------------------------------------
//  396 #if 0
//  397                 if(0x0000 == _NIB.nwkCoordAddress)
//  398                 {
//  399                    if(sentStatus == ZMacNoACK)
//  400                      ping_error_cnt++;
//  401                 }
//  402 		  else
//  403 		  {
//  404 		     if(sentStatus == ZApsNoAck)
//  405                      ping_error_cnt++;
//  406 		  }
//  407 #else
//  408                 ping_error_cnt++;
//  409 #endif
//  410 //----------------------------------------
//  411 
//  412                 if(ping_error_cnt < TIMEOUT_CNT)
//  413                 {
//  414 		      //SerialApp_ping_request_init();
//  415                 }
//  416 		  else if(ping_error_cnt > TIMEOUT_CNT)
//  417 		  {
//  418                     ping_error_cnt = TIMEOUT_CNT;
//  419 		      ping_result = 1;
//  420                     // rejoin network by zstack?
//  421 #if 0  //chaokw
//  422 		      // restart and clear NV mwk info
//  423 #if defined(NV_INIT) && defined(NV_RESTORE)
//  424                     NLME_InitNV();
//  425                     NLME_SetDefaultNV();
//  426                     ZDSecMgrClearNVKeyValues();
//  427 #endif
//  428                     Onboard_soft_reset();	
//  429 #else
//  430                     //Onboard_soft_reset();	 //chaokw ping
//  431 #endif
//  432 		  }
//  433           }
//  434           else
//  435           {
//  436                     ping_error_cnt = 0;    //chaokw 20170412
//  437                     ping_result = 0;
//  438 	   }
//  439 #if defined( LCD_SUPPORTED )		  
//  440           HalLcdWriteStringValue( (char*)"pingresult", ping_result, 10, HAL_LCD_LINE_1 );
//  441 #endif
//  442 #endif
//  443 #endif
//  444 
//  445           break;
//  446 
//  447         case AF_INCOMING_MSG_CMD:
//  448           GenericApp_MessageMSGCB( MSGpkt );
//  449           break;
//  450 
//  451         case ZDO_STATE_CHANGE:
//  452           GenericApp_NwkState = (devStates_t)(MSGpkt->hdr.status);
//  453 
//  454           if ((_NIB.nwkPanId >= (ZDAPP_CONFIG_PAN_ID + PANID_INCREASE_CNT))   //chaokw panid
//  455             || (zgConfigPANID >= (ZDAPP_CONFIG_PAN_ID + PANID_INCREASE_CNT)))
//  456           {
//  457   #if defined(NV_INIT) && defined(NV_RESTORE)
//  458               NLME_InitNV();
//  459               NLME_SetDefaultNV();
//  460               ZDSecMgrClearNVKeyValues();
//  461   #endif
//  462               Onboard_soft_reset();
//  463           }            
//  464 
//  465 
//  466 #if defined( LCD_SUPPORTED )			       
//  467              HalLcdWriteStringValue( (char*)"panid:", _NIB.nwkPanId, 16, HAL_LCD_LINE_1 ); 
//  468              HalLcdWriteStringValue( (char*)"devState:", devState, 10, HAL_LCD_LINE_3 ); 			 
//  469 #endif			  
//  470 		  
//  471           if ( (GenericApp_NwkState == DEV_ROUTER) ||
//  472                (GenericApp_NwkState == DEV_END_DEVICE) )
//  473           {
//  474 	      CustomApp_loadstatus_ind();	  
//  475 	      CustomApp_ping_request_init();
//  476              CustomApp_ping_timeout_check_init();  //chaokw ping		  
//  477              CustomApp_send_ping_req();  //chaokw  20170322	
//  478              osal_start_timerEx( GenericApp_TaskID,
//  479 					GENERICAPP_LOADSTATUS_MSG_EVT,
//  480 					5000); 		 
//  481           }
//  482 		  
//  483           if ( (GenericApp_NwkState == DEV_ZB_COORD) )
//  484           {
//  485              CustomApp_coordinator_online_req();
//  486              osal_start_timerEx( GenericApp_TaskID,
//  487 					GENERICAPP_COORDINATOR_ONLINE_EVT,
//  488 					5000); 			 
//  489              CustomApp_coordinater_broadcast_ping_init();  //chaokw ping			 
//  490           }		 
//  491           break;
//  492 
//  493 
//  494 #if defined( ZDO_COORDINATOR ) && defined( WIFI_FREQUENCY_SELECT )
//  495         case ZDO_CHANNEL_UPDATE:
//  496           CustomApp_ChannelSelect(MSGpkt);
//  497 	   break;
//  498 #endif
//  499 		  
//  500         case ZDO_P2P_REQ:
//  501           CustomApp_Send_P2P_Data(MSGpkt);
//  502           break;
//  503 
//  504         case ZDO_GROUP_REQ:
//  505           CustomApp_Send_Group_Data(MSGpkt);
//  506           break;
//  507 		  
//  508         case ZDO_BROADCAST_REQ:
//  509           CustomApp_Send_BroadCast_Data(MSGpkt);
//  510           break;			  
//  511 
//  512         case ZDO_MAC_REQ:
//  513           CustomApp_Get_ExtAddr();
//  514           break;
//  515 
//  516         case ZDO_NWKINFO_REQ:
//  517           CustomApp_Get_NWKInfo();
//  518           break;
//  519 
//  520         case ZDO_ACTIVE_CNT_REQ:
//  521           CustomApp_Get_Active_Cnt();
//  522           break;
//  523 
//  524         case ZDO_FW_VERSION_REQ:
//  525           CustomApp_Get_Version();
//  526           break;
//  527 
//  528         case ZDO_FW_UPDATE_REQ:
//  529           CustomApp_FW_Update();
//  530           break;
//  531 
//  532         case ZDO_MULTIWAY_SET_REQ:
//  533           CustomApp_Set_Multiway(MSGpkt);
??GenericApp_ProcessEvent_4:
        ; Setup parameters for call to function CustomApp_Set_Multiway
        MOV     R2,?V0
        MOV     R3,?V1
        LCALL   `??CustomApp_Set_Multiway::?relay`; Banked call to: CustomApp_Set_Multiway
//  534           break;
//  535 		  
//  536         default:
//  537           break;
//  538       }
//  539       // Release the memory
//  540       osal_msg_deallocate( (uint8 *)MSGpkt );
??GenericApp_ProcessEvent_5:
        ; Setup parameters for call to function osal_msg_deallocate
        MOV     R2,?V0
        MOV     R3,?V1
        LCALL   `??osal_msg_deallocate::?relay`; Banked call to: osal_msg_deallocate
//  541 
//  542       // Next
//  543       MSGpkt = (afIncomingMSGPacket_t *)osal_msg_receive( GenericApp_TaskID );
        ; Setup parameters for call to function osal_msg_receive
??GenericApp_ProcessEvent_3:
        MOV     DPTR,#GenericApp_TaskID
        MOVX    A,@DPTR
        MOV     R1,A
        LCALL   `??osal_msg_receive::?relay`; Banked call to: osal_msg_receive
        MOV     ?V0,R2
        MOV     ?V1,R3
        MOV     A,?V0
        ORL     A,?V1
        JNZ     $+5
        LJMP    ??GenericApp_ProcessEvent_6 & 0xFFFF
        MOV     DPL,?V0
        MOV     DPH,?V1
        MOVX    A,@DPTR
        ADD     A,#-0x1a
        JNZ     $+5
        LJMP    ??GenericApp_ProcessEvent_7 & 0xFFFF
        ADD     A,#0x5a
        JZ      ??GenericApp_ProcessEvent_8
        ADD     A,#-0x11
        JNZ     $+5
        LJMP    ??GenericApp_ProcessEvent_9 & 0xFFFF
        ADD     A,#-0x2
        JZ      ??GenericApp_ProcessEvent_10
        ADD     A,#-0xe
        JNZ     $+5
        LJMP    ??GenericApp_ProcessEvent_11 & 0xFFFF
        ADD     A,#-0x2
        JNZ     $+5
        LJMP    ??GenericApp_ProcessEvent_12 & 0xFFFF
        ADD     A,#-0x4
        JNZ     $+5
        LJMP    ??GenericApp_ProcessEvent_13 & 0xFFFF
        DEC     A
        JNZ     $+5
        LJMP    ??GenericApp_ProcessEvent_14 & 0xFFFF
        DEC     A
        JNZ     $+5
        LJMP    ??GenericApp_ProcessEvent_15 & 0xFFFF
        DEC     A
        JNZ     $+5
        LJMP    ??GenericApp_ProcessEvent_16 & 0xFFFF
        ADD     A,#-0x2
        JZ      ??GenericApp_ProcessEvent_4
        DEC     A
        JNZ     $+5
        LJMP    ??GenericApp_ProcessEvent_17 & 0xFFFF
        DEC     A
        JNZ     $+5
        LJMP    ??GenericApp_ProcessEvent_18 & 0xFFFF
        ADD     A,#-0xf
        JZ      ??GenericApp_ProcessEvent_19
        SJMP    ??GenericApp_ProcessEvent_5
??GenericApp_ProcessEvent_10:
        ; Setup parameters for call to function GenericApp_ProcessZDOMsgs
        MOV     R2,?V0
        MOV     R3,?V1
        LCALL   `??GenericApp_ProcessZDOMsgs::?relay`; Banked call to: GenericApp_ProcessZDOMsgs
        SJMP    ??GenericApp_ProcessEvent_5
??GenericApp_ProcessEvent_8:
        ; Setup parameters for call to function GenericApp_HandleKeys
        INC     DPTR
        INC     DPTR
        INC     DPTR
        MOVX    A,@DPTR
        MOV     R2,A
        MOV     DPL,?V0
        MOV     DPH,?V1
        INC     DPTR
        INC     DPTR
        MOVX    A,@DPTR
        MOV     R1,A
        LCALL   `??GenericApp_HandleKeys::?relay`; Banked call to: GenericApp_HandleKeys
        LJMP    ??GenericApp_ProcessEvent_5 & 0xFFFF
??GenericApp_ProcessEvent_19:
        INC     DPTR
        MOVX    A,@DPTR
        MOV     R4,A
        JZ      ??GenericApp_ProcessEvent_20
        ; Setup parameters for call to function HalLcdWriteStringValue
        MOV     ?V2,#0x3
        MOV     R0,#?V2
        LCALL   ?PUSH_XSTACK_I_ONE
          CFI CFA_XSP16 add(XSP16, 25)
        MOV     R1,#0x10
        MOV     R5,#0x0
        MOV     R2,#`?<Constant "aps ack:">` & 0xff
        MOV     R3,#(`?<Constant "aps ack:">` >> 8) & 0xff
        LCALL   `??HalLcdWriteStringValue::?relay`; Banked call to: HalLcdWriteStringValue
        MOV     A,#0x1
        LCALL   ?DEALLOC_XSTACK8
          CFI CFA_XSP16 add(XSP16, 24)
        MOV     DPTR,#ping_error_cnt
        LCALL   ?Subroutine22 & 0xFFFF
??CrossCallReturnLabel_23:
        JC      ??GenericApp_ProcessEvent_21
        MOVX    A,@DPTR
        CLR     C
        SUBB    A,#0x5
        JC      ??GenericApp_ProcessEvent_21
        MOV     A,#0x4
        MOVX    @DPTR,A
        MOV     DPTR,#ping_result
        MOV     A,#0x1
        SJMP    ??GenericApp_ProcessEvent_22
??GenericApp_ProcessEvent_20:
        MOV     DPTR,#ping_error_cnt
        CLR     A
        MOVX    @DPTR,A
        MOV     DPTR,#ping_result
??GenericApp_ProcessEvent_22:
        MOVX    @DPTR,A
??GenericApp_ProcessEvent_21:
        ; Setup parameters for call to function HalLcdWriteStringValue
        MOV     ?V2,#0x1
        MOV     R0,#?V2
        LCALL   ?PUSH_XSTACK_I_ONE
          CFI CFA_XSP16 add(XSP16, 25)
        MOV     R1,#0xa
        MOV     DPTR,#ping_result
        MOVX    A,@DPTR
        MOV     R4,A
        MOV     R5,#0x0
        MOV     R2,#`?<Constant "pingresult">` & 0xff
        MOV     R3,#(`?<Constant "pingresult">` >> 8) & 0xff
        LCALL   `??HalLcdWriteStringValue::?relay`; Banked call to: HalLcdWriteStringValue
        MOV     A,#0x1
        LCALL   ?DEALLOC_XSTACK8
          CFI CFA_XSP16 add(XSP16, 24)
        LJMP    ??GenericApp_ProcessEvent_5 & 0xFFFF
??GenericApp_ProcessEvent_7:
        ; Setup parameters for call to function GenericApp_MessageMSGCB
        MOV     R2,?V0
        MOV     R3,?V1
        LCALL   `??GenericApp_MessageMSGCB::?relay`; Banked call to: GenericApp_MessageMSGCB
        LJMP    ??GenericApp_ProcessEvent_5 & 0xFFFF
??GenericApp_ProcessEvent_9:
        INC     DPTR
        MOVX    A,@DPTR
        MOV     DPTR,#GenericApp_NwkState
        MOVX    @DPTR,A
        MOV     DPTR,#_NIB + 33
        CLR     C
        MOVX    A,@DPTR
        SUBB    A,#0x6
        INC     DPTR
        MOVX    A,@DPTR
        SUBB    A,#0x1
        JNC     ??GenericApp_ProcessEvent_23
        MOV     DPTR,#zgConfigPANID
        CLR     C
        MOVX    A,@DPTR
        SUBB    A,#0x6
        INC     DPTR
        MOVX    A,@DPTR
        SUBB    A,#0x1
        JC      ??GenericApp_ProcessEvent_24
??GenericApp_ProcessEvent_23:
        ; Setup parameters for call to function Onboard_soft_reset
        LCALL   Onboard_soft_reset & 0xFFFF
??GenericApp_ProcessEvent_24:
        ; Setup parameters for call to function HalLcdWriteStringValue
        MOV     ?V2,#0x1
        MOV     R0,#?V2
        LCALL   ?PUSH_XSTACK_I_ONE
          CFI CFA_XSP16 add(XSP16, 25)
        MOV     R1,#0x10
        MOV     DPTR,#_NIB + 33
        LCALL   ??Subroutine46_0 & 0xFFFF
??CrossCallReturnLabel_80:
        MOV     R2,#`?<Constant "panid:">` & 0xff
        MOV     R3,#(`?<Constant "panid:">` >> 8) & 0xff
        LCALL   `??HalLcdWriteStringValue::?relay`; Banked call to: HalLcdWriteStringValue
        MOV     A,#0x1
        LCALL   ?DEALLOC_XSTACK8
          CFI CFA_XSP16 add(XSP16, 24)
        ; Setup parameters for call to function HalLcdWriteStringValue
        MOV     ?V2,#0x5
        MOV     R0,#?V2
        LCALL   ?PUSH_XSTACK_I_ONE
          CFI CFA_XSP16 add(XSP16, 25)
        MOV     R1,#0xa
        MOV     DPTR,#devState
        MOVX    A,@DPTR
        MOV     R4,A
        MOV     R5,#0x0
        MOV     R2,#`?<Constant "devState:">` & 0xff
        MOV     R3,#(`?<Constant "devState:">` >> 8) & 0xff
        LCALL   `??HalLcdWriteStringValue::?relay`; Banked call to: HalLcdWriteStringValue
        MOV     A,#0x1
        LCALL   ?DEALLOC_XSTACK8
          CFI CFA_XSP16 add(XSP16, 24)
        MOV     DPTR,#GenericApp_NwkState
        MOVX    A,@DPTR
        XRL     A,#0x7
        JZ      ??GenericApp_ProcessEvent_25
        MOVX    A,@DPTR
        XRL     A,#0x6
        JNZ     ??GenericApp_ProcessEvent_26
??GenericApp_ProcessEvent_25:
        ; Setup parameters for call to function CustomApp_loadstatus_ind
        LCALL   `??CustomApp_loadstatus_ind::?relay`; Banked call to: CustomApp_loadstatus_ind
        ; Setup parameters for call to function CustomApp_ping_request_init
        LCALL   `??CustomApp_ping_request_init::?relay`; Banked call to: CustomApp_ping_request_init
        ; Setup parameters for call to function CustomApp_ping_timeout_check_init
        LCALL   `??CustomApp_ping_timeout_check_init::?relay`; Banked call to: CustomApp_ping_timeout_check_init
        ; Setup parameters for call to function CustomApp_send_ping_req
        LCALL   `??CustomApp_send_ping_req::?relay`; Banked call to: CustomApp_send_ping_req
        ; Setup parameters for call to function osal_start_timerEx
        MOV     DPTR,#__Constant_1388
        LCALL   ?PUSH_XSTACK8_X_FOUR
          CFI CFA_XSP16 add(XSP16, 28)
        MOV     R2,#0x40
        MOV     R3,#0x0
        MOV     DPTR,#GenericApp_TaskID
        MOVX    A,@DPTR
        MOV     R1,A
        LCALL   `??osal_start_timerEx::?relay`; Banked call to: osal_start_timerEx
        MOV     A,#0x4
        LCALL   ?DEALLOC_XSTACK8
          CFI CFA_XSP16 add(XSP16, 24)
??GenericApp_ProcessEvent_26:
        MOV     DPTR,#GenericApp_NwkState
        MOVX    A,@DPTR
        XRL     A,#0x9
        JZ      $+5
        LJMP    ??GenericApp_ProcessEvent_5 & 0xFFFF
        ; Setup parameters for call to function CustomApp_coordinator_online_req
        LCALL   `??CustomApp_coordinator_online_req::?relay`; Banked call to: CustomApp_coordinator_online_req
        ; Setup parameters for call to function osal_start_timerEx
        MOV     DPTR,#__Constant_1388
        LCALL   ?PUSH_XSTACK8_X_FOUR
          CFI CFA_XSP16 add(XSP16, 28)
        MOV     R2,#0x0
        MOV     R3,#0x8
        MOV     DPTR,#GenericApp_TaskID
        MOVX    A,@DPTR
        MOV     R1,A
        LCALL   `??osal_start_timerEx::?relay`; Banked call to: osal_start_timerEx
        MOV     A,#0x4
        LCALL   ?DEALLOC_XSTACK8
          CFI CFA_XSP16 add(XSP16, 24)
        ; Setup parameters for call to function CustomApp_coordinater_broadcast_ping_init
        LCALL   `??CustomApp_coordinater_broadcast_ping_init::?r`; Banked call to: CustomApp_coordinater_broadcast_ping_init
        LJMP    ??GenericApp_ProcessEvent_5 & 0xFFFF
??GenericApp_ProcessEvent_11:
        ; Setup parameters for call to function CustomApp_Send_P2P_Data
        MOV     R2,?V0
        MOV     R3,?V1
        LCALL   `??CustomApp_Send_P2P_Data::?relay`; Banked call to: CustomApp_Send_P2P_Data
        LJMP    ??GenericApp_ProcessEvent_5 & 0xFFFF
??GenericApp_ProcessEvent_12:
        ; Setup parameters for call to function CustomApp_Send_Group_Data
        MOV     R2,?V0
        MOV     R3,?V1
        LCALL   `??CustomApp_Send_Group_Data::?relay`; Banked call to: CustomApp_Send_Group_Data
        LJMP    ??GenericApp_ProcessEvent_5 & 0xFFFF
??GenericApp_ProcessEvent_16:
        ; Setup parameters for call to function CustomApp_Send_BroadCast_Data
        MOV     R2,?V0
        MOV     R3,?V1
        LCALL   `??CustomApp_Send_BroadCast_Data::?relay`; Banked call to: CustomApp_Send_BroadCast_Data
        LJMP    ??GenericApp_ProcessEvent_5 & 0xFFFF
??GenericApp_ProcessEvent_13:
        ; Setup parameters for call to function CustomApp_Get_ExtAddr
        LCALL   `??CustomApp_Get_ExtAddr::?relay`; Banked call to: CustomApp_Get_ExtAddr
        LJMP    ??GenericApp_ProcessEvent_5 & 0xFFFF
??GenericApp_ProcessEvent_18:
        ; Setup parameters for call to function CustomApp_Get_NWKInfo
        LCALL   `??CustomApp_Get_NWKInfo::?relay`; Banked call to: CustomApp_Get_NWKInfo
        LJMP    ??GenericApp_ProcessEvent_5 & 0xFFFF
??GenericApp_ProcessEvent_17:
        ; Setup parameters for call to function CustomApp_Get_Active_Cnt
        LCALL   `??CustomApp_Get_Active_Cnt::?relay`; Banked call to: CustomApp_Get_Active_Cnt
        LJMP    ??GenericApp_ProcessEvent_5 & 0xFFFF
??GenericApp_ProcessEvent_14:
        ; Setup parameters for call to function CustomApp_Get_Version
        LCALL   `??CustomApp_Get_Version::?relay`; Banked call to: CustomApp_Get_Version
        LJMP    ??GenericApp_ProcessEvent_5 & 0xFFFF
??GenericApp_ProcessEvent_15:
        ; Setup parameters for call to function CustomApp_FW_Update
        LCALL   `??CustomApp_FW_Update::?relay`; Banked call to: CustomApp_FW_Update
        LJMP    ??GenericApp_ProcessEvent_5 & 0xFFFF
//  544     }
//  545 
//  546     // return unprocessed events
//  547     return (events ^ SYS_EVENT_MSG);
??GenericApp_ProcessEvent_6:
        MOV     A,R6
        MOV     R2,A
        MOV     A,R7
        XRL     A,#0x80
        LJMP    ??GenericApp_ProcessEvent_1 & 0xFFFF
//  548   }
//  549 
//  550   // Send a message out - This event is generated by a timer
//  551   //  (setup in GenericApp_Init()).
//  552   if ( events & GENERICAPP_SEND_MSG_EVT )
??GenericApp_ProcessEvent_2:
        MOV     A,R6
        MOV     C,0xE0 /* A   */.0
        JNC     ??GenericApp_ProcessEvent_27
//  553   {
//  554     // Send "the" message
//  555     GenericApp_SendTheMessage();  //chaokw
        MOV     DPTR,#`?<Constant "Hello World">`
        MOV     R4,?XSP + 0
        MOV     R5,?XSP + 1
        MOV     A,#0xc
        LCALL   ?MOVE_LONG8_XDATA_XDATA
        ; Setup parameters for call to function osal_strlen
        MOV     R2,?XSP + 0
        MOV     R3,?XSP + 1
        LCALL   `??osal_strlen::?relay`; Banked call to: osal_strlen
        ; Setup parameters for call to function AF_DataRequest
        MOV     ?V0,#0x1e
        MOV     R0,#?V0
        LCALL   ?PUSH_XSTACK_I_ONE
          CFI CFA_XSP16 add(XSP16, 25)
        MOV     ?V0,#GenericApp_TransID & 0xff
        MOV     ?V1,#(GenericApp_TransID >> 8) & 0xff
        MOV     R0,#?V0
        LCALL   ?PUSH_XSTACK_I_TWO
          CFI CFA_XSP16 add(XSP16, 27)
        MOV     A,#0x3
        LCALL   ?XSTACK_DISP100_8
        MOV     ?V0,R0
        MOV     ?V1,R1
        MOV     R0,#?V0
        LCALL   ?PUSH_XSTACK_I_TWO
          CFI CFA_XSP16 add(XSP16, 29)
        MOV     A,R2
        ADD     A,#0x1
        MOV     ?V0,A
        CLR     A
        ADDC    A,#0x0
        MOV     ?V1,A
        MOV     R0,#?V0
        LCALL   ?PUSH_XSTACK_I_TWO
          CFI CFA_XSP16 add(XSP16, 31)
        MOV     ?V0,#0x1
        MOV     ?V1,#0x0
        MOV     R0,#?V0
        LCALL   ?PUSH_XSTACK_I_TWO
          CFI CFA_XSP16 add(XSP16, 33)
        MOV     R1,#0x0
        MOV     R4,#GenericApp_epDesc & 0xff
        MOV     R5,#(GenericApp_epDesc >> 8) & 0xff
        MOV     R2,#GenericApp_DstAddr & 0xff
        MOV     R3,#(GenericApp_DstAddr >> 8) & 0xff
        LCALL   `??AF_DataRequest::?relay`; Banked call to: AF_DataRequest
        MOV     A,#0x9
        LCALL   ?DEALLOC_XSTACK8
          CFI CFA_XSP16 add(XSP16, 24)
//  556 
//  557     // Setup to send message again
//  558     osal_start_timerEx( GenericApp_TaskID,
//  559                         GENERICAPP_SEND_MSG_EVT,
//  560                         txMsgDelay );
        ; Setup parameters for call to function osal_start_timerEx
        MOV     DPTR,#txMsgDelay
        LCALL   ?PUSH_XSTACK8_X_FOUR
          CFI CFA_XSP16 add(XSP16, 28)
        MOV     R2,#0x1
        MOV     R3,#0x0
        MOV     DPTR,#GenericApp_TaskID
        MOVX    A,@DPTR
        MOV     R1,A
        LCALL   `??osal_start_timerEx::?relay`; Banked call to: osal_start_timerEx
        MOV     A,#0x4
        LCALL   ?DEALLOC_XSTACK8
          CFI CFA_XSP16 add(XSP16, 24)
//  561 
//  562     // return unprocessed events
//  563     return (events ^ GENERICAPP_SEND_MSG_EVT);
        MOV     A,R6
        XRL     A,#0x1
        LJMP    ??GenericApp_ProcessEvent_28 & 0xFFFF
//  564   }
//  565 
//  566 #if defined( IAR_ARMCM3_LM )
//  567   // Receive a message from the RTOS queue
//  568   if ( events & GENERICAPP_RTOS_MSG_EVT )
//  569   {
//  570     // Process message from RTOS queue
//  571     GenericApp_ProcessRtosMessage();
//  572 
//  573     // return unprocessed events
//  574     return (events ^ GENERICAPP_RTOS_MSG_EVT);
//  575   }
//  576 #endif
//  577 
//  578 
//  579    if ( events & GENERICAPP_PING_MSG_EVT)
??GenericApp_ProcessEvent_27:
        ANL     A,#0x4
        JZ      ??GenericApp_ProcessEvent_29
//  580    {
//  581 	osal_stop_timerEx( GenericApp_TaskID, GENERICAPP_PING_MSG_EVT );
        ; Setup parameters for call to function osal_stop_timerEx
        MOV     R2,#0x4
        MOV     R3,#0x0
        MOV     DPTR,#GenericApp_TaskID
        MOVX    A,@DPTR
        MOV     R1,A
        LCALL   `??osal_stop_timerEx::?relay`; Banked call to: osal_stop_timerEx
//  582 	CustomApp_send_ping_req();
        ; Setup parameters for call to function CustomApp_send_ping_req
        LCALL   `??CustomApp_send_ping_req::?relay`; Banked call to: CustomApp_send_ping_req
//  583 	osal_start_timerEx( GenericApp_TaskID, GENERICAPP_PING_MSG_EVT, PING_PERIOD);
        ; Setup parameters for call to function osal_start_timerEx
        MOV     DPTR,#__Constant_3a98
        LCALL   ?PUSH_XSTACK8_X_FOUR
          CFI CFA_XSP16 add(XSP16, 28)
        MOV     R2,#0x4
        MOV     R3,#0x0
        MOV     DPTR,#GenericApp_TaskID
        MOVX    A,@DPTR
        MOV     R1,A
        LCALL   `??osal_start_timerEx::?relay`; Banked call to: osal_start_timerEx
        MOV     A,#0x4
        LCALL   ?DEALLOC_XSTACK8
          CFI CFA_XSP16 add(XSP16, 24)
//  584 
//  585 	return (events ^ GENERICAPP_PING_MSG_EVT);	
        MOV     A,R6
        XRL     A,#0x4
        LJMP    ??GenericApp_ProcessEvent_28 & 0xFFFF
//  586    }
//  587 
//  588 
//  589    if ( events & GENERICAPP_LINK_STATUS_EVT)
??GenericApp_ProcessEvent_29:
        MOV     A,R6
        ANL     A,#0x8
        JZ      ??GenericApp_ProcessEvent_30
//  590    {
//  591 	osal_stop_timerEx( GenericApp_TaskID, GENERICAPP_LINK_STATUS_EVT );
        ; Setup parameters for call to function osal_stop_timerEx
        MOV     R2,#0x8
        MOV     R3,#0x0
        MOV     DPTR,#GenericApp_TaskID
        MOVX    A,@DPTR
        MOV     R1,A
        LCALL   `??osal_stop_timerEx::?relay`; Banked call to: osal_stop_timerEx
//  592 	CustomApp_linkstatus_updated();
        ; Setup parameters for call to function CustomApp_linkstatus_updated
        LCALL   `??CustomApp_linkstatus_updated::?relay`; Banked call to: CustomApp_linkstatus_updated
//  593 	osal_start_timerEx( GenericApp_TaskID, GENERICAPP_LINK_STATUS_EVT, LINKSTAT_PRRIOD);
        ; Setup parameters for call to function osal_start_timerEx
        MOV     DPTR,#__Constant_3a98
        LCALL   ?PUSH_XSTACK8_X_FOUR
          CFI CFA_XSP16 add(XSP16, 28)
        MOV     R2,#0x8
        MOV     R3,#0x0
        MOV     DPTR,#GenericApp_TaskID
        MOVX    A,@DPTR
        MOV     R1,A
        LCALL   `??osal_start_timerEx::?relay`; Banked call to: osal_start_timerEx
        MOV     A,#0x4
        LCALL   ?DEALLOC_XSTACK8
          CFI CFA_XSP16 add(XSP16, 24)
//  594 
//  595 	return (events ^ GENERICAPP_LINK_STATUS_EVT);	
        MOV     A,R6
        XRL     A,#0x8
        SJMP    ??GenericApp_ProcessEvent_28
//  596    }
//  597 
//  598 #if( ZSTACK_DEVICE_BUILD != DEVICE_BUILD_COORDINATOR)	
//  599    if ( events & GENERICAPP_PING_TIMEOUT_CHECK_EVT)   //chaokw ping
??GenericApp_ProcessEvent_30:
        MOV     A,R6
        ANL     A,#0x80
        JZ      ??GenericApp_ProcessEvent_31
//  600    {
//  601 	osal_stop_timerEx( GenericApp_TaskID, GENERICAPP_PING_TIMEOUT_CHECK_EVT );
        ; Setup parameters for call to function osal_stop_timerEx
        MOV     R2,#-0x80
        MOV     R3,#0x0
        MOV     DPTR,#GenericApp_TaskID
        MOVX    A,@DPTR
        MOV     R1,A
        LCALL   `??osal_stop_timerEx::?relay`; Banked call to: osal_stop_timerEx
//  602 	CustomApp_ping_timeout_check();
        ; Setup parameters for call to function CustomApp_ping_timeout_check
        LCALL   `??CustomApp_ping_timeout_check::?relay`; Banked call to: CustomApp_ping_timeout_check
//  603 	osal_start_timerEx( GenericApp_TaskID, GENERICAPP_PING_TIMEOUT_CHECK_EVT, PING_TIMEOUT_CHECK);
        ; Setup parameters for call to function osal_start_timerEx
        MOV     DPTR,#__Constant_2710
        LCALL   ?PUSH_XSTACK8_X_FOUR
          CFI CFA_XSP16 add(XSP16, 28)
        MOV     R2,#-0x80
        MOV     R3,#0x0
        MOV     DPTR,#GenericApp_TaskID
        MOVX    A,@DPTR
        MOV     R1,A
        LCALL   `??osal_start_timerEx::?relay`; Banked call to: osal_start_timerEx
        MOV     A,#0x4
        LCALL   ?DEALLOC_XSTACK8
          CFI CFA_XSP16 add(XSP16, 24)
//  604 
//  605 	return (events ^ GENERICAPP_PING_TIMEOUT_CHECK_EVT);	
        MOV     A,R6
        XRL     A,#0x80
        SJMP    ??GenericApp_ProcessEvent_28
//  606    }   
//  607 #endif
//  608 
//  609    if ( events & GENERICAPP_COORDINATER_BROADCAST_PING_EVT)  //chaokw ping
??GenericApp_ProcessEvent_31:
        MOV     A,R7
        ANL     A,#0x1
        JZ      ??GenericApp_ProcessEvent_32
//  610    {
//  611 	osal_stop_timerEx( GenericApp_TaskID, GENERICAPP_COORDINATER_BROADCAST_PING_EVT );
        ; Setup parameters for call to function osal_stop_timerEx
        MOV     R2,#0x0
        MOV     R3,#0x1
        MOV     DPTR,#GenericApp_TaskID
        MOVX    A,@DPTR
        MOV     R1,A
        LCALL   `??osal_stop_timerEx::?relay`; Banked call to: osal_stop_timerEx
//  612 	CustomApp_coordinater_broadcast_ping();
        ; Setup parameters for call to function CustomApp_coordinater_broadcast_ping
        LCALL   `??CustomApp_coordinater_broadcast_ping::?relay`; Banked call to: CustomApp_coordinater_broadcast_ping
//  613 	osal_start_timerEx( GenericApp_TaskID, GENERICAPP_COORDINATER_BROADCAST_PING_EVT, PING_PERIOD);
        ; Setup parameters for call to function osal_start_timerEx
        MOV     DPTR,#__Constant_3a98
        LCALL   ?PUSH_XSTACK8_X_FOUR
          CFI CFA_XSP16 add(XSP16, 28)
        MOV     R2,#0x0
        MOV     R3,#0x1
        MOV     DPTR,#GenericApp_TaskID
        MOVX    A,@DPTR
        MOV     R1,A
        LCALL   `??osal_start_timerEx::?relay`; Banked call to: osal_start_timerEx
        MOV     A,#0x4
        LCALL   ?DEALLOC_XSTACK8
          CFI CFA_XSP16 add(XSP16, 24)
//  614 
//  615 	return (events ^ GENERICAPP_COORDINATER_BROADCAST_PING_EVT);	
        MOV     A,R6
        MOV     R2,A
        MOV     A,R7
        XRL     A,#0x1
        LJMP    ??GenericApp_ProcessEvent_1 & 0xFFFF
//  616    }
//  617 
//  618 
//  619    if ( events & GENERICAPP_RESET_SB_MSG_EVT )
??GenericApp_ProcessEvent_32:
        MOV     A,R6
        ANL     A,#0x20
        JZ      ??GenericApp_ProcessEvent_33
//  620    {
//  621     	Onboard_soft_reset();
        ; Setup parameters for call to function Onboard_soft_reset
        LCALL   Onboard_soft_reset & 0xFFFF
//  622    	return ( events ^ GENERICAPP_RESET_SB_MSG_EVT );
        MOV     A,R6
        XRL     A,#0x20
        SJMP    ??GenericApp_ProcessEvent_28
//  623    }
//  624 
//  625    if ( events & GENERICAPP_LOADSTATUS_MSG_EVT)
??GenericApp_ProcessEvent_33:
        MOV     A,R6
        ANL     A,#0x40
        JZ      ??GenericApp_ProcessEvent_34
//  626    {
//  627        CustomApp_loadstatus_ind();
        ; Setup parameters for call to function CustomApp_loadstatus_ind
        LCALL   `??CustomApp_loadstatus_ind::?relay`; Banked call to: CustomApp_loadstatus_ind
//  628 	return (events ^ GENERICAPP_LOADSTATUS_MSG_EVT);	
        MOV     A,R6
        XRL     A,#0x40
??GenericApp_ProcessEvent_28:
        MOV     R2,A
        MOV     A,R7
        LJMP    ??GenericApp_ProcessEvent_1 & 0xFFFF
//  629    }
//  630 
//  631    if ( events & GENERICAPP_COORDINATOR_ONLINE_EVT)
??GenericApp_ProcessEvent_34:
        MOV     A,R7
        ANL     A,#0x8
        JZ      ??GenericApp_ProcessEvent_35
//  632    { 
//  633        osal_stop_timerEx( GenericApp_TaskID, GENERICAPP_COORDINATOR_ONLINE_EVT );
        ; Setup parameters for call to function osal_stop_timerEx
        MOV     R2,#0x0
        MOV     R3,#0x8
        MOV     DPTR,#GenericApp_TaskID
        MOVX    A,@DPTR
        MOV     R1,A
        LCALL   `??osal_stop_timerEx::?relay`; Banked call to: osal_stop_timerEx
//  634        zc_online_report_cnt ++;
        MOV     DPTR,#zc_online_report_cnt
        LCALL   ?Subroutine22 & 0xFFFF
//  635        if (zc_online_report_cnt <= 3)
??CrossCallReturnLabel_24:
        JNC     ??GenericApp_ProcessEvent_36
//  636        {
//  637            CustomApp_coordinator_online_req();
        ; Setup parameters for call to function CustomApp_coordinator_online_req
        LCALL   `??CustomApp_coordinator_online_req::?relay`; Banked call to: CustomApp_coordinator_online_req
//  638 	    osal_start_timerEx( GenericApp_TaskID, GENERICAPP_COORDINATOR_ONLINE_EVT, 5000);
        ; Setup parameters for call to function osal_start_timerEx
        MOV     DPTR,#__Constant_1388
        LCALL   ?PUSH_XSTACK8_X_FOUR
          CFI CFA_XSP16 add(XSP16, 28)
        MOV     R2,#0x0
        MOV     R3,#0x8
        MOV     DPTR,#GenericApp_TaskID
        MOVX    A,@DPTR
        MOV     R1,A
        LCALL   `??osal_start_timerEx::?relay`; Banked call to: osal_start_timerEx
        MOV     A,#0x4
        LCALL   ?DEALLOC_XSTACK8
          CFI CFA_XSP16 add(XSP16, 24)
//  639        }
//  640 	return (events ^ GENERICAPP_COORDINATOR_ONLINE_EVT);	
??GenericApp_ProcessEvent_36:
        MOV     A,R6
        MOV     R2,A
        MOV     A,R7
        XRL     A,#0x8
        SJMP    ??GenericApp_ProcessEvent_1
//  641    }
//  642 
//  643 #if 0
//  644    if ( events & GENERICAPP_ROUTER_ONLINE_EVT)
//  645    {
//  646        osal_stop_timerEx( GenericApp_TaskID, GENERICAPP_ROUTER_ONLINE_EVT );
//  647        zr_online_report_cnt ++;
//  648        if (zr_online_report_cnt <= 3)
//  649        {
//  650            CustomApp_router_online_req();
//  651 	    osal_start_timerEx( GenericApp_TaskID, GENERICAPP_ROUTER_ONLINE_EVT, 5000);
//  652        }
//  653 	return (events ^ GENERICAPP_ROUTER_ONLINE_EVT);	
//  654    }
//  655 #endif   
//  656 
//  657    if ( events & GENERICAPP_CHANNEL_MSG_EVT )
??GenericApp_ProcessEvent_35:
        MOV     A,R6
        ANL     A,#0x10
        JZ      ??GenericApp_ProcessEvent_37
//  658    {
//  659 #if defined( ZDO_COORDINATOR ) && defined( WIFI_FREQUENCY_SELECT )
//  660        CustomApp_WifiChannelReq();
//  661 #endif
//  662        return ( events ^ GENERICAPP_CHANNEL_MSG_EVT );
        MOV     A,R6
        XRL     A,#0x10
        MOV     R2,A
        SJMP    ??GenericApp_ProcessEvent_38
//  663    }
//  664 
//  665 //-----------------------------------------------------chaokw
//  666 	if (events & GENERICAPP_PERMIT_JOIN_MSG_EVT)
??GenericApp_ProcessEvent_37:
        MOV     A,R7
        ANL     A,#0x20
        JZ      ??GenericApp_ProcessEvent_39
//  667 	{
//  668 #ifndef ZDO_COORDINATOR
//  669 		if (transfer_join_times++ < 3)
        MOV     DPTR,#transfer_join_times
        MOVX    A,@DPTR
        MOV     R0,A
        MOV     A,#0x1
        ADD     A,R0
        MOVX    @DPTR,A
        MOV     A,R0
        CLR     C
        SUBB    A,#0x3
        JNC     ??GenericApp_ProcessEvent_40
//  670 		{
//  671 			GenericApp_Device_JoinReq();
        ; Setup parameters for call to function GenericApp_Device_JoinReq
        LCALL   `??GenericApp_Device_JoinReq::?relay`; Banked call to: GenericApp_Device_JoinReq
//  672 			osal_start_timerEx(GenericApp_TaskID,
//  673 								GENERICAPP_PERMIT_JOIN_MSG_EVT,
//  674 								2000);
        ; Setup parameters for call to function osal_start_timerEx
        MOV     DPTR,#__Constant_7d0
        LCALL   ?PUSH_XSTACK8_X_FOUR
          CFI CFA_XSP16 add(XSP16, 28)
        MOV     R2,#0x0
        MOV     R3,#0x20
        MOV     DPTR,#GenericApp_TaskID
        MOVX    A,@DPTR
        MOV     R1,A
        LCALL   `??osal_start_timerEx::?relay`; Banked call to: osal_start_timerEx
        MOV     A,#0x4
        LCALL   ?DEALLOC_XSTACK8
          CFI CFA_XSP16 add(XSP16, 24)
//  675 		}
//  676 #endif
//  677 		return ( events ^ GENERICAPP_PERMIT_JOIN_MSG_EVT );
??GenericApp_ProcessEvent_40:
        MOV     A,R6
        MOV     R2,A
        MOV     A,R7
        XRL     A,#0x20
        SJMP    ??GenericApp_ProcessEvent_1
//  678 	}
//  679 
//  680        if (events & GENERICAPP_CLEAR_JOIN_DEVICES_EVT)
??GenericApp_ProcessEvent_39:
        MOV     A,R7
        ANL     A,#0x40
        JZ      ??GenericApp_ProcessEvent_41
//  681 	{
//  682 		GenericApp_Free_Join_DeviceInfo(zdo_join_device);
        ; Setup parameters for call to function GenericApp_Free_Join_DeviceInfo
        MOV     DPTR,#zdo_join_device
        LCALL   ??Subroutine49_0 & 0xFFFF
??CrossCallReturnLabel_89:
        LCALL   `??GenericApp_Free_Join_DeviceInfo::?relay`; Banked call to: GenericApp_Free_Join_DeviceInfo
//  683 		return ( events ^ GENERICAPP_CLEAR_JOIN_DEVICES_EVT );
        MOV     A,R6
        MOV     R2,A
        MOV     A,R7
        XRL     A,#0x40
??GenericApp_ProcessEvent_1:
        MOV     R3,A
        SJMP    ??GenericApp_ProcessEvent_38
//  684 	}	
//  685 //-----------------------------------------------------------
//  686 	
//  687   // Discard unknown events
//  688   return 0;
??GenericApp_ProcessEvent_41:
        MOV     R2,#0x0
        MOV     R3,#0x0
??GenericApp_ProcessEvent_38:
        MOV     A,#0xc
        LJMP    ?Subroutine1 & 0xFFFF
//  689 }
          CFI EndBlock cfiBlock10
//  690 
//  691 /*********************************************************************
//  692  * Event Generation Functions
//  693  */
//  694 
//  695 /*********************************************************************
//  696  * @fn      GenericApp_ProcessZDOMsgs()
//  697  *
//  698  * @brief   Process response messages
//  699  *
//  700  * @param   none
//  701  *
//  702  * @return  none
//  703  */

        RSEG BANKED_CODE:CODE:NOROOT(0)
//  704 static void GenericApp_ProcessZDOMsgs( zdoIncomingMsg_t *inMsg )
GenericApp_ProcessZDOMsgs:
          CFI Block cfiBlock11 Using cfiCommon0
          CFI Function GenericApp_ProcessZDOMsgs
        CODE
//  705 {
        FUNCALL GenericApp_ProcessZDOMsgs, osal_mem_alloc
        LOCFRAME ISTACK, 0, STACK
        LOCFRAME PSTACK, 0, STACK
        LOCFRAME XSTACK, 39, STACK
        LOCFRAME IOVERLAY, 0, STATIC
        LOCFRAME DOVERLAY, 0, STATIC
        ARGFRAME ISTACK, 0, STACK
        ARGFRAME PSTACK, 0, STACK
        ARGFRAME XSTACK, 39, STACK
        ARGFRAME IOVERLAY, 0, STATIC
        ARGFRAME DOVERLAY, 0, STATIC
        FUNCALL GenericApp_ProcessZDOMsgs, ZDO_ParseDeviceAnnce
        LOCFRAME ISTACK, 0, STACK
        LOCFRAME PSTACK, 0, STACK
        LOCFRAME XSTACK, 39, STACK
        LOCFRAME IOVERLAY, 0, STATIC
        LOCFRAME DOVERLAY, 0, STATIC
        ARGFRAME ISTACK, 0, STACK
        ARGFRAME PSTACK, 0, STACK
        ARGFRAME XSTACK, 39, STACK
        ARGFRAME IOVERLAY, 0, STATIC
        ARGFRAME DOVERLAY, 0, STATIC
        FUNCALL GenericApp_ProcessZDOMsgs, osal_memcpy
        LOCFRAME ISTACK, 0, STACK
        LOCFRAME PSTACK, 0, STACK
        LOCFRAME XSTACK, 42, STACK
        LOCFRAME IOVERLAY, 0, STATIC
        LOCFRAME DOVERLAY, 0, STATIC
        ARGFRAME ISTACK, 0, STACK
        ARGFRAME PSTACK, 0, STACK
        ARGFRAME XSTACK, 42, STACK
        ARGFRAME IOVERLAY, 0, STATIC
        ARGFRAME DOVERLAY, 0, STATIC
        FUNCALL GenericApp_ProcessZDOMsgs, CustomApp_NodeRegister
        LOCFRAME ISTACK, 0, STACK
        LOCFRAME PSTACK, 0, STACK
        LOCFRAME XSTACK, 63, STACK
        LOCFRAME IOVERLAY, 0, STATIC
        LOCFRAME DOVERLAY, 0, STATIC
        ARGFRAME ISTACK, 0, STACK
        ARGFRAME PSTACK, 0, STACK
        ARGFRAME XSTACK, 63, STACK
        ARGFRAME IOVERLAY, 0, STATIC
        ARGFRAME DOVERLAY, 0, STATIC
        FUNCALL GenericApp_ProcessZDOMsgs, CustomApp_node_register_ind
        LOCFRAME ISTACK, 0, STACK
        LOCFRAME PSTACK, 0, STACK
        LOCFRAME XSTACK, 63, STACK
        LOCFRAME IOVERLAY, 0, STATIC
        LOCFRAME DOVERLAY, 0, STATIC
        ARGFRAME ISTACK, 0, STACK
        ARGFRAME PSTACK, 0, STACK
        ARGFRAME XSTACK, 63, STACK
        ARGFRAME IOVERLAY, 0, STATIC
        ARGFRAME DOVERLAY, 0, STATIC
        FUNCALL GenericApp_ProcessZDOMsgs, HalLcdWriteStringValue
        LOCFRAME ISTACK, 0, STACK
        LOCFRAME PSTACK, 0, STACK
        LOCFRAME XSTACK, 40, STACK
        LOCFRAME IOVERLAY, 0, STATIC
        LOCFRAME DOVERLAY, 0, STATIC
        ARGFRAME ISTACK, 0, STACK
        ARGFRAME PSTACK, 0, STACK
        ARGFRAME XSTACK, 40, STACK
        ARGFRAME IOVERLAY, 0, STATIC
        ARGFRAME DOVERLAY, 0, STATIC
        FUNCALL GenericApp_ProcessZDOMsgs, osal_mem_free
        LOCFRAME ISTACK, 0, STACK
        LOCFRAME PSTACK, 0, STACK
        LOCFRAME XSTACK, 39, STACK
        LOCFRAME IOVERLAY, 0, STATIC
        LOCFRAME DOVERLAY, 0, STATIC
        ARGFRAME ISTACK, 0, STACK
        ARGFRAME PSTACK, 0, STACK
        ARGFRAME XSTACK, 39, STACK
        ARGFRAME IOVERLAY, 0, STATIC
        ARGFRAME DOVERLAY, 0, STATIC
        FUNCALL GenericApp_ProcessZDOMsgs, HalLedSet
        LOCFRAME ISTACK, 0, STACK
        LOCFRAME PSTACK, 0, STACK
        LOCFRAME XSTACK, 39, STACK
        LOCFRAME IOVERLAY, 0, STATIC
        LOCFRAME DOVERLAY, 0, STATIC
        ARGFRAME ISTACK, 0, STACK
        ARGFRAME PSTACK, 0, STACK
        ARGFRAME XSTACK, 39, STACK
        ARGFRAME IOVERLAY, 0, STATIC
        ARGFRAME DOVERLAY, 0, STATIC
        FUNCALL GenericApp_ProcessZDOMsgs, HalLedSet
        LOCFRAME ISTACK, 0, STACK
        LOCFRAME PSTACK, 0, STACK
        LOCFRAME XSTACK, 39, STACK
        LOCFRAME IOVERLAY, 0, STATIC
        LOCFRAME DOVERLAY, 0, STATIC
        ARGFRAME ISTACK, 0, STACK
        ARGFRAME PSTACK, 0, STACK
        ARGFRAME XSTACK, 39, STACK
        ARGFRAME IOVERLAY, 0, STATIC
        ARGFRAME DOVERLAY, 0, STATIC
        FUNCALL GenericApp_ProcessZDOMsgs, ZDO_ParseEPListRsp
        LOCFRAME ISTACK, 0, STACK
        LOCFRAME PSTACK, 0, STACK
        LOCFRAME XSTACK, 39, STACK
        LOCFRAME IOVERLAY, 0, STATIC
        LOCFRAME DOVERLAY, 0, STATIC
        ARGFRAME ISTACK, 0, STACK
        ARGFRAME PSTACK, 0, STACK
        ARGFRAME XSTACK, 39, STACK
        ARGFRAME IOVERLAY, 0, STATIC
        ARGFRAME DOVERLAY, 0, STATIC
        FUNCALL GenericApp_ProcessZDOMsgs, HalLedSet
        LOCFRAME ISTACK, 0, STACK
        LOCFRAME PSTACK, 0, STACK
        LOCFRAME XSTACK, 39, STACK
        LOCFRAME IOVERLAY, 0, STATIC
        LOCFRAME DOVERLAY, 0, STATIC
        ARGFRAME ISTACK, 0, STACK
        ARGFRAME PSTACK, 0, STACK
        ARGFRAME XSTACK, 39, STACK
        ARGFRAME IOVERLAY, 0, STATIC
        ARGFRAME DOVERLAY, 0, STATIC
        FUNCALL GenericApp_ProcessZDOMsgs, osal_mem_free
        LOCFRAME ISTACK, 0, STACK
        LOCFRAME PSTACK, 0, STACK
        LOCFRAME XSTACK, 39, STACK
        LOCFRAME IOVERLAY, 0, STATIC
        LOCFRAME DOVERLAY, 0, STATIC
        ARGFRAME ISTACK, 0, STACK
        ARGFRAME PSTACK, 0, STACK
        ARGFRAME XSTACK, 39, STACK
        ARGFRAME IOVERLAY, 0, STATIC
        ARGFRAME DOVERLAY, 0, STATIC
        REQUIRE ?V0
        REQUIRE ?V1
        REQUIRE ?V2
        REQUIRE ?V3
        REQUIRE ?V4
        REQUIRE ?V5
        REQUIRE ?V6
        MOV     A,#-0xf
        LCALL   ?BANKED_ENTER_XDATA
          CFI DPH0 load(1, XDATA, add(CFA_XSP16, literal(-1)))
          CFI DPL0 load(1, XDATA, add(CFA_XSP16, literal(-2)))
          CFI ?BRET_EXT load(1, XDATA, add(CFA_XSP16, literal(-3)))
          CFI ?RET_HIGH load(1, XDATA, add(CFA_XSP16, literal(-4)))
          CFI ?RET_LOW load(1, XDATA, add(CFA_XSP16, literal(-5)))
          CFI R7 load(1, XDATA, add(CFA_XSP16, literal(-6)))
          CFI V6 load(1, XDATA, add(CFA_XSP16, literal(-7)))
          CFI V5 load(1, XDATA, add(CFA_XSP16, literal(-8)))
          CFI V4 load(1, XDATA, add(CFA_XSP16, literal(-9)))
          CFI V3 load(1, XDATA, add(CFA_XSP16, literal(-10)))
          CFI V2 load(1, XDATA, add(CFA_XSP16, literal(-11)))
          CFI V1 load(1, XDATA, add(CFA_XSP16, literal(-12)))
          CFI V0 load(1, XDATA, add(CFA_XSP16, literal(-13)))
          CFI VB load(1, XDATA, add(CFA_XSP16, literal(-14)))
          CFI R6 load(1, XDATA, add(CFA_XSP16, literal(-15)))
          CFI CFA_SP SP+0
          CFI CFA_XSP16 add(XSP16, 15)
        ; Saved register size: 15
        ; Auto size: 24
        MOV     A,#-0x18
        LCALL   ?ALLOC_XSTACK8
          CFI CFA_XSP16 add(XSP16, 39)
        MOV     A,R2
        MOV     R6,A
        MOV     A,R3
        MOV     R7,A
//  706 	ZDO_DeviceAnnce_t *devAnnce=NULL;
//  707 	nodeList_t *pnode;
//  708 	afAddrType_t addr64;
//  709 	afAddrType_t addr16;
//  710 
//  711 
//  712   switch ( inMsg->clusterID )
        MOV     A,R6
        ADD     A,#0xc
        MOV     DPL,A
        CLR     A
        ADDC    A,R7
        MOV     DPH,A
        LCALL   ?Subroutine23 & 0xFFFF
??CrossCallReturnLabel_26:
        LCALL   ?US_SWITCH_SPARSE
`?<Jumptable for GenericApp_ProcessZDOMsgs>_0`:
        DATA
        DATA16
        DATA
        DATA16
        DATA
        DATA16
        DW        0
        DATA
        DATA16
        DATA
        DATA16
        DATA
        DATA16
        DW        3
        DATA
        DATA16
        DATA
        DATA16
        DATA
        DATA16
        DW        19
        DATA
        DATA16
        DATA
        DATA16
        DATA
        DATA16
        DW        ??GenericApp_ProcessZDOMsgs_0
        DATA
        DATA16
        DATA
        DATA16
        DATA
        DATA16
        DW        32774
        DATA
        DATA16
        DATA
        DATA16
        DATA
        DATA16
        DW        ??GenericApp_ProcessZDOMsgs_1
        DATA
        DATA16
        DATA
        DATA16
        DATA
        DATA16
        DW        32800
        DATA
        DATA16
        DATA
        DATA16
        DATA
        DATA16
        DW        ??GenericApp_ProcessZDOMsgs_2
        DATA
        DATA16
        DATA
        DATA16
        DW        ??GenericApp_ProcessZDOMsgs_3
        CODE
//  713   {
//  714       case Device_annce:    //chaokw
//  715       {
//  716 		  devAnnce = (ZDO_DeviceAnnce_t *)osal_mem_alloc( sizeof(  ZDO_DeviceAnnce_t ));
??GenericApp_ProcessZDOMsgs_0:
        ; Setup parameters for call to function osal_mem_alloc
        MOV     R2,#0xb
        MOV     R3,#0x0
        LCALL   `??osal_mem_alloc::?relay`; Banked call to: osal_mem_alloc
        MOV     ?V0,R2
        MOV     ?V1,R3
//  717                 if ( devAnnce == NULL )
        MOV     A,R2
        ORL     A,?V1
        JNZ     $+5
        LJMP    ??GenericApp_ProcessZDOMsgs_3 & 0xFFFF
//  718                 {
//  719                      return;
//  720                 }
//  721 		  ZDO_ParseDeviceAnnce( inMsg, devAnnce );
        ; Setup parameters for call to function ZDO_ParseDeviceAnnce
        MOV     R4,?V0
        MOV     R5,?V1
        MOV     A,R6
        MOV     R2,A
        MOV     A,R7
        MOV     R3,A
        LCALL   `??ZDO_ParseDeviceAnnce::?relay`; Banked call to: ZDO_ParseDeviceAnnce
//  722 		  if ( devAnnce )
//  723 		  {			  
//  724 			  addr16.addr.shortAddr = devAnnce->nwkAddr ;	 
        MOV     DPL,?V0
        MOV     DPH,?V1
        LCALL   ?Subroutine26 & 0xFFFF
??CrossCallReturnLabel_32:
        MOV     DPL,?XSP + 0
        MOV     DPH,?XSP + 1
        LCALL   ?Subroutine15 & 0xFFFF
//  725 			  osal_memcpy(&addr64.addr.extAddr, &devAnnce->extAddr[0], Z_EXTADDR_LEN);
??CrossCallReturnLabel_13:
        ; Setup parameters for call to function osal_memcpy
        MOV     DPL,?V0
        MOV     DPH,?V1
        INC     DPTR
        INC     DPTR
        MOV     R1,DPL
        MOV     R2,DPH
        MOV     ?V4,R1
        MOV     ?V5,R2
        MOV     ?V6,#0x0
        MOV     R0,#?V4
        LCALL   ?PUSH_XSTACK_I_THREE
          CFI CFA_XSP16 add(XSP16, 42)
        MOV     R4,#0x8
        MOV     R5,#0x0
        MOV     A,#0xf
        LCALL   ?XSTACK_DISP101_8
        LCALL   `??osal_memcpy::?relay`; Banked call to: osal_memcpy
        MOV     A,#0x3
        LCALL   ?DEALLOC_XSTACK8
          CFI CFA_XSP16 add(XSP16, 39)
//  726 				 
//  727 			  pnode=CustomApp_NodeRegister(addr64,addr16);
//  728 			  if(pnode!=NULL)
        ; Setup parameters for call to function CustomApp_NodeRegister
        MOV     DPL,?XSP + 0
        MOV     DPH,?XSP + 1
        MOV     A,#0xc
        LCALL   ?PUSH_XSTACK8_X
          CFI CFA_XSP16 add(XSP16, 51)
        MOV     A,#0x18
        LCALL   ?XSTACK_DISP0_8
        MOV     A,#0xc
        LCALL   ?PUSH_XSTACK8_X
          CFI CFA_XSP16 add(XSP16, 63)
        LCALL   `??CustomApp_NodeRegister::?relay`; Banked call to: CustomApp_NodeRegister
        MOV     A,#0x18
        LCALL   ?DEALLOC_XSTACK8
          CFI CFA_XSP16 add(XSP16, 39)
        MOV     ?V3,R3
        MOV     A,R2
        ORL     A,?V3
        JZ      ??GenericApp_ProcessZDOMsgs_4
//  729 			  {
//  730 			       CustomApp_node_register_ind(addr64, addr16);	//0x18
        ; Setup parameters for call to function CustomApp_node_register_ind
        MOV     DPL,?XSP + 0
        MOV     DPH,?XSP + 1
        MOV     A,#0xc
        LCALL   ?PUSH_XSTACK8_X
          CFI CFA_XSP16 add(XSP16, 51)
        MOV     A,#0x18
        LCALL   ?XSTACK_DISP0_8
        MOV     A,#0xc
        LCALL   ?PUSH_XSTACK8_X
          CFI CFA_XSP16 add(XSP16, 63)
        LCALL   `??CustomApp_node_register_ind::?relay`; Banked call to: CustomApp_node_register_ind
        MOV     A,#0x18
        LCALL   ?DEALLOC_XSTACK8
          CFI CFA_XSP16 add(XSP16, 39)
//  731 #if defined( LCD_SUPPORTED )			       
//  732 				HalLcdWriteStringValue( (char*)"nodregOK:", addr16.addr.shortAddr, 16, HAL_LCD_LINE_2 ); 
        ; Setup parameters for call to function HalLcdWriteStringValue
        MOV     ?V2,#0x3
        MOV     R0,#?V2
        LCALL   ?PUSH_XSTACK_I_ONE
          CFI CFA_XSP16 add(XSP16, 40)
        MOV     R1,#0x10
        MOV     A,#0x1
        LCALL   ?XSTACK_DISP0_8
        LCALL   ?Subroutine20 & 0xFFFF
//  733 #endif
//  734 			  }	  
??CrossCallReturnLabel_21:
        LCALL   `??HalLcdWriteStringValue::?relay`; Banked call to: HalLcdWriteStringValue
        MOV     A,#0x1
        LCALL   ?DEALLOC_XSTACK8
          CFI CFA_XSP16 add(XSP16, 39)
//  735                        osal_mem_free( devAnnce );
??GenericApp_ProcessZDOMsgs_4:
        ; Setup parameters for call to function osal_mem_free
        MOV     R2,?V0
        MOV     R3,?V1
        SJMP    ??GenericApp_ProcessZDOMsgs_5
//  736 		  }
//  737       }
//  738       break;
//  739 
//  740   
//  741     case End_Device_Bind_rsp:
//  742       if ( ZDO_ParseBindRsp( inMsg ) == ZSuccess )
??GenericApp_ProcessZDOMsgs_2:
        MOV     A,R6
        ADD     A,#0x13
        MOV     DPL,A
        CLR     A
        ADDC    A,R7
        MOV     DPH,A
        MOVX    A,@DPTR
        MOV     R0,A
        INC     DPTR
        MOVX    A,@DPTR
        MOV     DPH,A
        MOV     DPL,R0
        MOVX    A,@DPTR
        JNZ     ??GenericApp_ProcessZDOMsgs_6
//  743       {
//  744         // Light LED
//  745         HalLedSet( HAL_LED_4, HAL_LED_MODE_ON );
        ; Setup parameters for call to function HalLedSet
        MOV     R2,#0x1
        SJMP    ??GenericApp_ProcessZDOMsgs_7
//  746       }
//  747 #if defined( BLINK_LEDS )
//  748       else
//  749       {
//  750         // Flash LED to show failure
//  751         HalLedSet ( HAL_LED_4, HAL_LED_MODE_FLASH );
??GenericApp_ProcessZDOMsgs_6:
        ; Setup parameters for call to function HalLedSet
        MOV     R2,#0x4
??GenericApp_ProcessZDOMsgs_7:
        MOV     R1,#0x8
        LCALL   `??HalLedSet::?relay`; Banked call to: HalLedSet
        SJMP    ??GenericApp_ProcessZDOMsgs_3
//  752       }
//  753 #endif
//  754       break;
//  755 
//  756     case Match_Desc_rsp:
//  757       {
//  758         ZDO_ActiveEndpointRsp_t *pRsp = ZDO_ParseEPListRsp( inMsg );
??GenericApp_ProcessZDOMsgs_1:
        ; Setup parameters for call to function ZDO_ParseEPListRsp
        LCALL   `??ZDO_ParseEPListRsp::?relay`; Banked call to: ZDO_ParseEPListRsp
        MOV     ?V0,R2
        MOV     ?V1,R3
        MOV     R6,?V0
        MOV     R7,?V1
//  759         if ( pRsp )
        MOV     A,R6
        ORL     A,R7
        JZ      ??GenericApp_ProcessZDOMsgs_3
//  760         {
//  761           if ( pRsp->status == ZSuccess && pRsp->cnt )
        MOV     DPL,R6
        MOV     DPH,R7
        MOVX    A,@DPTR
        JNZ     ??GenericApp_ProcessZDOMsgs_8
        INC     DPTR
        INC     DPTR
        INC     DPTR
        MOVX    A,@DPTR
        JZ      ??GenericApp_ProcessZDOMsgs_8
//  762           {
//  763             GenericApp_DstAddr.addrMode = (afAddrMode_t)Addr16Bit;
        MOV     DPTR,#GenericApp_DstAddr + 8
        MOV     A,#0x2
        LCALL   ?Subroutine44 & 0xFFFF
//  764             GenericApp_DstAddr.addr.shortAddr = pRsp->nwkAddr;
??CrossCallReturnLabel_73:
        LCALL   ?Subroutine26 & 0xFFFF
??CrossCallReturnLabel_33:
        MOV     DPTR,#GenericApp_DstAddr
        MOV     A,R0
        MOVX    @DPTR,A
        LCALL   ?Subroutine12 & 0xFFFF
//  765             // Take the first endpoint, Can be changed to search through endpoints
//  766             GenericApp_DstAddr.endPoint = pRsp->epList[0];
??CrossCallReturnLabel_9:
        MOV     DPTR,#GenericApp_DstAddr + 9
        MOVX    @DPTR,A
//  767 
//  768             // Light LED
//  769             HalLedSet( HAL_LED_4, HAL_LED_MODE_ON );
        ; Setup parameters for call to function HalLedSet
        MOV     R2,#0x1
        MOV     R1,#0x8
        LCALL   `??HalLedSet::?relay`; Banked call to: HalLedSet
//  770           }
//  771           osal_mem_free( pRsp );
??GenericApp_ProcessZDOMsgs_8:
        ; Setup parameters for call to function osal_mem_free
        MOV     A,R6
        MOV     R2,A
        MOV     A,R7
        MOV     R3,A
??GenericApp_ProcessZDOMsgs_5:
        LCALL   `??osal_mem_free::?relay`; Banked call to: osal_mem_free
//  772         }
//  773       }
//  774       break;
//  775   }
//  776 }
??GenericApp_ProcessZDOMsgs_3:
        MOV     A,#0x18
          CFI EndBlock cfiBlock11
        REQUIRE ?Subroutine2
        ; // Fall through to label ?Subroutine2

        RSEG BANKED_CODE:CODE:NOROOT(0)
?Subroutine2:
          CFI Block cfiBlock12 Using cfiCommon0
          CFI NoFunction
          CFI CFA_SP SP+0
          CFI CFA_XSP16 add(XSP16, 39)
          CFI VB load(1, XDATA, add(CFA_XSP16, literal(-14)))
          CFI DPL0 load(1, XDATA, add(CFA_XSP16, literal(-2)))
          CFI DPH0 load(1, XDATA, add(CFA_XSP16, literal(-1)))
          CFI R6 load(1, XDATA, add(CFA_XSP16, literal(-15)))
          CFI R7 load(1, XDATA, add(CFA_XSP16, literal(-6)))
          CFI V0 load(1, XDATA, add(CFA_XSP16, literal(-13)))
          CFI V1 load(1, XDATA, add(CFA_XSP16, literal(-12)))
          CFI V2 load(1, XDATA, add(CFA_XSP16, literal(-11)))
          CFI V3 load(1, XDATA, add(CFA_XSP16, literal(-10)))
          CFI V4 load(1, XDATA, add(CFA_XSP16, literal(-9)))
          CFI V5 load(1, XDATA, add(CFA_XSP16, literal(-8)))
          CFI V6 load(1, XDATA, add(CFA_XSP16, literal(-7)))
          CFI ?BRET_EXT load(1, XDATA, add(CFA_XSP16, literal(-3)))
          CFI ?RET_HIGH load(1, XDATA, add(CFA_XSP16, literal(-4)))
          CFI ?RET_LOW load(1, XDATA, add(CFA_XSP16, literal(-5)))
          CFI Invalid
        LCALL   ?DEALLOC_XSTACK8
          CFI CFA_XSP16 add(XSP16, 15)
          CFI Valid
        MOV     R7,#0x7
        LJMP    ?BANKED_LEAVE_XDATA
          CFI EndBlock cfiBlock12
//  777 
//  778 /*********************************************************************
//  779  * @fn      GenericApp_HandleKeys
//  780  *
//  781  * @brief   Handles all key events for this device.
//  782  *
//  783  * @param   shift - true if in shift/alt.
//  784  * @param   keys - bit field for key events. Valid entries:
//  785  *                 HAL_KEY_SW_4
//  786  *                 HAL_KEY_SW_3
//  787  *                 HAL_KEY_SW_2
//  788  *                 HAL_KEY_SW_1
//  789  *
//  790  * @return  none
//  791  */

        RSEG BANKED_CODE:CODE:NOROOT(0)
//  792 static void GenericApp_HandleKeys( uint8 shift, uint8 keys )
GenericApp_HandleKeys:
          CFI Block cfiBlock13 Using cfiCommon0
          CFI Function GenericApp_HandleKeys
        CODE
//  793 {
        FUNCALL GenericApp_HandleKeys, HalLedSet
        LOCFRAME ISTACK, 0, STACK
        LOCFRAME PSTACK, 0, STACK
        LOCFRAME XSTACK, 21, STACK
        LOCFRAME IOVERLAY, 0, STATIC
        LOCFRAME DOVERLAY, 0, STATIC
        ARGFRAME ISTACK, 0, STACK
        ARGFRAME PSTACK, 0, STACK
        ARGFRAME XSTACK, 21, STACK
        ARGFRAME IOVERLAY, 0, STATIC
        ARGFRAME DOVERLAY, 0, STATIC
        FUNCALL GenericApp_HandleKeys, NLME_GetShortAddr
        LOCFRAME ISTACK, 0, STACK
        LOCFRAME PSTACK, 0, STACK
        LOCFRAME XSTACK, 21, STACK
        LOCFRAME IOVERLAY, 0, STATIC
        LOCFRAME DOVERLAY, 0, STATIC
        ARGFRAME ISTACK, 0, STACK
        ARGFRAME PSTACK, 0, STACK
        ARGFRAME XSTACK, 21, STACK
        ARGFRAME IOVERLAY, 0, STATIC
        ARGFRAME DOVERLAY, 0, STATIC
        FUNCALL GenericApp_HandleKeys, ZDP_EndDeviceBindReq
        LOCFRAME ISTACK, 0, STACK
        LOCFRAME PSTACK, 0, STACK
        LOCFRAME XSTACK, 30, STACK
        LOCFRAME IOVERLAY, 0, STATIC
        LOCFRAME DOVERLAY, 0, STATIC
        ARGFRAME ISTACK, 0, STACK
        ARGFRAME PSTACK, 0, STACK
        ARGFRAME XSTACK, 30, STACK
        ARGFRAME IOVERLAY, 0, STATIC
        ARGFRAME DOVERLAY, 0, STATIC
        FUNCALL GenericApp_HandleKeys, HalLedSet
        LOCFRAME ISTACK, 0, STACK
        LOCFRAME PSTACK, 0, STACK
        LOCFRAME XSTACK, 21, STACK
        LOCFRAME IOVERLAY, 0, STATIC
        LOCFRAME DOVERLAY, 0, STATIC
        ARGFRAME ISTACK, 0, STACK
        ARGFRAME PSTACK, 0, STACK
        ARGFRAME XSTACK, 21, STACK
        ARGFRAME IOVERLAY, 0, STATIC
        ARGFRAME DOVERLAY, 0, STATIC
        FUNCALL GenericApp_HandleKeys, ZDP_MatchDescReq
        LOCFRAME ISTACK, 0, STACK
        LOCFRAME PSTACK, 0, STACK
        LOCFRAME XSTACK, 29, STACK
        LOCFRAME IOVERLAY, 0, STATIC
        LOCFRAME DOVERLAY, 0, STATIC
        ARGFRAME ISTACK, 0, STACK
        ARGFRAME PSTACK, 0, STACK
        ARGFRAME XSTACK, 29, STACK
        ARGFRAME IOVERLAY, 0, STATIC
        ARGFRAME DOVERLAY, 0, STATIC
        REQUIRE ?V0
        REQUIRE ?V1
        REQUIRE ?V2
        REQUIRE ?V3
        MOV     A,#-0xc
        LCALL   ?BANKED_ENTER_XDATA
          CFI DPH0 load(1, XDATA, add(CFA_XSP16, literal(-1)))
          CFI DPL0 load(1, XDATA, add(CFA_XSP16, literal(-2)))
          CFI ?BRET_EXT load(1, XDATA, add(CFA_XSP16, literal(-3)))
          CFI ?RET_HIGH load(1, XDATA, add(CFA_XSP16, literal(-4)))
          CFI ?RET_LOW load(1, XDATA, add(CFA_XSP16, literal(-5)))
          CFI R7 load(1, XDATA, add(CFA_XSP16, literal(-6)))
          CFI V3 load(1, XDATA, add(CFA_XSP16, literal(-7)))
          CFI V2 load(1, XDATA, add(CFA_XSP16, literal(-8)))
          CFI V1 load(1, XDATA, add(CFA_XSP16, literal(-9)))
          CFI V0 load(1, XDATA, add(CFA_XSP16, literal(-10)))
          CFI VB load(1, XDATA, add(CFA_XSP16, literal(-11)))
          CFI R6 load(1, XDATA, add(CFA_XSP16, literal(-12)))
          CFI CFA_SP SP+0
          CFI CFA_XSP16 add(XSP16, 12)
        ; Saved register size: 12
        ; Auto size: 9
        MOV     A,#-0x9
        LCALL   ?ALLOC_XSTACK8
          CFI CFA_XSP16 add(XSP16, 21)
        MOV     A,R2
        MOV     R6,A
//  794   zAddrType_t dstAddr;
//  795 
//  796   // Shift is used to make each button/switch dual purpose.
//  797   if( 0 ) // ( shift )
//  798   {
//  799     if ( keys & HAL_KEY_SW_1 )
//  800     {
//  801     }
//  802     if ( keys & HAL_KEY_SW_2 )
//  803     {
//  804     }
//  805     if ( keys & HAL_KEY_SW_3 )
//  806     {
//  807     }
//  808     if ( keys & HAL_KEY_SW_4 )
//  809     {
//  810     }
//  811   }
//  812   else
//  813   {
//  814     if ( keys & HAL_KEY_SW_1 )
        MOV     C,0xE0 /* A   */.0
        JNC     ??GenericApp_HandleKeys_0
//  815     {
//  816 #if defined( SWITCH1_BIND )
//  817       // We can use SW1 to simulate SW2 for devices that only have one switch,
//  818       keys |= HAL_KEY_SW_2;
//  819 #elif defined( SWITCH1_MATCH )
//  820       // or use SW1 to simulate SW4 for devices that only have one switch
//  821       keys |= HAL_KEY_SW_4;
//  822 #else
//  823       // Normally, SW1 changes the rate that messages are sent
//  824       if ( txMsgDelay > 100 )
        MOV     DPTR,#__Constant_65
        MOV     R0,#?V0
        LCALL   ?L_MOV_X
        MOV     DPTR,#txMsgDelay
        MOV     R0,#?V0
        LCALL   ?UL_GT_X
        MOV     DPTR,#txMsgDelay
        JC      ??GenericApp_HandleKeys_1
//  825       {
//  826         // Cut the message TX delay in half
//  827         txMsgDelay /= 2;
        MOV     R0,#?V0
        LCALL   ?L_MOV_X
        MOV     A,#0x1
        MOV     R0,#?V0
        LCALL   ?UL_SHR
        MOV     DPTR,#txMsgDelay
        MOV     R0,#?V0
        LCALL   ?L_MOV_TO_X
        SJMP    ??GenericApp_HandleKeys_0
//  828       }
//  829       else
//  830       {
//  831         // Reset to the default
//  832         txMsgDelay = GENERICAPP_SEND_MSG_TIMEOUT;
??GenericApp_HandleKeys_1:
        MOV     A,#-0x78
        MOVX    @DPTR,A
        INC     DPTR
        MOV     A,#0x13
        MOVX    @DPTR,A
        INC     DPTR
        CLR     A
        MOVX    @DPTR,A
        INC     DPTR
        MOVX    @DPTR,A
//  833       }
//  834 #endif
//  835     }
//  836 
//  837     if ( keys & HAL_KEY_SW_2 )
??GenericApp_HandleKeys_0:
        MOV     A,R6
        MOV     C,0xE0 /* A   */.1
        JNC     ??GenericApp_HandleKeys_2
//  838     {
//  839       HalLedSet ( HAL_LED_4, HAL_LED_MODE_OFF );
        ; Setup parameters for call to function HalLedSet
        MOV     R2,#0x0
        MOV     R1,#0x8
        LCALL   `??HalLedSet::?relay`; Banked call to: HalLedSet
//  840 
//  841       // Initiate an End Device Bind Request for the mandatory endpoint
//  842       dstAddr.addrMode = Addr16Bit;
        MOV     A,#0x8
        LCALL   ?XSTACK_DISP0_8
        MOV     A,#0x2
        MOVX    @DPTR,A
//  843       dstAddr.addr.shortAddr = 0x0000; // Coordinator
        MOV     DPL,?XSP + 0
        MOV     DPH,?XSP + 1
        CLR     A
        MOVX    @DPTR,A
        INC     DPTR
        MOVX    @DPTR,A
//  844       ZDP_EndDeviceBindReq( &dstAddr, NLME_GetShortAddr(),
//  845                             GenericApp_epDesc.endPoint,
//  846                             GENERICAPP_PROFID,
//  847                             GENERICAPP_MAX_CLUSTERS, (cId_t *)GenericApp_ClusterList,
//  848                             GENERICAPP_MAX_CLUSTERS, (cId_t *)GenericApp_ClusterList,
//  849                             FALSE );
        ; Setup parameters for call to function NLME_GetShortAddr
        LCALL   `??NLME_GetShortAddr::?relay`; Banked call to: NLME_GetShortAddr
        MOV     ?V0,R2
        MOV     ?V1,R3
        MOV     R4,?V0
        MOV     R5,?V1
        MOV     ?V0,#GenericApp_ClusterList & 0xff
        MOV     ?V1,#(GenericApp_ClusterList >> 8) & 0xff
        ; Setup parameters for call to function ZDP_EndDeviceBindReq
        MOV     ?V2,#0x0
        MOV     R0,#?V2
        LCALL   ?PUSH_XSTACK_I_ONE
          CFI CFA_XSP16 add(XSP16, 22)
        MOV     R0,#?V0
        LCALL   ?PUSH_XSTACK_I_TWO
          CFI CFA_XSP16 add(XSP16, 24)
        MOV     ?V2,#0x7
        MOV     R0,#?V2
        LCALL   ?PUSH_XSTACK_I_ONE
          CFI CFA_XSP16 add(XSP16, 25)
        MOV     R0,#?V0
        LCALL   ?PUSH_XSTACK_I_TWO
          CFI CFA_XSP16 add(XSP16, 27)
        MOV     ?V0,#0x7
        MOV     R0,#?V0
        LCALL   ?PUSH_XSTACK_I_ONE
          CFI CFA_XSP16 add(XSP16, 28)
        MOV     ?V0,#0x4
        MOV     ?V1,#0xf
        MOV     R0,#?V0
        LCALL   ?PUSH_XSTACK_I_TWO
          CFI CFA_XSP16 add(XSP16, 30)
        MOV     DPTR,#GenericApp_epDesc
        MOVX    A,@DPTR
        MOV     R1,A
        MOV     A,#0x9
        LCALL   ?XSTACK_DISP101_8
        LCALL   `??ZDP_EndDeviceBindReq::?relay`; Banked call to: ZDP_EndDeviceBindReq
        MOV     A,#0x9
        LCALL   ?DEALLOC_XSTACK8
          CFI CFA_XSP16 add(XSP16, 21)
//  850     }
//  851 
//  852     if ( keys & HAL_KEY_SW_3 )
//  853     {
//  854     }
//  855 
//  856     if ( keys & HAL_KEY_SW_4 )
??GenericApp_HandleKeys_2:
        MOV     A,R6
        MOV     C,0xE0 /* A   */.3
        JNC     ??GenericApp_HandleKeys_3
//  857     {
//  858       HalLedSet ( HAL_LED_4, HAL_LED_MODE_OFF );
        ; Setup parameters for call to function HalLedSet
        MOV     R2,#0x0
        MOV     R1,#0x8
        LCALL   `??HalLedSet::?relay`; Banked call to: HalLedSet
//  859       // Initiate a Match Description Request (Service Discovery)
//  860       dstAddr.addrMode = AddrBroadcast;
        MOV     A,#0x8
        LCALL   ?XSTACK_DISP0_8
        MOV     A,#0xf
        MOVX    @DPTR,A
//  861       dstAddr.addr.shortAddr = NWK_BROADCAST_SHORTADDR;
        MOV     DPL,?XSP + 0
        MOV     DPH,?XSP + 1
        MOV     A,#-0x1
        MOVX    @DPTR,A
        INC     DPTR
        MOVX    @DPTR,A
//  862       ZDP_MatchDescReq( &dstAddr, NWK_BROADCAST_SHORTADDR,
//  863                         GENERICAPP_PROFID,
//  864                         GENERICAPP_MAX_CLUSTERS, (cId_t *)GenericApp_ClusterList,
//  865                         GENERICAPP_MAX_CLUSTERS, (cId_t *)GenericApp_ClusterList,
//  866                         FALSE );
        MOV     ?V0,#GenericApp_ClusterList & 0xff
        MOV     ?V1,#(GenericApp_ClusterList >> 8) & 0xff
        ; Setup parameters for call to function ZDP_MatchDescReq
        MOV     ?V2,#0x0
        MOV     R0,#?V2
        LCALL   ?PUSH_XSTACK_I_ONE
          CFI CFA_XSP16 add(XSP16, 22)
        MOV     R0,#?V0
        LCALL   ?PUSH_XSTACK_I_TWO
          CFI CFA_XSP16 add(XSP16, 24)
        MOV     ?V2,#0x7
        MOV     R0,#?V2
        LCALL   ?PUSH_XSTACK_I_ONE
          CFI CFA_XSP16 add(XSP16, 25)
        MOV     R0,#?V0
        LCALL   ?PUSH_XSTACK_I_TWO
          CFI CFA_XSP16 add(XSP16, 27)
        MOV     ?V0,#0x4
        MOV     ?V1,#0xf
        MOV     R0,#?V0
        LCALL   ?PUSH_XSTACK_I_TWO
          CFI CFA_XSP16 add(XSP16, 29)
        MOV     R1,#0x7
        MOV     R4,#-0x1
        MOV     R5,#-0x1
        MOV     A,#0x8
        LCALL   ?XSTACK_DISP101_8
        LCALL   `??ZDP_MatchDescReq::?relay`; Banked call to: ZDP_MatchDescReq
        MOV     A,#0x8
        LCALL   ?DEALLOC_XSTACK8
          CFI CFA_XSP16 add(XSP16, 21)
//  867     }
//  868   }
//  869 }
??GenericApp_HandleKeys_3:
        MOV     A,#0x9
        LJMP    ?Subroutine1 & 0xFFFF
          CFI EndBlock cfiBlock13
//  870 
//  871 /*********************************************************************
//  872  * LOCAL FUNCTIONS
//  873  */
//  874 
//  875 /*********************************************************************
//  876  * @fn      GenericApp_MessageMSGCB
//  877  *
//  878  * @brief   Data message processor callback.  This function processes
//  879  *          any incoming data - probably from other devices.  So, based
//  880  *          on cluster ID, perform the intended action.
//  881  *
//  882  * @param   none
//  883  *
//  884  * @return  none
//  885  */

        RSEG BANKED_CODE:CODE:NOROOT(0)
//  886 static void GenericApp_MessageMSGCB( afIncomingMSGPacket_t *pkt )
GenericApp_MessageMSGCB:
          CFI Block cfiBlock14 Using cfiCommon0
          CFI Function GenericApp_MessageMSGCB
        CODE
//  887 {
        FUNCALL GenericApp_MessageMSGCB, osal_getClock
        LOCFRAME ISTACK, 0, STACK
        LOCFRAME PSTACK, 0, STACK
        LOCFRAME XSTACK, 12, STACK
        LOCFRAME IOVERLAY, 0, STATIC
        LOCFRAME DOVERLAY, 0, STATIC
        ARGFRAME ISTACK, 0, STACK
        ARGFRAME PSTACK, 0, STACK
        ARGFRAME XSTACK, 12, STACK
        ARGFRAME IOVERLAY, 0, STATIC
        ARGFRAME DOVERLAY, 0, STATIC
        FUNCALL GenericApp_MessageMSGCB, HalLedSet
        LOCFRAME ISTACK, 0, STACK
        LOCFRAME PSTACK, 0, STACK
        LOCFRAME XSTACK, 12, STACK
        LOCFRAME IOVERLAY, 0, STATIC
        LOCFRAME DOVERLAY, 0, STATIC
        ARGFRAME ISTACK, 0, STACK
        ARGFRAME PSTACK, 0, STACK
        ARGFRAME XSTACK, 12, STACK
        ARGFRAME IOVERLAY, 0, STATIC
        ARGFRAME DOVERLAY, 0, STATIC
        FUNCALL GenericApp_MessageMSGCB, HalLcdWriteString
        LOCFRAME ISTACK, 0, STACK
        LOCFRAME PSTACK, 0, STACK
        LOCFRAME XSTACK, 12, STACK
        LOCFRAME IOVERLAY, 0, STATIC
        LOCFRAME DOVERLAY, 0, STATIC
        ARGFRAME ISTACK, 0, STACK
        ARGFRAME PSTACK, 0, STACK
        ARGFRAME XSTACK, 12, STACK
        ARGFRAME IOVERLAY, 0, STATIC
        ARGFRAME DOVERLAY, 0, STATIC
        FUNCALL GenericApp_MessageMSGCB, HalLcdWriteStringValue
        LOCFRAME ISTACK, 0, STACK
        LOCFRAME PSTACK, 0, STACK
        LOCFRAME XSTACK, 13, STACK
        LOCFRAME IOVERLAY, 0, STATIC
        LOCFRAME DOVERLAY, 0, STATIC
        ARGFRAME ISTACK, 0, STACK
        ARGFRAME PSTACK, 0, STACK
        ARGFRAME XSTACK, 13, STACK
        ARGFRAME IOVERLAY, 0, STATIC
        ARGFRAME DOVERLAY, 0, STATIC
        FUNCALL GenericApp_MessageMSGCB, CustomApp_AF_P2P_Data_Process
        LOCFRAME ISTACK, 0, STACK
        LOCFRAME PSTACK, 0, STACK
        LOCFRAME XSTACK, 12, STACK
        LOCFRAME IOVERLAY, 0, STATIC
        LOCFRAME DOVERLAY, 0, STATIC
        ARGFRAME ISTACK, 0, STACK
        ARGFRAME PSTACK, 0, STACK
        ARGFRAME XSTACK, 12, STACK
        ARGFRAME IOVERLAY, 0, STATIC
        ARGFRAME DOVERLAY, 0, STATIC
        FUNCALL GenericApp_MessageMSGCB, CustomApp_AF_Group_Data_Process
        LOCFRAME ISTACK, 0, STACK
        LOCFRAME PSTACK, 0, STACK
        LOCFRAME XSTACK, 12, STACK
        LOCFRAME IOVERLAY, 0, STATIC
        LOCFRAME DOVERLAY, 0, STATIC
        ARGFRAME ISTACK, 0, STACK
        ARGFRAME PSTACK, 0, STACK
        ARGFRAME XSTACK, 12, STACK
        ARGFRAME IOVERLAY, 0, STATIC
        ARGFRAME DOVERLAY, 0, STATIC
        FUNCALL GenericApp_MessageMSGCB, CustomApp_Coordinator_Online
        LOCFRAME ISTACK, 0, STACK
        LOCFRAME PSTACK, 0, STACK
        LOCFRAME XSTACK, 12, STACK
        LOCFRAME IOVERLAY, 0, STATIC
        LOCFRAME DOVERLAY, 0, STATIC
        ARGFRAME ISTACK, 0, STACK
        ARGFRAME PSTACK, 0, STACK
        ARGFRAME XSTACK, 12, STACK
        ARGFRAME IOVERLAY, 0, STATIC
        ARGFRAME DOVERLAY, 0, STATIC
        FUNCALL GenericApp_MessageMSGCB, CustomApp_AF_Broadcast_Data_Process
        LOCFRAME ISTACK, 0, STACK
        LOCFRAME PSTACK, 0, STACK
        LOCFRAME XSTACK, 12, STACK
        LOCFRAME IOVERLAY, 0, STATIC
        LOCFRAME DOVERLAY, 0, STATIC
        ARGFRAME ISTACK, 0, STACK
        ARGFRAME PSTACK, 0, STACK
        ARGFRAME XSTACK, 12, STACK
        ARGFRAME IOVERLAY, 0, STATIC
        ARGFRAME DOVERLAY, 0, STATIC
        FUNCALL GenericApp_MessageMSGCB, HalLcdWriteStringValue
        LOCFRAME ISTACK, 0, STACK
        LOCFRAME PSTACK, 0, STACK
        LOCFRAME XSTACK, 13, STACK
        LOCFRAME IOVERLAY, 0, STATIC
        LOCFRAME DOVERLAY, 0, STATIC
        ARGFRAME ISTACK, 0, STACK
        ARGFRAME PSTACK, 0, STACK
        ARGFRAME XSTACK, 13, STACK
        ARGFRAME IOVERLAY, 0, STATIC
        ARGFRAME DOVERLAY, 0, STATIC
        FUNCALL GenericApp_MessageMSGCB, CustomApp_process_ping
        LOCFRAME ISTACK, 0, STACK
        LOCFRAME PSTACK, 0, STACK
        LOCFRAME XSTACK, 12, STACK
        LOCFRAME IOVERLAY, 0, STATIC
        LOCFRAME DOVERLAY, 0, STATIC
        ARGFRAME ISTACK, 0, STACK
        ARGFRAME PSTACK, 0, STACK
        ARGFRAME XSTACK, 12, STACK
        ARGFRAME IOVERLAY, 0, STATIC
        ARGFRAME DOVERLAY, 0, STATIC
        FUNCALL GenericApp_MessageMSGCB, CustomApp_Get_Flex_Devinfo
        LOCFRAME ISTACK, 0, STACK
        LOCFRAME PSTACK, 0, STACK
        LOCFRAME XSTACK, 12, STACK
        LOCFRAME IOVERLAY, 0, STATIC
        LOCFRAME DOVERLAY, 0, STATIC
        ARGFRAME ISTACK, 0, STACK
        ARGFRAME PSTACK, 0, STACK
        ARGFRAME XSTACK, 12, STACK
        ARGFRAME IOVERLAY, 0, STATIC
        ARGFRAME DOVERLAY, 0, STATIC
        FUNCALL GenericApp_MessageMSGCB, Onboard_soft_reset
        LOCFRAME ISTACK, 0, STACK
        LOCFRAME PSTACK, 0, STACK
        LOCFRAME XSTACK, 12, STACK
        LOCFRAME IOVERLAY, 0, STATIC
        LOCFRAME DOVERLAY, 0, STATIC
        ARGFRAME ISTACK, 0, STACK
        ARGFRAME PSTACK, 0, STACK
        ARGFRAME XSTACK, 12, STACK
        ARGFRAME IOVERLAY, 0, STATIC
        ARGFRAME DOVERLAY, 0, STATIC
        FUNCALL GenericApp_MessageMSGCB, osal_getClock
        LOCFRAME ISTACK, 0, STACK
        LOCFRAME PSTACK, 0, STACK
        LOCFRAME XSTACK, 12, STACK
        LOCFRAME IOVERLAY, 0, STATIC
        LOCFRAME DOVERLAY, 0, STATIC
        ARGFRAME ISTACK, 0, STACK
        ARGFRAME PSTACK, 0, STACK
        ARGFRAME XSTACK, 12, STACK
        ARGFRAME IOVERLAY, 0, STATIC
        ARGFRAME DOVERLAY, 0, STATIC
        FUNCALL GenericApp_MessageMSGCB, HalLcdWriteStringValue
        LOCFRAME ISTACK, 0, STACK
        LOCFRAME PSTACK, 0, STACK
        LOCFRAME XSTACK, 13, STACK
        LOCFRAME IOVERLAY, 0, STATIC
        LOCFRAME DOVERLAY, 0, STATIC
        ARGFRAME ISTACK, 0, STACK
        ARGFRAME PSTACK, 0, STACK
        ARGFRAME XSTACK, 13, STACK
        ARGFRAME IOVERLAY, 0, STATIC
        ARGFRAME DOVERLAY, 0, STATIC
        FUNCALL GenericApp_MessageMSGCB, HalLcdWriteStringValue
        LOCFRAME ISTACK, 0, STACK
        LOCFRAME PSTACK, 0, STACK
        LOCFRAME XSTACK, 13, STACK
        LOCFRAME IOVERLAY, 0, STATIC
        LOCFRAME DOVERLAY, 0, STATIC
        ARGFRAME ISTACK, 0, STACK
        ARGFRAME PSTACK, 0, STACK
        ARGFRAME XSTACK, 13, STACK
        ARGFRAME IOVERLAY, 0, STATIC
        ARGFRAME DOVERLAY, 0, STATIC
        FUNCALL GenericApp_MessageMSGCB, GenericApp_Device_JoinRsp
        LOCFRAME ISTACK, 0, STACK
        LOCFRAME PSTACK, 0, STACK
        LOCFRAME XSTACK, 12, STACK
        LOCFRAME IOVERLAY, 0, STATIC
        LOCFRAME DOVERLAY, 0, STATIC
        ARGFRAME ISTACK, 0, STACK
        ARGFRAME PSTACK, 0, STACK
        ARGFRAME XSTACK, 12, STACK
        ARGFRAME IOVERLAY, 0, STATIC
        ARGFRAME DOVERLAY, 0, STATIC
        FUNCALL GenericApp_MessageMSGCB, GenericApp_Get_PermitJoin
        LOCFRAME ISTACK, 0, STACK
        LOCFRAME PSTACK, 0, STACK
        LOCFRAME XSTACK, 12, STACK
        LOCFRAME IOVERLAY, 0, STATIC
        LOCFRAME DOVERLAY, 0, STATIC
        ARGFRAME ISTACK, 0, STACK
        ARGFRAME PSTACK, 0, STACK
        ARGFRAME XSTACK, 12, STACK
        ARGFRAME IOVERLAY, 0, STATIC
        ARGFRAME DOVERLAY, 0, STATIC
        REQUIRE ?V0
        REQUIRE ?V1
        REQUIRE ?V2
        REQUIRE ?V3
        MOV     A,#-0xc
        LCALL   ?BANKED_ENTER_XDATA
          CFI DPH0 load(1, XDATA, add(CFA_XSP16, literal(-1)))
          CFI DPL0 load(1, XDATA, add(CFA_XSP16, literal(-2)))
          CFI ?BRET_EXT load(1, XDATA, add(CFA_XSP16, literal(-3)))
          CFI ?RET_HIGH load(1, XDATA, add(CFA_XSP16, literal(-4)))
          CFI ?RET_LOW load(1, XDATA, add(CFA_XSP16, literal(-5)))
          CFI R7 load(1, XDATA, add(CFA_XSP16, literal(-6)))
          CFI V3 load(1, XDATA, add(CFA_XSP16, literal(-7)))
          CFI V2 load(1, XDATA, add(CFA_XSP16, literal(-8)))
          CFI V1 load(1, XDATA, add(CFA_XSP16, literal(-9)))
          CFI V0 load(1, XDATA, add(CFA_XSP16, literal(-10)))
          CFI VB load(1, XDATA, add(CFA_XSP16, literal(-11)))
          CFI R6 load(1, XDATA, add(CFA_XSP16, literal(-12)))
          CFI CFA_SP SP+0
          CFI CFA_XSP16 add(XSP16, 12)
        ; Saved register size: 12
        ; Auto size: 0
        MOV     A,R2
        MOV     R6,A
        MOV     A,R3
        MOV     R7,A
//  888   uint16 msgid;
//  889 
//  890 #if( ZSTACK_DEVICE_BUILD == DEVICE_BUILD_COORDINATOR)		
//  891   nodeList_t *nodeSearch;
//  892   pingpkt_t * pinbgpkt;
//  893   if(pkt->srcAddr.addr.shortAddr != 0x0000)  //chaokw ping
//  894   {
//  895     pinbgpkt = (pingpkt_t *)(pkt->cmd.Data);
//  896     nodeSearch = CustomApp_NodeFindNwkAddrList(pinbgpkt->devAddr16.addr.shortAddr);
//  897     if (nodeSearch!=NULL)
//  898     {	
//  899         nodeSearch->oldtimestamp = nodeSearch->timestamp; 
//  900     }
//  901   }
//  902 #endif    
//  903 
//  904 #if( ZSTACK_DEVICE_BUILD != DEVICE_BUILD_COORDINATOR)		
//  905   if(pkt->srcAddr.addr.shortAddr == 0x0000)  //chaokw ping
        MOV     DPL,R6
        MOV     DPH,R7
        LCALL   ?Subroutine17 & 0xFFFF
??CrossCallReturnLabel_87:
        JNZ     ??GenericApp_MessageMSGCB_0
//  906   {
//  907        pingRspTime = osal_getClock();
        ; Setup parameters for call to function osal_getClock
        LCALL   `??osal_getClock::?relay`; Banked call to: osal_getClock
        MOV     A,R2
        MOV     R0,A
        MOV     A,R3
        MOV     R1,A
        MOV     A,R4
        MOV     R2,A
        MOV     A,R5
        MOV     R3,A
        MOV     DPTR,#pingRspTime
        LCALL   ?XSTORE_R0123
//  908   }
//  909 #endif
//  910 
//  911 
//  912   switch ( pkt->clusterId )
??GenericApp_MessageMSGCB_0:
        MOV     DPL,R6
        MOV     DPH,R7
        INC     DPTR
        INC     DPTR
        INC     DPTR
        INC     DPTR
        LCALL   ?Subroutine23 & 0xFFFF
??CrossCallReturnLabel_27:
        LCALL   ?US_SWITCH_DENSE
`?<Jumptable for GenericApp_MessageMSGCB>_0`:
        DATA
        DATA16
        DATA
        DATA16
        DW        1
        DATA
        DATA8
        DATA
        DATA8
        DB        6
        DATA
        DATA16
        DATA
        DATA16
        DW        ??GenericApp_MessageMSGCB_1
        DATA
        DATA16
        DATA
        DATA16
        DW        ??GenericApp_MessageMSGCB_2
        DATA
        DATA16
        DATA
        DATA16
        DW        ??GenericApp_MessageMSGCB_3
        DATA
        DATA16
        DATA
        DATA16
        DW        ??GenericApp_MessageMSGCB_4
        DATA
        DATA16
        DATA
        DATA16
        DW        ??GenericApp_MessageMSGCB_5
        DATA
        DATA16
        DATA
        DATA16
        DW        ??GenericApp_MessageMSGCB_6
        DATA
        DATA16
        DATA
        DATA16
        DW        ??GenericApp_MessageMSGCB_7
        DATA
        DATA16
        DATA
        DATA16
        DW        ??GenericApp_MessageMSGCB_8
        CODE
//  913   {
//  914     case GENERICAPP_CLUSTERID:
//  915       rxMsgCount += 1;  // Count this message
??GenericApp_MessageMSGCB_2:
        MOV     DPTR,#rxMsgCount
        LCALL   ?Subroutine41 & 0xFFFF
//  916       HalLedSet ( HAL_LED_4, HAL_LED_MODE_BLINK );  // Blink an LED
??CrossCallReturnLabel_69:
        ; Setup parameters for call to function HalLedSet
        MOV     R2,#0x2
        MOV     R1,#0x8
        LCALL   `??HalLedSet::?relay`; Banked call to: HalLedSet
//  917 #if defined( LCD_SUPPORTED )
//  918       HalLcdWriteString( (char*)pkt->cmd.Data, HAL_LCD_LINE_1 );
        ; Setup parameters for call to function HalLcdWriteString
        MOV     R1,#0x1
        MOV     A,R6
        ADD     A,#0x22
        LCALL   ??Subroutine48_0 & 0xFFFF
??CrossCallReturnLabel_93:
        LCALL   `??HalLcdWriteString::?relay`; Banked call to: HalLcdWriteString
//  919       HalLcdWriteStringValue( "Rcvd:", rxMsgCount, 10, HAL_LCD_LINE_2 );
        ; Setup parameters for call to function HalLcdWriteStringValue
        MOV     ?V0,#0x3
        MOV     R0,#?V0
        LCALL   ?PUSH_XSTACK_I_ONE
          CFI CFA_XSP16 add(XSP16, 13)
        LCALL   ?Subroutine21 & 0xFFFF
??CrossCallReturnLabel_82:
        MOV     R2,#`?<Constant "Rcvd:">` & 0xff
        MOV     R3,#(`?<Constant "Rcvd:">` >> 8) & 0xff
        LJMP    ??GenericApp_MessageMSGCB_9 & 0xFFFF
          CFI CFA_XSP16 add(XSP16, 12)
//  920 #elif defined( WIN32 )
//  921       WPRINTSTR( pkt->cmd.Data );
//  922 #endif
//  923       break;
//  924 
//  925     case GENERICAPP_DATA_P2P_CLUSTERID:
//  926        CustomApp_AF_P2P_Data_Process(pkt);
??GenericApp_MessageMSGCB_3:
        ; Setup parameters for call to function CustomApp_AF_P2P_Data_Process
        MOV     A,R6
        MOV     R2,A
        MOV     A,R7
        MOV     R3,A
        LCALL   `??CustomApp_AF_P2P_Data_Process::?relay`; Banked call to: CustomApp_AF_P2P_Data_Process
//  927 	break;
        LJMP    ??GenericApp_MessageMSGCB_1 & 0xFFFF
//  928 
//  929     case GENERICAPP_GROUP_CLUSTERID:
//  930        CustomApp_AF_Group_Data_Process(pkt);	 
??GenericApp_MessageMSGCB_4:
        ; Setup parameters for call to function CustomApp_AF_Group_Data_Process
        MOV     A,R6
        MOV     R2,A
        MOV     A,R7
        MOV     R3,A
        LCALL   `??CustomApp_AF_Group_Data_Process::?relay`; Banked call to: CustomApp_AF_Group_Data_Process
//  931 	break;
        LJMP    ??GenericApp_MessageMSGCB_1 & 0xFFFF
//  932 
//  933     case GENERICAPP_BROADCAST_CLUSTERID:
//  934         msgid = pkt->cmd.Data[4] | pkt->cmd.Data[5] << 8;
//  935         switch ( msgid )	
??GenericApp_MessageMSGCB_6:
        LCALL   ?Subroutine35 & 0xFFFF
??CrossCallReturnLabel_57:
        MOVX    A,@DPTR
        MOV     R0,A
        LCALL   ?Subroutine19 & 0xFFFF
??CrossCallReturnLabel_19:
        MOVX    A,@DPTR
        MOV     R2,A
        MOV     DPL,R0
        MOV     DPH,R1
        INC     DPTR
        INC     DPTR
        INC     DPTR
        INC     DPTR
        INC     DPTR
        MOVX    A,@DPTR
        MOV     R1,A
        MOV     A,R2
        MOV     R0,A
        MOV     A,#0x1a
        XRL     A,R0
        JNZ     ??GenericApp_MessageMSGCB_10
        MOV     A,#0x21
        XRL     A,R1
??GenericApp_MessageMSGCB_10:
        JNZ     ??GenericApp_MessageMSGCB_11
//  936         {
//  937           case COORDINATOR_ONLINE_REQ:
//  938              CustomApp_Coordinator_Online();		  	
        ; Setup parameters for call to function CustomApp_Coordinator_Online
        LCALL   `??CustomApp_Coordinator_Online::?relay`; Banked call to: CustomApp_Coordinator_Online
//  939 	      break;
        LJMP    ??GenericApp_MessageMSGCB_1 & 0xFFFF
//  940 		 
//  941 	   default:
//  942              CustomApp_AF_Broadcast_Data_Process(pkt);	   	
??GenericApp_MessageMSGCB_11:
        ; Setup parameters for call to function CustomApp_AF_Broadcast_Data_Process
        MOV     A,R6
        MOV     R2,A
        MOV     A,R7
        MOV     R3,A
        LCALL   `??CustomApp_AF_Broadcast_Data_Process::?relay`; Banked call to: CustomApp_AF_Broadcast_Data_Process
//  943              break;
        LJMP    ??GenericApp_MessageMSGCB_1 & 0xFFFF
//  944         }
//  945 	break;		
//  946 
//  947     case GENERICAPP_CMD_P2P_CLUSTERID:
//  948 #if defined( LCD_SUPPORTED )		
//  949         rxMsgCount += 1;	
??GenericApp_MessageMSGCB_5:
        MOV     DPTR,#rxMsgCount
        LCALL   ?Subroutine9 & 0xFFFF
//  950         HalLcdWriteStringValue( "cmd Rcvd:", rxMsgCount, 10, HAL_LCD_LINE_2 );
??CrossCallReturnLabel_5:
        LCALL   ?PUSH_XSTACK_I_ONE
          CFI CFA_XSP16 add(XSP16, 13)
        LCALL   ?Subroutine21 & 0xFFFF
??CrossCallReturnLabel_83:
        MOV     R2,#`?<Constant "cmd Rcvd:">` & 0xff
        MOV     R3,#(`?<Constant "cmd Rcvd:">` >> 8) & 0xff
        LCALL   `??HalLcdWriteStringValue::?relay`; Banked call to: HalLcdWriteStringValue
        MOV     A,#0x1
        LCALL   ?DEALLOC_XSTACK8
          CFI CFA_XSP16 add(XSP16, 12)
//  951 #endif
//  952 
//  953         msgid = pkt->cmd.Data[0] | pkt->cmd.Data[1] << 8;
//  954         switch ( msgid )
        LCALL   ?Subroutine35 & 0xFFFF
??CrossCallReturnLabel_58:
        LCALL   ?Subroutine26 & 0xFFFF
??CrossCallReturnLabel_34:
        MOV     DPL,R0
        MOV     DPH,R1
        MOVX    A,@DPTR
        MOV     R2,A
        INC     DPTR
        MOVX    A,@DPTR
        MOV     R1,A
        MOV     A,R2
        MOV     ?V0,A
        MOV     A,R1
        MOV     ?V1,A
        MOV     R0,#?V0
        LCALL   ?US_SWITCH_SPARSE
`?<Jumptable for GenericApp_MessageMSGCB>_1`:
        DATA
        DATA16
        DATA
        DATA16
        DATA
        DATA16
        DW        0
        DATA
        DATA16
        DATA
        DATA16
        DATA
        DATA16
        DW        4
        DATA
        DATA16
        DATA
        DATA16
        DATA
        DATA16
        DW        4154
        DATA
        DATA16
        DATA
        DATA16
        DATA
        DATA16
        DW        ??GenericApp_MessageMSGCB_12
        DATA
        DATA16
        DATA
        DATA16
        DATA
        DATA16
        DW        4155
        DATA
        DATA16
        DATA
        DATA16
        DATA
        DATA16
        DW        ??GenericApp_MessageMSGCB_13
        DATA
        DATA16
        DATA
        DATA16
        DATA
        DATA16
        DW        8474
        DATA
        DATA16
        DATA
        DATA16
        DATA
        DATA16
        DW        ??GenericApp_MessageMSGCB_14
        DATA
        DATA16
        DATA
        DATA16
        DATA
        DATA16
        DW        8479
        DATA
        DATA16
        DATA
        DATA16
        DATA
        DATA16
        DW        ??GenericApp_MessageMSGCB_15
        DATA
        DATA16
        DATA
        DATA16
        DW        ??GenericApp_MessageMSGCB_1
        CODE
//  955         {
//  956           case PING_REQ_MSG:
//  957              CustomApp_process_ping((pingpkt_t *)(pkt->cmd.Data)); // update node timestamp
??GenericApp_MessageMSGCB_12:
        ; Setup parameters for call to function CustomApp_process_ping
        MOV     A,R6
        ADD     A,#0x22
        LCALL   ??Subroutine48_0 & 0xFFFF
??CrossCallReturnLabel_94:
        LCALL   `??CustomApp_process_ping::?relay`; Banked call to: CustomApp_process_ping
//  958 	      break;
        SJMP    ??GenericApp_MessageMSGCB_1
//  959 
//  960 #if( ZSTACK_DEVICE_BUILD != DEVICE_BUILD_COORDINATOR)		
//  961           case ROUTER_ONLINE_REQ:
//  962              CustomApp_Get_Flex_Devinfo();
??GenericApp_MessageMSGCB_14:
        ; Setup parameters for call to function CustomApp_Get_Flex_Devinfo
        LCALL   `??CustomApp_Get_Flex_Devinfo::?relay`; Banked call to: CustomApp_Get_Flex_Devinfo
//  963              break;
        SJMP    ??GenericApp_MessageMSGCB_1
//  964 
//  965           case ROUTER_ONFFLINE_REQ:
//  966              Onboard_soft_reset();
??GenericApp_MessageMSGCB_15:
        ; Setup parameters for call to function Onboard_soft_reset
        LCALL   Onboard_soft_reset & 0xFFFF
//  967              break;
        SJMP    ??GenericApp_MessageMSGCB_1
//  968 
//  969           case PING_RSP_MSG:   //chaokw ping
//  970              pingRspTime = osal_getClock();
??GenericApp_MessageMSGCB_13:
        ; Setup parameters for call to function osal_getClock
        LCALL   `??osal_getClock::?relay`; Banked call to: osal_getClock
        MOV     DPTR,#pingRspTime
        LCALL   ?XSTORE_R2345
//  971 #if defined( LCD_SUPPORTED )		
//  972              HalLcdWriteStringValue( "ping rsp:", pingRspTime, 16, HAL_LCD_LINE_2 );
        ; Setup parameters for call to function HalLcdWriteStringValue
        MOV     ?V0,#0x3
        MOV     R0,#?V0
        LCALL   ?PUSH_XSTACK_I_ONE
          CFI CFA_XSP16 add(XSP16, 13)
        MOV     R1,#0x10
        MOV     DPTR,#pingRspTime
        MOV     R0,#?V0
        LCALL   ?L_MOV_X
        MOV     R4,?V0
        MOV     R5,?V1
        MOV     R2,#`?<Constant "ping rsp:">` & 0xff
        MOV     R3,#(`?<Constant "ping rsp:">` >> 8) & 0xff
??GenericApp_MessageMSGCB_9:
        LCALL   `??HalLcdWriteStringValue::?relay`; Banked call to: HalLcdWriteStringValue
        MOV     A,#0x1
        LCALL   ?DEALLOC_XSTACK8
          CFI CFA_XSP16 add(XSP16, 12)
//  973 #endif			 
//  974 	      break;
        SJMP    ??GenericApp_MessageMSGCB_1
//  975 #endif			 
//  976 	
//  977 	   default:
//  978              break;
//  979          }	
//  980 	break;		
//  981 
//  982 
//  983 	case GENERICAPP_P2P_PERMIT_JOIN_REQ_CLUSTERID:
//  984 	  	// gateway coordinator process flex router join from flex request
//  985 
//  986 #if defined( LCD_SUPPORTED )		
//  987         askWhiteListCount += 1;	
??GenericApp_MessageMSGCB_7:
        MOV     DPTR,#askWhiteListCount
        LCALL   ?Subroutine9 & 0xFFFF
//  988         HalLcdWriteStringValue( "ask WL:", askWhiteListCount, 10, HAL_LCD_LINE_2 );
??CrossCallReturnLabel_6:
        LCALL   ?PUSH_XSTACK_I_ONE
          CFI CFA_XSP16 add(XSP16, 13)
        MOV     R1,#0xa
        MOV     DPTR,#askWhiteListCount
        LCALL   ??Subroutine46_0 & 0xFFFF
??CrossCallReturnLabel_81:
        MOV     R2,#`?<Constant "ask WL:">` & 0xff
        MOV     R3,#(`?<Constant "ask WL:">` >> 8) & 0xff
        LCALL   `??HalLcdWriteStringValue::?relay`; Banked call to: HalLcdWriteStringValue
        MOV     A,#0x1
        LCALL   ?DEALLOC_XSTACK8
          CFI CFA_XSP16 add(XSP16, 12)
//  989 #endif	  	
//  990 		GenericApp_Device_JoinRsp(pkt);
        ; Setup parameters for call to function GenericApp_Device_JoinRsp
        MOV     A,R6
        MOV     R2,A
        MOV     A,R7
        MOV     R3,A
        LCALL   `??GenericApp_Device_JoinRsp::?relay`; Banked call to: GenericApp_Device_JoinRsp
//  991 		break;
        SJMP    ??GenericApp_MessageMSGCB_1
//  992 
//  993 	case GENERICAPP_P2P_PERMIT_JOIN_RSP_CLUSTERID:
//  994 	  	// flex router received join permit info from gateway coordinator
//  995 		GenericApp_Get_PermitJoin(pkt);
??GenericApp_MessageMSGCB_8:
        ; Setup parameters for call to function GenericApp_Get_PermitJoin
        MOV     A,R6
        MOV     R2,A
        MOV     A,R7
        MOV     R3,A
        LCALL   `??GenericApp_Get_PermitJoin::?relay`; Banked call to: GenericApp_Get_PermitJoin
//  996 		break;
//  997 
//  998 		
//  999     default:
// 1000         break;
// 1001 
// 1002   }
// 1003 }
??GenericApp_MessageMSGCB_1:
        LJMP    ??Subroutine53_0 & 0xFFFF
          CFI EndBlock cfiBlock14

        RSEG BANKED_CODE:CODE:NOROOT(0)
?Subroutine35:
          CFI Block cfiCond15 Using cfiCommon0
          CFI Function GenericApp_MessageMSGCB
          CFI Conditional ??CrossCallReturnLabel_57
          CFI R6 load(1, XDATA, add(CFA_XSP16, literal(-12)))
          CFI VB load(1, XDATA, add(CFA_XSP16, literal(-11)))
          CFI V0 load(1, XDATA, add(CFA_XSP16, literal(-10)))
          CFI V1 load(1, XDATA, add(CFA_XSP16, literal(-9)))
          CFI V2 load(1, XDATA, add(CFA_XSP16, literal(-8)))
          CFI V3 load(1, XDATA, add(CFA_XSP16, literal(-7)))
          CFI R7 load(1, XDATA, add(CFA_XSP16, literal(-6)))
          CFI ?RET_LOW load(1, XDATA, add(CFA_XSP16, literal(-5)))
          CFI ?RET_HIGH load(1, XDATA, add(CFA_XSP16, literal(-4)))
          CFI ?BRET_EXT load(1, XDATA, add(CFA_XSP16, literal(-3)))
          CFI DPL0 load(1, XDATA, add(CFA_XSP16, literal(-2)))
          CFI DPH0 load(1, XDATA, add(CFA_XSP16, literal(-1)))
          CFI CFA_SP SP+-2
          CFI CFA_XSP16 add(XSP16, 12)
          CFI Block cfiCond16 Using cfiCommon0
          CFI (cfiCond16) Function GenericApp_MessageMSGCB
          CFI (cfiCond16) Conditional ??CrossCallReturnLabel_58
          CFI (cfiCond16) R6 load(1, XDATA, add(CFA_XSP16, literal(-12)))
          CFI (cfiCond16) VB load(1, XDATA, add(CFA_XSP16, literal(-11)))
          CFI (cfiCond16) V0 load(1, XDATA, add(CFA_XSP16, literal(-10)))
          CFI (cfiCond16) V1 load(1, XDATA, add(CFA_XSP16, literal(-9)))
          CFI (cfiCond16) V2 load(1, XDATA, add(CFA_XSP16, literal(-8)))
          CFI (cfiCond16) V3 load(1, XDATA, add(CFA_XSP16, literal(-7)))
          CFI (cfiCond16) R7 load(1, XDATA, add(CFA_XSP16, literal(-6)))
          CFI (cfiCond16) ?RET_LOW load(1, XDATA, add(CFA_XSP16, literal(-5)))
          CFI (cfiCond16) ?RET_HIGH load(1, XDATA, add(CFA_XSP16, literal(-4)))
          CFI (cfiCond16) ?BRET_EXT load(1, XDATA, add(CFA_XSP16, literal(-3)))
          CFI (cfiCond16) DPL0 load(1, XDATA, add(CFA_XSP16, literal(-2)))
          CFI (cfiCond16) DPH0 load(1, XDATA, add(CFA_XSP16, literal(-1)))
          CFI (cfiCond16) CFA_SP SP+-2
          CFI (cfiCond16) CFA_XSP16 add(XSP16, 12)
          CFI Block cfiPicker17 Using cfiCommon1
          CFI (cfiPicker17) NoFunction
          CFI (cfiPicker17) Picker
        MOV     A,R6
        ADD     A,#0x22
        MOV     DPL,A
        CLR     A
        ADDC    A,R7
        MOV     DPH,A
        RET
          CFI EndBlock cfiCond15
          CFI EndBlock cfiCond16
          CFI EndBlock cfiPicker17

        RSEG BANKED_CODE:CODE:NOROOT(0)
?Subroutine23:
          CFI Block cfiCond18 Using cfiCommon0
          CFI Function GenericApp_ProcessZDOMsgs
          CFI Conditional ??CrossCallReturnLabel_26
          CFI R6 load(1, XDATA, add(CFA_XSP16, literal(-15)))
          CFI VB load(1, XDATA, add(CFA_XSP16, literal(-14)))
          CFI V0 load(1, XDATA, add(CFA_XSP16, literal(-13)))
          CFI V1 load(1, XDATA, add(CFA_XSP16, literal(-12)))
          CFI V2 load(1, XDATA, add(CFA_XSP16, literal(-11)))
          CFI V3 load(1, XDATA, add(CFA_XSP16, literal(-10)))
          CFI V4 load(1, XDATA, add(CFA_XSP16, literal(-9)))
          CFI V5 load(1, XDATA, add(CFA_XSP16, literal(-8)))
          CFI V6 load(1, XDATA, add(CFA_XSP16, literal(-7)))
          CFI R7 load(1, XDATA, add(CFA_XSP16, literal(-6)))
          CFI ?RET_LOW load(1, XDATA, add(CFA_XSP16, literal(-5)))
          CFI ?RET_HIGH load(1, XDATA, add(CFA_XSP16, literal(-4)))
          CFI ?BRET_EXT load(1, XDATA, add(CFA_XSP16, literal(-3)))
          CFI DPL0 load(1, XDATA, add(CFA_XSP16, literal(-2)))
          CFI DPH0 load(1, XDATA, add(CFA_XSP16, literal(-1)))
          CFI CFA_SP SP+-2
          CFI CFA_XSP16 add(XSP16, 39)
          CFI Block cfiCond19 Using cfiCommon0
          CFI (cfiCond19) Function GenericApp_MessageMSGCB
          CFI (cfiCond19) Conditional ??CrossCallReturnLabel_27
          CFI (cfiCond19) R6 load(1, XDATA, add(CFA_XSP16, literal(-12)))
          CFI (cfiCond19) VB load(1, XDATA, add(CFA_XSP16, literal(-11)))
          CFI (cfiCond19) V0 load(1, XDATA, add(CFA_XSP16, literal(-10)))
          CFI (cfiCond19) V1 load(1, XDATA, add(CFA_XSP16, literal(-9)))
          CFI (cfiCond19) V2 load(1, XDATA, add(CFA_XSP16, literal(-8)))
          CFI (cfiCond19) V3 load(1, XDATA, add(CFA_XSP16, literal(-7)))
          CFI (cfiCond19) R7 load(1, XDATA, add(CFA_XSP16, literal(-6)))
          CFI (cfiCond19) ?RET_LOW load(1, XDATA, add(CFA_XSP16, literal(-5)))
          CFI (cfiCond19) ?RET_HIGH load(1, XDATA, add(CFA_XSP16, literal(-4)))
          CFI (cfiCond19) ?BRET_EXT load(1, XDATA, add(CFA_XSP16, literal(-3)))
          CFI (cfiCond19) DPL0 load(1, XDATA, add(CFA_XSP16, literal(-2)))
          CFI (cfiCond19) DPH0 load(1, XDATA, add(CFA_XSP16, literal(-1)))
          CFI (cfiCond19) CFA_SP SP+-2
          CFI (cfiCond19) CFA_XSP16 add(XSP16, 12)
          CFI Block cfiPicker20 Using cfiCommon1
          CFI (cfiPicker20) NoFunction
          CFI (cfiPicker20) Picker
        MOVX    A,@DPTR
        MOV     ?V0,A
        INC     DPTR
        MOVX    A,@DPTR
        MOV     ?V1,A
        MOV     R0,#?V0
        RET
          CFI EndBlock cfiCond18
          CFI EndBlock cfiCond19
          CFI EndBlock cfiPicker20

        RSEG BANKED_CODE:CODE:NOROOT(0)
?Subroutine21:
          CFI Block cfiCond21 Using cfiCommon0
          CFI Function GenericApp_MessageMSGCB
          CFI Conditional ??CrossCallReturnLabel_82
          CFI R6 load(1, XDATA, add(CFA_XSP16, literal(-12)))
          CFI VB load(1, XDATA, add(CFA_XSP16, literal(-11)))
          CFI V0 load(1, XDATA, add(CFA_XSP16, literal(-10)))
          CFI V1 load(1, XDATA, add(CFA_XSP16, literal(-9)))
          CFI V2 load(1, XDATA, add(CFA_XSP16, literal(-8)))
          CFI V3 load(1, XDATA, add(CFA_XSP16, literal(-7)))
          CFI R7 load(1, XDATA, add(CFA_XSP16, literal(-6)))
          CFI ?RET_LOW load(1, XDATA, add(CFA_XSP16, literal(-5)))
          CFI ?RET_HIGH load(1, XDATA, add(CFA_XSP16, literal(-4)))
          CFI ?BRET_EXT load(1, XDATA, add(CFA_XSP16, literal(-3)))
          CFI DPL0 load(1, XDATA, add(CFA_XSP16, literal(-2)))
          CFI DPH0 load(1, XDATA, add(CFA_XSP16, literal(-1)))
          CFI CFA_SP SP+-2
          CFI CFA_XSP16 add(XSP16, 13)
          CFI Block cfiCond22 Using cfiCommon0
          CFI (cfiCond22) Function GenericApp_MessageMSGCB
          CFI (cfiCond22) Conditional ??CrossCallReturnLabel_83
          CFI (cfiCond22) R6 load(1, XDATA, add(CFA_XSP16, literal(-12)))
          CFI (cfiCond22) VB load(1, XDATA, add(CFA_XSP16, literal(-11)))
          CFI (cfiCond22) V0 load(1, XDATA, add(CFA_XSP16, literal(-10)))
          CFI (cfiCond22) V1 load(1, XDATA, add(CFA_XSP16, literal(-9)))
          CFI (cfiCond22) V2 load(1, XDATA, add(CFA_XSP16, literal(-8)))
          CFI (cfiCond22) V3 load(1, XDATA, add(CFA_XSP16, literal(-7)))
          CFI (cfiCond22) R7 load(1, XDATA, add(CFA_XSP16, literal(-6)))
          CFI (cfiCond22) ?RET_LOW load(1, XDATA, add(CFA_XSP16, literal(-5)))
          CFI (cfiCond22) ?RET_HIGH load(1, XDATA, add(CFA_XSP16, literal(-4)))
          CFI (cfiCond22) ?BRET_EXT load(1, XDATA, add(CFA_XSP16, literal(-3)))
          CFI (cfiCond22) DPL0 load(1, XDATA, add(CFA_XSP16, literal(-2)))
          CFI (cfiCond22) DPH0 load(1, XDATA, add(CFA_XSP16, literal(-1)))
          CFI (cfiCond22) CFA_SP SP+-2
          CFI (cfiCond22) CFA_XSP16 add(XSP16, 13)
          CFI Block cfiPicker23 Using cfiCommon1
          CFI (cfiPicker23) NoFunction
          CFI (cfiPicker23) Picker
        MOV     R1,#0xa
        MOV     DPTR,#rxMsgCount
          CFI EndBlock cfiCond21
          CFI EndBlock cfiCond22
          CFI EndBlock cfiPicker23
        REQUIRE ??Subroutine46_0
        ; // Fall through to label ??Subroutine46_0

        RSEG BANKED_CODE:CODE:NOROOT(0)
??Subroutine46_0:
          CFI Block cfiCond24 Using cfiCommon0
          CFI Function GenericApp_ProcessEvent
          CFI Conditional ??CrossCallReturnLabel_80
          CFI R6 load(1, XDATA, add(CFA_XSP16, literal(-12)))
          CFI VB load(1, XDATA, add(CFA_XSP16, literal(-11)))
          CFI V0 load(1, XDATA, add(CFA_XSP16, literal(-10)))
          CFI V1 load(1, XDATA, add(CFA_XSP16, literal(-9)))
          CFI V2 load(1, XDATA, add(CFA_XSP16, literal(-8)))
          CFI V3 load(1, XDATA, add(CFA_XSP16, literal(-7)))
          CFI R7 load(1, XDATA, add(CFA_XSP16, literal(-6)))
          CFI ?RET_LOW load(1, XDATA, add(CFA_XSP16, literal(-5)))
          CFI ?RET_HIGH load(1, XDATA, add(CFA_XSP16, literal(-4)))
          CFI ?BRET_EXT load(1, XDATA, add(CFA_XSP16, literal(-3)))
          CFI DPL0 load(1, XDATA, add(CFA_XSP16, literal(-2)))
          CFI DPH0 load(1, XDATA, add(CFA_XSP16, literal(-1)))
          CFI CFA_SP SP+-2
          CFI CFA_XSP16 add(XSP16, 25)
          CFI Block cfiCond25 Using cfiCommon0
          CFI (cfiCond25) Function GenericApp_MessageMSGCB
          CFI (cfiCond25) Conditional ??CrossCallReturnLabel_81
          CFI (cfiCond25) R6 load(1, XDATA, add(CFA_XSP16, literal(-12)))
          CFI (cfiCond25) VB load(1, XDATA, add(CFA_XSP16, literal(-11)))
          CFI (cfiCond25) V0 load(1, XDATA, add(CFA_XSP16, literal(-10)))
          CFI (cfiCond25) V1 load(1, XDATA, add(CFA_XSP16, literal(-9)))
          CFI (cfiCond25) V2 load(1, XDATA, add(CFA_XSP16, literal(-8)))
          CFI (cfiCond25) V3 load(1, XDATA, add(CFA_XSP16, literal(-7)))
          CFI (cfiCond25) R7 load(1, XDATA, add(CFA_XSP16, literal(-6)))
          CFI (cfiCond25) ?RET_LOW load(1, XDATA, add(CFA_XSP16, literal(-5)))
          CFI (cfiCond25) ?RET_HIGH load(1, XDATA, add(CFA_XSP16, literal(-4)))
          CFI (cfiCond25) ?BRET_EXT load(1, XDATA, add(CFA_XSP16, literal(-3)))
          CFI (cfiCond25) DPL0 load(1, XDATA, add(CFA_XSP16, literal(-2)))
          CFI (cfiCond25) DPH0 load(1, XDATA, add(CFA_XSP16, literal(-1)))
          CFI (cfiCond25) CFA_SP SP+-2
          CFI (cfiCond25) CFA_XSP16 add(XSP16, 13)
          CFI Block cfiCond26 Using cfiCommon0
          CFI (cfiCond26) Function GenericApp_MessageMSGCB
          CFI (cfiCond26) Conditional ??CrossCallReturnLabel_82
          CFI (cfiCond26) R6 load(1, XDATA, add(CFA_XSP16, literal(-12)))
          CFI (cfiCond26) VB load(1, XDATA, add(CFA_XSP16, literal(-11)))
          CFI (cfiCond26) V0 load(1, XDATA, add(CFA_XSP16, literal(-10)))
          CFI (cfiCond26) V1 load(1, XDATA, add(CFA_XSP16, literal(-9)))
          CFI (cfiCond26) V2 load(1, XDATA, add(CFA_XSP16, literal(-8)))
          CFI (cfiCond26) V3 load(1, XDATA, add(CFA_XSP16, literal(-7)))
          CFI (cfiCond26) R7 load(1, XDATA, add(CFA_XSP16, literal(-6)))
          CFI (cfiCond26) ?RET_LOW load(1, XDATA, add(CFA_XSP16, literal(-5)))
          CFI (cfiCond26) ?RET_HIGH load(1, XDATA, add(CFA_XSP16, literal(-4)))
          CFI (cfiCond26) ?BRET_EXT load(1, XDATA, add(CFA_XSP16, literal(-3)))
          CFI (cfiCond26) DPL0 load(1, XDATA, add(CFA_XSP16, literal(-2)))
          CFI (cfiCond26) DPH0 load(1, XDATA, add(CFA_XSP16, literal(-1)))
          CFI (cfiCond26) CFA_SP SP+-2
          CFI (cfiCond26) CFA_XSP16 add(XSP16, 13)
          CFI Block cfiCond27 Using cfiCommon0
          CFI (cfiCond27) Function GenericApp_MessageMSGCB
          CFI (cfiCond27) Conditional ??CrossCallReturnLabel_83
          CFI (cfiCond27) R6 load(1, XDATA, add(CFA_XSP16, literal(-12)))
          CFI (cfiCond27) VB load(1, XDATA, add(CFA_XSP16, literal(-11)))
          CFI (cfiCond27) V0 load(1, XDATA, add(CFA_XSP16, literal(-10)))
          CFI (cfiCond27) V1 load(1, XDATA, add(CFA_XSP16, literal(-9)))
          CFI (cfiCond27) V2 load(1, XDATA, add(CFA_XSP16, literal(-8)))
          CFI (cfiCond27) V3 load(1, XDATA, add(CFA_XSP16, literal(-7)))
          CFI (cfiCond27) R7 load(1, XDATA, add(CFA_XSP16, literal(-6)))
          CFI (cfiCond27) ?RET_LOW load(1, XDATA, add(CFA_XSP16, literal(-5)))
          CFI (cfiCond27) ?RET_HIGH load(1, XDATA, add(CFA_XSP16, literal(-4)))
          CFI (cfiCond27) ?BRET_EXT load(1, XDATA, add(CFA_XSP16, literal(-3)))
          CFI (cfiCond27) DPL0 load(1, XDATA, add(CFA_XSP16, literal(-2)))
          CFI (cfiCond27) DPH0 load(1, XDATA, add(CFA_XSP16, literal(-1)))
          CFI (cfiCond27) CFA_SP SP+-2
          CFI (cfiCond27) CFA_XSP16 add(XSP16, 13)
          CFI Block cfiPicker28 Using cfiCommon1
          CFI (cfiPicker28) NoFunction
          CFI (cfiPicker28) Picker
        MOVX    A,@DPTR
        MOV     R4,A
        INC     DPTR
        MOVX    A,@DPTR
        MOV     R5,A
        RET
          CFI EndBlock cfiCond24
          CFI EndBlock cfiCond25
          CFI EndBlock cfiCond26
          CFI EndBlock cfiCond27
          CFI EndBlock cfiPicker28

        RSEG BANKED_CODE:CODE:NOROOT(0)
?Subroutine17:
          CFI Block cfiCond29 Using cfiCommon0
          CFI Function GenericApp_MessageMSGCB
          CFI Conditional ??CrossCallReturnLabel_87
          CFI R6 load(1, XDATA, add(CFA_XSP16, literal(-12)))
          CFI VB load(1, XDATA, add(CFA_XSP16, literal(-11)))
          CFI V0 load(1, XDATA, add(CFA_XSP16, literal(-10)))
          CFI V1 load(1, XDATA, add(CFA_XSP16, literal(-9)))
          CFI V2 load(1, XDATA, add(CFA_XSP16, literal(-8)))
          CFI V3 load(1, XDATA, add(CFA_XSP16, literal(-7)))
          CFI R7 load(1, XDATA, add(CFA_XSP16, literal(-6)))
          CFI ?RET_LOW load(1, XDATA, add(CFA_XSP16, literal(-5)))
          CFI ?RET_HIGH load(1, XDATA, add(CFA_XSP16, literal(-4)))
          CFI ?BRET_EXT load(1, XDATA, add(CFA_XSP16, literal(-3)))
          CFI DPL0 load(1, XDATA, add(CFA_XSP16, literal(-2)))
          CFI DPH0 load(1, XDATA, add(CFA_XSP16, literal(-1)))
          CFI CFA_SP SP+-2
          CFI CFA_XSP16 add(XSP16, 12)
          CFI Block cfiCond30 Using cfiCommon0
          CFI (cfiCond30) Function GenericApp_Get_PermitJoin
          CFI (cfiCond30) Conditional ??CrossCallReturnLabel_88
          CFI (cfiCond30) R6 load(1, XDATA, add(CFA_XSP16, literal(-15)))
          CFI (cfiCond30) VB load(1, XDATA, add(CFA_XSP16, literal(-14)))
          CFI (cfiCond30) V0 load(1, XDATA, add(CFA_XSP16, literal(-13)))
          CFI (cfiCond30) V1 load(1, XDATA, add(CFA_XSP16, literal(-12)))
          CFI (cfiCond30) V2 load(1, XDATA, add(CFA_XSP16, literal(-11)))
          CFI (cfiCond30) V3 load(1, XDATA, add(CFA_XSP16, literal(-10)))
          CFI (cfiCond30) V4 load(1, XDATA, add(CFA_XSP16, literal(-9)))
          CFI (cfiCond30) V5 load(1, XDATA, add(CFA_XSP16, literal(-8)))
          CFI (cfiCond30) V6 load(1, XDATA, add(CFA_XSP16, literal(-7)))
          CFI (cfiCond30) R7 load(1, XDATA, add(CFA_XSP16, literal(-6)))
          CFI (cfiCond30) ?RET_LOW load(1, XDATA, add(CFA_XSP16, literal(-5)))
          CFI (cfiCond30) ?RET_HIGH load(1, XDATA, add(CFA_XSP16, literal(-4)))
          CFI (cfiCond30) ?BRET_EXT load(1, XDATA, add(CFA_XSP16, literal(-3)))
          CFI (cfiCond30) DPL0 load(1, XDATA, add(CFA_XSP16, literal(-2)))
          CFI (cfiCond30) DPH0 load(1, XDATA, add(CFA_XSP16, literal(-1)))
          CFI (cfiCond30) CFA_SP SP+-2
          CFI (cfiCond30) CFA_XSP16 add(XSP16, 23)
          CFI Block cfiPicker31 Using cfiCommon1
          CFI (cfiPicker31) NoFunction
          CFI (cfiPicker31) Picker
        INC     DPTR
        INC     DPTR
        INC     DPTR
        INC     DPTR
        INC     DPTR
        INC     DPTR
          CFI EndBlock cfiCond29
          CFI EndBlock cfiCond30
          CFI EndBlock cfiPicker31
        REQUIRE ??Subroutine47_0
        ; // Fall through to label ??Subroutine47_0

        RSEG BANKED_CODE:CODE:NOROOT(0)
??Subroutine47_0:
          CFI Block cfiCond32 Using cfiCommon0
          CFI Function CustomApp_NodeDelete
          CFI Conditional ??CrossCallReturnLabel_86
          CFI R6 load(1, XDATA, add(CFA_XSP16, literal(-9)))
          CFI VB load(1, XDATA, add(CFA_XSP16, literal(-8)))
          CFI V0 load(1, XDATA, add(CFA_XSP16, literal(-7)))
          CFI R7 load(1, XDATA, add(CFA_XSP16, literal(-6)))
          CFI ?RET_LOW load(1, XDATA, add(CFA_XSP16, literal(-5)))
          CFI ?RET_HIGH load(1, XDATA, add(CFA_XSP16, literal(-4)))
          CFI ?BRET_EXT load(1, XDATA, add(CFA_XSP16, literal(-3)))
          CFI DPL0 load(1, XDATA, add(CFA_XSP16, literal(-2)))
          CFI DPH0 load(1, XDATA, add(CFA_XSP16, literal(-1)))
          CFI CFA_SP SP+-2
          CFI CFA_XSP16 add(XSP16, 9)
          CFI Block cfiCond33 Using cfiCommon0
          CFI (cfiCond33) Function CustomApp_NodeDelete
          CFI (cfiCond33) Conditional ??CrossCallReturnLabel_84
          CFI (cfiCond33) R6 load(1, XDATA, add(CFA_XSP16, literal(-9)))
          CFI (cfiCond33) VB load(1, XDATA, add(CFA_XSP16, literal(-8)))
          CFI (cfiCond33) V0 load(1, XDATA, add(CFA_XSP16, literal(-7)))
          CFI (cfiCond33) R7 load(1, XDATA, add(CFA_XSP16, literal(-6)))
          CFI (cfiCond33) ?RET_LOW load(1, XDATA, add(CFA_XSP16, literal(-5)))
          CFI (cfiCond33) ?RET_HIGH load(1, XDATA, add(CFA_XSP16, literal(-4)))
          CFI (cfiCond33) ?BRET_EXT load(1, XDATA, add(CFA_XSP16, literal(-3)))
          CFI (cfiCond33) DPL0 load(1, XDATA, add(CFA_XSP16, literal(-2)))
          CFI (cfiCond33) DPH0 load(1, XDATA, add(CFA_XSP16, literal(-1)))
          CFI (cfiCond33) CFA_SP SP+-2
          CFI (cfiCond33) CFA_XSP16 add(XSP16, 9)
          CFI Block cfiCond34 Using cfiCommon0
          CFI (cfiCond34) Function CustomApp_NodeFindNwkAddrList
          CFI (cfiCond34) Conditional ??CrossCallReturnLabel_85
          CFI (cfiCond34) DPL0 Frame(CFA_SP, 4)
          CFI (cfiCond34) DPH0 Frame(CFA_SP, 5)
          CFI (cfiCond34) CFA_SP SP+-7
          CFI Block cfiCond35 Using cfiCommon0
          CFI (cfiCond35) Function GenericApp_MessageMSGCB
          CFI (cfiCond35) Conditional ??CrossCallReturnLabel_87
          CFI (cfiCond35) R6 load(1, XDATA, add(CFA_XSP16, literal(-12)))
          CFI (cfiCond35) VB load(1, XDATA, add(CFA_XSP16, literal(-11)))
          CFI (cfiCond35) V0 load(1, XDATA, add(CFA_XSP16, literal(-10)))
          CFI (cfiCond35) V1 load(1, XDATA, add(CFA_XSP16, literal(-9)))
          CFI (cfiCond35) V2 load(1, XDATA, add(CFA_XSP16, literal(-8)))
          CFI (cfiCond35) V3 load(1, XDATA, add(CFA_XSP16, literal(-7)))
          CFI (cfiCond35) R7 load(1, XDATA, add(CFA_XSP16, literal(-6)))
          CFI (cfiCond35) ?RET_LOW load(1, XDATA, add(CFA_XSP16, literal(-5)))
          CFI (cfiCond35) ?RET_HIGH load(1, XDATA, add(CFA_XSP16, literal(-4)))
          CFI (cfiCond35) ?BRET_EXT load(1, XDATA, add(CFA_XSP16, literal(-3)))
          CFI (cfiCond35) DPL0 load(1, XDATA, add(CFA_XSP16, literal(-2)))
          CFI (cfiCond35) DPH0 load(1, XDATA, add(CFA_XSP16, literal(-1)))
          CFI (cfiCond35) CFA_SP SP+-2
          CFI (cfiCond35) CFA_XSP16 add(XSP16, 12)
          CFI Block cfiCond36 Using cfiCommon0
          CFI (cfiCond36) Function GenericApp_Get_PermitJoin
          CFI (cfiCond36) Conditional ??CrossCallReturnLabel_88
          CFI (cfiCond36) R6 load(1, XDATA, add(CFA_XSP16, literal(-15)))
          CFI (cfiCond36) VB load(1, XDATA, add(CFA_XSP16, literal(-14)))
          CFI (cfiCond36) V0 load(1, XDATA, add(CFA_XSP16, literal(-13)))
          CFI (cfiCond36) V1 load(1, XDATA, add(CFA_XSP16, literal(-12)))
          CFI (cfiCond36) V2 load(1, XDATA, add(CFA_XSP16, literal(-11)))
          CFI (cfiCond36) V3 load(1, XDATA, add(CFA_XSP16, literal(-10)))
          CFI (cfiCond36) V4 load(1, XDATA, add(CFA_XSP16, literal(-9)))
          CFI (cfiCond36) V5 load(1, XDATA, add(CFA_XSP16, literal(-8)))
          CFI (cfiCond36) V6 load(1, XDATA, add(CFA_XSP16, literal(-7)))
          CFI (cfiCond36) R7 load(1, XDATA, add(CFA_XSP16, literal(-6)))
          CFI (cfiCond36) ?RET_LOW load(1, XDATA, add(CFA_XSP16, literal(-5)))
          CFI (cfiCond36) ?RET_HIGH load(1, XDATA, add(CFA_XSP16, literal(-4)))
          CFI (cfiCond36) ?BRET_EXT load(1, XDATA, add(CFA_XSP16, literal(-3)))
          CFI (cfiCond36) DPL0 load(1, XDATA, add(CFA_XSP16, literal(-2)))
          CFI (cfiCond36) DPH0 load(1, XDATA, add(CFA_XSP16, literal(-1)))
          CFI (cfiCond36) CFA_SP SP+-2
          CFI (cfiCond36) CFA_XSP16 add(XSP16, 23)
          CFI Block cfiPicker37 Using cfiCommon1
          CFI (cfiPicker37) NoFunction
          CFI (cfiPicker37) Picker
        MOVX    A,@DPTR
        MOV     R0,A
        INC     DPTR
        MOVX    A,@DPTR
        MOV     R1,A
        MOV     A,R0
        ORL     A,R1
        RET
          CFI EndBlock cfiCond32
          CFI EndBlock cfiCond33
          CFI EndBlock cfiCond34
          CFI EndBlock cfiCond35
          CFI EndBlock cfiCond36
          CFI EndBlock cfiPicker37

        RSEG XDATA_Z:XDATA:NOROOT(0)
        DATA8
cnt:
        DS 1
        REQUIRE __INIT_XDATA_Z

        RSEG BANKED_CODE:CODE:NOROOT(0)
?Subroutine16:
          CFI Block cfiCond38 Using cfiCommon0
          CFI Function CustomApp_linkstatus_updated
          CFI Conditional ??CrossCallReturnLabel_95
          CFI R6 load(1, XDATA, add(CFA_XSP16, literal(-12)))
          CFI VB load(1, XDATA, add(CFA_XSP16, literal(-11)))
          CFI V0 load(1, XDATA, add(CFA_XSP16, literal(-10)))
          CFI V1 load(1, XDATA, add(CFA_XSP16, literal(-9)))
          CFI V2 load(1, XDATA, add(CFA_XSP16, literal(-8)))
          CFI V3 load(1, XDATA, add(CFA_XSP16, literal(-7)))
          CFI R7 load(1, XDATA, add(CFA_XSP16, literal(-6)))
          CFI ?RET_LOW load(1, XDATA, add(CFA_XSP16, literal(-5)))
          CFI ?RET_HIGH load(1, XDATA, add(CFA_XSP16, literal(-4)))
          CFI ?BRET_EXT load(1, XDATA, add(CFA_XSP16, literal(-3)))
          CFI DPL0 load(1, XDATA, add(CFA_XSP16, literal(-2)))
          CFI DPH0 load(1, XDATA, add(CFA_XSP16, literal(-1)))
          CFI CFA_SP SP+-2
          CFI CFA_XSP16 add(XSP16, 12)
          CFI Block cfiCond39 Using cfiCommon0
          CFI (cfiCond39) Function CustomApp_process_ping
          CFI (cfiCond39) Conditional ??CrossCallReturnLabel_96
          CFI (cfiCond39) R6 load(1, XDATA, add(CFA_XSP16, literal(-13)))
          CFI (cfiCond39) VB load(1, XDATA, add(CFA_XSP16, literal(-12)))
          CFI (cfiCond39) V0 load(1, XDATA, add(CFA_XSP16, literal(-11)))
          CFI (cfiCond39) V1 load(1, XDATA, add(CFA_XSP16, literal(-10)))
          CFI (cfiCond39) V2 load(1, XDATA, add(CFA_XSP16, literal(-9)))
          CFI (cfiCond39) V3 load(1, XDATA, add(CFA_XSP16, literal(-8)))
          CFI (cfiCond39) V4 load(1, XDATA, add(CFA_XSP16, literal(-7)))
          CFI (cfiCond39) R7 load(1, XDATA, add(CFA_XSP16, literal(-6)))
          CFI (cfiCond39) ?RET_LOW load(1, XDATA, add(CFA_XSP16, literal(-5)))
          CFI (cfiCond39) ?RET_HIGH load(1, XDATA, add(CFA_XSP16, literal(-4)))
          CFI (cfiCond39) ?BRET_EXT load(1, XDATA, add(CFA_XSP16, literal(-3)))
          CFI (cfiCond39) DPL0 load(1, XDATA, add(CFA_XSP16, literal(-2)))
          CFI (cfiCond39) DPH0 load(1, XDATA, add(CFA_XSP16, literal(-1)))
          CFI (cfiCond39) CFA_SP SP+-2
          CFI (cfiCond39) CFA_XSP16 add(XSP16, 13)
          CFI Block cfiCond40 Using cfiCommon0
          CFI (cfiCond40) Function CustomApp_process_ping
          CFI (cfiCond40) Conditional ??CrossCallReturnLabel_97
          CFI (cfiCond40) R6 load(1, XDATA, add(CFA_XSP16, literal(-13)))
          CFI (cfiCond40) VB load(1, XDATA, add(CFA_XSP16, literal(-12)))
          CFI (cfiCond40) V0 load(1, XDATA, add(CFA_XSP16, literal(-11)))
          CFI (cfiCond40) V1 load(1, XDATA, add(CFA_XSP16, literal(-10)))
          CFI (cfiCond40) V2 load(1, XDATA, add(CFA_XSP16, literal(-9)))
          CFI (cfiCond40) V3 load(1, XDATA, add(CFA_XSP16, literal(-8)))
          CFI (cfiCond40) V4 load(1, XDATA, add(CFA_XSP16, literal(-7)))
          CFI (cfiCond40) R7 load(1, XDATA, add(CFA_XSP16, literal(-6)))
          CFI (cfiCond40) ?RET_LOW load(1, XDATA, add(CFA_XSP16, literal(-5)))
          CFI (cfiCond40) ?RET_HIGH load(1, XDATA, add(CFA_XSP16, literal(-4)))
          CFI (cfiCond40) ?BRET_EXT load(1, XDATA, add(CFA_XSP16, literal(-3)))
          CFI (cfiCond40) DPL0 load(1, XDATA, add(CFA_XSP16, literal(-2)))
          CFI (cfiCond40) DPH0 load(1, XDATA, add(CFA_XSP16, literal(-1)))
          CFI (cfiCond40) CFA_SP SP+-2
          CFI (cfiCond40) CFA_XSP16 add(XSP16, 13)
          CFI Block cfiPicker41 Using cfiCommon1
          CFI (cfiPicker41) NoFunction
          CFI (cfiPicker41) Picker
        MOV     A,R6
        ADD     A,#0xe
          CFI EndBlock cfiCond38
          CFI EndBlock cfiCond39
          CFI EndBlock cfiCond40
          CFI EndBlock cfiPicker41
        REQUIRE ??Subroutine48_0
        ; // Fall through to label ??Subroutine48_0

        RSEG BANKED_CODE:CODE:NOROOT(0)
??Subroutine48_0:
          CFI Block cfiCond42 Using cfiCommon0
          CFI Function GenericApp_MessageMSGCB
          CFI Conditional ??CrossCallReturnLabel_93
          CFI R6 load(1, XDATA, add(CFA_XSP16, literal(-12)))
          CFI VB load(1, XDATA, add(CFA_XSP16, literal(-11)))
          CFI V0 load(1, XDATA, add(CFA_XSP16, literal(-10)))
          CFI V1 load(1, XDATA, add(CFA_XSP16, literal(-9)))
          CFI V2 load(1, XDATA, add(CFA_XSP16, literal(-8)))
          CFI V3 load(1, XDATA, add(CFA_XSP16, literal(-7)))
          CFI R7 load(1, XDATA, add(CFA_XSP16, literal(-6)))
          CFI ?RET_LOW load(1, XDATA, add(CFA_XSP16, literal(-5)))
          CFI ?RET_HIGH load(1, XDATA, add(CFA_XSP16, literal(-4)))
          CFI ?BRET_EXT load(1, XDATA, add(CFA_XSP16, literal(-3)))
          CFI DPL0 load(1, XDATA, add(CFA_XSP16, literal(-2)))
          CFI DPH0 load(1, XDATA, add(CFA_XSP16, literal(-1)))
          CFI CFA_SP SP+-2
          CFI CFA_XSP16 add(XSP16, 12)
          CFI Block cfiCond43 Using cfiCommon0
          CFI (cfiCond43) Function GenericApp_MessageMSGCB
          CFI (cfiCond43) Conditional ??CrossCallReturnLabel_94
          CFI (cfiCond43) R6 load(1, XDATA, add(CFA_XSP16, literal(-12)))
          CFI (cfiCond43) VB load(1, XDATA, add(CFA_XSP16, literal(-11)))
          CFI (cfiCond43) V0 load(1, XDATA, add(CFA_XSP16, literal(-10)))
          CFI (cfiCond43) V1 load(1, XDATA, add(CFA_XSP16, literal(-9)))
          CFI (cfiCond43) V2 load(1, XDATA, add(CFA_XSP16, literal(-8)))
          CFI (cfiCond43) V3 load(1, XDATA, add(CFA_XSP16, literal(-7)))
          CFI (cfiCond43) R7 load(1, XDATA, add(CFA_XSP16, literal(-6)))
          CFI (cfiCond43) ?RET_LOW load(1, XDATA, add(CFA_XSP16, literal(-5)))
          CFI (cfiCond43) ?RET_HIGH load(1, XDATA, add(CFA_XSP16, literal(-4)))
          CFI (cfiCond43) ?BRET_EXT load(1, XDATA, add(CFA_XSP16, literal(-3)))
          CFI (cfiCond43) DPL0 load(1, XDATA, add(CFA_XSP16, literal(-2)))
          CFI (cfiCond43) DPH0 load(1, XDATA, add(CFA_XSP16, literal(-1)))
          CFI (cfiCond43) CFA_SP SP+-2
          CFI (cfiCond43) CFA_XSP16 add(XSP16, 12)
          CFI Block cfiCond44 Using cfiCommon0
          CFI (cfiCond44) Function CustomApp_linkstatus_updated
          CFI (cfiCond44) Conditional ??CrossCallReturnLabel_95
          CFI (cfiCond44) R6 load(1, XDATA, add(CFA_XSP16, literal(-12)))
          CFI (cfiCond44) VB load(1, XDATA, add(CFA_XSP16, literal(-11)))
          CFI (cfiCond44) V0 load(1, XDATA, add(CFA_XSP16, literal(-10)))
          CFI (cfiCond44) V1 load(1, XDATA, add(CFA_XSP16, literal(-9)))
          CFI (cfiCond44) V2 load(1, XDATA, add(CFA_XSP16, literal(-8)))
          CFI (cfiCond44) V3 load(1, XDATA, add(CFA_XSP16, literal(-7)))
          CFI (cfiCond44) R7 load(1, XDATA, add(CFA_XSP16, literal(-6)))
          CFI (cfiCond44) ?RET_LOW load(1, XDATA, add(CFA_XSP16, literal(-5)))
          CFI (cfiCond44) ?RET_HIGH load(1, XDATA, add(CFA_XSP16, literal(-4)))
          CFI (cfiCond44) ?BRET_EXT load(1, XDATA, add(CFA_XSP16, literal(-3)))
          CFI (cfiCond44) DPL0 load(1, XDATA, add(CFA_XSP16, literal(-2)))
          CFI (cfiCond44) DPH0 load(1, XDATA, add(CFA_XSP16, literal(-1)))
          CFI (cfiCond44) CFA_SP SP+-2
          CFI (cfiCond44) CFA_XSP16 add(XSP16, 12)
          CFI Block cfiCond45 Using cfiCommon0
          CFI (cfiCond45) Function CustomApp_process_ping
          CFI (cfiCond45) Conditional ??CrossCallReturnLabel_96
          CFI (cfiCond45) R6 load(1, XDATA, add(CFA_XSP16, literal(-13)))
          CFI (cfiCond45) VB load(1, XDATA, add(CFA_XSP16, literal(-12)))
          CFI (cfiCond45) V0 load(1, XDATA, add(CFA_XSP16, literal(-11)))
          CFI (cfiCond45) V1 load(1, XDATA, add(CFA_XSP16, literal(-10)))
          CFI (cfiCond45) V2 load(1, XDATA, add(CFA_XSP16, literal(-9)))
          CFI (cfiCond45) V3 load(1, XDATA, add(CFA_XSP16, literal(-8)))
          CFI (cfiCond45) V4 load(1, XDATA, add(CFA_XSP16, literal(-7)))
          CFI (cfiCond45) R7 load(1, XDATA, add(CFA_XSP16, literal(-6)))
          CFI (cfiCond45) ?RET_LOW load(1, XDATA, add(CFA_XSP16, literal(-5)))
          CFI (cfiCond45) ?RET_HIGH load(1, XDATA, add(CFA_XSP16, literal(-4)))
          CFI (cfiCond45) ?BRET_EXT load(1, XDATA, add(CFA_XSP16, literal(-3)))
          CFI (cfiCond45) DPL0 load(1, XDATA, add(CFA_XSP16, literal(-2)))
          CFI (cfiCond45) DPH0 load(1, XDATA, add(CFA_XSP16, literal(-1)))
          CFI (cfiCond45) CFA_SP SP+-2
          CFI (cfiCond45) CFA_XSP16 add(XSP16, 13)
          CFI Block cfiCond46 Using cfiCommon0
          CFI (cfiCond46) Function CustomApp_process_ping
          CFI (cfiCond46) Conditional ??CrossCallReturnLabel_97
          CFI (cfiCond46) R6 load(1, XDATA, add(CFA_XSP16, literal(-13)))
          CFI (cfiCond46) VB load(1, XDATA, add(CFA_XSP16, literal(-12)))
          CFI (cfiCond46) V0 load(1, XDATA, add(CFA_XSP16, literal(-11)))
          CFI (cfiCond46) V1 load(1, XDATA, add(CFA_XSP16, literal(-10)))
          CFI (cfiCond46) V2 load(1, XDATA, add(CFA_XSP16, literal(-9)))
          CFI (cfiCond46) V3 load(1, XDATA, add(CFA_XSP16, literal(-8)))
          CFI (cfiCond46) V4 load(1, XDATA, add(CFA_XSP16, literal(-7)))
          CFI (cfiCond46) R7 load(1, XDATA, add(CFA_XSP16, literal(-6)))
          CFI (cfiCond46) ?RET_LOW load(1, XDATA, add(CFA_XSP16, literal(-5)))
          CFI (cfiCond46) ?RET_HIGH load(1, XDATA, add(CFA_XSP16, literal(-4)))
          CFI (cfiCond46) ?BRET_EXT load(1, XDATA, add(CFA_XSP16, literal(-3)))
          CFI (cfiCond46) DPL0 load(1, XDATA, add(CFA_XSP16, literal(-2)))
          CFI (cfiCond46) DPH0 load(1, XDATA, add(CFA_XSP16, literal(-1)))
          CFI (cfiCond46) CFA_SP SP+-2
          CFI (cfiCond46) CFA_XSP16 add(XSP16, 13)
          CFI Block cfiPicker47 Using cfiCommon1
          CFI (cfiPicker47) NoFunction
          CFI (cfiPicker47) Picker
        MOV     DPL,A
        CLR     A
        ADDC    A,R7
        MOV     DPH,A
          CFI EndBlock cfiCond42
          CFI EndBlock cfiCond43
          CFI EndBlock cfiCond44
          CFI EndBlock cfiCond45
          CFI EndBlock cfiCond46
          CFI EndBlock cfiPicker47
        REQUIRE ??Subroutine49_0
        ; // Fall through to label ??Subroutine49_0

        RSEG BANKED_CODE:CODE:NOROOT(0)
??Subroutine49_0:
          CFI Block cfiCond48 Using cfiCommon0
          CFI Function GenericApp_ProcessEvent
          CFI Conditional ??CrossCallReturnLabel_89
          CFI R6 load(1, XDATA, add(CFA_XSP16, literal(-12)))
          CFI VB load(1, XDATA, add(CFA_XSP16, literal(-11)))
          CFI V0 load(1, XDATA, add(CFA_XSP16, literal(-10)))
          CFI V1 load(1, XDATA, add(CFA_XSP16, literal(-9)))
          CFI V2 load(1, XDATA, add(CFA_XSP16, literal(-8)))
          CFI V3 load(1, XDATA, add(CFA_XSP16, literal(-7)))
          CFI R7 load(1, XDATA, add(CFA_XSP16, literal(-6)))
          CFI ?RET_LOW load(1, XDATA, add(CFA_XSP16, literal(-5)))
          CFI ?RET_HIGH load(1, XDATA, add(CFA_XSP16, literal(-4)))
          CFI ?BRET_EXT load(1, XDATA, add(CFA_XSP16, literal(-3)))
          CFI DPL0 load(1, XDATA, add(CFA_XSP16, literal(-2)))
          CFI DPH0 load(1, XDATA, add(CFA_XSP16, literal(-1)))
          CFI CFA_SP SP+-2
          CFI CFA_XSP16 add(XSP16, 24)
          CFI Block cfiCond49 Using cfiCommon0
          CFI (cfiCond49) Function CustomApp_NodeDelete
          CFI (cfiCond49) Conditional ??CrossCallReturnLabel_90
          CFI (cfiCond49) R6 load(1, XDATA, add(CFA_XSP16, literal(-9)))
          CFI (cfiCond49) VB load(1, XDATA, add(CFA_XSP16, literal(-8)))
          CFI (cfiCond49) V0 load(1, XDATA, add(CFA_XSP16, literal(-7)))
          CFI (cfiCond49) R7 load(1, XDATA, add(CFA_XSP16, literal(-6)))
          CFI (cfiCond49) ?RET_LOW load(1, XDATA, add(CFA_XSP16, literal(-5)))
          CFI (cfiCond49) ?RET_HIGH load(1, XDATA, add(CFA_XSP16, literal(-4)))
          CFI (cfiCond49) ?BRET_EXT load(1, XDATA, add(CFA_XSP16, literal(-3)))
          CFI (cfiCond49) DPL0 load(1, XDATA, add(CFA_XSP16, literal(-2)))
          CFI (cfiCond49) DPH0 load(1, XDATA, add(CFA_XSP16, literal(-1)))
          CFI (cfiCond49) CFA_SP SP+-2
          CFI (cfiCond49) CFA_XSP16 add(XSP16, 9)
          CFI Block cfiCond50 Using cfiCommon0
          CFI (cfiCond50) Function CustomApp_NodeDelete
          CFI (cfiCond50) Conditional ??CrossCallReturnLabel_91
          CFI (cfiCond50) R6 load(1, XDATA, add(CFA_XSP16, literal(-9)))
          CFI (cfiCond50) VB load(1, XDATA, add(CFA_XSP16, literal(-8)))
          CFI (cfiCond50) V0 load(1, XDATA, add(CFA_XSP16, literal(-7)))
          CFI (cfiCond50) R7 load(1, XDATA, add(CFA_XSP16, literal(-6)))
          CFI (cfiCond50) ?RET_LOW load(1, XDATA, add(CFA_XSP16, literal(-5)))
          CFI (cfiCond50) ?RET_HIGH load(1, XDATA, add(CFA_XSP16, literal(-4)))
          CFI (cfiCond50) ?BRET_EXT load(1, XDATA, add(CFA_XSP16, literal(-3)))
          CFI (cfiCond50) DPL0 load(1, XDATA, add(CFA_XSP16, literal(-2)))
          CFI (cfiCond50) DPH0 load(1, XDATA, add(CFA_XSP16, literal(-1)))
          CFI (cfiCond50) CFA_SP SP+-2
          CFI (cfiCond50) CFA_XSP16 add(XSP16, 9)
          CFI Block cfiCond51 Using cfiCommon0
          CFI (cfiCond51) Function CustomApp_get_connected_node_count
          CFI (cfiCond51) Conditional ??CrossCallReturnLabel_92
          CFI (cfiCond51) DPL0 Frame(CFA_SP, 4)
          CFI (cfiCond51) DPH0 Frame(CFA_SP, 5)
          CFI (cfiCond51) CFA_SP SP+-7
          CFI Block cfiCond52 Using cfiCommon0
          CFI (cfiCond52) Function GenericApp_MessageMSGCB
          CFI (cfiCond52) Conditional ??CrossCallReturnLabel_93
          CFI (cfiCond52) R6 load(1, XDATA, add(CFA_XSP16, literal(-12)))
          CFI (cfiCond52) VB load(1, XDATA, add(CFA_XSP16, literal(-11)))
          CFI (cfiCond52) V0 load(1, XDATA, add(CFA_XSP16, literal(-10)))
          CFI (cfiCond52) V1 load(1, XDATA, add(CFA_XSP16, literal(-9)))
          CFI (cfiCond52) V2 load(1, XDATA, add(CFA_XSP16, literal(-8)))
          CFI (cfiCond52) V3 load(1, XDATA, add(CFA_XSP16, literal(-7)))
          CFI (cfiCond52) R7 load(1, XDATA, add(CFA_XSP16, literal(-6)))
          CFI (cfiCond52) ?RET_LOW load(1, XDATA, add(CFA_XSP16, literal(-5)))
          CFI (cfiCond52) ?RET_HIGH load(1, XDATA, add(CFA_XSP16, literal(-4)))
          CFI (cfiCond52) ?BRET_EXT load(1, XDATA, add(CFA_XSP16, literal(-3)))
          CFI (cfiCond52) DPL0 load(1, XDATA, add(CFA_XSP16, literal(-2)))
          CFI (cfiCond52) DPH0 load(1, XDATA, add(CFA_XSP16, literal(-1)))
          CFI (cfiCond52) CFA_SP SP+-2
          CFI (cfiCond52) CFA_XSP16 add(XSP16, 12)
          CFI Block cfiCond53 Using cfiCommon0
          CFI (cfiCond53) Function GenericApp_MessageMSGCB
          CFI (cfiCond53) Conditional ??CrossCallReturnLabel_94
          CFI (cfiCond53) R6 load(1, XDATA, add(CFA_XSP16, literal(-12)))
          CFI (cfiCond53) VB load(1, XDATA, add(CFA_XSP16, literal(-11)))
          CFI (cfiCond53) V0 load(1, XDATA, add(CFA_XSP16, literal(-10)))
          CFI (cfiCond53) V1 load(1, XDATA, add(CFA_XSP16, literal(-9)))
          CFI (cfiCond53) V2 load(1, XDATA, add(CFA_XSP16, literal(-8)))
          CFI (cfiCond53) V3 load(1, XDATA, add(CFA_XSP16, literal(-7)))
          CFI (cfiCond53) R7 load(1, XDATA, add(CFA_XSP16, literal(-6)))
          CFI (cfiCond53) ?RET_LOW load(1, XDATA, add(CFA_XSP16, literal(-5)))
          CFI (cfiCond53) ?RET_HIGH load(1, XDATA, add(CFA_XSP16, literal(-4)))
          CFI (cfiCond53) ?BRET_EXT load(1, XDATA, add(CFA_XSP16, literal(-3)))
          CFI (cfiCond53) DPL0 load(1, XDATA, add(CFA_XSP16, literal(-2)))
          CFI (cfiCond53) DPH0 load(1, XDATA, add(CFA_XSP16, literal(-1)))
          CFI (cfiCond53) CFA_SP SP+-2
          CFI (cfiCond53) CFA_XSP16 add(XSP16, 12)
          CFI Block cfiCond54 Using cfiCommon0
          CFI (cfiCond54) Function CustomApp_linkstatus_updated
          CFI (cfiCond54) Conditional ??CrossCallReturnLabel_95
          CFI (cfiCond54) R6 load(1, XDATA, add(CFA_XSP16, literal(-12)))
          CFI (cfiCond54) VB load(1, XDATA, add(CFA_XSP16, literal(-11)))
          CFI (cfiCond54) V0 load(1, XDATA, add(CFA_XSP16, literal(-10)))
          CFI (cfiCond54) V1 load(1, XDATA, add(CFA_XSP16, literal(-9)))
          CFI (cfiCond54) V2 load(1, XDATA, add(CFA_XSP16, literal(-8)))
          CFI (cfiCond54) V3 load(1, XDATA, add(CFA_XSP16, literal(-7)))
          CFI (cfiCond54) R7 load(1, XDATA, add(CFA_XSP16, literal(-6)))
          CFI (cfiCond54) ?RET_LOW load(1, XDATA, add(CFA_XSP16, literal(-5)))
          CFI (cfiCond54) ?RET_HIGH load(1, XDATA, add(CFA_XSP16, literal(-4)))
          CFI (cfiCond54) ?BRET_EXT load(1, XDATA, add(CFA_XSP16, literal(-3)))
          CFI (cfiCond54) DPL0 load(1, XDATA, add(CFA_XSP16, literal(-2)))
          CFI (cfiCond54) DPH0 load(1, XDATA, add(CFA_XSP16, literal(-1)))
          CFI (cfiCond54) CFA_SP SP+-2
          CFI (cfiCond54) CFA_XSP16 add(XSP16, 12)
          CFI Block cfiCond55 Using cfiCommon0
          CFI (cfiCond55) Function CustomApp_process_ping
          CFI (cfiCond55) Conditional ??CrossCallReturnLabel_96
          CFI (cfiCond55) R6 load(1, XDATA, add(CFA_XSP16, literal(-13)))
          CFI (cfiCond55) VB load(1, XDATA, add(CFA_XSP16, literal(-12)))
          CFI (cfiCond55) V0 load(1, XDATA, add(CFA_XSP16, literal(-11)))
          CFI (cfiCond55) V1 load(1, XDATA, add(CFA_XSP16, literal(-10)))
          CFI (cfiCond55) V2 load(1, XDATA, add(CFA_XSP16, literal(-9)))
          CFI (cfiCond55) V3 load(1, XDATA, add(CFA_XSP16, literal(-8)))
          CFI (cfiCond55) V4 load(1, XDATA, add(CFA_XSP16, literal(-7)))
          CFI (cfiCond55) R7 load(1, XDATA, add(CFA_XSP16, literal(-6)))
          CFI (cfiCond55) ?RET_LOW load(1, XDATA, add(CFA_XSP16, literal(-5)))
          CFI (cfiCond55) ?RET_HIGH load(1, XDATA, add(CFA_XSP16, literal(-4)))
          CFI (cfiCond55) ?BRET_EXT load(1, XDATA, add(CFA_XSP16, literal(-3)))
          CFI (cfiCond55) DPL0 load(1, XDATA, add(CFA_XSP16, literal(-2)))
          CFI (cfiCond55) DPH0 load(1, XDATA, add(CFA_XSP16, literal(-1)))
          CFI (cfiCond55) CFA_SP SP+-2
          CFI (cfiCond55) CFA_XSP16 add(XSP16, 13)
          CFI Block cfiCond56 Using cfiCommon0
          CFI (cfiCond56) Function CustomApp_process_ping
          CFI (cfiCond56) Conditional ??CrossCallReturnLabel_97
          CFI (cfiCond56) R6 load(1, XDATA, add(CFA_XSP16, literal(-13)))
          CFI (cfiCond56) VB load(1, XDATA, add(CFA_XSP16, literal(-12)))
          CFI (cfiCond56) V0 load(1, XDATA, add(CFA_XSP16, literal(-11)))
          CFI (cfiCond56) V1 load(1, XDATA, add(CFA_XSP16, literal(-10)))
          CFI (cfiCond56) V2 load(1, XDATA, add(CFA_XSP16, literal(-9)))
          CFI (cfiCond56) V3 load(1, XDATA, add(CFA_XSP16, literal(-8)))
          CFI (cfiCond56) V4 load(1, XDATA, add(CFA_XSP16, literal(-7)))
          CFI (cfiCond56) R7 load(1, XDATA, add(CFA_XSP16, literal(-6)))
          CFI (cfiCond56) ?RET_LOW load(1, XDATA, add(CFA_XSP16, literal(-5)))
          CFI (cfiCond56) ?RET_HIGH load(1, XDATA, add(CFA_XSP16, literal(-4)))
          CFI (cfiCond56) ?BRET_EXT load(1, XDATA, add(CFA_XSP16, literal(-3)))
          CFI (cfiCond56) DPL0 load(1, XDATA, add(CFA_XSP16, literal(-2)))
          CFI (cfiCond56) DPH0 load(1, XDATA, add(CFA_XSP16, literal(-1)))
          CFI (cfiCond56) CFA_SP SP+-2
          CFI (cfiCond56) CFA_XSP16 add(XSP16, 13)
          CFI Block cfiPicker57 Using cfiCommon1
          CFI (cfiPicker57) NoFunction
          CFI (cfiPicker57) Picker
        MOVX    A,@DPTR
        MOV     R2,A
        INC     DPTR
        MOVX    A,@DPTR
        MOV     R3,A
        RET
          CFI EndBlock cfiCond48
          CFI EndBlock cfiCond49
          CFI EndBlock cfiCond50
          CFI EndBlock cfiCond51
          CFI EndBlock cfiCond52
          CFI EndBlock cfiCond53
          CFI EndBlock cfiCond54
          CFI EndBlock cfiCond55
          CFI EndBlock cfiCond56
          CFI EndBlock cfiPicker57

        RSEG BANKED_CODE:CODE:NOROOT(0)
?Subroutine9:
          CFI Block cfiCond58 Using cfiCommon0
          CFI Function GenericApp_MessageMSGCB
          CFI Conditional ??CrossCallReturnLabel_5
          CFI R6 load(1, XDATA, add(CFA_XSP16, literal(-12)))
          CFI VB load(1, XDATA, add(CFA_XSP16, literal(-11)))
          CFI V0 load(1, XDATA, add(CFA_XSP16, literal(-10)))
          CFI V1 load(1, XDATA, add(CFA_XSP16, literal(-9)))
          CFI V2 load(1, XDATA, add(CFA_XSP16, literal(-8)))
          CFI V3 load(1, XDATA, add(CFA_XSP16, literal(-7)))
          CFI R7 load(1, XDATA, add(CFA_XSP16, literal(-6)))
          CFI ?RET_LOW load(1, XDATA, add(CFA_XSP16, literal(-5)))
          CFI ?RET_HIGH load(1, XDATA, add(CFA_XSP16, literal(-4)))
          CFI ?BRET_EXT load(1, XDATA, add(CFA_XSP16, literal(-3)))
          CFI DPL0 load(1, XDATA, add(CFA_XSP16, literal(-2)))
          CFI DPH0 load(1, XDATA, add(CFA_XSP16, literal(-1)))
          CFI CFA_SP SP+-2
          CFI CFA_XSP16 add(XSP16, 12)
          CFI Block cfiCond59 Using cfiCommon0
          CFI (cfiCond59) Function GenericApp_MessageMSGCB
          CFI (cfiCond59) Conditional ??CrossCallReturnLabel_6
          CFI (cfiCond59) R6 load(1, XDATA, add(CFA_XSP16, literal(-12)))
          CFI (cfiCond59) VB load(1, XDATA, add(CFA_XSP16, literal(-11)))
          CFI (cfiCond59) V0 load(1, XDATA, add(CFA_XSP16, literal(-10)))
          CFI (cfiCond59) V1 load(1, XDATA, add(CFA_XSP16, literal(-9)))
          CFI (cfiCond59) V2 load(1, XDATA, add(CFA_XSP16, literal(-8)))
          CFI (cfiCond59) V3 load(1, XDATA, add(CFA_XSP16, literal(-7)))
          CFI (cfiCond59) R7 load(1, XDATA, add(CFA_XSP16, literal(-6)))
          CFI (cfiCond59) ?RET_LOW load(1, XDATA, add(CFA_XSP16, literal(-5)))
          CFI (cfiCond59) ?RET_HIGH load(1, XDATA, add(CFA_XSP16, literal(-4)))
          CFI (cfiCond59) ?BRET_EXT load(1, XDATA, add(CFA_XSP16, literal(-3)))
          CFI (cfiCond59) DPL0 load(1, XDATA, add(CFA_XSP16, literal(-2)))
          CFI (cfiCond59) DPH0 load(1, XDATA, add(CFA_XSP16, literal(-1)))
          CFI (cfiCond59) CFA_SP SP+-2
          CFI (cfiCond59) CFA_XSP16 add(XSP16, 12)
          CFI Block cfiPicker60 Using cfiCommon1
          CFI (cfiPicker60) NoFunction
          CFI (cfiPicker60) Picker
        LCALL   ?Subroutine41 & 0xFFFF
??CrossCallReturnLabel_70:
        ; Setup parameters for call to function HalLcdWriteStringValue
        ; Setup parameters for call to function HalLcdWriteStringValue
        MOV     ?V0,#0x3
        MOV     R0,#?V0
        RET
          CFI EndBlock cfiCond58
          CFI EndBlock cfiCond59
          CFI EndBlock cfiPicker60

        RSEG BANKED_CODE:CODE:NOROOT(0)
?Subroutine41:
          CFI Block cfiCond61 Using cfiCommon0
          CFI Function GenericApp_MessageMSGCB
          CFI Conditional ??CrossCallReturnLabel_69
          CFI R6 load(1, XDATA, add(CFA_XSP16, literal(-12)))
          CFI VB load(1, XDATA, add(CFA_XSP16, literal(-11)))
          CFI V0 load(1, XDATA, add(CFA_XSP16, literal(-10)))
          CFI V1 load(1, XDATA, add(CFA_XSP16, literal(-9)))
          CFI V2 load(1, XDATA, add(CFA_XSP16, literal(-8)))
          CFI V3 load(1, XDATA, add(CFA_XSP16, literal(-7)))
          CFI R7 load(1, XDATA, add(CFA_XSP16, literal(-6)))
          CFI ?RET_LOW load(1, XDATA, add(CFA_XSP16, literal(-5)))
          CFI ?RET_HIGH load(1, XDATA, add(CFA_XSP16, literal(-4)))
          CFI ?BRET_EXT load(1, XDATA, add(CFA_XSP16, literal(-3)))
          CFI DPL0 load(1, XDATA, add(CFA_XSP16, literal(-2)))
          CFI DPH0 load(1, XDATA, add(CFA_XSP16, literal(-1)))
          CFI CFA_SP SP+-2
          CFI CFA_XSP16 add(XSP16, 12)
          CFI Block cfiCond62 Using cfiCommon0
          CFI (cfiCond62) Function GenericApp_MessageMSGCB
          CFI (cfiCond62) Conditional ??CrossCallReturnLabel_70, ??CrossCallReturnLabel_5
          CFI (cfiCond62) R6 load(1, XDATA, add(CFA_XSP16, literal(-12)))
          CFI (cfiCond62) VB load(1, XDATA, add(CFA_XSP16, literal(-11)))
          CFI (cfiCond62) V0 load(1, XDATA, add(CFA_XSP16, literal(-10)))
          CFI (cfiCond62) V1 load(1, XDATA, add(CFA_XSP16, literal(-9)))
          CFI (cfiCond62) V2 load(1, XDATA, add(CFA_XSP16, literal(-8)))
          CFI (cfiCond62) V3 load(1, XDATA, add(CFA_XSP16, literal(-7)))
          CFI (cfiCond62) R7 load(1, XDATA, add(CFA_XSP16, literal(-6)))
          CFI (cfiCond62) ?RET_LOW load(1, XDATA, add(CFA_XSP16, literal(-5)))
          CFI (cfiCond62) ?RET_HIGH load(1, XDATA, add(CFA_XSP16, literal(-4)))
          CFI (cfiCond62) ?BRET_EXT load(1, XDATA, add(CFA_XSP16, literal(-3)))
          CFI (cfiCond62) DPL0 load(1, XDATA, add(CFA_XSP16, literal(-2)))
          CFI (cfiCond62) DPH0 load(1, XDATA, add(CFA_XSP16, literal(-1)))
          CFI (cfiCond62) CFA_SP SP+-4
          CFI (cfiCond62) CFA_XSP16 add(XSP16, 12)
          CFI Block cfiCond63 Using cfiCommon0
          CFI (cfiCond63) Function GenericApp_MessageMSGCB
          CFI (cfiCond63) Conditional ??CrossCallReturnLabel_70, ??CrossCallReturnLabel_6
          CFI (cfiCond63) R6 load(1, XDATA, add(CFA_XSP16, literal(-12)))
          CFI (cfiCond63) VB load(1, XDATA, add(CFA_XSP16, literal(-11)))
          CFI (cfiCond63) V0 load(1, XDATA, add(CFA_XSP16, literal(-10)))
          CFI (cfiCond63) V1 load(1, XDATA, add(CFA_XSP16, literal(-9)))
          CFI (cfiCond63) V2 load(1, XDATA, add(CFA_XSP16, literal(-8)))
          CFI (cfiCond63) V3 load(1, XDATA, add(CFA_XSP16, literal(-7)))
          CFI (cfiCond63) R7 load(1, XDATA, add(CFA_XSP16, literal(-6)))
          CFI (cfiCond63) ?RET_LOW load(1, XDATA, add(CFA_XSP16, literal(-5)))
          CFI (cfiCond63) ?RET_HIGH load(1, XDATA, add(CFA_XSP16, literal(-4)))
          CFI (cfiCond63) ?BRET_EXT load(1, XDATA, add(CFA_XSP16, literal(-3)))
          CFI (cfiCond63) DPL0 load(1, XDATA, add(CFA_XSP16, literal(-2)))
          CFI (cfiCond63) DPH0 load(1, XDATA, add(CFA_XSP16, literal(-1)))
          CFI (cfiCond63) CFA_SP SP+-4
          CFI (cfiCond63) CFA_XSP16 add(XSP16, 12)
          CFI Block cfiPicker64 Using cfiCommon1
          CFI (cfiPicker64) NoFunction
          CFI (cfiPicker64) Picker
        MOVX    A,@DPTR
        ADD     A,#0x1
        MOVX    @DPTR,A
        INC     DPTR
        MOVX    A,@DPTR
        ADDC    A,#0x0
        MOVX    @DPTR,A
        RET
          CFI EndBlock cfiCond61
          CFI EndBlock cfiCond62
          CFI EndBlock cfiCond63
          CFI EndBlock cfiPicker64
// 1004 
// 1005 /*********************************************************************
// 1006  * @fn      GenericApp_SendTheMessage
// 1007  *
// 1008  * @brief   Send "the" message.
// 1009  *
// 1010  * @param   none
// 1011  *
// 1012  * @return  none
// 1013  */
// 1014 static void GenericApp_SendTheMessage( void )
// 1015 {
// 1016   char theMessageData[] = "Hello World";
// 1017 
// 1018   if ( AF_DataRequest( &GenericApp_DstAddr, &GenericApp_epDesc,
// 1019                        GENERICAPP_CLUSTERID,
// 1020                        (byte)osal_strlen( theMessageData ) + 1,
// 1021                        (byte *)&theMessageData,
// 1022                        &GenericApp_TransID,
// 1023                        AF_DISCV_ROUTE, AF_DEFAULT_RADIUS ) == afStatus_SUCCESS )
// 1024   {
// 1025     // Successfully requested to be sent.
// 1026   }
// 1027   else
// 1028   {
// 1029     // Error occurred in request to send.
// 1030   }
// 1031 }
// 1032 
// 1033 #if defined( IAR_ARMCM3_LM )
// 1034 /*********************************************************************
// 1035  * @fn      GenericApp_ProcessRtosMessage
// 1036  *
// 1037  * @brief   Receive message from RTOS queue, send response back.
// 1038  *
// 1039  * @param   none
// 1040  *
// 1041  * @return  none
// 1042  */
// 1043 static void GenericApp_ProcessRtosMessage( void )
// 1044 {
// 1045   osalQueue_t inMsg;
// 1046 
// 1047   if ( osal_queue_receive( OsalQueue, &inMsg, 0 ) == pdPASS )
// 1048   {
// 1049     uint8 cmndId = inMsg.cmnd;
// 1050     uint32 counter = osal_build_uint32( inMsg.cbuf, 4 );
// 1051 
// 1052     switch ( cmndId )
// 1053     {
// 1054       case CMD_INCR:
// 1055         counter += 1;  /* Increment the incoming counter */
// 1056                        /* Intentionally fall through next case */
// 1057 
// 1058       case CMD_ECHO:
// 1059       {
// 1060         userQueue_t outMsg;
// 1061 
// 1062         outMsg.resp = RSP_CODE | cmndId;  /* Response ID */
// 1063         osal_buffer_uint32( outMsg.rbuf, counter );    /* Increment counter */
// 1064         osal_queue_send( UserQueue1, &outMsg, 0 );  /* Send back to UserTask */
// 1065         break;
// 1066       }
// 1067 
// 1068       default:
// 1069         break;  /* Ignore unknown command */
// 1070     }
// 1071   }
// 1072 }
// 1073 #endif
// 1074 
// 1075 
// 1076 
// 1077 /*********************************************************************
// 1078  */
// 1079 

        RSEG BANKED_CODE:CODE:NOROOT(0)
// 1080 nodeList_t *CustomApp_NodeRegister (afAddrType_t addr64, afAddrType_t addr16)
CustomApp_NodeRegister:
          CFI Block cfiBlock65 Using cfiCommon0
          CFI Function CustomApp_NodeRegister
        CODE
// 1081 {
        FUNCALL CustomApp_NodeRegister, CustomApp_NodeFindMacAddrList
        LOCFRAME ISTACK, 0, STACK
        LOCFRAME PSTACK, 0, STACK
        LOCFRAME XSTACK, 10, STACK
        LOCFRAME IOVERLAY, 0, STATIC
        LOCFRAME DOVERLAY, 0, STATIC
        ARGFRAME ISTACK, 0, STACK
        ARGFRAME PSTACK, 0, STACK
        ARGFRAME XSTACK, 10, STACK
        ARGFRAME IOVERLAY, 0, STATIC
        ARGFRAME DOVERLAY, 0, STATIC
        FUNCALL CustomApp_NodeRegister, osal_mem_alloc
        LOCFRAME ISTACK, 0, STACK
        LOCFRAME PSTACK, 0, STACK
        LOCFRAME XSTACK, 10, STACK
        LOCFRAME IOVERLAY, 0, STATIC
        LOCFRAME DOVERLAY, 0, STATIC
        ARGFRAME ISTACK, 0, STACK
        ARGFRAME PSTACK, 0, STACK
        ARGFRAME XSTACK, 10, STACK
        ARGFRAME IOVERLAY, 0, STATIC
        ARGFRAME DOVERLAY, 0, STATIC
        REQUIRE ?V0
        REQUIRE ?V1
        MOV     A,#-0xa
        LCALL   ?BANKED_ENTER_XDATA
          CFI DPH0 load(1, XDATA, add(CFA_XSP16, literal(-1)))
          CFI DPL0 load(1, XDATA, add(CFA_XSP16, literal(-2)))
          CFI ?BRET_EXT load(1, XDATA, add(CFA_XSP16, literal(-3)))
          CFI ?RET_HIGH load(1, XDATA, add(CFA_XSP16, literal(-4)))
          CFI ?RET_LOW load(1, XDATA, add(CFA_XSP16, literal(-5)))
          CFI R7 load(1, XDATA, add(CFA_XSP16, literal(-6)))
          CFI V1 load(1, XDATA, add(CFA_XSP16, literal(-7)))
          CFI V0 load(1, XDATA, add(CFA_XSP16, literal(-8)))
          CFI VB load(1, XDATA, add(CFA_XSP16, literal(-9)))
          CFI R6 load(1, XDATA, add(CFA_XSP16, literal(-10)))
          CFI CFA_SP SP+0
          CFI CFA_XSP16 add(XSP16, 10)
        ; Saved register size: 10
        ; Auto size: 0
// 1082     nodeList_t *nodeSearch;
// 1083 
// 1084     nodeSearch = CustomApp_NodeFindMacAddrList(addr64.addr.extAddr);  //chaokw issue
// 1085 
// 1086     if (nodeSearch == NULL)
        ; Setup parameters for call to function CustomApp_NodeFindMacAddrList
        MOV     A,#0xa
        LCALL   ?XSTACK_DISP101_8
        LCALL   `??CustomApp_NodeFindMacAddrList::?relay`; Banked call to: CustomApp_NodeFindMacAddrList
        MOV     ?V1,R3
        MOV     A,R2
        ORL     A,?V1
        JNZ     ??CustomApp_NodeRegister_0
// 1087     {
// 1088         nodeList_t *node = osal_mem_alloc(sizeof(nodeList_t));  
        ; Setup parameters for call to function osal_mem_alloc
        MOV     R2,#0x25
        MOV     R3,#0x0
        LCALL   `??osal_mem_alloc::?relay`; Banked call to: osal_mem_alloc
// 1089 
// 1090         if ( node == NULL )
        MOV     A,R2
        ORL     A,R3
        JZ      ??CustomApp_NodeRegister_0
// 1091         {
// 1092             return NULL;
// 1093         }
// 1094 
// 1095         node->nextDesc = nodeList;
        MOV     DPTR,#nodeList
        LCALL   ?Subroutine26 & 0xFFFF
??CrossCallReturnLabel_35:
        MOV     DPL,R2
        MOV     DPH,R3
        LCALL   ?Subroutine15 & 0xFFFF
// 1096         nodeList = node;
??CrossCallReturnLabel_14:
        MOV     DPTR,#nodeList
        LCALL   ??Subroutine54_0 & 0xFFFF
// 1097         node->devAddr64 = addr64;
??CrossCallReturnLabel_98:
        MOV     A,#0xa
        LCALL   ?XSTACK_DISP0_8
        MOV     A,R2
        ADD     A,#0x2
        MOV     R4,A
        CLR     A
        ADDC    A,R3
        MOV     R5,A
        MOV     A,#0xc
        LCALL   ?MOVE_LONG8_XDATA_XDATA
// 1098         node->devAddr16 = addr16;
        MOV     A,R2
        ADD     A,#0xe
        MOV     R4,A
        CLR     A
        ADDC    A,R3
        MOV     R5,A
        MOV     A,#0xc
        LCALL   ?MOVE_LONG8_XDATA_XDATA
// 1099         node->status= nodeconnected;
        LCALL   ?Subroutine36 & 0xFFFF
??CrossCallReturnLabel_59:
        MOV     A,#0x2
        MOVX    @DPTR,A
// 1100         node->sequence = 0;
        MOV     A,R2
        ADD     A,#0x1b
        MOV     DPL,A
        CLR     A
        ADDC    A,R3
        MOV     DPH,A
        CLR     A
        MOVX    @DPTR,A
// 1101         node->timestamp = 0;
        MOV     A,R2
        ADD     A,#0x1c
        LCALL   ?Subroutine14 & 0xFFFF
// 1102         node->oldtimestamp =0;
??CrossCallReturnLabel_11:
        ADD     A,#0x20
        LCALL   ?Subroutine14 & 0xFFFF
// 1103         node->timeoutcnt	=0;
??CrossCallReturnLabel_12:
        ADD     A,#0x24
        MOV     DPL,A
        CLR     A
        ADDC    A,R3
        MOV     DPH,A
        CLR     A
        MOVX    @DPTR,A
// 1104 
// 1105 	 return node;
        SJMP    ??CustomApp_NodeRegister_1
// 1106     }
// 1107 
// 1108     return NULL;
??CustomApp_NodeRegister_0:
        MOV     R2,#0x0
        MOV     R3,#0x0
??CustomApp_NodeRegister_1:
        SJMP    ??Subroutine50_0
// 1109 }
          CFI EndBlock cfiBlock65

        RSEG BANKED_CODE:CODE:NOROOT(0)
?Subroutine26:
          CFI Block cfiCond66 Using cfiCommon0
          CFI Function GenericApp_ProcessZDOMsgs
          CFI Conditional ??CrossCallReturnLabel_32
          CFI R6 load(1, XDATA, add(CFA_XSP16, literal(-15)))
          CFI VB load(1, XDATA, add(CFA_XSP16, literal(-14)))
          CFI V0 load(1, XDATA, add(CFA_XSP16, literal(-13)))
          CFI V1 load(1, XDATA, add(CFA_XSP16, literal(-12)))
          CFI V2 load(1, XDATA, add(CFA_XSP16, literal(-11)))
          CFI V3 load(1, XDATA, add(CFA_XSP16, literal(-10)))
          CFI V4 load(1, XDATA, add(CFA_XSP16, literal(-9)))
          CFI V5 load(1, XDATA, add(CFA_XSP16, literal(-8)))
          CFI V6 load(1, XDATA, add(CFA_XSP16, literal(-7)))
          CFI R7 load(1, XDATA, add(CFA_XSP16, literal(-6)))
          CFI ?RET_LOW load(1, XDATA, add(CFA_XSP16, literal(-5)))
          CFI ?RET_HIGH load(1, XDATA, add(CFA_XSP16, literal(-4)))
          CFI ?BRET_EXT load(1, XDATA, add(CFA_XSP16, literal(-3)))
          CFI DPL0 load(1, XDATA, add(CFA_XSP16, literal(-2)))
          CFI DPH0 load(1, XDATA, add(CFA_XSP16, literal(-1)))
          CFI CFA_SP SP+-2
          CFI CFA_XSP16 add(XSP16, 39)
          CFI Block cfiCond67 Using cfiCommon0
          CFI (cfiCond67) Function GenericApp_ProcessZDOMsgs
          CFI (cfiCond67) Conditional ??CrossCallReturnLabel_33
          CFI (cfiCond67) R6 load(1, XDATA, add(CFA_XSP16, literal(-15)))
          CFI (cfiCond67) VB load(1, XDATA, add(CFA_XSP16, literal(-14)))
          CFI (cfiCond67) V0 load(1, XDATA, add(CFA_XSP16, literal(-13)))
          CFI (cfiCond67) V1 load(1, XDATA, add(CFA_XSP16, literal(-12)))
          CFI (cfiCond67) V2 load(1, XDATA, add(CFA_XSP16, literal(-11)))
          CFI (cfiCond67) V3 load(1, XDATA, add(CFA_XSP16, literal(-10)))
          CFI (cfiCond67) V4 load(1, XDATA, add(CFA_XSP16, literal(-9)))
          CFI (cfiCond67) V5 load(1, XDATA, add(CFA_XSP16, literal(-8)))
          CFI (cfiCond67) V6 load(1, XDATA, add(CFA_XSP16, literal(-7)))
          CFI (cfiCond67) R7 load(1, XDATA, add(CFA_XSP16, literal(-6)))
          CFI (cfiCond67) ?RET_LOW load(1, XDATA, add(CFA_XSP16, literal(-5)))
          CFI (cfiCond67) ?RET_HIGH load(1, XDATA, add(CFA_XSP16, literal(-4)))
          CFI (cfiCond67) ?BRET_EXT load(1, XDATA, add(CFA_XSP16, literal(-3)))
          CFI (cfiCond67) DPL0 load(1, XDATA, add(CFA_XSP16, literal(-2)))
          CFI (cfiCond67) DPH0 load(1, XDATA, add(CFA_XSP16, literal(-1)))
          CFI (cfiCond67) CFA_SP SP+-2
          CFI (cfiCond67) CFA_XSP16 add(XSP16, 39)
          CFI Block cfiCond68 Using cfiCommon0
          CFI (cfiCond68) Function GenericApp_MessageMSGCB
          CFI (cfiCond68) Conditional ??CrossCallReturnLabel_34
          CFI (cfiCond68) R6 load(1, XDATA, add(CFA_XSP16, literal(-12)))
          CFI (cfiCond68) VB load(1, XDATA, add(CFA_XSP16, literal(-11)))
          CFI (cfiCond68) V0 load(1, XDATA, add(CFA_XSP16, literal(-10)))
          CFI (cfiCond68) V1 load(1, XDATA, add(CFA_XSP16, literal(-9)))
          CFI (cfiCond68) V2 load(1, XDATA, add(CFA_XSP16, literal(-8)))
          CFI (cfiCond68) V3 load(1, XDATA, add(CFA_XSP16, literal(-7)))
          CFI (cfiCond68) R7 load(1, XDATA, add(CFA_XSP16, literal(-6)))
          CFI (cfiCond68) ?RET_LOW load(1, XDATA, add(CFA_XSP16, literal(-5)))
          CFI (cfiCond68) ?RET_HIGH load(1, XDATA, add(CFA_XSP16, literal(-4)))
          CFI (cfiCond68) ?BRET_EXT load(1, XDATA, add(CFA_XSP16, literal(-3)))
          CFI (cfiCond68) DPL0 load(1, XDATA, add(CFA_XSP16, literal(-2)))
          CFI (cfiCond68) DPH0 load(1, XDATA, add(CFA_XSP16, literal(-1)))
          CFI (cfiCond68) CFA_SP SP+-2
          CFI (cfiCond68) CFA_XSP16 add(XSP16, 12)
          CFI Block cfiCond69 Using cfiCommon0
          CFI (cfiCond69) Function CustomApp_NodeRegister
          CFI (cfiCond69) Conditional ??CrossCallReturnLabel_35
          CFI (cfiCond69) R6 load(1, XDATA, add(CFA_XSP16, literal(-10)))
          CFI (cfiCond69) VB load(1, XDATA, add(CFA_XSP16, literal(-9)))
          CFI (cfiCond69) V0 load(1, XDATA, add(CFA_XSP16, literal(-8)))
          CFI (cfiCond69) V1 load(1, XDATA, add(CFA_XSP16, literal(-7)))
          CFI (cfiCond69) R7 load(1, XDATA, add(CFA_XSP16, literal(-6)))
          CFI (cfiCond69) ?RET_LOW load(1, XDATA, add(CFA_XSP16, literal(-5)))
          CFI (cfiCond69) ?RET_HIGH load(1, XDATA, add(CFA_XSP16, literal(-4)))
          CFI (cfiCond69) ?BRET_EXT load(1, XDATA, add(CFA_XSP16, literal(-3)))
          CFI (cfiCond69) DPL0 load(1, XDATA, add(CFA_XSP16, literal(-2)))
          CFI (cfiCond69) DPH0 load(1, XDATA, add(CFA_XSP16, literal(-1)))
          CFI (cfiCond69) CFA_SP SP+-2
          CFI (cfiCond69) CFA_XSP16 add(XSP16, 10)
          CFI Block cfiCond70 Using cfiCommon0
          CFI (cfiCond70) Function CustomApp_send_ping_req
          CFI (cfiCond70) Conditional ??CrossCallReturnLabel_36
          CFI (cfiCond70) R6 load(1, XDATA, add(CFA_XSP16, literal(-14)))
          CFI (cfiCond70) VB load(1, XDATA, add(CFA_XSP16, literal(-13)))
          CFI (cfiCond70) V0 load(1, XDATA, add(CFA_XSP16, literal(-12)))
          CFI (cfiCond70) V1 load(1, XDATA, add(CFA_XSP16, literal(-11)))
          CFI (cfiCond70) V2 load(1, XDATA, add(CFA_XSP16, literal(-10)))
          CFI (cfiCond70) V3 load(1, XDATA, add(CFA_XSP16, literal(-9)))
          CFI (cfiCond70) V4 load(1, XDATA, add(CFA_XSP16, literal(-8)))
          CFI (cfiCond70) V5 load(1, XDATA, add(CFA_XSP16, literal(-7)))
          CFI (cfiCond70) R7 load(1, XDATA, add(CFA_XSP16, literal(-6)))
          CFI (cfiCond70) ?RET_LOW load(1, XDATA, add(CFA_XSP16, literal(-5)))
          CFI (cfiCond70) ?RET_HIGH load(1, XDATA, add(CFA_XSP16, literal(-4)))
          CFI (cfiCond70) ?BRET_EXT load(1, XDATA, add(CFA_XSP16, literal(-3)))
          CFI (cfiCond70) DPL0 load(1, XDATA, add(CFA_XSP16, literal(-2)))
          CFI (cfiCond70) DPH0 load(1, XDATA, add(CFA_XSP16, literal(-1)))
          CFI (cfiCond70) CFA_SP SP+-2
          CFI (cfiCond70) CFA_XSP16 add(XSP16, 16)
          CFI Block cfiPicker71 Using cfiCommon1
          CFI (cfiPicker71) NoFunction
          CFI (cfiPicker71) Picker
        MOVX    A,@DPTR
        MOV     R0,A
        INC     DPTR
        MOVX    A,@DPTR
        MOV     R1,A
        RET
          CFI EndBlock cfiCond66
          CFI EndBlock cfiCond67
          CFI EndBlock cfiCond68
          CFI EndBlock cfiCond69
          CFI EndBlock cfiCond70
          CFI EndBlock cfiPicker71

        RSEG BANKED_CODE:CODE:NOROOT(0)
?Subroutine14:
          CFI Block cfiCond72 Using cfiCommon0
          CFI Function CustomApp_NodeRegister
          CFI Conditional ??CrossCallReturnLabel_11
          CFI R6 load(1, XDATA, add(CFA_XSP16, literal(-10)))
          CFI VB load(1, XDATA, add(CFA_XSP16, literal(-9)))
          CFI V0 load(1, XDATA, add(CFA_XSP16, literal(-8)))
          CFI V1 load(1, XDATA, add(CFA_XSP16, literal(-7)))
          CFI R7 load(1, XDATA, add(CFA_XSP16, literal(-6)))
          CFI ?RET_LOW load(1, XDATA, add(CFA_XSP16, literal(-5)))
          CFI ?RET_HIGH load(1, XDATA, add(CFA_XSP16, literal(-4)))
          CFI ?BRET_EXT load(1, XDATA, add(CFA_XSP16, literal(-3)))
          CFI DPL0 load(1, XDATA, add(CFA_XSP16, literal(-2)))
          CFI DPH0 load(1, XDATA, add(CFA_XSP16, literal(-1)))
          CFI CFA_SP SP+-2
          CFI CFA_XSP16 add(XSP16, 10)
          CFI Block cfiCond73 Using cfiCommon0
          CFI (cfiCond73) Function CustomApp_NodeRegister
          CFI (cfiCond73) Conditional ??CrossCallReturnLabel_12
          CFI (cfiCond73) R6 load(1, XDATA, add(CFA_XSP16, literal(-10)))
          CFI (cfiCond73) VB load(1, XDATA, add(CFA_XSP16, literal(-9)))
          CFI (cfiCond73) V0 load(1, XDATA, add(CFA_XSP16, literal(-8)))
          CFI (cfiCond73) V1 load(1, XDATA, add(CFA_XSP16, literal(-7)))
          CFI (cfiCond73) R7 load(1, XDATA, add(CFA_XSP16, literal(-6)))
          CFI (cfiCond73) ?RET_LOW load(1, XDATA, add(CFA_XSP16, literal(-5)))
          CFI (cfiCond73) ?RET_HIGH load(1, XDATA, add(CFA_XSP16, literal(-4)))
          CFI (cfiCond73) ?BRET_EXT load(1, XDATA, add(CFA_XSP16, literal(-3)))
          CFI (cfiCond73) DPL0 load(1, XDATA, add(CFA_XSP16, literal(-2)))
          CFI (cfiCond73) DPH0 load(1, XDATA, add(CFA_XSP16, literal(-1)))
          CFI (cfiCond73) CFA_SP SP+-2
          CFI (cfiCond73) CFA_XSP16 add(XSP16, 10)
          CFI Block cfiPicker74 Using cfiCommon1
          CFI (cfiPicker74) NoFunction
          CFI (cfiPicker74) Picker
        MOV     DPL,A
        CLR     A
        ADDC    A,R3
        MOV     DPH,A
        CLR     A
        MOVX    @DPTR,A
        INC     DPTR
        MOVX    @DPTR,A
        INC     DPTR
        MOVX    @DPTR,A
        INC     DPTR
        MOVX    @DPTR,A
        MOV     A,R2
        RET
          CFI EndBlock cfiCond72
          CFI EndBlock cfiCond73
          CFI EndBlock cfiPicker74

        RSEG BANKED_CODE:CODE:NOROOT(0)
?Subroutine3:
          CFI Block cfiBlock75 Using cfiCommon0
          CFI NoFunction
          CFI CFA_SP SP+0
          CFI CFA_XSP16 add(XSP16, 12)
          CFI VB load(1, XDATA, add(CFA_XSP16, literal(-9)))
          CFI DPL0 load(1, XDATA, add(CFA_XSP16, literal(-2)))
          CFI DPH0 load(1, XDATA, add(CFA_XSP16, literal(-1)))
          CFI R6 load(1, XDATA, add(CFA_XSP16, literal(-10)))
          CFI R7 load(1, XDATA, add(CFA_XSP16, literal(-6)))
          CFI V0 load(1, XDATA, add(CFA_XSP16, literal(-8)))
          CFI V1 load(1, XDATA, add(CFA_XSP16, literal(-7)))
          CFI ?BRET_EXT load(1, XDATA, add(CFA_XSP16, literal(-3)))
          CFI ?RET_HIGH load(1, XDATA, add(CFA_XSP16, literal(-4)))
          CFI ?RET_LOW load(1, XDATA, add(CFA_XSP16, literal(-5)))
        MOV     A,#0x2
        LCALL   ?DEALLOC_XSTACK8
          CFI EndBlock cfiBlock75
        REQUIRE ??Subroutine50_0
        ; // Fall through to label ??Subroutine50_0

        RSEG BANKED_CODE:CODE:NOROOT(0)
??Subroutine50_0:
          CFI Block cfiBlock76 Using cfiCommon0
          CFI NoFunction
          CFI CFA_SP SP+0
          CFI CFA_XSP16 add(XSP16, 10)
          CFI VB load(1, XDATA, add(CFA_XSP16, literal(-9)))
          CFI DPL0 load(1, XDATA, add(CFA_XSP16, literal(-2)))
          CFI DPH0 load(1, XDATA, add(CFA_XSP16, literal(-1)))
          CFI R6 load(1, XDATA, add(CFA_XSP16, literal(-10)))
          CFI R7 load(1, XDATA, add(CFA_XSP16, literal(-6)))
          CFI V0 load(1, XDATA, add(CFA_XSP16, literal(-8)))
          CFI V1 load(1, XDATA, add(CFA_XSP16, literal(-7)))
          CFI ?BRET_EXT load(1, XDATA, add(CFA_XSP16, literal(-3)))
          CFI ?RET_HIGH load(1, XDATA, add(CFA_XSP16, literal(-4)))
          CFI ?RET_LOW load(1, XDATA, add(CFA_XSP16, literal(-5)))
        MOV     R7,#0x2
        LJMP    ?BANKED_LEAVE_XDATA
          CFI EndBlock cfiBlock76
// 1110 
// 1111 
// 1112 /*********************************************************************
// 1113  * @fn      nodeDelete
// 1114  *
// 1115  * @brief   Delete an Application's EndPoint descriptor and frees the memory
// 1116  *
// 1117  * @param   EndPoint - Application Endpoint to delete
// 1118  *
// 1119  * @return  afStatus_SUCCESS - endpoint deleted
// 1120  *          afStatus_INVALID_PARAMETER - endpoint not found
// 1121  *          afStatus_FAILED - endpoint list empty
// 1122  */

        RSEG BANKED_CODE:CODE:NOROOT(0)
// 1123 nodeStatus_t CustomApp_NodeDelete ( uint16 devaddr )
CustomApp_NodeDelete:
          CFI Block cfiBlock77 Using cfiCommon0
          CFI Function CustomApp_NodeDelete
        CODE
// 1124 {
        FUNCALL CustomApp_NodeDelete, osal_mem_free
        LOCFRAME ISTACK, 0, STACK
        LOCFRAME PSTACK, 0, STACK
        LOCFRAME XSTACK, 9, STACK
        LOCFRAME IOVERLAY, 0, STATIC
        LOCFRAME DOVERLAY, 0, STATIC
        ARGFRAME ISTACK, 0, STACK
        ARGFRAME PSTACK, 0, STACK
        ARGFRAME XSTACK, 9, STACK
        ARGFRAME IOVERLAY, 0, STATIC
        ARGFRAME DOVERLAY, 0, STATIC
        FUNCALL CustomApp_NodeDelete, osal_mem_free
        LOCFRAME ISTACK, 0, STACK
        LOCFRAME PSTACK, 0, STACK
        LOCFRAME XSTACK, 9, STACK
        LOCFRAME IOVERLAY, 0, STATIC
        LOCFRAME DOVERLAY, 0, STATIC
        ARGFRAME ISTACK, 0, STACK
        ARGFRAME PSTACK, 0, STACK
        ARGFRAME XSTACK, 9, STACK
        ARGFRAME IOVERLAY, 0, STATIC
        ARGFRAME DOVERLAY, 0, STATIC
        MOV     A,#-0x9
        LCALL   ?BANKED_ENTER_XDATA
          CFI DPH0 load(1, XDATA, add(CFA_XSP16, literal(-1)))
          CFI DPL0 load(1, XDATA, add(CFA_XSP16, literal(-2)))
          CFI ?BRET_EXT load(1, XDATA, add(CFA_XSP16, literal(-3)))
          CFI ?RET_HIGH load(1, XDATA, add(CFA_XSP16, literal(-4)))
          CFI ?RET_LOW load(1, XDATA, add(CFA_XSP16, literal(-5)))
          CFI R7 load(1, XDATA, add(CFA_XSP16, literal(-6)))
          CFI V0 load(1, XDATA, add(CFA_XSP16, literal(-7)))
          CFI VB load(1, XDATA, add(CFA_XSP16, literal(-8)))
          CFI R6 load(1, XDATA, add(CFA_XSP16, literal(-9)))
          CFI CFA_SP SP+0
          CFI CFA_XSP16 add(XSP16, 9)
        ; Saved register size: 9
        ; Auto size: 0
// 1125     nodeList_t *nodeCurrent;
// 1126     nodeList_t *nodePrevious;
// 1127 
// 1128     if (nodeList != NULL)
        MOV     DPTR,#nodeList
        LCALL   ??Subroutine47_0 & 0xFFFF
??CrossCallReturnLabel_86:
        JZ      ??CustomApp_NodeDelete_0
// 1129     {
// 1130         nodePrevious = nodeCurrent = nodeList;
        MOVX    A,@DPTR
        MOV     R1,A
        MOV     A,R0
        MOV     R4,A
        MOV     A,R1
        MOV     R5,A
// 1131         if (nodeCurrent->devAddr16.addr.shortAddr == devaddr )
        LCALL   ?Subroutine29 & 0xFFFF
??CrossCallReturnLabel_41:
        JNZ     ??CustomApp_NodeDelete_1
        INC     DPTR
        MOVX    A,@DPTR
        XRL     A,R3
??CustomApp_NodeDelete_1:
        JNZ     ??CustomApp_NodeDelete_2
// 1132         {
// 1133             nodeList = nodeCurrent->nextDesc;
        MOV     DPL,R0
        MOV     DPH,R1
        LCALL   ??Subroutine49_0 & 0xFFFF
// 1134             osal_mem_free(nodeCurrent);
// 1135             return (nodeStatus_SUCCESS);
// 1136         }
??CrossCallReturnLabel_90:
        MOV     DPTR,#nodeList
        SJMP    ??CustomApp_NodeDelete_3
// 1137         else
// 1138         {
// 1139             for (nodeCurrent = nodePrevious->nextDesc; nodeCurrent != NULL; nodeCurrent = nodeCurrent->nextDesc )  
??CustomApp_NodeDelete_2:
        MOV     DPL,R4
        MOV     DPH,R5
        SJMP    ??CustomApp_NodeDelete_4
// 1140             {
// 1141                 if (nodeCurrent->devAddr16.addr.shortAddr== devaddr)
// 1142                 {
// 1143                     nodePrevious->nextDesc = nodeCurrent->nextDesc;
// 1144                     osal_mem_free(nodeCurrent);
// 1145                     return (nodeStatus_SUCCESS);
// 1146                 }
// 1147                 nodePrevious = nodeCurrent;  
??CustomApp_NodeDelete_5:
        MOV     A,R0
        MOV     R4,A
        MOV     A,R1
        MOV     R5,A
        MOV     DPL,R0
        MOV     DPH,R1
??CustomApp_NodeDelete_4:
        LCALL   ??Subroutine47_0 & 0xFFFF
??CrossCallReturnLabel_84:
        JZ      ??CustomApp_NodeDelete_6
        LCALL   ?Subroutine29 & 0xFFFF
??CrossCallReturnLabel_42:
        JNZ     ??CustomApp_NodeDelete_7
        INC     DPTR
        MOVX    A,@DPTR
        XRL     A,R3
??CustomApp_NodeDelete_7:
        JNZ     ??CustomApp_NodeDelete_5
        MOV     DPL,R0
        MOV     DPH,R1
        LCALL   ??Subroutine49_0 & 0xFFFF
??CrossCallReturnLabel_91:
        MOV     DPL,R4
        MOV     DPH,R5
??CustomApp_NodeDelete_3:
        LCALL   ??Subroutine54_0 & 0xFFFF
??CrossCallReturnLabel_99:
        ; Setup parameters for call to function osal_mem_free
        MOV     A,R0
        MOV     R2,A
        MOV     A,R1
        MOV     R3,A
        LCALL   `??osal_mem_free::?relay`; Banked call to: osal_mem_free
        MOV     R1,#0x0
        SJMP    ??CustomApp_NodeDelete_8
// 1148             }
// 1149         }
// 1150         return (nodeStatus_INVALID_PARAMETER);
??CustomApp_NodeDelete_6:
        MOV     R1,#0x2
        SJMP    ??CustomApp_NodeDelete_8
// 1151     }
// 1152     else
// 1153     {
// 1154         return (nodeStatus_FAILED);
??CustomApp_NodeDelete_0:
        MOV     R1,#0x1
// 1155     }
??CustomApp_NodeDelete_8:
        LJMP    ?Subroutine0 & 0xFFFF
// 1156 }
          CFI EndBlock cfiBlock77
// 1157 
// 1158 
// 1159 /*********************************************************************
// 1160  * @fn      nodeFinddevaddrList
// 1161  *
// 1162  * @brief   Find the endpoint description entry from the endpoint
// 1163  *          number.
// 1164  *
// 1165  * @param   EndPoint - Application Endpoint to look for
// 1166  *
// 1167  * @return  the address to the endpoint/interface description entry
// 1168  */

        RSEG BANKED_CODE:CODE:NOROOT(0)
// 1169 nodeList_t *CustomApp_NodeFindNwkAddrList ( uint16 Addr16 )
CustomApp_NodeFindNwkAddrList:
          CFI Block cfiBlock78 Using cfiCommon0
          CFI Function CustomApp_NodeFindNwkAddrList
        CODE
// 1170 {
        PUSH    DPL
          CFI DPL0 Frame(CFA_SP, 4)
          CFI CFA_SP SP+-4
        PUSH    DPH
          CFI DPH0 Frame(CFA_SP, 5)
          CFI CFA_SP SP+-5
        ; Saved register size: 2
        ; Auto size: 0
// 1171     nodeList_t *nodeSearch;
// 1172 
// 1173     for (nodeSearch = nodeList; (nodeSearch != NULL);
        MOV     DPTR,#nodeList
        SJMP    ??CustomApp_NodeFindNwkAddrList_0
// 1174          nodeSearch = nodeSearch->nextDesc)
??CustomApp_NodeFindNwkAddrList_1:
        MOV     DPL,R0
        MOV     DPH,R1
??CustomApp_NodeFindNwkAddrList_0:
        LCALL   ??Subroutine47_0 & 0xFFFF
??CrossCallReturnLabel_85:
        JZ      ??CustomApp_NodeFindNwkAddrList_2
// 1175     {
// 1176         if (nodeSearch->devAddr16.addr.shortAddr== Addr16)
        LCALL   ?Subroutine29 & 0xFFFF
// 1177         {
// 1178             break;
// 1179         }
// 1180     }
??CrossCallReturnLabel_43:
        JNZ     ??CustomApp_NodeFindNwkAddrList_3
        INC     DPTR
        MOVX    A,@DPTR
        XRL     A,R3
??CustomApp_NodeFindNwkAddrList_3:
        JNZ     ??CustomApp_NodeFindNwkAddrList_1
// 1181     return nodeSearch;
??CustomApp_NodeFindNwkAddrList_2:
        MOV     A,R0
        MOV     R2,A
        MOV     A,R1
        MOV     R3,A
        LJMP    ??Subroutine52_0 & 0xFFFF
// 1182 }
          CFI EndBlock cfiBlock78

        RSEG BANKED_CODE:CODE:NOROOT(0)
?Subroutine29:
          CFI Block cfiCond79 Using cfiCommon0
          CFI Function CustomApp_NodeDelete
          CFI Conditional ??CrossCallReturnLabel_41
          CFI R6 load(1, XDATA, add(CFA_XSP16, literal(-9)))
          CFI VB load(1, XDATA, add(CFA_XSP16, literal(-8)))
          CFI V0 load(1, XDATA, add(CFA_XSP16, literal(-7)))
          CFI R7 load(1, XDATA, add(CFA_XSP16, literal(-6)))
          CFI ?RET_LOW load(1, XDATA, add(CFA_XSP16, literal(-5)))
          CFI ?RET_HIGH load(1, XDATA, add(CFA_XSP16, literal(-4)))
          CFI ?BRET_EXT load(1, XDATA, add(CFA_XSP16, literal(-3)))
          CFI DPL0 load(1, XDATA, add(CFA_XSP16, literal(-2)))
          CFI DPH0 load(1, XDATA, add(CFA_XSP16, literal(-1)))
          CFI CFA_SP SP+-2
          CFI CFA_XSP16 add(XSP16, 9)
          CFI Block cfiCond80 Using cfiCommon0
          CFI (cfiCond80) Function CustomApp_NodeDelete
          CFI (cfiCond80) Conditional ??CrossCallReturnLabel_42
          CFI (cfiCond80) R6 load(1, XDATA, add(CFA_XSP16, literal(-9)))
          CFI (cfiCond80) VB load(1, XDATA, add(CFA_XSP16, literal(-8)))
          CFI (cfiCond80) V0 load(1, XDATA, add(CFA_XSP16, literal(-7)))
          CFI (cfiCond80) R7 load(1, XDATA, add(CFA_XSP16, literal(-6)))
          CFI (cfiCond80) ?RET_LOW load(1, XDATA, add(CFA_XSP16, literal(-5)))
          CFI (cfiCond80) ?RET_HIGH load(1, XDATA, add(CFA_XSP16, literal(-4)))
          CFI (cfiCond80) ?BRET_EXT load(1, XDATA, add(CFA_XSP16, literal(-3)))
          CFI (cfiCond80) DPL0 load(1, XDATA, add(CFA_XSP16, literal(-2)))
          CFI (cfiCond80) DPH0 load(1, XDATA, add(CFA_XSP16, literal(-1)))
          CFI (cfiCond80) CFA_SP SP+-2
          CFI (cfiCond80) CFA_XSP16 add(XSP16, 9)
          CFI Block cfiCond81 Using cfiCommon0
          CFI (cfiCond81) Function CustomApp_NodeFindNwkAddrList
          CFI (cfiCond81) Conditional ??CrossCallReturnLabel_43
          CFI (cfiCond81) DPL0 Frame(CFA_SP, 4)
          CFI (cfiCond81) DPH0 Frame(CFA_SP, 5)
          CFI (cfiCond81) CFA_SP SP+-7
          CFI Block cfiPicker82 Using cfiCommon1
          CFI (cfiPicker82) NoFunction
          CFI (cfiPicker82) Picker
        LCALL   ?Subroutine42 & 0xFFFF
??CrossCallReturnLabel_72:
        MOVX    A,@DPTR
        XRL     A,R2
        RET
          CFI EndBlock cfiCond79
          CFI EndBlock cfiCond80
          CFI EndBlock cfiCond81
          CFI EndBlock cfiPicker82
// 1183 
// 1184 

        RSEG BANKED_CODE:CODE:NOROOT(0)
// 1185 nodeList_t *CustomApp_NodeFindMacAddrList ( uint8* Addr64 )
CustomApp_NodeFindMacAddrList:
          CFI Block cfiBlock83 Using cfiCommon0
          CFI Function CustomApp_NodeFindMacAddrList
        CODE
// 1186 {
        FUNCALL CustomApp_NodeFindMacAddrList, sAddrExtCmp
        LOCFRAME ISTACK, 0, STACK
        LOCFRAME PSTACK, 0, STACK
        LOCFRAME XSTACK, 10, STACK
        LOCFRAME IOVERLAY, 0, STATIC
        LOCFRAME DOVERLAY, 0, STATIC
        ARGFRAME ISTACK, 0, STACK
        ARGFRAME PSTACK, 0, STACK
        ARGFRAME XSTACK, 10, STACK
        ARGFRAME IOVERLAY, 0, STATIC
        ARGFRAME DOVERLAY, 0, STATIC
        REQUIRE ?V0
        REQUIRE ?V1
        MOV     A,#-0xa
        LCALL   ?BANKED_ENTER_XDATA
          CFI DPH0 load(1, XDATA, add(CFA_XSP16, literal(-1)))
          CFI DPL0 load(1, XDATA, add(CFA_XSP16, literal(-2)))
          CFI ?BRET_EXT load(1, XDATA, add(CFA_XSP16, literal(-3)))
          CFI ?RET_HIGH load(1, XDATA, add(CFA_XSP16, literal(-4)))
          CFI ?RET_LOW load(1, XDATA, add(CFA_XSP16, literal(-5)))
          CFI R7 load(1, XDATA, add(CFA_XSP16, literal(-6)))
          CFI V1 load(1, XDATA, add(CFA_XSP16, literal(-7)))
          CFI V0 load(1, XDATA, add(CFA_XSP16, literal(-8)))
          CFI VB load(1, XDATA, add(CFA_XSP16, literal(-9)))
          CFI R6 load(1, XDATA, add(CFA_XSP16, literal(-10)))
          CFI CFA_SP SP+0
          CFI CFA_XSP16 add(XSP16, 10)
        ; Saved register size: 10
        ; Auto size: 0
        MOV     ?V0,R2
        MOV     ?V1,R3
// 1187     nodeList_t *nodeSearch;
// 1188 
// 1189     for (nodeSearch = nodeList; nodeSearch != NULL;
        MOV     DPTR,#nodeList
        SJMP    ??CustomApp_NodeFindMacAddrList_0
// 1190          nodeSearch = nodeSearch->nextDesc)
??CustomApp_NodeFindMacAddrList_1:
        MOV     DPL,R6
        MOV     DPH,R7
??CustomApp_NodeFindMacAddrList_0:
        LCALL   ??Subroutine57_0 & 0xFFFF
??CrossCallReturnLabel_110:
        MOV     A,R6
        ORL     A,R7
        JZ      ??CustomApp_NodeFindMacAddrList_2
// 1191     {
// 1192         if ( osal_ExtAddrEqual( (uint8 *)(nodeSearch->devAddr64.addr.extAddr),
// 1193                                 (uint8 *)Addr64 ) == true )
        ; Setup parameters for call to function sAddrExtCmp
        MOV     R4,?V0
        MOV     R5,?V1
        MOV     A,R6
        ADD     A,#0x2
        MOV     R2,A
        CLR     A
        ADDC    A,R7
        MOV     R3,A
        LCALL   `??sAddrExtCmp::?relay`; Banked call to: sAddrExtCmp
        MOV     A,R1
        XRL     A,#0x1
        JNZ     ??CustomApp_NodeFindMacAddrList_1
// 1194         {
// 1195             break;
// 1196         }
// 1197     }
// 1198     return nodeSearch;
??CustomApp_NodeFindMacAddrList_2:
        MOV     A,R6
        MOV     R2,A
        MOV     A,R7
        MOV     R3,A
        LJMP    ??Subroutine50_0 & 0xFFFF
// 1199 }
          CFI EndBlock cfiBlock83
// 1200 
// 1201 

        RSEG BANKED_CODE:CODE:NOROOT(0)
// 1202 void CustomApp_ping_request_init( void )
CustomApp_ping_request_init:
          CFI Block cfiBlock84 Using cfiCommon0
          CFI Function CustomApp_ping_request_init
        CODE
// 1203 {
        FUNCALL CustomApp_ping_request_init, osal_start_timerEx
        LOCFRAME ISTACK, 2, STACK
        LOCFRAME PSTACK, 0, STACK
        LOCFRAME XSTACK, 4, STACK
        LOCFRAME IOVERLAY, 0, STATIC
        LOCFRAME DOVERLAY, 0, STATIC
        ARGFRAME ISTACK, 2, STACK
        ARGFRAME PSTACK, 0, STACK
        ARGFRAME XSTACK, 4, STACK
        ARGFRAME IOVERLAY, 0, STATIC
        ARGFRAME DOVERLAY, 0, STATIC
        PUSH    DPL
          CFI DPL0 Frame(CFA_SP, 4)
          CFI CFA_SP SP+-4
        PUSH    DPH
          CFI DPH0 Frame(CFA_SP, 5)
          CFI CFA_SP SP+-5
        ; Saved register size: 2
        ; Auto size: 0
// 1204 	 osal_start_timerEx( GenericApp_TaskID, GENERICAPP_PING_MSG_EVT, PING_PERIOD );
        ; Setup parameters for call to function osal_start_timerEx
        MOV     DPTR,#__Constant_3a98
        LCALL   ?PUSH_XSTACK8_X_FOUR
          CFI CFA_XSP16 add(XSP16, 4)
        MOV     R2,#0x4
        SJMP    ?Subroutine4
// 1205 }
          CFI EndBlock cfiBlock84
// 1206 

        RSEG BANKED_CODE:CODE:NOROOT(0)
// 1207 void CustomApp_linkstatus_init( void )
CustomApp_linkstatus_init:
          CFI Block cfiBlock85 Using cfiCommon0
          CFI Function CustomApp_linkstatus_init
        CODE
// 1208 {
        FUNCALL CustomApp_linkstatus_init, osal_start_timerEx
        LOCFRAME ISTACK, 2, STACK
        LOCFRAME PSTACK, 0, STACK
        LOCFRAME XSTACK, 4, STACK
        LOCFRAME IOVERLAY, 0, STATIC
        LOCFRAME DOVERLAY, 0, STATIC
        ARGFRAME ISTACK, 2, STACK
        ARGFRAME PSTACK, 0, STACK
        ARGFRAME XSTACK, 4, STACK
        ARGFRAME IOVERLAY, 0, STATIC
        ARGFRAME DOVERLAY, 0, STATIC
        PUSH    DPL
          CFI DPL0 Frame(CFA_SP, 4)
          CFI CFA_SP SP+-4
        PUSH    DPH
          CFI DPH0 Frame(CFA_SP, 5)
          CFI CFA_SP SP+-5
        ; Saved register size: 2
        ; Auto size: 0
// 1209 	 osal_start_timerEx( GenericApp_TaskID, GENERICAPP_LINK_STATUS_EVT, LINKSTAT_PRRIOD );
        ; Setup parameters for call to function osal_start_timerEx
        MOV     DPTR,#__Constant_3a98
        LCALL   ?PUSH_XSTACK8_X_FOUR
          CFI CFA_XSP16 add(XSP16, 4)
        MOV     R2,#0x8
        SJMP    ?Subroutine4
// 1210 }
          CFI EndBlock cfiBlock85
// 1211 
// 1212 

        RSEG BANKED_CODE:CODE:NOROOT(0)
// 1213 void CustomApp_ping_timeout_check_init( void )   //chaokw ping
CustomApp_ping_timeout_check_init:
          CFI Block cfiBlock86 Using cfiCommon0
          CFI Function CustomApp_ping_timeout_check_init
        CODE
// 1214 {
        FUNCALL CustomApp_ping_timeout_check_init, osal_start_timerEx
        LOCFRAME ISTACK, 2, STACK
        LOCFRAME PSTACK, 0, STACK
        LOCFRAME XSTACK, 4, STACK
        LOCFRAME IOVERLAY, 0, STATIC
        LOCFRAME DOVERLAY, 0, STATIC
        ARGFRAME ISTACK, 2, STACK
        ARGFRAME PSTACK, 0, STACK
        ARGFRAME XSTACK, 4, STACK
        ARGFRAME IOVERLAY, 0, STATIC
        ARGFRAME DOVERLAY, 0, STATIC
        PUSH    DPL
          CFI DPL0 Frame(CFA_SP, 4)
          CFI CFA_SP SP+-4
        PUSH    DPH
          CFI DPH0 Frame(CFA_SP, 5)
          CFI CFA_SP SP+-5
        ; Saved register size: 2
        ; Auto size: 0
// 1215 	 osal_start_timerEx( GenericApp_TaskID, GENERICAPP_PING_TIMEOUT_CHECK_EVT, PING_TIMEOUT_CHECK );
        ; Setup parameters for call to function osal_start_timerEx
        MOV     DPTR,#__Constant_2710
        LCALL   ?PUSH_XSTACK8_X_FOUR
          CFI CFA_XSP16 add(XSP16, 4)
        MOV     R2,#-0x80
        SJMP    ?Subroutine4
// 1216 }
          CFI EndBlock cfiBlock86
// 1217 
// 1218 

        RSEG BANKED_CODE:CODE:NOROOT(0)
// 1219 void CustomApp_coordinater_broadcast_ping_init( void )   //chaokw ping
CustomApp_coordinater_broadcast_ping_init:
          CFI Block cfiBlock87 Using cfiCommon0
          CFI Function CustomApp_coordinater_broadcast_ping_init
        CODE
// 1220 {
        FUNCALL CustomApp_coordinater_broadcast_ping_init, osal_start_timerEx
        LOCFRAME ISTACK, 2, STACK
        LOCFRAME PSTACK, 0, STACK
        LOCFRAME XSTACK, 4, STACK
        LOCFRAME IOVERLAY, 0, STATIC
        LOCFRAME DOVERLAY, 0, STATIC
        ARGFRAME ISTACK, 2, STACK
        ARGFRAME PSTACK, 0, STACK
        ARGFRAME XSTACK, 4, STACK
        ARGFRAME IOVERLAY, 0, STATIC
        ARGFRAME DOVERLAY, 0, STATIC
        PUSH    DPL
          CFI DPL0 Frame(CFA_SP, 4)
          CFI CFA_SP SP+-4
        PUSH    DPH
          CFI DPH0 Frame(CFA_SP, 5)
          CFI CFA_SP SP+-5
        ; Saved register size: 2
        ; Auto size: 0
// 1221 	 osal_start_timerEx( GenericApp_TaskID, GENERICAPP_COORDINATER_BROADCAST_PING_EVT, PING_PERIOD );
        ; Setup parameters for call to function osal_start_timerEx
        MOV     DPTR,#__Constant_3a98
        LCALL   ?PUSH_XSTACK8_X_FOUR
          CFI CFA_XSP16 add(XSP16, 4)
        MOV     R2,#0x0
        MOV     R3,#0x1
        SJMP    ??Subroutine51_0
// 1222 }
          CFI EndBlock cfiBlock87

        RSEG BANKED_CODE:CODE:NOROOT(0)
?Subroutine4:
          CFI Block cfiBlock88 Using cfiCommon0
          CFI NoFunction
          CFI CFA_SP SP+-5
          CFI CFA_XSP16 add(XSP16, 4)
          CFI DPL0 Frame(CFA_SP, 4)
          CFI DPH0 Frame(CFA_SP, 5)
        MOV     R3,#0x0
          CFI EndBlock cfiBlock88
        REQUIRE ??Subroutine51_0
        ; // Fall through to label ??Subroutine51_0

        RSEG BANKED_CODE:CODE:NOROOT(0)
??Subroutine51_0:
          CFI Block cfiBlock89 Using cfiCommon0
          CFI NoFunction
          CFI CFA_SP SP+-5
          CFI CFA_XSP16 add(XSP16, 4)
          CFI DPL0 Frame(CFA_SP, 4)
          CFI DPH0 Frame(CFA_SP, 5)
        MOV     DPTR,#GenericApp_TaskID
        MOVX    A,@DPTR
        MOV     R1,A
        LCALL   `??osal_start_timerEx::?relay`; Banked call to: osal_start_timerEx
        MOV     A,#0x4
        LCALL   ?DEALLOC_XSTACK8
          CFI EndBlock cfiBlock89
        REQUIRE ??Subroutine52_0
        ; // Fall through to label ??Subroutine52_0

        RSEG BANKED_CODE:CODE:NOROOT(0)
??Subroutine52_0:
          CFI Block cfiBlock90 Using cfiCommon0
          CFI NoFunction
          CFI CFA_SP SP+-5
          CFI DPL0 Frame(CFA_SP, 4)
          CFI DPH0 Frame(CFA_SP, 5)
        POP     DPH
          CFI CFA_SP SP+-4
          CFI DPH0 SameValue
        POP     DPL
          CFI CFA_SP SP+-3
          CFI DPL0 SameValue
        LJMP    ?BRET
          CFI EndBlock cfiBlock90
// 1223 

        RSEG BANKED_CODE:CODE:NOROOT(0)
// 1224 void CustomApp_zigbee_start_ind (void)
CustomApp_zigbee_start_ind:
          CFI Block cfiBlock91 Using cfiCommon0
          CFI Function CustomApp_zigbee_start_ind
        CODE
// 1225 {
        FUNCALL CustomApp_zigbee_start_ind, NLME_GetExtAddr
        LOCFRAME ISTACK, 0, STACK
        LOCFRAME PSTACK, 0, STACK
        LOCFRAME XSTACK, 25, STACK
        LOCFRAME IOVERLAY, 0, STATIC
        LOCFRAME DOVERLAY, 0, STATIC
        ARGFRAME ISTACK, 0, STACK
        ARGFRAME PSTACK, 0, STACK
        ARGFRAME XSTACK, 25, STACK
        ARGFRAME IOVERLAY, 0, STATIC
        ARGFRAME DOVERLAY, 0, STATIC
        FUNCALL CustomApp_zigbee_start_ind, osal_memcpy
        LOCFRAME ISTACK, 0, STACK
        LOCFRAME PSTACK, 0, STACK
        LOCFRAME XSTACK, 28, STACK
        LOCFRAME IOVERLAY, 0, STATIC
        LOCFRAME DOVERLAY, 0, STATIC
        ARGFRAME ISTACK, 0, STACK
        ARGFRAME PSTACK, 0, STACK
        ARGFRAME XSTACK, 28, STACK
        ARGFRAME IOVERLAY, 0, STATIC
        ARGFRAME DOVERLAY, 0, STATIC
        FUNCALL CustomApp_zigbee_start_ind, MT_UartCalcFCS
        LOCFRAME ISTACK, 0, STACK
        LOCFRAME PSTACK, 0, STACK
        LOCFRAME XSTACK, 25, STACK
        LOCFRAME IOVERLAY, 0, STATIC
        LOCFRAME DOVERLAY, 0, STATIC
        ARGFRAME ISTACK, 0, STACK
        ARGFRAME PSTACK, 0, STACK
        ARGFRAME XSTACK, 25, STACK
        ARGFRAME IOVERLAY, 0, STATIC
        ARGFRAME DOVERLAY, 0, STATIC
        FUNCALL CustomApp_zigbee_start_ind, HalUARTWrite
        LOCFRAME ISTACK, 0, STACK
        LOCFRAME PSTACK, 0, STACK
        LOCFRAME XSTACK, 25, STACK
        LOCFRAME IOVERLAY, 0, STATIC
        LOCFRAME DOVERLAY, 0, STATIC
        ARGFRAME ISTACK, 0, STACK
        ARGFRAME PSTACK, 0, STACK
        ARGFRAME XSTACK, 25, STACK
        ARGFRAME IOVERLAY, 0, STATIC
        ARGFRAME DOVERLAY, 0, STATIC
        REQUIRE ?V0
        REQUIRE ?V1
        REQUIRE ?V2
        REQUIRE ?V3
        MOV     A,#-0xc
        LCALL   ?BANKED_ENTER_XDATA
          CFI DPH0 load(1, XDATA, add(CFA_XSP16, literal(-1)))
          CFI DPL0 load(1, XDATA, add(CFA_XSP16, literal(-2)))
          CFI ?BRET_EXT load(1, XDATA, add(CFA_XSP16, literal(-3)))
          CFI ?RET_HIGH load(1, XDATA, add(CFA_XSP16, literal(-4)))
          CFI ?RET_LOW load(1, XDATA, add(CFA_XSP16, literal(-5)))
          CFI R7 load(1, XDATA, add(CFA_XSP16, literal(-6)))
          CFI V3 load(1, XDATA, add(CFA_XSP16, literal(-7)))
          CFI V2 load(1, XDATA, add(CFA_XSP16, literal(-8)))
          CFI V1 load(1, XDATA, add(CFA_XSP16, literal(-9)))
          CFI V0 load(1, XDATA, add(CFA_XSP16, literal(-10)))
          CFI VB load(1, XDATA, add(CFA_XSP16, literal(-11)))
          CFI R6 load(1, XDATA, add(CFA_XSP16, literal(-12)))
          CFI CFA_SP SP+0
          CFI CFA_XSP16 add(XSP16, 12)
        ; Saved register size: 12
        ; Auto size: 13
        MOV     A,#-0xd
        LCALL   ?ALLOC_XSTACK8
          CFI CFA_XSP16 add(XSP16, 25)
// 1226 
// 1227     uint8 msg[13];
// 1228     uint8* ExtAddr;	
// 1229 
// 1230     msg[0] = MT_CPT_SOP;
        MOV     DPL,?XSP + 0
        MOV     DPH,?XSP + 1
        MOV     A,#-0x2
        MOVX    @DPTR,A
// 1231     msg[1] = 0x08;
        MOV     A,#0x1
        LCALL   ?XSTACK_DISP0_8
        MOV     A,#0x8
        MOVX    @DPTR,A
// 1232     msg[2] = MT_ZIGBEE_START_IND & 0xff; //0x80
        MOV     A,#0x2
        LCALL   ?XSTACK_DISP0_8
        MOV     A,#-0x80
        MOVX    @DPTR,A
// 1233     msg[3] = (MT_ZIGBEE_START_IND  & 0xff00) >> 8;  //0x16
        MOV     A,#0x3
        LCALL   ?XSTACK_DISP0_8
        MOV     A,#0x16
        MOVX    @DPTR,A
// 1234 
// 1235     ExtAddr = NLME_GetExtAddr();
        ; Setup parameters for call to function NLME_GetExtAddr
        LCALL   `??NLME_GetExtAddr::?relay`; Banked call to: NLME_GetExtAddr
        MOV     ?V0,R2
        MOV     ?V1,R3
// 1236     osal_memcpy(&msg[4], ExtAddr, 8);
        ; Setup parameters for call to function osal_memcpy
        MOV     ?V2,#0x0
        MOV     R0,#?V0
        LCALL   ?PUSH_XSTACK_I_THREE
          CFI CFA_XSP16 add(XSP16, 28)
        MOV     R4,#0x8
        MOV     R5,#0x0
        MOV     A,#0x7
        LCALL   ?XSTACK_DISP0_8
        MOV     R2,DPL
        MOV     R3,DPH
        LCALL   `??osal_memcpy::?relay`; Banked call to: osal_memcpy
        MOV     A,#0x3
        LCALL   ?DEALLOC_XSTACK8
          CFI CFA_XSP16 add(XSP16, 25)
// 1237 #ifdef OPEN_FCS 
// 1238     msg[12]=MT_UartCalcFCS (&msg[1], 11);
        ; Setup parameters for call to function MT_UartCalcFCS
        MOV     R1,#0xb
        MOV     A,#0x1
        LCALL   ?XSTACK_DISP0_8
        MOV     R2,DPL
        MOV     R3,DPH
        LCALL   `??MT_UartCalcFCS::?relay`; Banked call to: MT_UartCalcFCS
        MOV     A,#0xc
        LCALL   ?XSTACK_DISP0_8
        LCALL   ?Subroutine10 & 0xFFFF
// 1239 #else   
// 1240     msg[12] = DEFAULTFCS;
// 1241 #endif
// 1242 
// 1243     HalUARTWrite( 0, msg, 13 );
??CrossCallReturnLabel_7:
        LCALL   `??HalUARTWrite::?relay`; Banked call to: HalUARTWrite
// 1244 }
        MOV     A,#0xd
        LJMP    ?Subroutine1 & 0xFFFF
          CFI EndBlock cfiBlock91
// 1245 
// 1246 

        RSEG BANKED_CODE:CODE:NOROOT(0)
// 1247 void CustomApp_loadstatus_ind(void) 
CustomApp_loadstatus_ind:
          CFI Block cfiBlock92 Using cfiCommon0
          CFI Function CustomApp_loadstatus_ind
        CODE
// 1248 {
        FUNCALL CustomApp_loadstatus_ind, NLME_GetExtAddr
        LOCFRAME ISTACK, 0, STACK
        LOCFRAME PSTACK, 0, STACK
        LOCFRAME XSTACK, 27, STACK
        LOCFRAME IOVERLAY, 0, STATIC
        LOCFRAME DOVERLAY, 0, STATIC
        ARGFRAME ISTACK, 0, STACK
        ARGFRAME PSTACK, 0, STACK
        ARGFRAME XSTACK, 27, STACK
        ARGFRAME IOVERLAY, 0, STATIC
        ARGFRAME DOVERLAY, 0, STATIC
        FUNCALL CustomApp_loadstatus_ind, osal_memcpy
        LOCFRAME ISTACK, 0, STACK
        LOCFRAME PSTACK, 0, STACK
        LOCFRAME XSTACK, 30, STACK
        LOCFRAME IOVERLAY, 0, STATIC
        LOCFRAME DOVERLAY, 0, STATIC
        ARGFRAME ISTACK, 0, STACK
        ARGFRAME PSTACK, 0, STACK
        ARGFRAME XSTACK, 30, STACK
        ARGFRAME IOVERLAY, 0, STATIC
        ARGFRAME DOVERLAY, 0, STATIC
        FUNCALL CustomApp_loadstatus_ind, NLME_GetShortAddr
        LOCFRAME ISTACK, 0, STACK
        LOCFRAME PSTACK, 0, STACK
        LOCFRAME XSTACK, 27, STACK
        LOCFRAME IOVERLAY, 0, STATIC
        LOCFRAME DOVERLAY, 0, STATIC
        ARGFRAME ISTACK, 0, STACK
        ARGFRAME PSTACK, 0, STACK
        ARGFRAME XSTACK, 27, STACK
        ARGFRAME IOVERLAY, 0, STATIC
        ARGFRAME DOVERLAY, 0, STATIC
        FUNCALL CustomApp_loadstatus_ind, MT_UartCalcFCS
        LOCFRAME ISTACK, 0, STACK
        LOCFRAME PSTACK, 0, STACK
        LOCFRAME XSTACK, 27, STACK
        LOCFRAME IOVERLAY, 0, STATIC
        LOCFRAME DOVERLAY, 0, STATIC
        ARGFRAME ISTACK, 0, STACK
        ARGFRAME PSTACK, 0, STACK
        ARGFRAME XSTACK, 27, STACK
        ARGFRAME IOVERLAY, 0, STATIC
        ARGFRAME DOVERLAY, 0, STATIC
        FUNCALL CustomApp_loadstatus_ind, HalUARTWrite
        LOCFRAME ISTACK, 0, STACK
        LOCFRAME PSTACK, 0, STACK
        LOCFRAME XSTACK, 27, STACK
        LOCFRAME IOVERLAY, 0, STATIC
        LOCFRAME DOVERLAY, 0, STATIC
        ARGFRAME ISTACK, 0, STACK
        ARGFRAME PSTACK, 0, STACK
        ARGFRAME XSTACK, 27, STACK
        ARGFRAME IOVERLAY, 0, STATIC
        ARGFRAME DOVERLAY, 0, STATIC
        REQUIRE ?V0
        REQUIRE ?V1
        REQUIRE ?V2
        REQUIRE ?V3
        MOV     A,#-0xc
        LCALL   ?BANKED_ENTER_XDATA
          CFI DPH0 load(1, XDATA, add(CFA_XSP16, literal(-1)))
          CFI DPL0 load(1, XDATA, add(CFA_XSP16, literal(-2)))
          CFI ?BRET_EXT load(1, XDATA, add(CFA_XSP16, literal(-3)))
          CFI ?RET_HIGH load(1, XDATA, add(CFA_XSP16, literal(-4)))
          CFI ?RET_LOW load(1, XDATA, add(CFA_XSP16, literal(-5)))
          CFI R7 load(1, XDATA, add(CFA_XSP16, literal(-6)))
          CFI V3 load(1, XDATA, add(CFA_XSP16, literal(-7)))
          CFI V2 load(1, XDATA, add(CFA_XSP16, literal(-8)))
          CFI V1 load(1, XDATA, add(CFA_XSP16, literal(-9)))
          CFI V0 load(1, XDATA, add(CFA_XSP16, literal(-10)))
          CFI VB load(1, XDATA, add(CFA_XSP16, literal(-11)))
          CFI R6 load(1, XDATA, add(CFA_XSP16, literal(-12)))
          CFI CFA_SP SP+0
          CFI CFA_XSP16 add(XSP16, 12)
        ; Saved register size: 12
        ; Auto size: 15
        MOV     A,#-0xf
        LCALL   ?ALLOC_XSTACK8
          CFI CFA_XSP16 add(XSP16, 27)
// 1249     uint8 msg[15]; 
// 1250     uint8* ExtAddr;
// 1251     uint16 ShortAddr;	
// 1252     
// 1253     msg[0] = MT_CPT_SOP;
        MOV     DPL,?XSP + 0
        MOV     DPH,?XSP + 1
        MOV     A,#-0x2
        MOVX    @DPTR,A
// 1254     msg[1] = 0x0A;  
        MOV     A,#0x1
        LCALL   ?XSTACK_DISP0_8
        MOV     A,#0xa
        MOVX    @DPTR,A
// 1255     msg[2] = MT_LOAD_STATUS_IND & 0xff;   //0x80
        MOV     A,#0x2
        LCALL   ?XSTACK_DISP0_8
        MOV     A,#-0x80
        MOVX    @DPTR,A
// 1256     msg[3] = (MT_LOAD_STATUS_IND  & 0xff00) >> 8;  //0x17
        MOV     A,#0x3
        LCALL   ?XSTACK_DISP0_8
        MOV     A,#0x17
        MOVX    @DPTR,A
// 1257     
// 1258     ExtAddr = NLME_GetExtAddr();
        ; Setup parameters for call to function NLME_GetExtAddr
        LCALL   `??NLME_GetExtAddr::?relay`; Banked call to: NLME_GetExtAddr
        MOV     ?V0,R2
        MOV     ?V1,R3
// 1259     osal_memcpy(&msg[4], ExtAddr, 8);
        ; Setup parameters for call to function osal_memcpy
        MOV     ?V2,#0x0
        MOV     R0,#?V0
        LCALL   ?PUSH_XSTACK_I_THREE
          CFI CFA_XSP16 add(XSP16, 30)
        MOV     R4,#0x8
        MOV     R5,#0x0
        MOV     A,#0x7
        LCALL   ?XSTACK_DISP0_8
        MOV     R2,DPL
        MOV     R3,DPH
        LCALL   `??osal_memcpy::?relay`; Banked call to: osal_memcpy
        MOV     A,#0x3
        LCALL   ?DEALLOC_XSTACK8
          CFI CFA_XSP16 add(XSP16, 27)
// 1260 
// 1261 #if( ZSTACK_DEVICE_BUILD == DEVICE_BUILD_COORDINATOR)
// 1262     ShortAddr =0x0000;
// 1263 #else
// 1264     ShortAddr = NLME_GetShortAddr();
        ; Setup parameters for call to function NLME_GetShortAddr
        LCALL   `??NLME_GetShortAddr::?relay`; Banked call to: NLME_GetShortAddr
// 1265 #endif
// 1266 
// 1267     msg[12] = ShortAddr & 0xff;
        MOV     A,#0xc
        LCALL   ?XSTACK_DISP0_8
        MOV     A,R2
        MOVX    @DPTR,A
// 1268     msg[13] = (ShortAddr & 0xff00) >> 8;
        MOV     A,#0xd
        LCALL   ?XSTACK_DISP0_8
        MOV     A,R3
        MOVX    @DPTR,A
// 1269 
// 1270 #ifdef OPEN_FCS 	
// 1271     msg[14] = MT_UartCalcFCS(&msg[1], 13);          
        ; Setup parameters for call to function MT_UartCalcFCS
        MOV     R1,#0xd
        MOV     A,#0x1
        LCALL   ?XSTACK_DISP0_8
        MOV     R2,DPL
        MOV     R3,DPH
        LCALL   `??MT_UartCalcFCS::?relay`; Banked call to: MT_UartCalcFCS
        MOV     A,#0xe
        LCALL   ?XSTACK_DISP0_8
        MOV     A,R1
        MOVX    @DPTR,A
// 1272 #else   
// 1273     msg[14] = DEFAULTFCS;
// 1274 #endif
// 1275     HalUARTWrite( 0, msg, 15 );        
        ; Setup parameters for call to function HalUARTWrite
        MOV     R4,#0xf
        MOV     R5,#0x0
        MOV     R2,?XSP + 0
        MOV     R3,?XSP + 1
        MOV     R1,#0x0
        LCALL   `??HalUARTWrite::?relay`; Banked call to: HalUARTWrite
// 1276 
// 1277 }
        MOV     A,#0xf
          CFI EndBlock cfiBlock92
        REQUIRE ?Subroutine1
        ; // Fall through to label ?Subroutine1

        RSEG BANKED_CODE:CODE:NOROOT(0)
?Subroutine1:
          CFI Block cfiBlock93 Using cfiCommon0
          CFI NoFunction
          CFI CFA_SP SP+0
          CFI CFA_XSP16 add(XSP16, 24)
          CFI VB load(1, XDATA, add(CFA_XSP16, literal(-11)))
          CFI DPL0 load(1, XDATA, add(CFA_XSP16, literal(-2)))
          CFI DPH0 load(1, XDATA, add(CFA_XSP16, literal(-1)))
          CFI R6 load(1, XDATA, add(CFA_XSP16, literal(-12)))
          CFI R7 load(1, XDATA, add(CFA_XSP16, literal(-6)))
          CFI V0 load(1, XDATA, add(CFA_XSP16, literal(-10)))
          CFI V1 load(1, XDATA, add(CFA_XSP16, literal(-9)))
          CFI V2 load(1, XDATA, add(CFA_XSP16, literal(-8)))
          CFI V3 load(1, XDATA, add(CFA_XSP16, literal(-7)))
          CFI ?BRET_EXT load(1, XDATA, add(CFA_XSP16, literal(-3)))
          CFI ?RET_HIGH load(1, XDATA, add(CFA_XSP16, literal(-4)))
          CFI ?RET_LOW load(1, XDATA, add(CFA_XSP16, literal(-5)))
          CFI Invalid
        LCALL   ?DEALLOC_XSTACK8
          CFI EndBlock cfiBlock93
        REQUIRE ??Subroutine53_0
        ; // Fall through to label ??Subroutine53_0

        RSEG BANKED_CODE:CODE:NOROOT(0)
??Subroutine53_0:
          CFI Block cfiBlock94 Using cfiCommon0
          CFI NoFunction
          CFI CFA_SP SP+0
          CFI CFA_XSP16 add(XSP16, 12)
          CFI VB load(1, XDATA, add(CFA_XSP16, literal(-11)))
          CFI DPL0 load(1, XDATA, add(CFA_XSP16, literal(-2)))
          CFI DPH0 load(1, XDATA, add(CFA_XSP16, literal(-1)))
          CFI R6 load(1, XDATA, add(CFA_XSP16, literal(-12)))
          CFI R7 load(1, XDATA, add(CFA_XSP16, literal(-6)))
          CFI V0 load(1, XDATA, add(CFA_XSP16, literal(-10)))
          CFI V1 load(1, XDATA, add(CFA_XSP16, literal(-9)))
          CFI V2 load(1, XDATA, add(CFA_XSP16, literal(-8)))
          CFI V3 load(1, XDATA, add(CFA_XSP16, literal(-7)))
          CFI ?BRET_EXT load(1, XDATA, add(CFA_XSP16, literal(-3)))
          CFI ?RET_HIGH load(1, XDATA, add(CFA_XSP16, literal(-4)))
          CFI ?RET_LOW load(1, XDATA, add(CFA_XSP16, literal(-5)))
        MOV     R7,#0x4
        LJMP    ?BANKED_LEAVE_XDATA
          CFI EndBlock cfiBlock94
// 1278 
// 1279 

        RSEG BANKED_CODE:CODE:NOROOT(0)
// 1280 void CustomApp_node_register_ind(afAddrType_t addr64, afAddrType_t addr16)
CustomApp_node_register_ind:
          CFI Block cfiBlock95 Using cfiCommon0
          CFI Function CustomApp_node_register_ind
        CODE
// 1281 {
        FUNCALL CustomApp_node_register_ind, osal_msg_allocate
        LOCFRAME ISTACK, 0, STACK
        LOCFRAME PSTACK, 0, STACK
        LOCFRAME XSTACK, 42, STACK
        LOCFRAME IOVERLAY, 0, STATIC
        LOCFRAME DOVERLAY, 0, STATIC
        ARGFRAME ISTACK, 0, STACK
        ARGFRAME PSTACK, 0, STACK
        ARGFRAME XSTACK, 42, STACK
        ARGFRAME IOVERLAY, 0, STATIC
        ARGFRAME DOVERLAY, 0, STATIC
        FUNCALL CustomApp_node_register_ind, osal_memcpy
        LOCFRAME ISTACK, 0, STACK
        LOCFRAME PSTACK, 0, STACK
        LOCFRAME XSTACK, 45, STACK
        LOCFRAME IOVERLAY, 0, STATIC
        LOCFRAME DOVERLAY, 0, STATIC
        ARGFRAME ISTACK, 0, STACK
        ARGFRAME PSTACK, 0, STACK
        ARGFRAME XSTACK, 45, STACK
        ARGFRAME IOVERLAY, 0, STATIC
        ARGFRAME DOVERLAY, 0, STATIC
        FUNCALL CustomApp_node_register_ind, osal_memcpy
        LOCFRAME ISTACK, 0, STACK
        LOCFRAME PSTACK, 0, STACK
        LOCFRAME XSTACK, 45, STACK
        LOCFRAME IOVERLAY, 0, STATIC
        LOCFRAME DOVERLAY, 0, STATIC
        ARGFRAME ISTACK, 0, STACK
        ARGFRAME PSTACK, 0, STACK
        ARGFRAME XSTACK, 45, STACK
        ARGFRAME IOVERLAY, 0, STATIC
        ARGFRAME DOVERLAY, 0, STATIC
        FUNCALL CustomApp_node_register_ind, MT_UartCalcFCS
        LOCFRAME ISTACK, 0, STACK
        LOCFRAME PSTACK, 0, STACK
        LOCFRAME XSTACK, 42, STACK
        LOCFRAME IOVERLAY, 0, STATIC
        LOCFRAME DOVERLAY, 0, STATIC
        ARGFRAME ISTACK, 0, STACK
        ARGFRAME PSTACK, 0, STACK
        ARGFRAME XSTACK, 42, STACK
        ARGFRAME IOVERLAY, 0, STATIC
        ARGFRAME DOVERLAY, 0, STATIC
        FUNCALL CustomApp_node_register_ind, osal_memcpy
        LOCFRAME ISTACK, 0, STACK
        LOCFRAME PSTACK, 0, STACK
        LOCFRAME XSTACK, 45, STACK
        LOCFRAME IOVERLAY, 0, STATIC
        LOCFRAME DOVERLAY, 0, STATIC
        ARGFRAME ISTACK, 0, STACK
        ARGFRAME PSTACK, 0, STACK
        ARGFRAME XSTACK, 45, STACK
        ARGFRAME IOVERLAY, 0, STATIC
        ARGFRAME DOVERLAY, 0, STATIC
        FUNCALL CustomApp_node_register_ind, osal_memcpy
        LOCFRAME ISTACK, 0, STACK
        LOCFRAME PSTACK, 0, STACK
        LOCFRAME XSTACK, 45, STACK
        LOCFRAME IOVERLAY, 0, STATIC
        LOCFRAME DOVERLAY, 0, STATIC
        ARGFRAME ISTACK, 0, STACK
        ARGFRAME PSTACK, 0, STACK
        ARGFRAME XSTACK, 45, STACK
        ARGFRAME IOVERLAY, 0, STATIC
        ARGFRAME DOVERLAY, 0, STATIC
        FUNCALL CustomApp_node_register_ind, MT_UartCalcFCS
        LOCFRAME ISTACK, 0, STACK
        LOCFRAME PSTACK, 0, STACK
        LOCFRAME XSTACK, 42, STACK
        LOCFRAME IOVERLAY, 0, STATIC
        LOCFRAME DOVERLAY, 0, STATIC
        ARGFRAME ISTACK, 0, STACK
        ARGFRAME PSTACK, 0, STACK
        ARGFRAME XSTACK, 42, STACK
        ARGFRAME IOVERLAY, 0, STATIC
        ARGFRAME DOVERLAY, 0, STATIC
        FUNCALL CustomApp_node_register_ind, HalUARTWrite
        LOCFRAME ISTACK, 0, STACK
        LOCFRAME PSTACK, 0, STACK
        LOCFRAME XSTACK, 42, STACK
        LOCFRAME IOVERLAY, 0, STATIC
        LOCFRAME DOVERLAY, 0, STATIC
        ARGFRAME ISTACK, 0, STACK
        ARGFRAME PSTACK, 0, STACK
        ARGFRAME XSTACK, 42, STACK
        ARGFRAME IOVERLAY, 0, STATIC
        ARGFRAME DOVERLAY, 0, STATIC
        FUNCALL CustomApp_node_register_ind, osal_msg_deallocate
        LOCFRAME ISTACK, 0, STACK
        LOCFRAME PSTACK, 0, STACK
        LOCFRAME XSTACK, 42, STACK
        LOCFRAME IOVERLAY, 0, STATIC
        LOCFRAME DOVERLAY, 0, STATIC
        ARGFRAME ISTACK, 0, STACK
        ARGFRAME PSTACK, 0, STACK
        ARGFRAME XSTACK, 42, STACK
        ARGFRAME IOVERLAY, 0, STATIC
        ARGFRAME DOVERLAY, 0, STATIC
        REQUIRE ?V0
        REQUIRE ?V1
        REQUIRE ?V2
        REQUIRE ?V3
        REQUIRE ?V4
        REQUIRE ?V5
        REQUIRE ?V6
        REQUIRE ?V7
        MOV     A,#-0x10
        LCALL   ?BANKED_ENTER_XDATA
          CFI DPH0 load(1, XDATA, add(CFA_XSP16, literal(-1)))
          CFI DPL0 load(1, XDATA, add(CFA_XSP16, literal(-2)))
          CFI ?BRET_EXT load(1, XDATA, add(CFA_XSP16, literal(-3)))
          CFI ?RET_HIGH load(1, XDATA, add(CFA_XSP16, literal(-4)))
          CFI ?RET_LOW load(1, XDATA, add(CFA_XSP16, literal(-5)))
          CFI R7 load(1, XDATA, add(CFA_XSP16, literal(-6)))
          CFI V7 load(1, XDATA, add(CFA_XSP16, literal(-7)))
          CFI V6 load(1, XDATA, add(CFA_XSP16, literal(-8)))
          CFI V5 load(1, XDATA, add(CFA_XSP16, literal(-9)))
          CFI V4 load(1, XDATA, add(CFA_XSP16, literal(-10)))
          CFI V3 load(1, XDATA, add(CFA_XSP16, literal(-11)))
          CFI V2 load(1, XDATA, add(CFA_XSP16, literal(-12)))
          CFI V1 load(1, XDATA, add(CFA_XSP16, literal(-13)))
          CFI V0 load(1, XDATA, add(CFA_XSP16, literal(-14)))
          CFI VB load(1, XDATA, add(CFA_XSP16, literal(-15)))
          CFI R6 load(1, XDATA, add(CFA_XSP16, literal(-16)))
          CFI CFA_SP SP+0
          CFI CFA_XSP16 add(XSP16, 16)
        ; Saved register size: 16
        ; Auto size: 26
        MOV     A,#-0x1a
        LCALL   ?ALLOC_XSTACK8
          CFI CFA_XSP16 add(XSP16, 42)
// 1282     uint8 msg[25];
// 1283     transferpkt_t *rptmac;
// 1284     uint8 fcs;
// 1285 	
// 1286     rptmac = (transferpkt_t *)osal_msg_allocate( sizeof (transferpkt_t) + 8); 
        ; Setup parameters for call to function osal_msg_allocate
        MOV     R2,#0x14
        MOV     R3,#0x0
        LCALL   `??osal_msg_allocate::?relay`; Banked call to: osal_msg_allocate
        MOV     ?V0,R2
        MOV     ?V1,R3
        MOV     R6,?V0
        MOV     R7,?V1
// 1287     if (rptmac != NULL)
        MOV     A,R6
        ORL     A,R7
        JNZ     $+5
        LJMP    ??CustomApp_node_register_ind_0 & 0xFFFF
// 1288     {
// 1289         rptmac->msgid = REPORT_RPTMAC_MSG; 
        MOV     DPL,R6
        MOV     DPH,R7
        MOV     A,#0x2c
        MOVX    @DPTR,A
        INC     DPTR
        MOV     A,#0x60
        LCALL   ?Subroutine6 & 0xFFFF
// 1290         rptmac->msgseq = 0x0001;
// 1291         rptmac->srcid = 0x0000;
??CrossCallReturnLabel_0:
        INC     DPTR
        INC     DPTR
        MOVX    @DPTR,A
        INC     DPTR
        MOVX    @DPTR,A
// 1292         osal_memcpy(&rptmac->destid, &addr16.addr.shortAddr, 2);
        ; Setup parameters for call to function osal_memcpy
        MOV     A,#0x36
        LCALL   ?XSTACK_DISP100_8
        MOV     ?V0,R0
        MOV     ?V1,R1
        MOV     ?V2,#0x0
        MOV     R0,#?V0
        LCALL   ?PUSH_XSTACK_I_THREE
          CFI CFA_XSP16 add(XSP16, 45)
        MOV     R4,#0x2
        MOV     R5,#0x0
        MOV     A,R6
        ADD     A,#0x4
        MOV     R2,A
        CLR     A
        ADDC    A,R7
        MOV     R3,A
        LCALL   `??osal_memcpy::?relay`; Banked call to: osal_memcpy
        MOV     A,#0x3
        LCALL   ?DEALLOC_XSTACK8
          CFI CFA_XSP16 add(XSP16, 42)
// 1293         rptmac->datalen = 8;
        MOV     A,R6
        ADD     A,#0x8
        MOV     ?V0,A
        CLR     A
        ADDC    A,R7
        MOV     ?V1,A
        MOV     DPL,?V0
        MOV     DPH,A
        MOV     A,#0x8
        MOVX    @DPTR,A
// 1294 
// 1295 	 rptmac->data = (uint8 *)(rptmac + 1);
        MOV     A,R6
        ADD     A,#0x9
        MOV     ?V2,A
        CLR     A
        ADDC    A,R7
        MOV     ?V3,A
        MOV     A,R6
        ADD     A,#0xc
        MOV     R0,A
        CLR     A
        ADDC    A,R7
        MOV     R1,A
        MOV     DPL,?V2
        MOV     DPH,?V3
        LCALL   ?Subroutine15 & 0xFFFF
// 1296 	 osal_memcpy(&rptmac->data, &addr64.addr.extAddr, 8);
??CrossCallReturnLabel_15:
        ; Setup parameters for call to function osal_memcpy
        MOV     A,#0x2a
        LCALL   ?XSTACK_DISP100_8
        MOV     ?V4,R0
        MOV     ?V5,R1
        MOV     ?V6,#0x0
        MOV     R0,#?V4
        LCALL   ?PUSH_XSTACK_I_THREE
          CFI CFA_XSP16 add(XSP16, 45)
        MOV     R4,#0x8
        MOV     R5,#0x0
        MOV     R2,?V2
        MOV     R3,?V3
        LCALL   `??osal_memcpy::?relay`; Banked call to: osal_memcpy
        MOV     A,#0x3
        LCALL   ?DEALLOC_XSTACK8
          CFI CFA_XSP16 add(XSP16, 42)
// 1297 	 fcs = MT_UartCalcFCS((uint8 *)rptmac, rptmac->datalen + PKT_HEAD_LEN); 
        ; Setup parameters for call to function MT_UartCalcFCS
        MOV     DPL,?V0
        MOV     DPH,?V1
        MOVX    A,@DPTR
        ADD     A,#0x9
        MOV     R1,A
        MOV     A,R6
        MOV     R2,A
        MOV     A,R7
        MOV     R3,A
        LCALL   `??MT_UartCalcFCS::?relay`; Banked call to: MT_UartCalcFCS
        MOV     A,R1
        MOV     ?V7,A
// 1298    
// 1299         msg[0] = MT_CPT_SOP;
        MOV     A,#0x1
        LCALL   ?XSTACK_DISP0_8
        MOV     A,#-0x2
        LCALL   ?Subroutine8 & 0xFFFF
// 1300         msg[1] = rptmac->datalen + PKT_HEAD_LEN + 1 ;  //rptmac17 + fcs1 
??CrossCallReturnLabel_2:
        ADD     A,#0xa
        PUSH    A
          CFI CFA_SP SP+-1
        MOV     A,#0x2
        LCALL   ?XSTACK_DISP0_8
        POP     A
          CFI CFA_SP SP+0
        MOVX    @DPTR,A
// 1301         msg[2] = MT_NODE_REG_IND & 0xff;
        MOV     A,#0x3
        LCALL   ?XSTACK_DISP0_8
        MOV     A,#-0x80
        MOVX    @DPTR,A
// 1302         msg[3] = (MT_NODE_REG_IND & 0xff00) >> 8;
        MOV     A,#0x4
        LCALL   ?XSTACK_DISP0_8
        MOV     A,#0x18
        MOVX    @DPTR,A
// 1303 
// 1304         osal_memcpy(&msg[4], (uint8 *)rptmac, PKT_HEAD_LEN);
        ; Setup parameters for call to function osal_memcpy
        MOV     ?V4,R6
        MOV     ?V5,R7
        MOV     R0,#?V4
        LCALL   ?PUSH_XSTACK_I_THREE
          CFI CFA_XSP16 add(XSP16, 45)
        MOV     R4,#0x9
        MOV     R5,#0x0
        MOV     A,#0x8
        LCALL   ?XSTACK_DISP0_8
        MOV     R2,DPL
        MOV     R3,DPH
        LCALL   `??osal_memcpy::?relay`; Banked call to: osal_memcpy
        MOV     A,#0x3
        LCALL   ?DEALLOC_XSTACK8
          CFI CFA_XSP16 add(XSP16, 42)
// 1305         osal_memcpy(&msg[4 + PKT_HEAD_LEN], &rptmac->data, rptmac->datalen);
        ; Setup parameters for call to function osal_memcpy
        MOV     ?V4,?V2
        MOV     ?V5,?V3
        MOV     R0,#?V4
        LCALL   ?PUSH_XSTACK_I_THREE
          CFI CFA_XSP16 add(XSP16, 45)
        MOV     DPL,?V0
        MOV     DPH,?V1
        MOVX    A,@DPTR
        MOV     R4,A
        MOV     R5,#0x0
        MOV     A,#0x11
        LCALL   ?XSTACK_DISP0_8
        MOV     R2,DPL
        MOV     R3,DPH
        LCALL   `??osal_memcpy::?relay`; Banked call to: osal_memcpy
        MOV     A,#0x3
        LCALL   ?DEALLOC_XSTACK8
          CFI CFA_XSP16 add(XSP16, 42)
// 1306         msg[4 + rptmac->datalen + PKT_HEAD_LEN] = fcs;
        MOV     DPL,?V0
        MOV     DPH,?V1
        MOVX    A,@DPTR
        MOV     R0,A
        MOV     A,#0x1
        LCALL   ?XSTACK_DISP0_8
        MOV     A,DPL
        ADD     A,R0
        MOV     R0,A
        CLR     A
        ADDC    A,DPH
        MOV     R1,A
        MOV     A,R0
        ADD     A,#0xd
        MOV     DPL,A
        CLR     A
        ADDC    A,R1
        MOV     DPH,A
        MOV     A,?V7
        LCALL   ?Subroutine8 & 0xFFFF
// 1307 
// 1308 #ifdef OPEN_FCS 			
// 1309 	 msg[4 + rptmac->datalen + PKT_HEAD_LEN + 1] = MT_UartCalcFCS(&msg[1], rptmac->datalen + PKT_HEAD_LEN + 1 + 3); //rptmac17 + fcs1 + cmd2 + len1
??CrossCallReturnLabel_3:
        ADD     A,#0xd
        MOV     R1,A
        MOV     A,#0x2
        LCALL   ?XSTACK_DISP0_8
        MOV     R2,DPL
        MOV     R3,DPH
        LCALL   `??MT_UartCalcFCS::?relay`; Banked call to: MT_UartCalcFCS
        MOV     A,R1
        MOV     DPL,?XSP + 0
        MOV     DPH,?XSP + 1
        MOVX    @DPTR,A
        PUSH    A
          CFI CFA_SP SP+-1
        MOV     DPL,?V0
        MOV     DPH,?V1
        MOVX    A,@DPTR
        MOV     R0,A
        MOV     A,#0x1
        LCALL   ?XSTACK_DISP0_8
        MOV     A,DPL
        ADD     A,R0
        MOV     R0,A
        CLR     A
        ADDC    A,DPH
        MOV     R1,A
        LCALL   ?Subroutine42 & 0xFFFF
??CrossCallReturnLabel_71:
        POP     A
          CFI CFA_SP SP+0
        LCALL   ?Subroutine8 & 0xFFFF
// 1310 #else  
// 1311         msg[4 + rptmac->datalen + PKT_HEAD_LEN + 1] = DEFAULTFCS;
// 1312 #endif
// 1313         HalUARTWrite( 0, msg, rptmac->datalen + PKT_HEAD_LEN + 1 + 3 + 2 ); //0xfe+fcs  2B
??CrossCallReturnLabel_4:
        ADD     A,#0xf
        MOV     R4,A
        CLR     A
        ADDC    A,#0x0
        MOV     R5,A
        MOV     A,#0x1
        LCALL   ?XSTACK_DISP101_8
        MOV     R1,#0x0
        LCALL   `??HalUARTWrite::?relay`; Banked call to: HalUARTWrite
// 1314 	 osal_msg_deallocate((uint8 *) rptmac );
        ; Setup parameters for call to function osal_msg_deallocate
        MOV     A,R6
        MOV     R2,A
        MOV     A,R7
        MOV     R3,A
        LCALL   `??osal_msg_deallocate::?relay`; Banked call to: osal_msg_deallocate
// 1315 	 
// 1316     }
// 1317 
// 1318 }
??CustomApp_node_register_ind_0:
        MOV     A,#0x1a
        LCALL   ?DEALLOC_XSTACK8
          CFI EndBlock cfiBlock95
        REQUIRE ?Subroutine5
        ; // Fall through to label ?Subroutine5

        RSEG BANKED_CODE:CODE:NOROOT(0)
?Subroutine5:
          CFI Block cfiBlock96 Using cfiCommon0
          CFI NoFunction
          CFI CFA_SP SP+0
          CFI CFA_XSP16 add(XSP16, 16)
          CFI VB load(1, XDATA, add(CFA_XSP16, literal(-15)))
          CFI DPL0 load(1, XDATA, add(CFA_XSP16, literal(-2)))
          CFI DPH0 load(1, XDATA, add(CFA_XSP16, literal(-1)))
          CFI R6 load(1, XDATA, add(CFA_XSP16, literal(-16)))
          CFI R7 load(1, XDATA, add(CFA_XSP16, literal(-6)))
          CFI V0 load(1, XDATA, add(CFA_XSP16, literal(-14)))
          CFI V1 load(1, XDATA, add(CFA_XSP16, literal(-13)))
          CFI V2 load(1, XDATA, add(CFA_XSP16, literal(-12)))
          CFI V3 load(1, XDATA, add(CFA_XSP16, literal(-11)))
          CFI V4 load(1, XDATA, add(CFA_XSP16, literal(-10)))
          CFI V5 load(1, XDATA, add(CFA_XSP16, literal(-9)))
          CFI V6 load(1, XDATA, add(CFA_XSP16, literal(-8)))
          CFI V7 load(1, XDATA, add(CFA_XSP16, literal(-7)))
          CFI ?BRET_EXT load(1, XDATA, add(CFA_XSP16, literal(-3)))
          CFI ?RET_HIGH load(1, XDATA, add(CFA_XSP16, literal(-4)))
          CFI ?RET_LOW load(1, XDATA, add(CFA_XSP16, literal(-5)))
        MOV     R7,#0x8
        LJMP    ?BANKED_LEAVE_XDATA
          CFI EndBlock cfiBlock96

        RSEG BANKED_CODE:CODE:NOROOT(0)
?Subroutine42:
          CFI Block cfiCond97 Using cfiCommon0
          CFI Function CustomApp_NodeDelete
          CFI Conditional ??CrossCallReturnLabel_72, ??CrossCallReturnLabel_41
          CFI R6 load(1, XDATA, add(CFA_XSP16, literal(-9)))
          CFI VB load(1, XDATA, add(CFA_XSP16, literal(-8)))
          CFI V0 load(1, XDATA, add(CFA_XSP16, literal(-7)))
          CFI R7 load(1, XDATA, add(CFA_XSP16, literal(-6)))
          CFI ?RET_LOW load(1, XDATA, add(CFA_XSP16, literal(-5)))
          CFI ?RET_HIGH load(1, XDATA, add(CFA_XSP16, literal(-4)))
          CFI ?BRET_EXT load(1, XDATA, add(CFA_XSP16, literal(-3)))
          CFI DPL0 load(1, XDATA, add(CFA_XSP16, literal(-2)))
          CFI DPH0 load(1, XDATA, add(CFA_XSP16, literal(-1)))
          CFI CFA_SP SP+-4
          CFI CFA_XSP16 add(XSP16, 9)
          CFI Block cfiCond98 Using cfiCommon0
          CFI (cfiCond98) Function CustomApp_NodeDelete
          CFI (cfiCond98) Conditional ??CrossCallReturnLabel_72, ??CrossCallReturnLabel_42
          CFI (cfiCond98) R6 load(1, XDATA, add(CFA_XSP16, literal(-9)))
          CFI (cfiCond98) VB load(1, XDATA, add(CFA_XSP16, literal(-8)))
          CFI (cfiCond98) V0 load(1, XDATA, add(CFA_XSP16, literal(-7)))
          CFI (cfiCond98) R7 load(1, XDATA, add(CFA_XSP16, literal(-6)))
          CFI (cfiCond98) ?RET_LOW load(1, XDATA, add(CFA_XSP16, literal(-5)))
          CFI (cfiCond98) ?RET_HIGH load(1, XDATA, add(CFA_XSP16, literal(-4)))
          CFI (cfiCond98) ?BRET_EXT load(1, XDATA, add(CFA_XSP16, literal(-3)))
          CFI (cfiCond98) DPL0 load(1, XDATA, add(CFA_XSP16, literal(-2)))
          CFI (cfiCond98) DPH0 load(1, XDATA, add(CFA_XSP16, literal(-1)))
          CFI (cfiCond98) CFA_SP SP+-4
          CFI (cfiCond98) CFA_XSP16 add(XSP16, 9)
          CFI Block cfiCond99 Using cfiCommon0
          CFI (cfiCond99) Function CustomApp_NodeFindNwkAddrList
          CFI (cfiCond99) Conditional ??CrossCallReturnLabel_72, ??CrossCallReturnLabel_43
          CFI (cfiCond99) DPL0 Frame(CFA_SP, 4)
          CFI (cfiCond99) DPH0 Frame(CFA_SP, 5)
          CFI (cfiCond99) CFA_SP SP+-9
          CFI Block cfiCond100 Using cfiCommon0
          CFI (cfiCond100) Function CustomApp_node_register_ind
          CFI (cfiCond100) Conditional ??CrossCallReturnLabel_71
          CFI (cfiCond100) R6 load(1, XDATA, add(CFA_XSP16, literal(-16)))
          CFI (cfiCond100) VB load(1, XDATA, add(CFA_XSP16, literal(-15)))
          CFI (cfiCond100) V0 load(1, XDATA, add(CFA_XSP16, literal(-14)))
          CFI (cfiCond100) V1 load(1, XDATA, add(CFA_XSP16, literal(-13)))
          CFI (cfiCond100) V2 load(1, XDATA, add(CFA_XSP16, literal(-12)))
          CFI (cfiCond100) V3 load(1, XDATA, add(CFA_XSP16, literal(-11)))
          CFI (cfiCond100) V4 load(1, XDATA, add(CFA_XSP16, literal(-10)))
          CFI (cfiCond100) V5 load(1, XDATA, add(CFA_XSP16, literal(-9)))
          CFI (cfiCond100) V6 load(1, XDATA, add(CFA_XSP16, literal(-8)))
          CFI (cfiCond100) V7 load(1, XDATA, add(CFA_XSP16, literal(-7)))
          CFI (cfiCond100) R7 load(1, XDATA, add(CFA_XSP16, literal(-6)))
          CFI (cfiCond100) ?RET_LOW load(1, XDATA, add(CFA_XSP16, literal(-5)))
          CFI (cfiCond100) ?RET_HIGH load(1, XDATA, add(CFA_XSP16, literal(-4)))
          CFI (cfiCond100) ?BRET_EXT load(1, XDATA, add(CFA_XSP16, literal(-3)))
          CFI (cfiCond100) DPL0 load(1, XDATA, add(CFA_XSP16, literal(-2)))
          CFI (cfiCond100) DPH0 load(1, XDATA, add(CFA_XSP16, literal(-1)))
          CFI (cfiCond100) CFA_XSP16 add(XSP16, 42)
          CFI Block cfiPicker101 Using cfiCommon1
          CFI (cfiPicker101) NoFunction
          CFI (cfiPicker101) Picker
        MOV     A,R0
        ADD     A,#0xe
        MOV     DPL,A
        CLR     A
        ADDC    A,R1
        MOV     DPH,A
        RET
          CFI EndBlock cfiCond97
          CFI EndBlock cfiCond98
          CFI EndBlock cfiCond99
          CFI EndBlock cfiCond100
          CFI EndBlock cfiPicker101

        RSEG BANKED_CODE:CODE:NOROOT(0)
?Subroutine15:
          CFI Block cfiCond102 Using cfiCommon0
          CFI Function GenericApp_ProcessZDOMsgs
          CFI Conditional ??CrossCallReturnLabel_13
          CFI R6 load(1, XDATA, add(CFA_XSP16, literal(-15)))
          CFI VB load(1, XDATA, add(CFA_XSP16, literal(-14)))
          CFI V0 load(1, XDATA, add(CFA_XSP16, literal(-13)))
          CFI V1 load(1, XDATA, add(CFA_XSP16, literal(-12)))
          CFI V2 load(1, XDATA, add(CFA_XSP16, literal(-11)))
          CFI V3 load(1, XDATA, add(CFA_XSP16, literal(-10)))
          CFI V4 load(1, XDATA, add(CFA_XSP16, literal(-9)))
          CFI V5 load(1, XDATA, add(CFA_XSP16, literal(-8)))
          CFI V6 load(1, XDATA, add(CFA_XSP16, literal(-7)))
          CFI R7 load(1, XDATA, add(CFA_XSP16, literal(-6)))
          CFI ?RET_LOW load(1, XDATA, add(CFA_XSP16, literal(-5)))
          CFI ?RET_HIGH load(1, XDATA, add(CFA_XSP16, literal(-4)))
          CFI ?BRET_EXT load(1, XDATA, add(CFA_XSP16, literal(-3)))
          CFI DPL0 load(1, XDATA, add(CFA_XSP16, literal(-2)))
          CFI DPH0 load(1, XDATA, add(CFA_XSP16, literal(-1)))
          CFI CFA_SP SP+-2
          CFI CFA_XSP16 add(XSP16, 39)
          CFI Block cfiCond103 Using cfiCommon0
          CFI (cfiCond103) Function CustomApp_NodeRegister
          CFI (cfiCond103) Conditional ??CrossCallReturnLabel_14
          CFI (cfiCond103) R6 load(1, XDATA, add(CFA_XSP16, literal(-10)))
          CFI (cfiCond103) VB load(1, XDATA, add(CFA_XSP16, literal(-9)))
          CFI (cfiCond103) V0 load(1, XDATA, add(CFA_XSP16, literal(-8)))
          CFI (cfiCond103) V1 load(1, XDATA, add(CFA_XSP16, literal(-7)))
          CFI (cfiCond103) R7 load(1, XDATA, add(CFA_XSP16, literal(-6)))
          CFI (cfiCond103) ?RET_LOW load(1, XDATA, add(CFA_XSP16, literal(-5)))
          CFI (cfiCond103) ?RET_HIGH load(1, XDATA, add(CFA_XSP16, literal(-4)))
          CFI (cfiCond103) ?BRET_EXT load(1, XDATA, add(CFA_XSP16, literal(-3)))
          CFI (cfiCond103) DPL0 load(1, XDATA, add(CFA_XSP16, literal(-2)))
          CFI (cfiCond103) DPH0 load(1, XDATA, add(CFA_XSP16, literal(-1)))
          CFI (cfiCond103) CFA_SP SP+-2
          CFI (cfiCond103) CFA_XSP16 add(XSP16, 10)
          CFI Block cfiCond104 Using cfiCommon0
          CFI (cfiCond104) Function CustomApp_node_register_ind
          CFI (cfiCond104) Conditional ??CrossCallReturnLabel_15
          CFI (cfiCond104) R6 load(1, XDATA, add(CFA_XSP16, literal(-16)))
          CFI (cfiCond104) VB load(1, XDATA, add(CFA_XSP16, literal(-15)))
          CFI (cfiCond104) V0 load(1, XDATA, add(CFA_XSP16, literal(-14)))
          CFI (cfiCond104) V1 load(1, XDATA, add(CFA_XSP16, literal(-13)))
          CFI (cfiCond104) V2 load(1, XDATA, add(CFA_XSP16, literal(-12)))
          CFI (cfiCond104) V3 load(1, XDATA, add(CFA_XSP16, literal(-11)))
          CFI (cfiCond104) V4 load(1, XDATA, add(CFA_XSP16, literal(-10)))
          CFI (cfiCond104) V5 load(1, XDATA, add(CFA_XSP16, literal(-9)))
          CFI (cfiCond104) V6 load(1, XDATA, add(CFA_XSP16, literal(-8)))
          CFI (cfiCond104) V7 load(1, XDATA, add(CFA_XSP16, literal(-7)))
          CFI (cfiCond104) R7 load(1, XDATA, add(CFA_XSP16, literal(-6)))
          CFI (cfiCond104) ?RET_LOW load(1, XDATA, add(CFA_XSP16, literal(-5)))
          CFI (cfiCond104) ?RET_HIGH load(1, XDATA, add(CFA_XSP16, literal(-4)))
          CFI (cfiCond104) ?BRET_EXT load(1, XDATA, add(CFA_XSP16, literal(-3)))
          CFI (cfiCond104) DPL0 load(1, XDATA, add(CFA_XSP16, literal(-2)))
          CFI (cfiCond104) DPH0 load(1, XDATA, add(CFA_XSP16, literal(-1)))
          CFI (cfiCond104) CFA_SP SP+-2
          CFI (cfiCond104) CFA_XSP16 add(XSP16, 42)
          CFI Block cfiCond105 Using cfiCommon0
          CFI (cfiCond105) Function CustomApp_send_ping_req
          CFI (cfiCond105) Conditional ??CrossCallReturnLabel_16
          CFI (cfiCond105) R6 load(1, XDATA, add(CFA_XSP16, literal(-14)))
          CFI (cfiCond105) VB load(1, XDATA, add(CFA_XSP16, literal(-13)))
          CFI (cfiCond105) V0 load(1, XDATA, add(CFA_XSP16, literal(-12)))
          CFI (cfiCond105) V1 load(1, XDATA, add(CFA_XSP16, literal(-11)))
          CFI (cfiCond105) V2 load(1, XDATA, add(CFA_XSP16, literal(-10)))
          CFI (cfiCond105) V3 load(1, XDATA, add(CFA_XSP16, literal(-9)))
          CFI (cfiCond105) V4 load(1, XDATA, add(CFA_XSP16, literal(-8)))
          CFI (cfiCond105) V5 load(1, XDATA, add(CFA_XSP16, literal(-7)))
          CFI (cfiCond105) R7 load(1, XDATA, add(CFA_XSP16, literal(-6)))
          CFI (cfiCond105) ?RET_LOW load(1, XDATA, add(CFA_XSP16, literal(-5)))
          CFI (cfiCond105) ?RET_HIGH load(1, XDATA, add(CFA_XSP16, literal(-4)))
          CFI (cfiCond105) ?BRET_EXT load(1, XDATA, add(CFA_XSP16, literal(-3)))
          CFI (cfiCond105) DPL0 load(1, XDATA, add(CFA_XSP16, literal(-2)))
          CFI (cfiCond105) DPH0 load(1, XDATA, add(CFA_XSP16, literal(-1)))
          CFI (cfiCond105) CFA_SP SP+-2
          CFI (cfiCond105) CFA_XSP16 add(XSP16, 16)
          CFI Block cfiCond106 Using cfiCommon0
          CFI (cfiCond106) Function GenericApp_Device_JoinRsp
          CFI (cfiCond106) Conditional ??CrossCallReturnLabel_17
          CFI (cfiCond106) R6 load(1, XDATA, add(CFA_XSP16, literal(-19)))
          CFI (cfiCond106) VB load(1, XDATA, add(CFA_XSP16, literal(-18)))
          CFI (cfiCond106) V0 load(1, XDATA, add(CFA_XSP16, literal(-17)))
          CFI (cfiCond106) V1 load(1, XDATA, add(CFA_XSP16, literal(-16)))
          CFI (cfiCond106) V2 load(1, XDATA, add(CFA_XSP16, literal(-15)))
          CFI (cfiCond106) V3 load(1, XDATA, add(CFA_XSP16, literal(-14)))
          CFI (cfiCond106) V4 load(1, XDATA, add(CFA_XSP16, literal(-13)))
          CFI (cfiCond106) V5 load(1, XDATA, add(CFA_XSP16, literal(-12)))
          CFI (cfiCond106) V6 load(1, XDATA, add(CFA_XSP16, literal(-11)))
          CFI (cfiCond106) V7 load(1, XDATA, add(CFA_XSP16, literal(-10)))
          CFI (cfiCond106) V8 load(1, XDATA, add(CFA_XSP16, literal(-9)))
          CFI (cfiCond106) V9 load(1, XDATA, add(CFA_XSP16, literal(-8)))
          CFI (cfiCond106) V10 load(1, XDATA, add(CFA_XSP16, literal(-7)))
          CFI (cfiCond106) R7 load(1, XDATA, add(CFA_XSP16, literal(-6)))
          CFI (cfiCond106) ?RET_LOW load(1, XDATA, add(CFA_XSP16, literal(-5)))
          CFI (cfiCond106) ?RET_HIGH load(1, XDATA, add(CFA_XSP16, literal(-4)))
          CFI (cfiCond106) ?BRET_EXT load(1, XDATA, add(CFA_XSP16, literal(-3)))
          CFI (cfiCond106) DPL0 load(1, XDATA, add(CFA_XSP16, literal(-2)))
          CFI (cfiCond106) DPH0 load(1, XDATA, add(CFA_XSP16, literal(-1)))
          CFI (cfiCond106) CFA_SP SP+-2
          CFI (cfiCond106) CFA_XSP16 add(XSP16, 127)
          CFI Block cfiCond107 Using cfiCommon0
          CFI (cfiCond107) Function GenericApp_Device_JoinRsp
          CFI (cfiCond107) Conditional ??CrossCallReturnLabel_18
          CFI (cfiCond107) R6 load(1, XDATA, add(CFA_XSP16, literal(-19)))
          CFI (cfiCond107) VB load(1, XDATA, add(CFA_XSP16, literal(-18)))
          CFI (cfiCond107) V0 load(1, XDATA, add(CFA_XSP16, literal(-17)))
          CFI (cfiCond107) V1 load(1, XDATA, add(CFA_XSP16, literal(-16)))
          CFI (cfiCond107) V2 load(1, XDATA, add(CFA_XSP16, literal(-15)))
          CFI (cfiCond107) V3 load(1, XDATA, add(CFA_XSP16, literal(-14)))
          CFI (cfiCond107) V4 load(1, XDATA, add(CFA_XSP16, literal(-13)))
          CFI (cfiCond107) V5 load(1, XDATA, add(CFA_XSP16, literal(-12)))
          CFI (cfiCond107) V6 load(1, XDATA, add(CFA_XSP16, literal(-11)))
          CFI (cfiCond107) V7 load(1, XDATA, add(CFA_XSP16, literal(-10)))
          CFI (cfiCond107) V8 load(1, XDATA, add(CFA_XSP16, literal(-9)))
          CFI (cfiCond107) V9 load(1, XDATA, add(CFA_XSP16, literal(-8)))
          CFI (cfiCond107) V10 load(1, XDATA, add(CFA_XSP16, literal(-7)))
          CFI (cfiCond107) R7 load(1, XDATA, add(CFA_XSP16, literal(-6)))
          CFI (cfiCond107) ?RET_LOW load(1, XDATA, add(CFA_XSP16, literal(-5)))
          CFI (cfiCond107) ?RET_HIGH load(1, XDATA, add(CFA_XSP16, literal(-4)))
          CFI (cfiCond107) ?BRET_EXT load(1, XDATA, add(CFA_XSP16, literal(-3)))
          CFI (cfiCond107) DPL0 load(1, XDATA, add(CFA_XSP16, literal(-2)))
          CFI (cfiCond107) DPH0 load(1, XDATA, add(CFA_XSP16, literal(-1)))
          CFI (cfiCond107) CFA_SP SP+-2
          CFI (cfiCond107) CFA_XSP16 add(XSP16, 127)
          CFI Block cfiPicker108 Using cfiCommon1
          CFI (cfiPicker108) NoFunction
          CFI (cfiPicker108) Picker
        MOV     A,R0
        MOVX    @DPTR,A
        INC     DPTR
        MOV     A,R1
        MOVX    @DPTR,A
        RET
          CFI EndBlock cfiCond102
          CFI EndBlock cfiCond103
          CFI EndBlock cfiCond104
          CFI EndBlock cfiCond105
          CFI EndBlock cfiCond106
          CFI EndBlock cfiCond107
          CFI EndBlock cfiPicker108

        RSEG BANKED_CODE:CODE:NOROOT(0)
?Subroutine8:
          CFI Block cfiCond109 Using cfiCommon0
          CFI Function CustomApp_node_register_ind
          CFI Conditional ??CrossCallReturnLabel_2
          CFI R6 load(1, XDATA, add(CFA_XSP16, literal(-16)))
          CFI VB load(1, XDATA, add(CFA_XSP16, literal(-15)))
          CFI V0 load(1, XDATA, add(CFA_XSP16, literal(-14)))
          CFI V1 load(1, XDATA, add(CFA_XSP16, literal(-13)))
          CFI V2 load(1, XDATA, add(CFA_XSP16, literal(-12)))
          CFI V3 load(1, XDATA, add(CFA_XSP16, literal(-11)))
          CFI V4 load(1, XDATA, add(CFA_XSP16, literal(-10)))
          CFI V5 load(1, XDATA, add(CFA_XSP16, literal(-9)))
          CFI V6 load(1, XDATA, add(CFA_XSP16, literal(-8)))
          CFI V7 load(1, XDATA, add(CFA_XSP16, literal(-7)))
          CFI R7 load(1, XDATA, add(CFA_XSP16, literal(-6)))
          CFI ?RET_LOW load(1, XDATA, add(CFA_XSP16, literal(-5)))
          CFI ?RET_HIGH load(1, XDATA, add(CFA_XSP16, literal(-4)))
          CFI ?BRET_EXT load(1, XDATA, add(CFA_XSP16, literal(-3)))
          CFI DPL0 load(1, XDATA, add(CFA_XSP16, literal(-2)))
          CFI DPH0 load(1, XDATA, add(CFA_XSP16, literal(-1)))
          CFI CFA_SP SP+-2
          CFI CFA_XSP16 add(XSP16, 42)
          CFI Block cfiCond110 Using cfiCommon0
          CFI (cfiCond110) Function CustomApp_node_register_ind
          CFI (cfiCond110) Conditional ??CrossCallReturnLabel_3
          CFI (cfiCond110) R6 load(1, XDATA, add(CFA_XSP16, literal(-16)))
          CFI (cfiCond110) VB load(1, XDATA, add(CFA_XSP16, literal(-15)))
          CFI (cfiCond110) V0 load(1, XDATA, add(CFA_XSP16, literal(-14)))
          CFI (cfiCond110) V1 load(1, XDATA, add(CFA_XSP16, literal(-13)))
          CFI (cfiCond110) V2 load(1, XDATA, add(CFA_XSP16, literal(-12)))
          CFI (cfiCond110) V3 load(1, XDATA, add(CFA_XSP16, literal(-11)))
          CFI (cfiCond110) V4 load(1, XDATA, add(CFA_XSP16, literal(-10)))
          CFI (cfiCond110) V5 load(1, XDATA, add(CFA_XSP16, literal(-9)))
          CFI (cfiCond110) V6 load(1, XDATA, add(CFA_XSP16, literal(-8)))
          CFI (cfiCond110) V7 load(1, XDATA, add(CFA_XSP16, literal(-7)))
          CFI (cfiCond110) R7 load(1, XDATA, add(CFA_XSP16, literal(-6)))
          CFI (cfiCond110) ?RET_LOW load(1, XDATA, add(CFA_XSP16, literal(-5)))
          CFI (cfiCond110) ?RET_HIGH load(1, XDATA, add(CFA_XSP16, literal(-4)))
          CFI (cfiCond110) ?BRET_EXT load(1, XDATA, add(CFA_XSP16, literal(-3)))
          CFI (cfiCond110) DPL0 load(1, XDATA, add(CFA_XSP16, literal(-2)))
          CFI (cfiCond110) DPH0 load(1, XDATA, add(CFA_XSP16, literal(-1)))
          CFI (cfiCond110) CFA_SP SP+-2
          CFI (cfiCond110) CFA_XSP16 add(XSP16, 42)
          CFI Block cfiCond111 Using cfiCommon0
          CFI (cfiCond111) Function CustomApp_node_register_ind
          CFI (cfiCond111) Conditional ??CrossCallReturnLabel_4
          CFI (cfiCond111) R6 load(1, XDATA, add(CFA_XSP16, literal(-16)))
          CFI (cfiCond111) VB load(1, XDATA, add(CFA_XSP16, literal(-15)))
          CFI (cfiCond111) V0 load(1, XDATA, add(CFA_XSP16, literal(-14)))
          CFI (cfiCond111) V1 load(1, XDATA, add(CFA_XSP16, literal(-13)))
          CFI (cfiCond111) V2 load(1, XDATA, add(CFA_XSP16, literal(-12)))
          CFI (cfiCond111) V3 load(1, XDATA, add(CFA_XSP16, literal(-11)))
          CFI (cfiCond111) V4 load(1, XDATA, add(CFA_XSP16, literal(-10)))
          CFI (cfiCond111) V5 load(1, XDATA, add(CFA_XSP16, literal(-9)))
          CFI (cfiCond111) V6 load(1, XDATA, add(CFA_XSP16, literal(-8)))
          CFI (cfiCond111) V7 load(1, XDATA, add(CFA_XSP16, literal(-7)))
          CFI (cfiCond111) R7 load(1, XDATA, add(CFA_XSP16, literal(-6)))
          CFI (cfiCond111) ?RET_LOW load(1, XDATA, add(CFA_XSP16, literal(-5)))
          CFI (cfiCond111) ?RET_HIGH load(1, XDATA, add(CFA_XSP16, literal(-4)))
          CFI (cfiCond111) ?BRET_EXT load(1, XDATA, add(CFA_XSP16, literal(-3)))
          CFI (cfiCond111) DPL0 load(1, XDATA, add(CFA_XSP16, literal(-2)))
          CFI (cfiCond111) DPH0 load(1, XDATA, add(CFA_XSP16, literal(-1)))
          CFI (cfiCond111) CFA_SP SP+-2
          CFI (cfiCond111) CFA_XSP16 add(XSP16, 42)
          CFI Block cfiPicker112 Using cfiCommon1
          CFI (cfiPicker112) NoFunction
          CFI (cfiPicker112) Picker
        MOVX    @DPTR,A
        ; Setup parameters for call to function MT_UartCalcFCS
        ; Setup parameters for call to function HalUARTWrite
        MOV     DPL,?V0
        MOV     DPH,?V1
        MOVX    A,@DPTR
        RET
          CFI EndBlock cfiCond109
          CFI EndBlock cfiCond110
          CFI EndBlock cfiCond111
          CFI EndBlock cfiPicker112
// 1319 
// 1320 
// 1321 #if 0
// 1322 void CustomApp_node_deregister_ind(afAddrType_t addr64, afAddrType_t addr16)
// 1323 {
// 1324     uint8 msg[25];
// 1325     transferpkt_t *rptmac;
// 1326     uint8 fcs;
// 1327 	
// 1328     rptmac = (transferpkt_t *)osal_msg_allocate( sizeof (transferpkt_t) +  PKT_HEAD_LEN + 8 + 1); 
// 1329     if (rptmac != NULL)
// 1330     {
// 1331         rptmac->msgid = REPORT_RPTMAC_MSG; 
// 1332         rptmac->msgseq = 0x0001;
// 1333         rptmac->srcid = 0x0000;
// 1334         osal_memcpy(&rptmac->destid, &addr16.addr.shortAddr, 2);
// 1335         rptmac->datalen = 8;
// 1336 
// 1337 	 rptmac->data = (uint8 *)(rptmac + 1);
// 1338 	 osal_memcpy(&rptmac->data, &addr64.addr.extAddr, 8);
// 1339 	 fcs = MT_UartCalcFCS((uint8 *)rptmac, rptmac->datalen + PKT_HEAD_LEN); 
// 1340    
// 1341         msg[0] = MT_CPT_SOP;
// 1342         msg[1] = rptmac->datalen + PKT_HEAD_LEN + 1 ;  //rptmac17 + fcs1 
// 1343         msg[2] = MT_NODE_DEREG_IND & 0xff;
// 1344         msg[3] = (MT_NODE_DEREG_IND & 0xff00) >> 8;
// 1345 
// 1346         osal_memcpy(&msg[4], (uint8 *)rptmac, PKT_HEAD_LEN);
// 1347         osal_memcpy(&msg[4 + PKT_HEAD_LEN], &rptmac->data, rptmac->datalen);
// 1348         msg[4 + rptmac->datalen + PKT_HEAD_LEN] = fcs;
// 1349 
// 1350 #ifdef OPEN_FCS 			
// 1351 	 msg[4 + rptmac->datalen + PKT_HEAD_LEN + 1] = MT_UartCalcFCS(&msg[1], rptmac->datalen + PKT_HEAD_LEN + 1 + 3); //rptmac17 + fcs1 + cmd2 + len1
// 1352 #else  
// 1353         msg[4 + rptmac->datalen + PKT_HEAD_LEN + 1] = DEFAULTFCS;
// 1354 #endif
// 1355         HalUARTWrite( 0, msg, rptmac->datalen + PKT_HEAD_LEN + 1 + 3 + 2 ); //0xfe+fcs  2B
// 1356 	 osal_msg_deallocate((uint8 *) rptmac );
// 1357 	 
// 1358     }
// 1359 
// 1360 }
// 1361 #else
// 1362 

        RSEG BANKED_CODE:CODE:NOROOT(0)
// 1363 void CustomApp_node_deregister_ind(afAddrType_t addr64, afAddrType_t addr16)
CustomApp_node_deregister_ind:
          CFI Block cfiBlock113 Using cfiCommon0
          CFI Function CustomApp_node_deregister_ind
        CODE
// 1364 {
        FUNCALL CustomApp_node_deregister_ind, osal_memcpy
        LOCFRAME ISTACK, 0, STACK
        LOCFRAME PSTACK, 0, STACK
        LOCFRAME XSTACK, 27, STACK
        LOCFRAME IOVERLAY, 0, STATIC
        LOCFRAME DOVERLAY, 0, STATIC
        ARGFRAME ISTACK, 0, STACK
        ARGFRAME PSTACK, 0, STACK
        ARGFRAME XSTACK, 27, STACK
        ARGFRAME IOVERLAY, 0, STATIC
        ARGFRAME DOVERLAY, 0, STATIC
        FUNCALL CustomApp_node_deregister_ind, MT_UartCalcFCS
        LOCFRAME ISTACK, 0, STACK
        LOCFRAME PSTACK, 0, STACK
        LOCFRAME XSTACK, 24, STACK
        LOCFRAME IOVERLAY, 0, STATIC
        LOCFRAME DOVERLAY, 0, STATIC
        ARGFRAME ISTACK, 0, STACK
        ARGFRAME PSTACK, 0, STACK
        ARGFRAME XSTACK, 24, STACK
        ARGFRAME IOVERLAY, 0, STATIC
        ARGFRAME DOVERLAY, 0, STATIC
        FUNCALL CustomApp_node_deregister_ind, HalUARTWrite
        LOCFRAME ISTACK, 0, STACK
        LOCFRAME PSTACK, 0, STACK
        LOCFRAME XSTACK, 24, STACK
        LOCFRAME IOVERLAY, 0, STATIC
        LOCFRAME DOVERLAY, 0, STATIC
        ARGFRAME ISTACK, 0, STACK
        ARGFRAME PSTACK, 0, STACK
        ARGFRAME XSTACK, 24, STACK
        ARGFRAME IOVERLAY, 0, STATIC
        ARGFRAME DOVERLAY, 0, STATIC
        REQUIRE ?V0
        REQUIRE ?V1
        REQUIRE ?V2
        MOV     A,#-0xb
        LCALL   ?BANKED_ENTER_XDATA
          CFI DPH0 load(1, XDATA, add(CFA_XSP16, literal(-1)))
          CFI DPL0 load(1, XDATA, add(CFA_XSP16, literal(-2)))
          CFI ?BRET_EXT load(1, XDATA, add(CFA_XSP16, literal(-3)))
          CFI ?RET_HIGH load(1, XDATA, add(CFA_XSP16, literal(-4)))
          CFI ?RET_LOW load(1, XDATA, add(CFA_XSP16, literal(-5)))
          CFI R7 load(1, XDATA, add(CFA_XSP16, literal(-6)))
          CFI V2 load(1, XDATA, add(CFA_XSP16, literal(-7)))
          CFI V1 load(1, XDATA, add(CFA_XSP16, literal(-8)))
          CFI V0 load(1, XDATA, add(CFA_XSP16, literal(-9)))
          CFI VB load(1, XDATA, add(CFA_XSP16, literal(-10)))
          CFI R6 load(1, XDATA, add(CFA_XSP16, literal(-11)))
          CFI CFA_SP SP+0
          CFI CFA_XSP16 add(XSP16, 11)
        ; Saved register size: 11
        ; Auto size: 13
        MOV     A,#-0xd
        LCALL   ?ALLOC_XSTACK8
          CFI CFA_XSP16 add(XSP16, 24)
// 1365         uint8 msg[13];
// 1366 		
// 1367         msg[0] = MT_CPT_SOP;
        MOV     DPL,?XSP + 0
        MOV     DPH,?XSP + 1
        MOV     A,#-0x2
        MOVX    @DPTR,A
// 1368         msg[1] = Z_EXTADDR_LEN ;  
        MOV     A,#0x1
        LCALL   ?XSTACK_DISP0_8
        MOV     A,#0x8
        MOVX    @DPTR,A
// 1369         msg[2] = MT_NODE_DEREG_IND & 0xff;
        MOV     A,#0x2
        LCALL   ?XSTACK_DISP0_8
        MOV     A,#-0x80
        MOVX    @DPTR,A
// 1370         msg[3] = (MT_NODE_DEREG_IND & 0xff00) >> 8;
        MOV     A,#0x3
        LCALL   ?XSTACK_DISP0_8
        MOV     A,#0x19
        MOVX    @DPTR,A
// 1371 		
// 1372         osal_memcpy(&msg[4], &addr64.addr.extAddr, Z_EXTADDR_LEN);
        ; Setup parameters for call to function osal_memcpy
        DEC     A
        LCALL   ?XSTACK_DISP100_8
        MOV     ?V0,R0
        MOV     ?V1,R1
        MOV     ?V2,#0x0
        MOV     R0,#?V0
        LCALL   ?PUSH_XSTACK_I_THREE
          CFI CFA_XSP16 add(XSP16, 27)
        MOV     R4,#0x8
        MOV     R5,#0x0
        MOV     A,#0x7
        LCALL   ?XSTACK_DISP0_8
        MOV     R2,DPL
        MOV     R3,DPH
        LCALL   `??osal_memcpy::?relay`; Banked call to: osal_memcpy
        MOV     A,#0x3
        LCALL   ?DEALLOC_XSTACK8
          CFI CFA_XSP16 add(XSP16, 24)
// 1373 	 msg[4 + Z_EXTADDR_LEN] = MT_UartCalcFCS( &msg[1], MT_UART_HEAD_LEN + Z_EXTADDR_LEN );
        ; Setup parameters for call to function MT_UartCalcFCS
        MOV     R1,#0xb
        MOV     A,#0x1
        LCALL   ?XSTACK_DISP0_8
        MOV     R2,DPL
        MOV     R3,DPH
        LCALL   `??MT_UartCalcFCS::?relay`; Banked call to: MT_UartCalcFCS
        MOV     A,#0xc
        LCALL   ?XSTACK_DISP0_8
        LCALL   ?Subroutine10 & 0xFFFF
// 1374 
// 1375         HalUARTWrite( 0, msg, MT_UART_HEAD_LEN + Z_EXTADDR_LEN + 2 );
??CrossCallReturnLabel_8:
        LCALL   `??HalUARTWrite::?relay`; Banked call to: HalUARTWrite
// 1376 }
        MOV     A,#0xd
        LCALL   ?DEALLOC_XSTACK8
          CFI CFA_XSP16 add(XSP16, 11)
        MOV     R7,#0x3
        LJMP    ?BANKED_LEAVE_XDATA
          CFI EndBlock cfiBlock113

        RSEG BANKED_CODE:CODE:NOROOT(0)
?Subroutine10:
          CFI Block cfiCond114 Using cfiCommon0
          CFI Function CustomApp_zigbee_start_ind
          CFI Conditional ??CrossCallReturnLabel_7
          CFI R6 load(1, XDATA, add(CFA_XSP16, literal(-12)))
          CFI VB load(1, XDATA, add(CFA_XSP16, literal(-11)))
          CFI V0 load(1, XDATA, add(CFA_XSP16, literal(-10)))
          CFI V1 load(1, XDATA, add(CFA_XSP16, literal(-9)))
          CFI V2 load(1, XDATA, add(CFA_XSP16, literal(-8)))
          CFI V3 load(1, XDATA, add(CFA_XSP16, literal(-7)))
          CFI R7 load(1, XDATA, add(CFA_XSP16, literal(-6)))
          CFI ?RET_LOW load(1, XDATA, add(CFA_XSP16, literal(-5)))
          CFI ?RET_HIGH load(1, XDATA, add(CFA_XSP16, literal(-4)))
          CFI ?BRET_EXT load(1, XDATA, add(CFA_XSP16, literal(-3)))
          CFI DPL0 load(1, XDATA, add(CFA_XSP16, literal(-2)))
          CFI DPH0 load(1, XDATA, add(CFA_XSP16, literal(-1)))
          CFI CFA_SP SP+-2
          CFI CFA_XSP16 add(XSP16, 25)
          CFI Block cfiCond115 Using cfiCommon0
          CFI (cfiCond115) Function CustomApp_node_deregister_ind
          CFI (cfiCond115) Conditional ??CrossCallReturnLabel_8
          CFI (cfiCond115) R6 load(1, XDATA, add(CFA_XSP16, literal(-11)))
          CFI (cfiCond115) VB load(1, XDATA, add(CFA_XSP16, literal(-10)))
          CFI (cfiCond115) V0 load(1, XDATA, add(CFA_XSP16, literal(-9)))
          CFI (cfiCond115) V1 load(1, XDATA, add(CFA_XSP16, literal(-8)))
          CFI (cfiCond115) V2 load(1, XDATA, add(CFA_XSP16, literal(-7)))
          CFI (cfiCond115) R7 load(1, XDATA, add(CFA_XSP16, literal(-6)))
          CFI (cfiCond115) ?RET_LOW load(1, XDATA, add(CFA_XSP16, literal(-5)))
          CFI (cfiCond115) ?RET_HIGH load(1, XDATA, add(CFA_XSP16, literal(-4)))
          CFI (cfiCond115) ?BRET_EXT load(1, XDATA, add(CFA_XSP16, literal(-3)))
          CFI (cfiCond115) DPL0 load(1, XDATA, add(CFA_XSP16, literal(-2)))
          CFI (cfiCond115) DPH0 load(1, XDATA, add(CFA_XSP16, literal(-1)))
          CFI (cfiCond115) CFA_SP SP+-2
          CFI (cfiCond115) CFA_XSP16 add(XSP16, 24)
          CFI Block cfiPicker116 Using cfiCommon1
          CFI (cfiPicker116) NoFunction
          CFI (cfiPicker116) Picker
        MOV     A,R1
        MOVX    @DPTR,A
        ; Setup parameters for call to function HalUARTWrite
        ; Setup parameters for call to function HalUARTWrite
        MOV     R4,#0xd
        MOV     R5,#0x0
        MOV     R2,?XSP + 0
        MOV     R3,?XSP + 1
        MOV     R1,#0x0
        RET
          CFI EndBlock cfiCond114
          CFI EndBlock cfiCond115
          CFI EndBlock cfiPicker116
// 1377 
// 1378 #endif
// 1379 
// 1380 
// 1381 uint8 cnt=0;

        RSEG BANKED_CODE:CODE:NOROOT(0)
// 1382 void CustomApp_send_ping_req ( void )  
CustomApp_send_ping_req:
          CFI Block cfiBlock117 Using cfiCommon0
          CFI Function CustomApp_send_ping_req
        CODE
// 1383 {
        FUNCALL CustomApp_send_ping_req, osal_msg_allocate
        LOCFRAME ISTACK, 0, STACK
        LOCFRAME PSTACK, 0, STACK
        LOCFRAME XSTACK, 16, STACK
        LOCFRAME IOVERLAY, 0, STATIC
        LOCFRAME DOVERLAY, 0, STATIC
        ARGFRAME ISTACK, 0, STACK
        ARGFRAME PSTACK, 0, STACK
        ARGFRAME XSTACK, 16, STACK
        ARGFRAME IOVERLAY, 0, STATIC
        ARGFRAME DOVERLAY, 0, STATIC
        FUNCALL CustomApp_send_ping_req, osal_memset
        LOCFRAME ISTACK, 0, STACK
        LOCFRAME PSTACK, 0, STACK
        LOCFRAME XSTACK, 16, STACK
        LOCFRAME IOVERLAY, 0, STATIC
        LOCFRAME DOVERLAY, 0, STATIC
        ARGFRAME ISTACK, 0, STACK
        ARGFRAME PSTACK, 0, STACK
        ARGFRAME XSTACK, 16, STACK
        ARGFRAME IOVERLAY, 0, STATIC
        ARGFRAME DOVERLAY, 0, STATIC
        FUNCALL CustomApp_send_ping_req, NLME_GetShortAddr
        LOCFRAME ISTACK, 0, STACK
        LOCFRAME PSTACK, 0, STACK
        LOCFRAME XSTACK, 16, STACK
        LOCFRAME IOVERLAY, 0, STATIC
        LOCFRAME DOVERLAY, 0, STATIC
        ARGFRAME ISTACK, 0, STACK
        ARGFRAME PSTACK, 0, STACK
        ARGFRAME XSTACK, 16, STACK
        ARGFRAME IOVERLAY, 0, STATIC
        ARGFRAME DOVERLAY, 0, STATIC
        FUNCALL CustomApp_send_ping_req, NLME_GetExtAddr
        LOCFRAME ISTACK, 0, STACK
        LOCFRAME PSTACK, 0, STACK
        LOCFRAME XSTACK, 16, STACK
        LOCFRAME IOVERLAY, 0, STATIC
        LOCFRAME DOVERLAY, 0, STATIC
        ARGFRAME ISTACK, 0, STACK
        ARGFRAME PSTACK, 0, STACK
        ARGFRAME XSTACK, 16, STACK
        ARGFRAME IOVERLAY, 0, STATIC
        ARGFRAME DOVERLAY, 0, STATIC
        FUNCALL CustomApp_send_ping_req, osal_memcpy
        LOCFRAME ISTACK, 0, STACK
        LOCFRAME PSTACK, 0, STACK
        LOCFRAME XSTACK, 19, STACK
        LOCFRAME IOVERLAY, 0, STATIC
        LOCFRAME DOVERLAY, 0, STATIC
        ARGFRAME ISTACK, 0, STACK
        ARGFRAME PSTACK, 0, STACK
        ARGFRAME XSTACK, 19, STACK
        ARGFRAME IOVERLAY, 0, STATIC
        ARGFRAME DOVERLAY, 0, STATIC
        FUNCALL CustomApp_send_ping_req, osal_getClock
        LOCFRAME ISTACK, 0, STACK
        LOCFRAME PSTACK, 0, STACK
        LOCFRAME XSTACK, 16, STACK
        LOCFRAME IOVERLAY, 0, STATIC
        LOCFRAME DOVERLAY, 0, STATIC
        ARGFRAME ISTACK, 0, STACK
        ARGFRAME PSTACK, 0, STACK
        ARGFRAME XSTACK, 16, STACK
        ARGFRAME IOVERLAY, 0, STATIC
        ARGFRAME DOVERLAY, 0, STATIC
        FUNCALL CustomApp_send_ping_req, osal_memcpy
        LOCFRAME ISTACK, 0, STACK
        LOCFRAME PSTACK, 0, STACK
        LOCFRAME XSTACK, 19, STACK
        LOCFRAME IOVERLAY, 0, STATIC
        LOCFRAME DOVERLAY, 0, STATIC
        ARGFRAME ISTACK, 0, STACK
        ARGFRAME PSTACK, 0, STACK
        ARGFRAME XSTACK, 19, STACK
        ARGFRAME IOVERLAY, 0, STATIC
        ARGFRAME DOVERLAY, 0, STATIC
        FUNCALL CustomApp_send_ping_req, AF_DataRequest
        LOCFRAME ISTACK, 0, STACK
        LOCFRAME PSTACK, 0, STACK
        LOCFRAME XSTACK, 25, STACK
        LOCFRAME IOVERLAY, 0, STATIC
        LOCFRAME DOVERLAY, 0, STATIC
        ARGFRAME ISTACK, 0, STACK
        ARGFRAME PSTACK, 0, STACK
        ARGFRAME XSTACK, 25, STACK
        ARGFRAME IOVERLAY, 0, STATIC
        ARGFRAME DOVERLAY, 0, STATIC
        FUNCALL CustomApp_send_ping_req, HalLcdWriteStringValue
        LOCFRAME ISTACK, 0, STACK
        LOCFRAME PSTACK, 0, STACK
        LOCFRAME XSTACK, 17, STACK
        LOCFRAME IOVERLAY, 0, STATIC
        LOCFRAME DOVERLAY, 0, STATIC
        ARGFRAME ISTACK, 0, STACK
        ARGFRAME PSTACK, 0, STACK
        ARGFRAME XSTACK, 17, STACK
        ARGFRAME IOVERLAY, 0, STATIC
        ARGFRAME DOVERLAY, 0, STATIC
        FUNCALL CustomApp_send_ping_req, osal_msg_deallocate
        LOCFRAME ISTACK, 0, STACK
        LOCFRAME PSTACK, 0, STACK
        LOCFRAME XSTACK, 16, STACK
        LOCFRAME IOVERLAY, 0, STATIC
        LOCFRAME DOVERLAY, 0, STATIC
        ARGFRAME ISTACK, 0, STACK
        ARGFRAME PSTACK, 0, STACK
        ARGFRAME XSTACK, 16, STACK
        ARGFRAME IOVERLAY, 0, STATIC
        ARGFRAME DOVERLAY, 0, STATIC
        REQUIRE ?V0
        REQUIRE ?V1
        REQUIRE ?V2
        REQUIRE ?V3
        REQUIRE ?V4
        REQUIRE ?V5
        MOV     A,#-0xe
        LCALL   ?BANKED_ENTER_XDATA
          CFI DPH0 load(1, XDATA, add(CFA_XSP16, literal(-1)))
          CFI DPL0 load(1, XDATA, add(CFA_XSP16, literal(-2)))
          CFI ?BRET_EXT load(1, XDATA, add(CFA_XSP16, literal(-3)))
          CFI ?RET_HIGH load(1, XDATA, add(CFA_XSP16, literal(-4)))
          CFI ?RET_LOW load(1, XDATA, add(CFA_XSP16, literal(-5)))
          CFI R7 load(1, XDATA, add(CFA_XSP16, literal(-6)))
          CFI V5 load(1, XDATA, add(CFA_XSP16, literal(-7)))
          CFI V4 load(1, XDATA, add(CFA_XSP16, literal(-8)))
          CFI V3 load(1, XDATA, add(CFA_XSP16, literal(-9)))
          CFI V2 load(1, XDATA, add(CFA_XSP16, literal(-10)))
          CFI V1 load(1, XDATA, add(CFA_XSP16, literal(-11)))
          CFI V0 load(1, XDATA, add(CFA_XSP16, literal(-12)))
          CFI VB load(1, XDATA, add(CFA_XSP16, literal(-13)))
          CFI R6 load(1, XDATA, add(CFA_XSP16, literal(-14)))
          CFI CFA_SP SP+0
          CFI CFA_XSP16 add(XSP16, 14)
        ; Saved register size: 14
        ; Auto size: 2
        MOV     A,#-0x2
        LCALL   ?ALLOC_XSTACK8
          CFI CFA_XSP16 add(XSP16, 16)
// 1384     uint16 parentShortAddr;
// 1385     uint8 len=sizeof(pingpkt_t);
// 1386 
// 1387 #if 0 // chaokw debug
// 1388     uint8 send_buf[13];	
// 1389     uint32 timestamp;
// 1390 #endif //================	
// 1391 
// 1392     pingpkt_t *pkt = (pingpkt_t *)osal_msg_allocate( sizeof(pingpkt_t) );	
        ; Setup parameters for call to function osal_msg_allocate
        MOV     R2,#0x21
        MOV     R3,#0x0
        LCALL   `??osal_msg_allocate::?relay`; Banked call to: osal_msg_allocate
        MOV     ?V4,R2
        MOV     ?V5,R3
// 1393     osal_memset(pkt, 0, sizeof(pingpkt_t));
        ; Setup parameters for call to function osal_memset
        MOV     R4,#0x21
        MOV     R5,#0x0
        MOV     R1,#0x0
        LCALL   `??osal_memset::?relay`; Banked call to: osal_memset
// 1394 		
// 1395     if(pkt != NULL)
        MOV     A,?V4
        ORL     A,?V5
        JNZ     $+5
        LJMP    ??CustomApp_send_ping_req_0 & 0xFFFF
// 1396     {
// 1397 		pkt->msgid = PING_REQ_MSG;
        MOV     DPL,?V4
        MOV     DPH,?V5
        MOV     A,#0x3a
        MOVX    @DPTR,A
        INC     DPTR
        MOV     A,#0x10
        MOVX    @DPTR,A
// 1398 		pkt->devAddr16.addr.shortAddr = NLME_GetShortAddr();
        ; Setup parameters for call to function NLME_GetShortAddr
        LCALL   `??NLME_GetShortAddr::?relay`; Banked call to: NLME_GetShortAddr
        MOV     A,?V4
        ADD     A,#0xe
        MOV     DPL,A
        CLR     A
        ADDC    A,?V5
        MOV     DPH,A
        LCALL   ??Subroutine54_0 & 0xFFFF
// 1399 		osal_memcpy(&pkt->devAddr64.addr.extAddr, NLME_GetExtAddr(), Z_EXTADDR_LEN);
??CrossCallReturnLabel_100:
        ; Setup parameters for call to function NLME_GetExtAddr
        LCALL   `??NLME_GetExtAddr::?relay`; Banked call to: NLME_GetExtAddr
        MOV     ?V0,R2
        MOV     ?V1,R3
        ; Setup parameters for call to function osal_memcpy
        MOV     ?V2,#0x0
        MOV     R0,#?V0
        LCALL   ?PUSH_XSTACK_I_THREE
          CFI CFA_XSP16 add(XSP16, 19)
        MOV     R4,#0x8
        MOV     R5,#0x0
        MOV     A,?V4
        ADD     A,#0x2
        MOV     R2,A
        CLR     A
        ADDC    A,?V5
        MOV     R3,A
        LCALL   `??osal_memcpy::?relay`; Banked call to: osal_memcpy
        MOV     A,#0x3
        LCALL   ?DEALLOC_XSTACK8
          CFI CFA_XSP16 add(XSP16, 16)
// 1400 		pkt->timestamp = osal_getClock();
        ; Setup parameters for call to function osal_getClock
        LCALL   `??osal_getClock::?relay`; Banked call to: osal_getClock
        MOV     A,R2
        MOV     R0,A
        MOV     A,R3
        MOV     R1,A
        MOV     A,R4
        MOV     R2,A
        MOV     A,R5
        MOV     R3,A
        MOV     A,?V4
        ADD     A,#0x1c
        MOV     DPL,A
        CLR     A
        ADDC    A,?V5
        MOV     DPH,A
        LCALL   ?XSTORE_R0123
// 1401 
// 1402 		osal_memcpy(&parentShortAddr, &_NIB.nwkCoordAddress, sizeof(uint16));
        ; Setup parameters for call to function osal_memcpy
        MOV     ?V0,#(_NIB + 23) & 0xff
        MOV     ?V1,#((_NIB + 23) >> 8) & 0xff
        MOV     R0,#?V0
        LCALL   ?PUSH_XSTACK_I_THREE
          CFI CFA_XSP16 add(XSP16, 19)
        MOV     R4,#0x2
        MOV     R5,#0x0
        MOV     A,#0x3
        LCALL   ?XSTACK_DISP101_8
        LCALL   `??osal_memcpy::?relay`; Banked call to: osal_memcpy
        MOV     A,#0x3
        LCALL   ?DEALLOC_XSTACK8
          CFI CFA_XSP16 add(XSP16, 16)
// 1403 		pkt->parentaddr = parentShortAddr;
        MOV     DPL,?XSP + 0
        MOV     DPH,?XSP + 1
        LCALL   ?Subroutine26 & 0xFFFF
??CrossCallReturnLabel_36:
        MOV     A,?V4
        LCALL   ??Subroutine55_0 & 0xFFFF
??CrossCallReturnLabel_106:
        ADDC    A,?V5
        MOV     DPH,A
        LCALL   ?Subroutine15 & 0xFFFF
// 1404 
// 1405 		cnt++;
??CrossCallReturnLabel_16:
        MOV     DPTR,#cnt
        MOVX    A,@DPTR
        INC     A
        MOVX    @DPTR,A
// 1406               pkt->seqnum = cnt;
        PUSH    A
          CFI CFA_SP SP+-1
        LCALL   ?Subroutine34 & 0xFFFF
??CrossCallReturnLabel_55:
        POP     A
          CFI CFA_SP SP+0
        MOVX    @DPTR,A
// 1407               if(cnt>254) cnt=2;  //chaokw
        MOV     DPTR,#cnt
        MOVX    A,@DPTR
        CPL     A
        JNZ     ??CustomApp_send_ping_req_1
        MOV     A,#0x2
        MOVX    @DPTR,A
// 1408        
// 1409 		if (afStatus_SUCCESS == AF_DataRequest( &SerialApp_TxAddr_p2p, &GenericApp_epDesc,
// 1410                        GENERICAPP_CMD_P2P_CLUSTERID,
// 1411                        len,   
// 1412                        (byte *)pkt,  
// 1413                        &GenericApp_TransID,
// 1414                        AF_DISCV_ROUTE, AF_DEFAULT_RADIUS ))   //AF_ACK_REQUEST
??CustomApp_send_ping_req_1:
        ; Setup parameters for call to function AF_DataRequest
        MOV     ?V0,#0x1e
        MOV     R0,#?V0
        LCALL   ?PUSH_XSTACK_I_ONE
          CFI CFA_XSP16 add(XSP16, 17)
        MOV     ?V0,#GenericApp_TransID & 0xff
        MOV     ?V1,#(GenericApp_TransID >> 8) & 0xff
        MOV     R0,#?V0
        LCALL   ?PUSH_XSTACK_I_TWO
          CFI CFA_XSP16 add(XSP16, 19)
        MOV     R0,#?V4
        LCALL   ?PUSH_XSTACK_I_TWO
          CFI CFA_XSP16 add(XSP16, 21)
        MOV     ?V0,#0x21
        MOV     ?V1,#0x0
        MOV     R0,#?V0
        LCALL   ?PUSH_XSTACK_I_TWO
          CFI CFA_XSP16 add(XSP16, 23)
        MOV     ?V0,#0x4
        MOV     R0,#?V0
        LCALL   ?PUSH_XSTACK_I_TWO
          CFI CFA_XSP16 add(XSP16, 25)
        MOV     R1,#0x0
        MOV     R4,#GenericApp_epDesc & 0xff
        MOV     R5,#(GenericApp_epDesc >> 8) & 0xff
        MOV     R2,#SerialApp_TxAddr_p2p & 0xff
        MOV     R3,#(SerialApp_TxAddr_p2p >> 8) & 0xff
        LCALL   `??AF_DataRequest::?relay`; Banked call to: AF_DataRequest
        MOV     A,#0x9
        LCALL   ?DEALLOC_XSTACK8
          CFI CFA_XSP16 add(XSP16, 16)
        MOV     A,R1
        JNZ     ??CustomApp_send_ping_req_2
// 1415               {
// 1416 #if defined( LCD_SUPPORTED )              
// 1417                   HalLcdWriteStringValue( (char*)"pingreqSend", pkt->seqnum, 10, HAL_LCD_LINE_3);
        ; Setup parameters for call to function HalLcdWriteStringValue
        MOV     ?V0,#0x5
        MOV     R0,#?V0
        LCALL   ?PUSH_XSTACK_I_ONE
          CFI CFA_XSP16 add(XSP16, 17)
        MOV     R1,#0xa
        LCALL   ?Subroutine34 & 0xFFFF
// 1418 #endif
// 1419               }
??CrossCallReturnLabel_56:
        MOVX    A,@DPTR
        MOV     R4,A
        MOV     R5,#0x0
        MOV     R2,#`?<Constant "pingreqSend">` & 0xff
        MOV     R3,#(`?<Constant "pingreqSend">` >> 8) & 0xff
        LCALL   `??HalLcdWriteStringValue::?relay`; Banked call to: HalLcdWriteStringValue
        MOV     A,#0x1
        LCALL   ?DEALLOC_XSTACK8
          CFI CFA_XSP16 add(XSP16, 16)
// 1420 
// 1421 	       osal_msg_deallocate( (uint8 *)pkt );
??CustomApp_send_ping_req_2:
        ; Setup parameters for call to function osal_msg_deallocate
        MOV     R2,?V4
        MOV     R3,?V5
        LCALL   `??osal_msg_deallocate::?relay`; Banked call to: osal_msg_deallocate
// 1422 
// 1423     }
// 1424 
// 1425 
// 1426 #if 0   //chaokw  debug =================================================           
// 1427 	send_buf[0] = 0xFE;
// 1428 	send_buf[1 + MT_RPC_POS_LEN] = 0x08;
// 1429 	send_buf[1 + MT_RPC_POS_CMD0] = 0x0080 & 0xff;
// 1430 	send_buf[1 + MT_RPC_POS_CMD1] = (0x0080 >> 8) & 0xff;
// 1431 	
// 1432 	osal_memcpy( &send_buf[1 + MT_RPC_POS_DAT0], &pingRspTime, 4 );
// 1433 
// 1434 	timestamp = osal_getClock();
// 1435 	osal_memcpy( &send_buf[1 + MT_RPC_POS_DAT0 + 4], &timestamp, 4 );
// 1436 
// 1437 
// 1438 	send_buf[1 + MT_RPC_POS_DAT0 + SADDR_EXT_LEN] =
// 1439 	  MT_UartCalcFCS( &send_buf[1 + MT_RPC_POS_LEN], MT_UART_HEAD_LEN + SADDR_EXT_LEN );
// 1440 
// 1441 	HalUARTWrite( 0, send_buf, MT_UART_HEAD_LEN + SADDR_EXT_LEN + 2 );
// 1442 #endif //======================================================	
// 1443 	
// 1444     return;
??CustomApp_send_ping_req_0:
        MOV     A,#0x2
        LCALL   ?DEALLOC_XSTACK8
          CFI CFA_XSP16 add(XSP16, 14)
        MOV     R7,#0x6
        LJMP    ?BANKED_LEAVE_XDATA
// 1445 }
          CFI EndBlock cfiBlock117

        RSEG BANKED_CODE:CODE:NOROOT(0)
?Subroutine34:
          CFI Block cfiCond118 Using cfiCommon0
          CFI Function CustomApp_send_ping_req
          CFI Conditional ??CrossCallReturnLabel_55
          CFI R6 load(1, XDATA, add(CFA_XSP16, literal(-14)))
          CFI VB load(1, XDATA, add(CFA_XSP16, literal(-13)))
          CFI V0 load(1, XDATA, add(CFA_XSP16, literal(-12)))
          CFI V1 load(1, XDATA, add(CFA_XSP16, literal(-11)))
          CFI V2 load(1, XDATA, add(CFA_XSP16, literal(-10)))
          CFI V3 load(1, XDATA, add(CFA_XSP16, literal(-9)))
          CFI V4 load(1, XDATA, add(CFA_XSP16, literal(-8)))
          CFI V5 load(1, XDATA, add(CFA_XSP16, literal(-7)))
          CFI R7 load(1, XDATA, add(CFA_XSP16, literal(-6)))
          CFI ?RET_LOW load(1, XDATA, add(CFA_XSP16, literal(-5)))
          CFI ?RET_HIGH load(1, XDATA, add(CFA_XSP16, literal(-4)))
          CFI ?BRET_EXT load(1, XDATA, add(CFA_XSP16, literal(-3)))
          CFI DPL0 load(1, XDATA, add(CFA_XSP16, literal(-2)))
          CFI DPH0 load(1, XDATA, add(CFA_XSP16, literal(-1)))
          CFI CFA_XSP16 add(XSP16, 16)
          CFI Block cfiCond119 Using cfiCommon0
          CFI (cfiCond119) Function CustomApp_send_ping_req
          CFI (cfiCond119) Conditional ??CrossCallReturnLabel_56
          CFI (cfiCond119) R6 load(1, XDATA, add(CFA_XSP16, literal(-14)))
          CFI (cfiCond119) VB load(1, XDATA, add(CFA_XSP16, literal(-13)))
          CFI (cfiCond119) V0 load(1, XDATA, add(CFA_XSP16, literal(-12)))
          CFI (cfiCond119) V1 load(1, XDATA, add(CFA_XSP16, literal(-11)))
          CFI (cfiCond119) V2 load(1, XDATA, add(CFA_XSP16, literal(-10)))
          CFI (cfiCond119) V3 load(1, XDATA, add(CFA_XSP16, literal(-9)))
          CFI (cfiCond119) V4 load(1, XDATA, add(CFA_XSP16, literal(-8)))
          CFI (cfiCond119) V5 load(1, XDATA, add(CFA_XSP16, literal(-7)))
          CFI (cfiCond119) R7 load(1, XDATA, add(CFA_XSP16, literal(-6)))
          CFI (cfiCond119) ?RET_LOW load(1, XDATA, add(CFA_XSP16, literal(-5)))
          CFI (cfiCond119) ?RET_HIGH load(1, XDATA, add(CFA_XSP16, literal(-4)))
          CFI (cfiCond119) ?BRET_EXT load(1, XDATA, add(CFA_XSP16, literal(-3)))
          CFI (cfiCond119) DPL0 load(1, XDATA, add(CFA_XSP16, literal(-2)))
          CFI (cfiCond119) DPH0 load(1, XDATA, add(CFA_XSP16, literal(-1)))
          CFI (cfiCond119) CFA_SP SP+-2
          CFI (cfiCond119) CFA_XSP16 add(XSP16, 17)
          CFI Block cfiPicker120 Using cfiCommon1
          CFI (cfiPicker120) NoFunction
          CFI (cfiPicker120) Picker
        MOV     A,?V4
        ADD     A,#0x20
        MOV     DPL,A
        CLR     A
        ADDC    A,?V5
        MOV     DPH,A
        RET
          CFI EndBlock cfiCond118
          CFI EndBlock cfiCond119
          CFI EndBlock cfiPicker120
// 1446 
// 1447 
// 1448 

        RSEG BANKED_CODE:CODE:NOROOT(0)
// 1449 void CustomApp_send_ping_rsp ( uint16 Addr16 )  
CustomApp_send_ping_rsp:
          CFI Block cfiBlock121 Using cfiCommon0
          CFI Function CustomApp_send_ping_rsp
        CODE
// 1450 {
        FUNCALL CustomApp_send_ping_rsp, AF_DataRequest
        LOCFRAME ISTACK, 0, STACK
        LOCFRAME PSTACK, 0, STACK
        LOCFRAME XSTACK, 21, STACK
        LOCFRAME IOVERLAY, 0, STATIC
        LOCFRAME DOVERLAY, 0, STATIC
        ARGFRAME ISTACK, 0, STACK
        ARGFRAME PSTACK, 0, STACK
        ARGFRAME XSTACK, 21, STACK
        ARGFRAME IOVERLAY, 0, STATIC
        ARGFRAME DOVERLAY, 0, STATIC
        FUNCALL CustomApp_send_ping_rsp, HalLcdWriteStringValue
        LOCFRAME ISTACK, 0, STACK
        LOCFRAME PSTACK, 0, STACK
        LOCFRAME XSTACK, 13, STACK
        LOCFRAME IOVERLAY, 0, STATIC
        LOCFRAME DOVERLAY, 0, STATIC
        ARGFRAME ISTACK, 0, STACK
        ARGFRAME PSTACK, 0, STACK
        ARGFRAME XSTACK, 13, STACK
        ARGFRAME IOVERLAY, 0, STATIC
        ARGFRAME DOVERLAY, 0, STATIC
        REQUIRE ?V0
        REQUIRE ?V1
        MOV     A,#-0xa
        LCALL   ?BANKED_ENTER_XDATA
          CFI DPH0 load(1, XDATA, add(CFA_XSP16, literal(-1)))
          CFI DPL0 load(1, XDATA, add(CFA_XSP16, literal(-2)))
          CFI ?BRET_EXT load(1, XDATA, add(CFA_XSP16, literal(-3)))
          CFI ?RET_HIGH load(1, XDATA, add(CFA_XSP16, literal(-4)))
          CFI ?RET_LOW load(1, XDATA, add(CFA_XSP16, literal(-5)))
          CFI R7 load(1, XDATA, add(CFA_XSP16, literal(-6)))
          CFI V1 load(1, XDATA, add(CFA_XSP16, literal(-7)))
          CFI V0 load(1, XDATA, add(CFA_XSP16, literal(-8)))
          CFI VB load(1, XDATA, add(CFA_XSP16, literal(-9)))
          CFI R6 load(1, XDATA, add(CFA_XSP16, literal(-10)))
          CFI CFA_SP SP+0
          CFI CFA_XSP16 add(XSP16, 10)
        ; Saved register size: 10
        ; Auto size: 2
        MOV     A,#-0x2
        LCALL   ?ALLOC_XSTACK8
          CFI CFA_XSP16 add(XSP16, 12)
// 1451     uint16 msgid = PING_RSP_MSG;;
        MOV     DPL,?XSP + 0
        MOV     DPH,?XSP + 1
        MOV     A,#0x3b
        MOVX    @DPTR,A
        INC     DPTR
        MOV     A,#0x10
        MOVX    @DPTR,A
// 1452 
// 1453     SerialApp_TxAddr_p2p.addr.shortAddr = Addr16;
        MOV     DPTR,#SerialApp_TxAddr_p2p
        LCALL   ??Subroutine54_0 & 0xFFFF
// 1454     if (afStatus_SUCCESS == AF_DataRequest( &SerialApp_TxAddr_p2p, &GenericApp_epDesc,
// 1455                    GENERICAPP_CMD_P2P_CLUSTERID,
// 1456                    2,   
// 1457                    (byte *)&msgid,  
// 1458                    &GenericApp_TransID,
// 1459                    AF_DISCV_ROUTE, AF_DEFAULT_RADIUS ))
??CrossCallReturnLabel_101:
        ; Setup parameters for call to function AF_DataRequest
        MOV     ?V0,#0x1e
        MOV     R0,#?V0
        LCALL   ?PUSH_XSTACK_I_ONE
          CFI CFA_XSP16 add(XSP16, 13)
        MOV     ?V0,#GenericApp_TransID & 0xff
        MOV     ?V1,#(GenericApp_TransID >> 8) & 0xff
        MOV     R0,#?V0
        LCALL   ?PUSH_XSTACK_I_TWO
          CFI CFA_XSP16 add(XSP16, 15)
        MOV     A,#0x3
        LCALL   ?XSTACK_DISP100_8
        MOV     ?V0,R0
        MOV     ?V1,R1
        MOV     R0,#?V0
        LCALL   ?PUSH_XSTACK_I_TWO
          CFI CFA_XSP16 add(XSP16, 17)
        MOV     ?V0,#0x2
        MOV     ?V1,#0x0
        MOV     R0,#?V0
        LCALL   ?PUSH_XSTACK_I_TWO
          CFI CFA_XSP16 add(XSP16, 19)
        MOV     ?V0,#0x4
        MOV     R0,#?V0
        LCALL   ?PUSH_XSTACK_I_TWO
          CFI CFA_XSP16 add(XSP16, 21)
        MOV     R1,#0x0
        MOV     R4,#GenericApp_epDesc & 0xff
        MOV     R5,#(GenericApp_epDesc >> 8) & 0xff
        MOV     R2,#SerialApp_TxAddr_p2p & 0xff
        MOV     R3,#(SerialApp_TxAddr_p2p >> 8) & 0xff
        LCALL   `??AF_DataRequest::?relay`; Banked call to: AF_DataRequest
        MOV     A,#0x9
        LCALL   ?DEALLOC_XSTACK8
          CFI CFA_XSP16 add(XSP16, 12)
        MOV     A,R1
        JNZ     ??CustomApp_send_ping_rsp_0
// 1460     {
// 1461 #if defined( LCD_SUPPORTED )              
// 1462      HalLcdWriteStringValue( (char*)"pingrspSend", 1, 10, HAL_LCD_LINE_3);
        ; Setup parameters for call to function HalLcdWriteStringValue
        MOV     ?V0,#0x5
        MOV     R0,#?V0
        LCALL   ?PUSH_XSTACK_I_ONE
          CFI CFA_XSP16 add(XSP16, 13)
        MOV     R1,#0xa
        MOV     R4,#0x1
        MOV     R5,#0x0
        MOV     R2,#`?<Constant "pingrspSend">` & 0xff
        MOV     R3,#(`?<Constant "pingrspSend">` >> 8) & 0xff
        LCALL   `??HalLcdWriteStringValue::?relay`; Banked call to: HalLcdWriteStringValue
        MOV     A,#0x1
        LCALL   ?DEALLOC_XSTACK8
          CFI CFA_XSP16 add(XSP16, 12)
// 1463 #endif
// 1464     }
// 1465     return;
??CustomApp_send_ping_rsp_0:
        LJMP    ?Subroutine3 & 0xFFFF
// 1466 }
          CFI EndBlock cfiBlock121

        RSEG BANKED_CODE:CODE:NOROOT(0)
?Subroutine11:
          CFI Block cfiCond122 Using cfiCommon0
          CFI Function GenericApp_Device_JoinRsp
          CFI Conditional ??CrossCallReturnLabel_104
          CFI R6 load(1, XDATA, add(CFA_XSP16, literal(-19)))
          CFI VB load(1, XDATA, add(CFA_XSP16, literal(-18)))
          CFI V0 load(1, XDATA, add(CFA_XSP16, literal(-17)))
          CFI V1 load(1, XDATA, add(CFA_XSP16, literal(-16)))
          CFI V2 load(1, XDATA, add(CFA_XSP16, literal(-15)))
          CFI V3 load(1, XDATA, add(CFA_XSP16, literal(-14)))
          CFI V4 load(1, XDATA, add(CFA_XSP16, literal(-13)))
          CFI V5 load(1, XDATA, add(CFA_XSP16, literal(-12)))
          CFI V6 load(1, XDATA, add(CFA_XSP16, literal(-11)))
          CFI V7 load(1, XDATA, add(CFA_XSP16, literal(-10)))
          CFI V8 load(1, XDATA, add(CFA_XSP16, literal(-9)))
          CFI V9 load(1, XDATA, add(CFA_XSP16, literal(-8)))
          CFI V10 load(1, XDATA, add(CFA_XSP16, literal(-7)))
          CFI R7 load(1, XDATA, add(CFA_XSP16, literal(-6)))
          CFI ?RET_LOW load(1, XDATA, add(CFA_XSP16, literal(-5)))
          CFI ?RET_HIGH load(1, XDATA, add(CFA_XSP16, literal(-4)))
          CFI ?BRET_EXT load(1, XDATA, add(CFA_XSP16, literal(-3)))
          CFI DPL0 load(1, XDATA, add(CFA_XSP16, literal(-2)))
          CFI DPH0 load(1, XDATA, add(CFA_XSP16, literal(-1)))
          CFI CFA_SP SP+-2
          CFI CFA_XSP16 add(XSP16, 127)
          CFI Block cfiCond123 Using cfiCommon0
          CFI (cfiCond123) Function GenericApp_Device_JoinReq
          CFI (cfiCond123) Conditional ??CrossCallReturnLabel_105
          CFI (cfiCond123) R6 load(1, XDATA, add(CFA_XSP16, literal(-18)))
          CFI (cfiCond123) VB load(1, XDATA, add(CFA_XSP16, literal(-17)))
          CFI (cfiCond123) V0 load(1, XDATA, add(CFA_XSP16, literal(-16)))
          CFI (cfiCond123) V1 load(1, XDATA, add(CFA_XSP16, literal(-15)))
          CFI (cfiCond123) V2 load(1, XDATA, add(CFA_XSP16, literal(-14)))
          CFI (cfiCond123) V3 load(1, XDATA, add(CFA_XSP16, literal(-13)))
          CFI (cfiCond123) V4 load(1, XDATA, add(CFA_XSP16, literal(-12)))
          CFI (cfiCond123) V5 load(1, XDATA, add(CFA_XSP16, literal(-11)))
          CFI (cfiCond123) V6 load(1, XDATA, add(CFA_XSP16, literal(-10)))
          CFI (cfiCond123) V7 load(1, XDATA, add(CFA_XSP16, literal(-9)))
          CFI (cfiCond123) V8 load(1, XDATA, add(CFA_XSP16, literal(-8)))
          CFI (cfiCond123) V9 load(1, XDATA, add(CFA_XSP16, literal(-7)))
          CFI (cfiCond123) R7 load(1, XDATA, add(CFA_XSP16, literal(-6)))
          CFI (cfiCond123) ?RET_LOW load(1, XDATA, add(CFA_XSP16, literal(-5)))
          CFI (cfiCond123) ?RET_HIGH load(1, XDATA, add(CFA_XSP16, literal(-4)))
          CFI (cfiCond123) ?BRET_EXT load(1, XDATA, add(CFA_XSP16, literal(-3)))
          CFI (cfiCond123) DPL0 load(1, XDATA, add(CFA_XSP16, literal(-2)))
          CFI (cfiCond123) DPH0 load(1, XDATA, add(CFA_XSP16, literal(-1)))
          CFI (cfiCond123) CFA_SP SP+-2
          CFI (cfiCond123) CFA_XSP16 add(XSP16, 218)
          CFI Block cfiPicker124 Using cfiCommon1
          CFI (cfiPicker124) NoFunction
          CFI (cfiPicker124) Picker
        MOV     DPL,R6
        MOV     DPH,R7
        INC     DPTR
        INC     DPTR
        INC     DPTR
        INC     DPTR
        INC     DPTR
        INC     DPTR
          CFI EndBlock cfiCond122
          CFI EndBlock cfiCond123
          CFI EndBlock cfiPicker124
        REQUIRE ??Subroutine54_0
        ; // Fall through to label ??Subroutine54_0

        RSEG BANKED_CODE:CODE:NOROOT(0)
??Subroutine54_0:
          CFI Block cfiCond125 Using cfiCommon0
          CFI Function CustomApp_NodeRegister
          CFI Conditional ??CrossCallReturnLabel_98
          CFI R6 load(1, XDATA, add(CFA_XSP16, literal(-10)))
          CFI VB load(1, XDATA, add(CFA_XSP16, literal(-9)))
          CFI V0 load(1, XDATA, add(CFA_XSP16, literal(-8)))
          CFI V1 load(1, XDATA, add(CFA_XSP16, literal(-7)))
          CFI R7 load(1, XDATA, add(CFA_XSP16, literal(-6)))
          CFI ?RET_LOW load(1, XDATA, add(CFA_XSP16, literal(-5)))
          CFI ?RET_HIGH load(1, XDATA, add(CFA_XSP16, literal(-4)))
          CFI ?BRET_EXT load(1, XDATA, add(CFA_XSP16, literal(-3)))
          CFI DPL0 load(1, XDATA, add(CFA_XSP16, literal(-2)))
          CFI DPH0 load(1, XDATA, add(CFA_XSP16, literal(-1)))
          CFI CFA_SP SP+-2
          CFI CFA_XSP16 add(XSP16, 10)
          CFI Block cfiCond126 Using cfiCommon0
          CFI (cfiCond126) Function CustomApp_NodeDelete
          CFI (cfiCond126) Conditional ??CrossCallReturnLabel_99
          CFI (cfiCond126) R6 load(1, XDATA, add(CFA_XSP16, literal(-9)))
          CFI (cfiCond126) VB load(1, XDATA, add(CFA_XSP16, literal(-8)))
          CFI (cfiCond126) V0 load(1, XDATA, add(CFA_XSP16, literal(-7)))
          CFI (cfiCond126) R7 load(1, XDATA, add(CFA_XSP16, literal(-6)))
          CFI (cfiCond126) ?RET_LOW load(1, XDATA, add(CFA_XSP16, literal(-5)))
          CFI (cfiCond126) ?RET_HIGH load(1, XDATA, add(CFA_XSP16, literal(-4)))
          CFI (cfiCond126) ?BRET_EXT load(1, XDATA, add(CFA_XSP16, literal(-3)))
          CFI (cfiCond126) DPL0 load(1, XDATA, add(CFA_XSP16, literal(-2)))
          CFI (cfiCond126) DPH0 load(1, XDATA, add(CFA_XSP16, literal(-1)))
          CFI (cfiCond126) CFA_SP SP+-2
          CFI (cfiCond126) CFA_XSP16 add(XSP16, 9)
          CFI Block cfiCond127 Using cfiCommon0
          CFI (cfiCond127) Function CustomApp_send_ping_req
          CFI (cfiCond127) Conditional ??CrossCallReturnLabel_100
          CFI (cfiCond127) R6 load(1, XDATA, add(CFA_XSP16, literal(-14)))
          CFI (cfiCond127) VB load(1, XDATA, add(CFA_XSP16, literal(-13)))
          CFI (cfiCond127) V0 load(1, XDATA, add(CFA_XSP16, literal(-12)))
          CFI (cfiCond127) V1 load(1, XDATA, add(CFA_XSP16, literal(-11)))
          CFI (cfiCond127) V2 load(1, XDATA, add(CFA_XSP16, literal(-10)))
          CFI (cfiCond127) V3 load(1, XDATA, add(CFA_XSP16, literal(-9)))
          CFI (cfiCond127) V4 load(1, XDATA, add(CFA_XSP16, literal(-8)))
          CFI (cfiCond127) V5 load(1, XDATA, add(CFA_XSP16, literal(-7)))
          CFI (cfiCond127) R7 load(1, XDATA, add(CFA_XSP16, literal(-6)))
          CFI (cfiCond127) ?RET_LOW load(1, XDATA, add(CFA_XSP16, literal(-5)))
          CFI (cfiCond127) ?RET_HIGH load(1, XDATA, add(CFA_XSP16, literal(-4)))
          CFI (cfiCond127) ?BRET_EXT load(1, XDATA, add(CFA_XSP16, literal(-3)))
          CFI (cfiCond127) DPL0 load(1, XDATA, add(CFA_XSP16, literal(-2)))
          CFI (cfiCond127) DPH0 load(1, XDATA, add(CFA_XSP16, literal(-1)))
          CFI (cfiCond127) CFA_SP SP+-2
          CFI (cfiCond127) CFA_XSP16 add(XSP16, 16)
          CFI Block cfiCond128 Using cfiCommon0
          CFI (cfiCond128) Function CustomApp_send_ping_rsp
          CFI (cfiCond128) Conditional ??CrossCallReturnLabel_101
          CFI (cfiCond128) R6 load(1, XDATA, add(CFA_XSP16, literal(-10)))
          CFI (cfiCond128) VB load(1, XDATA, add(CFA_XSP16, literal(-9)))
          CFI (cfiCond128) V0 load(1, XDATA, add(CFA_XSP16, literal(-8)))
          CFI (cfiCond128) V1 load(1, XDATA, add(CFA_XSP16, literal(-7)))
          CFI (cfiCond128) R7 load(1, XDATA, add(CFA_XSP16, literal(-6)))
          CFI (cfiCond128) ?RET_LOW load(1, XDATA, add(CFA_XSP16, literal(-5)))
          CFI (cfiCond128) ?RET_HIGH load(1, XDATA, add(CFA_XSP16, literal(-4)))
          CFI (cfiCond128) ?BRET_EXT load(1, XDATA, add(CFA_XSP16, literal(-3)))
          CFI (cfiCond128) DPL0 load(1, XDATA, add(CFA_XSP16, literal(-2)))
          CFI (cfiCond128) DPH0 load(1, XDATA, add(CFA_XSP16, literal(-1)))
          CFI (cfiCond128) CFA_SP SP+-2
          CFI (cfiCond128) CFA_XSP16 add(XSP16, 12)
          CFI Block cfiCond129 Using cfiCommon0
          CFI (cfiCond129) Function GenericApp_Device_JoinRsp
          CFI (cfiCond129) Conditional ??CrossCallReturnLabel_102
          CFI (cfiCond129) R6 load(1, XDATA, add(CFA_XSP16, literal(-19)))
          CFI (cfiCond129) VB load(1, XDATA, add(CFA_XSP16, literal(-18)))
          CFI (cfiCond129) V0 load(1, XDATA, add(CFA_XSP16, literal(-17)))
          CFI (cfiCond129) V1 load(1, XDATA, add(CFA_XSP16, literal(-16)))
          CFI (cfiCond129) V2 load(1, XDATA, add(CFA_XSP16, literal(-15)))
          CFI (cfiCond129) V3 load(1, XDATA, add(CFA_XSP16, literal(-14)))
          CFI (cfiCond129) V4 load(1, XDATA, add(CFA_XSP16, literal(-13)))
          CFI (cfiCond129) V5 load(1, XDATA, add(CFA_XSP16, literal(-12)))
          CFI (cfiCond129) V6 load(1, XDATA, add(CFA_XSP16, literal(-11)))
          CFI (cfiCond129) V7 load(1, XDATA, add(CFA_XSP16, literal(-10)))
          CFI (cfiCond129) V8 load(1, XDATA, add(CFA_XSP16, literal(-9)))
          CFI (cfiCond129) V9 load(1, XDATA, add(CFA_XSP16, literal(-8)))
          CFI (cfiCond129) V10 load(1, XDATA, add(CFA_XSP16, literal(-7)))
          CFI (cfiCond129) R7 load(1, XDATA, add(CFA_XSP16, literal(-6)))
          CFI (cfiCond129) ?RET_LOW load(1, XDATA, add(CFA_XSP16, literal(-5)))
          CFI (cfiCond129) ?RET_HIGH load(1, XDATA, add(CFA_XSP16, literal(-4)))
          CFI (cfiCond129) ?BRET_EXT load(1, XDATA, add(CFA_XSP16, literal(-3)))
          CFI (cfiCond129) DPL0 load(1, XDATA, add(CFA_XSP16, literal(-2)))
          CFI (cfiCond129) DPH0 load(1, XDATA, add(CFA_XSP16, literal(-1)))
          CFI (cfiCond129) CFA_SP SP+-2
          CFI (cfiCond129) CFA_XSP16 add(XSP16, 127)
          CFI Block cfiCond130 Using cfiCommon0
          CFI (cfiCond130) Function GenericApp_Device_JoinReq
          CFI (cfiCond130) Conditional ??CrossCallReturnLabel_103
          CFI (cfiCond130) R6 load(1, XDATA, add(CFA_XSP16, literal(-18)))
          CFI (cfiCond130) VB load(1, XDATA, add(CFA_XSP16, literal(-17)))
          CFI (cfiCond130) V0 load(1, XDATA, add(CFA_XSP16, literal(-16)))
          CFI (cfiCond130) V1 load(1, XDATA, add(CFA_XSP16, literal(-15)))
          CFI (cfiCond130) V2 load(1, XDATA, add(CFA_XSP16, literal(-14)))
          CFI (cfiCond130) V3 load(1, XDATA, add(CFA_XSP16, literal(-13)))
          CFI (cfiCond130) V4 load(1, XDATA, add(CFA_XSP16, literal(-12)))
          CFI (cfiCond130) V5 load(1, XDATA, add(CFA_XSP16, literal(-11)))
          CFI (cfiCond130) V6 load(1, XDATA, add(CFA_XSP16, literal(-10)))
          CFI (cfiCond130) V7 load(1, XDATA, add(CFA_XSP16, literal(-9)))
          CFI (cfiCond130) V8 load(1, XDATA, add(CFA_XSP16, literal(-8)))
          CFI (cfiCond130) V9 load(1, XDATA, add(CFA_XSP16, literal(-7)))
          CFI (cfiCond130) R7 load(1, XDATA, add(CFA_XSP16, literal(-6)))
          CFI (cfiCond130) ?RET_LOW load(1, XDATA, add(CFA_XSP16, literal(-5)))
          CFI (cfiCond130) ?RET_HIGH load(1, XDATA, add(CFA_XSP16, literal(-4)))
          CFI (cfiCond130) ?BRET_EXT load(1, XDATA, add(CFA_XSP16, literal(-3)))
          CFI (cfiCond130) DPL0 load(1, XDATA, add(CFA_XSP16, literal(-2)))
          CFI (cfiCond130) DPH0 load(1, XDATA, add(CFA_XSP16, literal(-1)))
          CFI (cfiCond130) CFA_SP SP+-2
          CFI (cfiCond130) CFA_XSP16 add(XSP16, 218)
          CFI Block cfiCond131 Using cfiCommon0
          CFI (cfiCond131) Function GenericApp_Device_JoinRsp
          CFI (cfiCond131) Conditional ??CrossCallReturnLabel_104
          CFI (cfiCond131) R6 load(1, XDATA, add(CFA_XSP16, literal(-19)))
          CFI (cfiCond131) VB load(1, XDATA, add(CFA_XSP16, literal(-18)))
          CFI (cfiCond131) V0 load(1, XDATA, add(CFA_XSP16, literal(-17)))
          CFI (cfiCond131) V1 load(1, XDATA, add(CFA_XSP16, literal(-16)))
          CFI (cfiCond131) V2 load(1, XDATA, add(CFA_XSP16, literal(-15)))
          CFI (cfiCond131) V3 load(1, XDATA, add(CFA_XSP16, literal(-14)))
          CFI (cfiCond131) V4 load(1, XDATA, add(CFA_XSP16, literal(-13)))
          CFI (cfiCond131) V5 load(1, XDATA, add(CFA_XSP16, literal(-12)))
          CFI (cfiCond131) V6 load(1, XDATA, add(CFA_XSP16, literal(-11)))
          CFI (cfiCond131) V7 load(1, XDATA, add(CFA_XSP16, literal(-10)))
          CFI (cfiCond131) V8 load(1, XDATA, add(CFA_XSP16, literal(-9)))
          CFI (cfiCond131) V9 load(1, XDATA, add(CFA_XSP16, literal(-8)))
          CFI (cfiCond131) V10 load(1, XDATA, add(CFA_XSP16, literal(-7)))
          CFI (cfiCond131) R7 load(1, XDATA, add(CFA_XSP16, literal(-6)))
          CFI (cfiCond131) ?RET_LOW load(1, XDATA, add(CFA_XSP16, literal(-5)))
          CFI (cfiCond131) ?RET_HIGH load(1, XDATA, add(CFA_XSP16, literal(-4)))
          CFI (cfiCond131) ?BRET_EXT load(1, XDATA, add(CFA_XSP16, literal(-3)))
          CFI (cfiCond131) DPL0 load(1, XDATA, add(CFA_XSP16, literal(-2)))
          CFI (cfiCond131) DPH0 load(1, XDATA, add(CFA_XSP16, literal(-1)))
          CFI (cfiCond131) CFA_SP SP+-2
          CFI (cfiCond131) CFA_XSP16 add(XSP16, 127)
          CFI Block cfiCond132 Using cfiCommon0
          CFI (cfiCond132) Function GenericApp_Device_JoinReq
          CFI (cfiCond132) Conditional ??CrossCallReturnLabel_105
          CFI (cfiCond132) R6 load(1, XDATA, add(CFA_XSP16, literal(-18)))
          CFI (cfiCond132) VB load(1, XDATA, add(CFA_XSP16, literal(-17)))
          CFI (cfiCond132) V0 load(1, XDATA, add(CFA_XSP16, literal(-16)))
          CFI (cfiCond132) V1 load(1, XDATA, add(CFA_XSP16, literal(-15)))
          CFI (cfiCond132) V2 load(1, XDATA, add(CFA_XSP16, literal(-14)))
          CFI (cfiCond132) V3 load(1, XDATA, add(CFA_XSP16, literal(-13)))
          CFI (cfiCond132) V4 load(1, XDATA, add(CFA_XSP16, literal(-12)))
          CFI (cfiCond132) V5 load(1, XDATA, add(CFA_XSP16, literal(-11)))
          CFI (cfiCond132) V6 load(1, XDATA, add(CFA_XSP16, literal(-10)))
          CFI (cfiCond132) V7 load(1, XDATA, add(CFA_XSP16, literal(-9)))
          CFI (cfiCond132) V8 load(1, XDATA, add(CFA_XSP16, literal(-8)))
          CFI (cfiCond132) V9 load(1, XDATA, add(CFA_XSP16, literal(-7)))
          CFI (cfiCond132) R7 load(1, XDATA, add(CFA_XSP16, literal(-6)))
          CFI (cfiCond132) ?RET_LOW load(1, XDATA, add(CFA_XSP16, literal(-5)))
          CFI (cfiCond132) ?RET_HIGH load(1, XDATA, add(CFA_XSP16, literal(-4)))
          CFI (cfiCond132) ?BRET_EXT load(1, XDATA, add(CFA_XSP16, literal(-3)))
          CFI (cfiCond132) DPL0 load(1, XDATA, add(CFA_XSP16, literal(-2)))
          CFI (cfiCond132) DPH0 load(1, XDATA, add(CFA_XSP16, literal(-1)))
          CFI (cfiCond132) CFA_SP SP+-2
          CFI (cfiCond132) CFA_XSP16 add(XSP16, 218)
          CFI Block cfiPicker133 Using cfiCommon1
          CFI (cfiPicker133) NoFunction
          CFI (cfiPicker133) Picker
        MOV     A,R2
        MOVX    @DPTR,A
        INC     DPTR
        MOV     A,R3
        MOVX    @DPTR,A
        RET
          CFI EndBlock cfiCond125
          CFI EndBlock cfiCond126
          CFI EndBlock cfiCond127
          CFI EndBlock cfiCond128
          CFI EndBlock cfiCond129
          CFI EndBlock cfiCond130
          CFI EndBlock cfiCond131
          CFI EndBlock cfiCond132
          CFI EndBlock cfiPicker133
// 1467 

        RSEG BANKED_CODE:CODE:NOROOT(0)
// 1468 void CustomApp_coordinater_broadcast_ping( void )  //chaokw ping
CustomApp_coordinater_broadcast_ping:
          CFI Block cfiBlock134 Using cfiCommon0
          CFI Function CustomApp_coordinater_broadcast_ping
        CODE
// 1469 {
        FUNCALL CustomApp_coordinater_broadcast_ping, AF_DataRequest
        LOCFRAME ISTACK, 0, STACK
        LOCFRAME PSTACK, 0, STACK
        LOCFRAME XSTACK, 21, STACK
        LOCFRAME IOVERLAY, 0, STATIC
        LOCFRAME DOVERLAY, 0, STATIC
        ARGFRAME ISTACK, 0, STACK
        ARGFRAME PSTACK, 0, STACK
        ARGFRAME XSTACK, 21, STACK
        ARGFRAME IOVERLAY, 0, STATIC
        ARGFRAME DOVERLAY, 0, STATIC
        FUNCALL CustomApp_coordinater_broadcast_ping, HalLcdWriteStringValue
        LOCFRAME ISTACK, 0, STACK
        LOCFRAME PSTACK, 0, STACK
        LOCFRAME XSTACK, 13, STACK
        LOCFRAME IOVERLAY, 0, STATIC
        LOCFRAME DOVERLAY, 0, STATIC
        ARGFRAME ISTACK, 0, STACK
        ARGFRAME PSTACK, 0, STACK
        ARGFRAME XSTACK, 13, STACK
        ARGFRAME IOVERLAY, 0, STATIC
        ARGFRAME DOVERLAY, 0, STATIC
        REQUIRE ?V0
        REQUIRE ?V1
        MOV     A,#-0xa
        LCALL   ?BANKED_ENTER_XDATA
          CFI DPH0 load(1, XDATA, add(CFA_XSP16, literal(-1)))
          CFI DPL0 load(1, XDATA, add(CFA_XSP16, literal(-2)))
          CFI ?BRET_EXT load(1, XDATA, add(CFA_XSP16, literal(-3)))
          CFI ?RET_HIGH load(1, XDATA, add(CFA_XSP16, literal(-4)))
          CFI ?RET_LOW load(1, XDATA, add(CFA_XSP16, literal(-5)))
          CFI R7 load(1, XDATA, add(CFA_XSP16, literal(-6)))
          CFI V1 load(1, XDATA, add(CFA_XSP16, literal(-7)))
          CFI V0 load(1, XDATA, add(CFA_XSP16, literal(-8)))
          CFI VB load(1, XDATA, add(CFA_XSP16, literal(-9)))
          CFI R6 load(1, XDATA, add(CFA_XSP16, literal(-10)))
          CFI CFA_SP SP+0
          CFI CFA_XSP16 add(XSP16, 10)
        ; Saved register size: 10
        ; Auto size: 2
        MOV     A,#-0x2
        LCALL   ?ALLOC_XSTACK8
          CFI CFA_XSP16 add(XSP16, 12)
// 1470     uint16 msgid = PING_RSP_MSG;;
        MOV     DPL,?XSP + 0
        MOV     DPH,?XSP + 1
        MOV     A,#0x3b
        MOVX    @DPTR,A
        INC     DPTR
        MOV     A,#0x10
        MOVX    @DPTR,A
// 1471 
// 1472     SerialApp_TxAddr_broadcast.addr.shortAddr = 0xffff;
        MOV     DPTR,#SerialApp_TxAddr_broadcast
        MOV     A,#-0x1
        MOVX    @DPTR,A
        INC     DPTR
        MOVX    @DPTR,A
// 1473     if (afStatus_SUCCESS == AF_DataRequest( &SerialApp_TxAddr_broadcast, &GenericApp_epDesc,
// 1474                    GENERICAPP_CMD_P2P_CLUSTERID,
// 1475                    2,   
// 1476                    (byte *)&msgid,  
// 1477                    &GenericApp_TransID,
// 1478                    AF_DISCV_ROUTE, AF_DEFAULT_RADIUS ))
        ; Setup parameters for call to function AF_DataRequest
        MOV     ?V0,#0x1e
        MOV     R0,#?V0
        LCALL   ?PUSH_XSTACK_I_ONE
          CFI CFA_XSP16 add(XSP16, 13)
        MOV     ?V0,#GenericApp_TransID & 0xff
        MOV     ?V1,#(GenericApp_TransID >> 8) & 0xff
        MOV     R0,#?V0
        LCALL   ?PUSH_XSTACK_I_TWO
          CFI CFA_XSP16 add(XSP16, 15)
        MOV     A,#0x3
        LCALL   ?XSTACK_DISP100_8
        MOV     ?V0,R0
        MOV     ?V1,R1
        MOV     R0,#?V0
        LCALL   ?PUSH_XSTACK_I_TWO
          CFI CFA_XSP16 add(XSP16, 17)
        MOV     ?V0,#0x2
        MOV     ?V1,#0x0
        MOV     R0,#?V0
        LCALL   ?PUSH_XSTACK_I_TWO
          CFI CFA_XSP16 add(XSP16, 19)
        MOV     ?V0,#0x4
        MOV     R0,#?V0
        LCALL   ?PUSH_XSTACK_I_TWO
          CFI CFA_XSP16 add(XSP16, 21)
        MOV     R1,#0x0
        MOV     R4,#GenericApp_epDesc & 0xff
        MOV     R5,#(GenericApp_epDesc >> 8) & 0xff
        MOV     R2,#SerialApp_TxAddr_broadcast & 0xff
        MOV     R3,#(SerialApp_TxAddr_broadcast >> 8) & 0xff
        LCALL   `??AF_DataRequest::?relay`; Banked call to: AF_DataRequest
        MOV     A,#0x9
        LCALL   ?DEALLOC_XSTACK8
          CFI CFA_XSP16 add(XSP16, 12)
        MOV     A,R1
        JNZ     ??CustomApp_coordinater_broadcast_ping_0
// 1479     {
// 1480 #if defined( LCD_SUPPORTED )              
// 1481      HalLcdWriteStringValue( (char*)"broadcast ping", 1, 10, HAL_LCD_LINE_3);
        ; Setup parameters for call to function HalLcdWriteStringValue
        MOV     ?V0,#0x5
        MOV     R0,#?V0
        LCALL   ?PUSH_XSTACK_I_ONE
          CFI CFA_XSP16 add(XSP16, 13)
        MOV     R1,#0xa
        MOV     R4,#0x1
        MOV     R5,#0x0
        MOV     R2,#`?<Constant "broadcast ping">` & 0xff
        MOV     R3,#(`?<Constant "broadcast ping">` >> 8) & 0xff
        LCALL   `??HalLcdWriteStringValue::?relay`; Banked call to: HalLcdWriteStringValue
        MOV     A,#0x1
        LCALL   ?DEALLOC_XSTACK8
          CFI CFA_XSP16 add(XSP16, 12)
// 1482 #endif
// 1483     }
// 1484     return;
??CustomApp_coordinater_broadcast_ping_0:
        LJMP    ?Subroutine3 & 0xFFFF
// 1485 
// 1486 }
          CFI EndBlock cfiBlock134
// 1487 

        RSEG BANKED_CODE:CODE:NOROOT(0)
// 1488 void CustomApp_linkstatus_updated ( void )
CustomApp_linkstatus_updated:
          CFI Block cfiBlock135 Using cfiCommon0
          CFI Function CustomApp_linkstatus_updated
        CODE
// 1489 {
        FUNCALL CustomApp_linkstatus_updated, CustomApp_NodeDelete
        LOCFRAME ISTACK, 0, STACK
        LOCFRAME PSTACK, 0, STACK
        LOCFRAME XSTACK, 12, STACK
        LOCFRAME IOVERLAY, 0, STATIC
        LOCFRAME DOVERLAY, 0, STATIC
        ARGFRAME ISTACK, 0, STACK
        ARGFRAME PSTACK, 0, STACK
        ARGFRAME XSTACK, 12, STACK
        ARGFRAME IOVERLAY, 0, STATIC
        ARGFRAME DOVERLAY, 0, STATIC
        FUNCALL CustomApp_linkstatus_updated, CustomApp_node_deregister_ind
        LOCFRAME ISTACK, 0, STACK
        LOCFRAME PSTACK, 0, STACK
        LOCFRAME XSTACK, 36, STACK
        LOCFRAME IOVERLAY, 0, STATIC
        LOCFRAME DOVERLAY, 0, STATIC
        ARGFRAME ISTACK, 0, STACK
        ARGFRAME PSTACK, 0, STACK
        ARGFRAME XSTACK, 36, STACK
        ARGFRAME IOVERLAY, 0, STATIC
        ARGFRAME DOVERLAY, 0, STATIC
        FUNCALL CustomApp_linkstatus_updated, HalLcdWriteStringValue
        LOCFRAME ISTACK, 0, STACK
        LOCFRAME PSTACK, 0, STACK
        LOCFRAME XSTACK, 13, STACK
        LOCFRAME IOVERLAY, 0, STATIC
        LOCFRAME DOVERLAY, 0, STATIC
        ARGFRAME ISTACK, 0, STACK
        ARGFRAME PSTACK, 0, STACK
        ARGFRAME XSTACK, 13, STACK
        ARGFRAME IOVERLAY, 0, STATIC
        ARGFRAME DOVERLAY, 0, STATIC
        FUNCALL CustomApp_linkstatus_updated, HalLcdWriteStringValue
        LOCFRAME ISTACK, 0, STACK
        LOCFRAME PSTACK, 0, STACK
        LOCFRAME XSTACK, 13, STACK
        LOCFRAME IOVERLAY, 0, STATIC
        LOCFRAME DOVERLAY, 0, STATIC
        ARGFRAME ISTACK, 0, STACK
        ARGFRAME PSTACK, 0, STACK
        ARGFRAME XSTACK, 13, STACK
        ARGFRAME IOVERLAY, 0, STATIC
        ARGFRAME DOVERLAY, 0, STATIC
        FUNCALL CustomApp_linkstatus_updated, CustomApp_get_connected_node_count
        LOCFRAME ISTACK, 0, STACK
        LOCFRAME PSTACK, 0, STACK
        LOCFRAME XSTACK, 12, STACK
        LOCFRAME IOVERLAY, 0, STATIC
        LOCFRAME DOVERLAY, 0, STATIC
        ARGFRAME ISTACK, 0, STACK
        ARGFRAME PSTACK, 0, STACK
        ARGFRAME XSTACK, 12, STACK
        ARGFRAME IOVERLAY, 0, STATIC
        ARGFRAME DOVERLAY, 0, STATIC
        FUNCALL CustomApp_linkstatus_updated, HalLcdWriteStringValue
        LOCFRAME ISTACK, 0, STACK
        LOCFRAME PSTACK, 0, STACK
        LOCFRAME XSTACK, 13, STACK
        LOCFRAME IOVERLAY, 0, STATIC
        LOCFRAME DOVERLAY, 0, STATIC
        ARGFRAME ISTACK, 0, STACK
        ARGFRAME PSTACK, 0, STACK
        ARGFRAME XSTACK, 13, STACK
        ARGFRAME IOVERLAY, 0, STATIC
        ARGFRAME DOVERLAY, 0, STATIC
        FUNCALL CustomApp_linkstatus_updated, Authlist_item_cnt
        LOCFRAME ISTACK, 0, STACK
        LOCFRAME PSTACK, 0, STACK
        LOCFRAME XSTACK, 12, STACK
        LOCFRAME IOVERLAY, 0, STATIC
        LOCFRAME DOVERLAY, 0, STATIC
        ARGFRAME ISTACK, 0, STACK
        ARGFRAME PSTACK, 0, STACK
        ARGFRAME XSTACK, 12, STACK
        ARGFRAME IOVERLAY, 0, STATIC
        ARGFRAME DOVERLAY, 0, STATIC
        FUNCALL CustomApp_linkstatus_updated, Onboard_soft_reset
        LOCFRAME ISTACK, 0, STACK
        LOCFRAME PSTACK, 0, STACK
        LOCFRAME XSTACK, 12, STACK
        LOCFRAME IOVERLAY, 0, STATIC
        LOCFRAME DOVERLAY, 0, STATIC
        ARGFRAME ISTACK, 0, STACK
        ARGFRAME PSTACK, 0, STACK
        ARGFRAME XSTACK, 12, STACK
        ARGFRAME IOVERLAY, 0, STATIC
        ARGFRAME DOVERLAY, 0, STATIC
        REQUIRE ?V0
        REQUIRE ?V1
        REQUIRE ?V2
        REQUIRE ?V3
        MOV     A,#-0xc
        LCALL   ?BANKED_ENTER_XDATA
          CFI DPH0 load(1, XDATA, add(CFA_XSP16, literal(-1)))
          CFI DPL0 load(1, XDATA, add(CFA_XSP16, literal(-2)))
          CFI ?BRET_EXT load(1, XDATA, add(CFA_XSP16, literal(-3)))
          CFI ?RET_HIGH load(1, XDATA, add(CFA_XSP16, literal(-4)))
          CFI ?RET_LOW load(1, XDATA, add(CFA_XSP16, literal(-5)))
          CFI R7 load(1, XDATA, add(CFA_XSP16, literal(-6)))
          CFI V3 load(1, XDATA, add(CFA_XSP16, literal(-7)))
          CFI V2 load(1, XDATA, add(CFA_XSP16, literal(-8)))
          CFI V1 load(1, XDATA, add(CFA_XSP16, literal(-9)))
          CFI V0 load(1, XDATA, add(CFA_XSP16, literal(-10)))
          CFI VB load(1, XDATA, add(CFA_XSP16, literal(-11)))
          CFI R6 load(1, XDATA, add(CFA_XSP16, literal(-12)))
          CFI CFA_SP SP+0
          CFI CFA_XSP16 add(XSP16, 12)
        ; Saved register size: 12
        ; Auto size: 0
// 1490     nodeList_t *nodeSearch = NULL;
// 1491     uint8 status;
// 1492 //#if defined( LCD_SUPPORTED )    	
// 1493     uint8 activeCount;
// 1494 //#endif
// 1495 	
// 1496     for (nodeSearch = nodeList; nodeSearch != NULL; nodeSearch = nodeSearch->nextDesc)
        MOV     DPTR,#nodeList
        LCALL   ?Subroutine25 & 0xFFFF
??CrossCallReturnLabel_30:
        SJMP    ??CustomApp_linkstatus_updated_0
// 1497     {
// 1498         if (nodeSearch->status == nodedisconnected)
// 1499         {
// 1500             //node delete
// 1501 	     status = CustomApp_NodeDelete( nodeSearch->devAddr16.addr.shortAddr );
// 1502             if(nodeStatus_SUCCESS == status)
// 1503             {
// 1504                   CustomApp_node_deregister_ind(nodeSearch->devAddr64, nodeSearch->devAddr16);
// 1505                   //CustomApp_router_offline_req ( nodeSearch->devAddr16 );		//chaokw ping
// 1506 #if defined( LCD_SUPPORTED )				  
// 1507                   HalLcdWriteStringValue( (char*)"nodedelete OK:", status, 16, HAL_LCD_LINE_3 );
// 1508 #endif
// 1509             }
// 1510             else
// 1511             {
// 1512 #if defined( LCD_SUPPORTED )            
// 1513                   HalLcdWriteStringValue( (char*)"nodedelete NOK:", status, 16, HAL_LCD_LINE_3 );
// 1514 #endif
// 1515             }
// 1516             break;
// 1517         }
// 1518         else if (nodeSearch->status == nodeconnected)
// 1519         {		
// 1520              if(nodeSearch->timestamp == nodeSearch->oldtimestamp)
// 1521              {
// 1522                  nodeSearch->timeoutcnt ++;
// 1523 	          if(nodeSearch->timeoutcnt < TIMEOUT_CNT)
// 1524                  {
// 1525                          break;
// 1526                  }
// 1527                  nodeSearch->timeoutcnt = 0;
??CustomApp_linkstatus_updated_1:
        CLR     A
        MOVX    @DPTR,A
// 1528                  nodeSearch->status = nodedisconnected;
        LCALL   ?Subroutine37 & 0xFFFF
??CrossCallReturnLabel_61:
        MOV     A,#0x1
        MOVX    @DPTR,A
// 1529              }
// 1530         }
// 1531         nodeSearch->oldtimestamp = nodeSearch->timestamp;		
??CustomApp_linkstatus_updated_2:
        LCALL   ?Subroutine31 & 0xFFFF
??CrossCallReturnLabel_47:
        LCALL   ?XLOAD_R0123
        LCALL   ?Subroutine32 & 0xFFFF
??CrossCallReturnLabel_50:
        LCALL   ?XSTORE_R0123
        MOV     DPL,R6
        MOV     DPH,R7
        MOVX    A,@DPTR
        MOV     R6,A
        INC     DPTR
        MOVX    A,@DPTR
??CustomApp_linkstatus_updated_0:
        MOV     R7,A
        MOV     A,R6
        ORL     A,R7
        JNZ     $+5
        LJMP    ??CustomApp_linkstatus_updated_3 & 0xFFFF
        LCALL   ?Subroutine37 & 0xFFFF
??CrossCallReturnLabel_62:
        MOVX    A,@DPTR
        XRL     A,#0x1
        JNZ     ??CustomApp_linkstatus_updated_4
        ; Setup parameters for call to function CustomApp_NodeDelete
        LCALL   ?Subroutine16 & 0xFFFF
??CrossCallReturnLabel_95:
        LCALL   `??CustomApp_NodeDelete::?relay`; Banked call to: CustomApp_NodeDelete
        MOV     A,R1
        MOV     R4,A
        JNZ     ??CustomApp_linkstatus_updated_5
        ; Setup parameters for call to function CustomApp_node_deregister_ind
        LCALL   ?Subroutine30 & 0xFFFF
??CrossCallReturnLabel_44:
        LCALL   ?PUSH_XSTACK8_X
          CFI CFA_XSP16 add(XSP16, 24)
        MOV     DPL,R6
        MOV     DPH,R7
        INC     DPTR
        INC     DPTR
        MOV     A,#0xc
        LCALL   ?PUSH_XSTACK8_X
          CFI CFA_XSP16 add(XSP16, 36)
        LCALL   `??CustomApp_node_deregister_ind::?relay`; Banked call to: CustomApp_node_deregister_ind
        MOV     A,#0x18
        LCALL   ?DEALLOC_XSTACK8
          CFI CFA_XSP16 add(XSP16, 12)
        ; Setup parameters for call to function HalLcdWriteStringValue
        MOV     ?V0,#0x5
        MOV     R0,#?V0
        LCALL   ?PUSH_XSTACK_I_ONE
          CFI CFA_XSP16 add(XSP16, 13)
        MOV     R1,#0x10
        MOV     R4,#0x0
        MOV     R5,#0x0
        MOV     R2,#`?<Constant "nodedelete OK:">` & 0xff
        MOV     R3,#(`?<Constant "nodedelete OK:">` >> 8) & 0xff
        SJMP    ??CustomApp_linkstatus_updated_6
          CFI CFA_XSP16 add(XSP16, 12)
??CustomApp_linkstatus_updated_5:
        ; Setup parameters for call to function HalLcdWriteStringValue
        MOV     ?V0,#0x5
        MOV     R0,#?V0
        LCALL   ?PUSH_XSTACK_I_ONE
          CFI CFA_XSP16 add(XSP16, 13)
        MOV     R1,#0x10
        MOV     R5,#0x0
        MOV     R2,#`?<Constant "nodedelete NOK:">` & 0xff
        MOV     R3,#(`?<Constant "nodedelete NOK:">` >> 8) & 0xff
??CustomApp_linkstatus_updated_6:
        LCALL   `??HalLcdWriteStringValue::?relay`; Banked call to: HalLcdWriteStringValue
        MOV     A,#0x1
        LCALL   ?DEALLOC_XSTACK8
          CFI CFA_XSP16 add(XSP16, 12)
        SJMP    ??CustomApp_linkstatus_updated_3
??CustomApp_linkstatus_updated_4:
        MOVX    A,@DPTR
        XRL     A,#0x2
        JNZ     ??CustomApp_linkstatus_updated_2
        LCALL   ?Subroutine32 & 0xFFFF
??CrossCallReturnLabel_51:
        MOV     R0,#?V0
        LCALL   ?L_MOV_X
        LCALL   ?Subroutine31 & 0xFFFF
??CrossCallReturnLabel_48:
        MOV     R0,#?V0
        LCALL   ?L_EQ_X
        JZ      $+5
        LJMP    ??CustomApp_linkstatus_updated_2 & 0xFFFF
        MOV     A,R6
        ADD     A,#0x24
        MOV     DPL,A
        CLR     A
        ADDC    A,R7
        MOV     DPH,A
        LCALL   ?Subroutine22 & 0xFFFF
// 1532     }
??CrossCallReturnLabel_25:
        JC      $+5
        LJMP    ??CustomApp_linkstatus_updated_1 & 0xFFFF
// 1533 
// 1534     activeCount = CustomApp_get_connected_node_count();
??CustomApp_linkstatus_updated_3:
        ; Setup parameters for call to function CustomApp_get_connected_node_count
        LCALL   `??CustomApp_get_connected_node_count::?relay`; Banked call to: CustomApp_get_connected_node_count
        MOV     A,R1
        MOV     R6,A
// 1535 #if defined( LCD_SUPPORTED )    	
// 1536     HalLcdWriteStringValue( (char*)"connected:", activeCount, 10, HAL_LCD_LINE_1 );
        ; Setup parameters for call to function HalLcdWriteStringValue
        MOV     ?V0,#0x1
        MOV     R0,#?V0
        LCALL   ?PUSH_XSTACK_I_ONE
          CFI CFA_XSP16 add(XSP16, 13)
        MOV     R1,#0xa
        MOV     A,R6
        MOV     R4,A
        MOV     R5,#0x0
        MOV     R2,#`?<Constant "connected:">` & 0xff
        MOV     R3,#(`?<Constant "connected:">` >> 8) & 0xff
        LCALL   `??HalLcdWriteStringValue::?relay`; Banked call to: HalLcdWriteStringValue
        MOV     A,#0x1
        LCALL   ?DEALLOC_XSTACK8
          CFI CFA_XSP16 add(XSP16, 12)
// 1537 #endif
// 1538 
// 1539 
// 1540 #if 1
// 1541     //exception: panid conflict 
// 1542     if(activeCount > Authlist_item_cnt())
        ; Setup parameters for call to function Authlist_item_cnt
        LCALL   `??Authlist_item_cnt::?relay`; Banked call to: Authlist_item_cnt
        MOV     A,R1
        CLR     C
        SUBB    A,R6
        JNC     ??CustomApp_linkstatus_updated_7
// 1543         Onboard_soft_reset();
        ; Setup parameters for call to function Onboard_soft_reset
        LCALL   Onboard_soft_reset & 0xFFFF
// 1544 #endif
// 1545 
// 1546 
// 1547     return;
??CustomApp_linkstatus_updated_7:
        LJMP    ??Subroutine53_0 & 0xFFFF
// 1548 }
          CFI EndBlock cfiBlock135

        RSEG BANKED_CODE:CODE:NOROOT(0)
?Subroutine37:
          CFI Block cfiCond136 Using cfiCommon0
          CFI Function CustomApp_linkstatus_updated
          CFI Conditional ??CrossCallReturnLabel_61
          CFI R6 load(1, XDATA, add(CFA_XSP16, literal(-12)))
          CFI VB load(1, XDATA, add(CFA_XSP16, literal(-11)))
          CFI V0 load(1, XDATA, add(CFA_XSP16, literal(-10)))
          CFI V1 load(1, XDATA, add(CFA_XSP16, literal(-9)))
          CFI V2 load(1, XDATA, add(CFA_XSP16, literal(-8)))
          CFI V3 load(1, XDATA, add(CFA_XSP16, literal(-7)))
          CFI R7 load(1, XDATA, add(CFA_XSP16, literal(-6)))
          CFI ?RET_LOW load(1, XDATA, add(CFA_XSP16, literal(-5)))
          CFI ?RET_HIGH load(1, XDATA, add(CFA_XSP16, literal(-4)))
          CFI ?BRET_EXT load(1, XDATA, add(CFA_XSP16, literal(-3)))
          CFI DPL0 load(1, XDATA, add(CFA_XSP16, literal(-2)))
          CFI DPH0 load(1, XDATA, add(CFA_XSP16, literal(-1)))
          CFI CFA_SP SP+-2
          CFI CFA_XSP16 add(XSP16, 12)
          CFI Block cfiCond137 Using cfiCommon0
          CFI (cfiCond137) Function CustomApp_linkstatus_updated
          CFI (cfiCond137) Conditional ??CrossCallReturnLabel_62
          CFI (cfiCond137) R6 load(1, XDATA, add(CFA_XSP16, literal(-12)))
          CFI (cfiCond137) VB load(1, XDATA, add(CFA_XSP16, literal(-11)))
          CFI (cfiCond137) V0 load(1, XDATA, add(CFA_XSP16, literal(-10)))
          CFI (cfiCond137) V1 load(1, XDATA, add(CFA_XSP16, literal(-9)))
          CFI (cfiCond137) V2 load(1, XDATA, add(CFA_XSP16, literal(-8)))
          CFI (cfiCond137) V3 load(1, XDATA, add(CFA_XSP16, literal(-7)))
          CFI (cfiCond137) R7 load(1, XDATA, add(CFA_XSP16, literal(-6)))
          CFI (cfiCond137) ?RET_LOW load(1, XDATA, add(CFA_XSP16, literal(-5)))
          CFI (cfiCond137) ?RET_HIGH load(1, XDATA, add(CFA_XSP16, literal(-4)))
          CFI (cfiCond137) ?BRET_EXT load(1, XDATA, add(CFA_XSP16, literal(-3)))
          CFI (cfiCond137) DPL0 load(1, XDATA, add(CFA_XSP16, literal(-2)))
          CFI (cfiCond137) DPH0 load(1, XDATA, add(CFA_XSP16, literal(-1)))
          CFI (cfiCond137) CFA_SP SP+-2
          CFI (cfiCond137) CFA_XSP16 add(XSP16, 12)
          CFI Block cfiPicker138 Using cfiCommon1
          CFI (cfiPicker138) NoFunction
          CFI (cfiPicker138) Picker
        MOV     A,R6
        LCALL   ??Subroutine55_0 & 0xFFFF
??CrossCallReturnLabel_107:
        ADDC    A,R7
        MOV     DPH,A
        RET
          CFI EndBlock cfiCond136
          CFI EndBlock cfiCond137
          CFI EndBlock cfiPicker138

        RSEG BANKED_CODE:CODE:NOROOT(0)
?Subroutine22:
          CFI Block cfiCond139 Using cfiCommon0
          CFI Function GenericApp_ProcessEvent
          CFI Conditional ??CrossCallReturnLabel_23
          CFI R6 load(1, XDATA, add(CFA_XSP16, literal(-12)))
          CFI VB load(1, XDATA, add(CFA_XSP16, literal(-11)))
          CFI V0 load(1, XDATA, add(CFA_XSP16, literal(-10)))
          CFI V1 load(1, XDATA, add(CFA_XSP16, literal(-9)))
          CFI V2 load(1, XDATA, add(CFA_XSP16, literal(-8)))
          CFI V3 load(1, XDATA, add(CFA_XSP16, literal(-7)))
          CFI R7 load(1, XDATA, add(CFA_XSP16, literal(-6)))
          CFI ?RET_LOW load(1, XDATA, add(CFA_XSP16, literal(-5)))
          CFI ?RET_HIGH load(1, XDATA, add(CFA_XSP16, literal(-4)))
          CFI ?BRET_EXT load(1, XDATA, add(CFA_XSP16, literal(-3)))
          CFI DPL0 load(1, XDATA, add(CFA_XSP16, literal(-2)))
          CFI DPH0 load(1, XDATA, add(CFA_XSP16, literal(-1)))
          CFI CFA_SP SP+-2
          CFI CFA_XSP16 add(XSP16, 24)
          CFI Block cfiCond140 Using cfiCommon0
          CFI (cfiCond140) Function GenericApp_ProcessEvent
          CFI (cfiCond140) Conditional ??CrossCallReturnLabel_24
          CFI (cfiCond140) R6 load(1, XDATA, add(CFA_XSP16, literal(-12)))
          CFI (cfiCond140) VB load(1, XDATA, add(CFA_XSP16, literal(-11)))
          CFI (cfiCond140) V0 load(1, XDATA, add(CFA_XSP16, literal(-10)))
          CFI (cfiCond140) V1 load(1, XDATA, add(CFA_XSP16, literal(-9)))
          CFI (cfiCond140) V2 load(1, XDATA, add(CFA_XSP16, literal(-8)))
          CFI (cfiCond140) V3 load(1, XDATA, add(CFA_XSP16, literal(-7)))
          CFI (cfiCond140) R7 load(1, XDATA, add(CFA_XSP16, literal(-6)))
          CFI (cfiCond140) ?RET_LOW load(1, XDATA, add(CFA_XSP16, literal(-5)))
          CFI (cfiCond140) ?RET_HIGH load(1, XDATA, add(CFA_XSP16, literal(-4)))
          CFI (cfiCond140) ?BRET_EXT load(1, XDATA, add(CFA_XSP16, literal(-3)))
          CFI (cfiCond140) DPL0 load(1, XDATA, add(CFA_XSP16, literal(-2)))
          CFI (cfiCond140) DPH0 load(1, XDATA, add(CFA_XSP16, literal(-1)))
          CFI (cfiCond140) CFA_SP SP+-2
          CFI (cfiCond140) CFA_XSP16 add(XSP16, 24)
          CFI Block cfiCond141 Using cfiCommon0
          CFI (cfiCond141) Function CustomApp_linkstatus_updated
          CFI (cfiCond141) Conditional ??CrossCallReturnLabel_25
          CFI (cfiCond141) R6 load(1, XDATA, add(CFA_XSP16, literal(-12)))
          CFI (cfiCond141) VB load(1, XDATA, add(CFA_XSP16, literal(-11)))
          CFI (cfiCond141) V0 load(1, XDATA, add(CFA_XSP16, literal(-10)))
          CFI (cfiCond141) V1 load(1, XDATA, add(CFA_XSP16, literal(-9)))
          CFI (cfiCond141) V2 load(1, XDATA, add(CFA_XSP16, literal(-8)))
          CFI (cfiCond141) V3 load(1, XDATA, add(CFA_XSP16, literal(-7)))
          CFI (cfiCond141) R7 load(1, XDATA, add(CFA_XSP16, literal(-6)))
          CFI (cfiCond141) ?RET_LOW load(1, XDATA, add(CFA_XSP16, literal(-5)))
          CFI (cfiCond141) ?RET_HIGH load(1, XDATA, add(CFA_XSP16, literal(-4)))
          CFI (cfiCond141) ?BRET_EXT load(1, XDATA, add(CFA_XSP16, literal(-3)))
          CFI (cfiCond141) DPL0 load(1, XDATA, add(CFA_XSP16, literal(-2)))
          CFI (cfiCond141) DPH0 load(1, XDATA, add(CFA_XSP16, literal(-1)))
          CFI (cfiCond141) CFA_SP SP+-2
          CFI (cfiCond141) CFA_XSP16 add(XSP16, 12)
          CFI Block cfiPicker142 Using cfiCommon1
          CFI (cfiPicker142) NoFunction
          CFI (cfiPicker142) Picker
        MOVX    A,@DPTR
        INC     A
        MOVX    @DPTR,A
        CLR     C
        SUBB    A,#0x4
        RET
          CFI EndBlock cfiCond139
          CFI EndBlock cfiCond140
          CFI EndBlock cfiCond141
          CFI EndBlock cfiPicker142
// 1549 
// 1550 

        RSEG BANKED_CODE:CODE:NOROOT(0)
// 1551 void  CustomApp_process_ping( pingpkt_t *pkt )
CustomApp_process_ping:
          CFI Block cfiBlock143 Using cfiCommon0
          CFI Function CustomApp_process_ping
        CODE
// 1552 {
        FUNCALL CustomApp_process_ping, CustomApp_NodeFindNwkAddrList
        LOCFRAME ISTACK, 0, STACK
        LOCFRAME PSTACK, 0, STACK
        LOCFRAME XSTACK, 13, STACK
        LOCFRAME IOVERLAY, 0, STATIC
        LOCFRAME DOVERLAY, 0, STATIC
        ARGFRAME ISTACK, 0, STACK
        ARGFRAME PSTACK, 0, STACK
        ARGFRAME XSTACK, 13, STACK
        ARGFRAME IOVERLAY, 0, STATIC
        ARGFRAME DOVERLAY, 0, STATIC
        FUNCALL CustomApp_process_ping, CustomApp_node_register_ind
        LOCFRAME ISTACK, 0, STACK
        LOCFRAME PSTACK, 0, STACK
        LOCFRAME XSTACK, 37, STACK
        LOCFRAME IOVERLAY, 0, STATIC
        LOCFRAME DOVERLAY, 0, STATIC
        ARGFRAME ISTACK, 0, STACK
        ARGFRAME PSTACK, 0, STACK
        ARGFRAME XSTACK, 37, STACK
        ARGFRAME IOVERLAY, 0, STATIC
        ARGFRAME DOVERLAY, 0, STATIC
        FUNCALL CustomApp_process_ping, CustomApp_NodeRegister
        LOCFRAME ISTACK, 0, STACK
        LOCFRAME PSTACK, 0, STACK
        LOCFRAME XSTACK, 37, STACK
        LOCFRAME IOVERLAY, 0, STATIC
        LOCFRAME DOVERLAY, 0, STATIC
        ARGFRAME ISTACK, 0, STACK
        ARGFRAME PSTACK, 0, STACK
        ARGFRAME XSTACK, 37, STACK
        ARGFRAME IOVERLAY, 0, STATIC
        ARGFRAME DOVERLAY, 0, STATIC
        FUNCALL CustomApp_process_ping, CustomApp_node_register_ind
        LOCFRAME ISTACK, 0, STACK
        LOCFRAME PSTACK, 0, STACK
        LOCFRAME XSTACK, 37, STACK
        LOCFRAME IOVERLAY, 0, STATIC
        LOCFRAME DOVERLAY, 0, STATIC
        ARGFRAME ISTACK, 0, STACK
        ARGFRAME PSTACK, 0, STACK
        ARGFRAME XSTACK, 37, STACK
        ARGFRAME IOVERLAY, 0, STATIC
        ARGFRAME DOVERLAY, 0, STATIC
        FUNCALL CustomApp_process_ping, CustomApp_router_online_req
        LOCFRAME ISTACK, 0, STACK
        LOCFRAME PSTACK, 0, STACK
        LOCFRAME XSTACK, 25, STACK
        LOCFRAME IOVERLAY, 0, STATIC
        LOCFRAME DOVERLAY, 0, STATIC
        ARGFRAME ISTACK, 0, STACK
        ARGFRAME PSTACK, 0, STACK
        ARGFRAME XSTACK, 25, STACK
        ARGFRAME IOVERLAY, 0, STATIC
        ARGFRAME DOVERLAY, 0, STATIC
        FUNCALL CustomApp_process_ping, CustomApp_router_online_req
        LOCFRAME ISTACK, 0, STACK
        LOCFRAME PSTACK, 0, STACK
        LOCFRAME XSTACK, 25, STACK
        LOCFRAME IOVERLAY, 0, STATIC
        LOCFRAME DOVERLAY, 0, STATIC
        ARGFRAME ISTACK, 0, STACK
        ARGFRAME PSTACK, 0, STACK
        ARGFRAME XSTACK, 25, STACK
        ARGFRAME IOVERLAY, 0, STATIC
        ARGFRAME DOVERLAY, 0, STATIC
        FUNCALL CustomApp_process_ping, HalLcdWriteStringValue
        LOCFRAME ISTACK, 0, STACK
        LOCFRAME PSTACK, 0, STACK
        LOCFRAME XSTACK, 14, STACK
        LOCFRAME IOVERLAY, 0, STATIC
        LOCFRAME DOVERLAY, 0, STATIC
        ARGFRAME ISTACK, 0, STACK
        ARGFRAME PSTACK, 0, STACK
        ARGFRAME XSTACK, 14, STACK
        ARGFRAME IOVERLAY, 0, STATIC
        ARGFRAME DOVERLAY, 0, STATIC
        FUNCALL CustomApp_process_ping, CustomApp_send_ping_rsp
        LOCFRAME ISTACK, 0, STACK
        LOCFRAME PSTACK, 0, STACK
        LOCFRAME XSTACK, 13, STACK
        LOCFRAME IOVERLAY, 0, STATIC
        LOCFRAME DOVERLAY, 0, STATIC
        ARGFRAME ISTACK, 0, STACK
        ARGFRAME PSTACK, 0, STACK
        ARGFRAME XSTACK, 13, STACK
        ARGFRAME IOVERLAY, 0, STATIC
        ARGFRAME DOVERLAY, 0, STATIC
        REQUIRE ?V0
        REQUIRE ?V1
        REQUIRE ?V2
        REQUIRE ?V3
        REQUIRE ?V4
        MOV     A,#-0xd
        LCALL   ?BANKED_ENTER_XDATA
          CFI DPH0 load(1, XDATA, add(CFA_XSP16, literal(-1)))
          CFI DPL0 load(1, XDATA, add(CFA_XSP16, literal(-2)))
          CFI ?BRET_EXT load(1, XDATA, add(CFA_XSP16, literal(-3)))
          CFI ?RET_HIGH load(1, XDATA, add(CFA_XSP16, literal(-4)))
          CFI ?RET_LOW load(1, XDATA, add(CFA_XSP16, literal(-5)))
          CFI R7 load(1, XDATA, add(CFA_XSP16, literal(-6)))
          CFI V4 load(1, XDATA, add(CFA_XSP16, literal(-7)))
          CFI V3 load(1, XDATA, add(CFA_XSP16, literal(-8)))
          CFI V2 load(1, XDATA, add(CFA_XSP16, literal(-9)))
          CFI V1 load(1, XDATA, add(CFA_XSP16, literal(-10)))
          CFI V0 load(1, XDATA, add(CFA_XSP16, literal(-11)))
          CFI VB load(1, XDATA, add(CFA_XSP16, literal(-12)))
          CFI R6 load(1, XDATA, add(CFA_XSP16, literal(-13)))
          CFI CFA_SP SP+0
          CFI CFA_XSP16 add(XSP16, 13)
        ; Saved register size: 13
        ; Auto size: 0
        MOV     A,R2
        MOV     R6,A
        MOV     A,R3
        MOV     R7,A
// 1553         nodeList_t *nodeSearch;
// 1554 	 nodeList_t *pnode;
// 1555         nodeSearch = CustomApp_NodeFindNwkAddrList(pkt->devAddr16.addr.shortAddr);
        ; Setup parameters for call to function CustomApp_NodeFindNwkAddrList
        LCALL   ?Subroutine16 & 0xFFFF
??CrossCallReturnLabel_96:
        LCALL   `??CustomApp_NodeFindNwkAddrList::?relay`; Banked call to: CustomApp_NodeFindNwkAddrList
        MOV     ?V0,R2
        MOV     ?V1,R3
// 1556         if (nodeSearch!=NULL)
        MOV     A,R2
        ORL     A,?V1
        JZ      ??CustomApp_process_ping_0
// 1557         {
// 1558            if(nodeSearch->status == nodeconnected)
        LCALL   ?Subroutine43 & 0xFFFF
??CrossCallReturnLabel_108:
        ADDC    A,?V1
        MOV     DPH,A
        MOVX    A,@DPTR
        XRL     A,#0x2
        JZ      $+5
        LJMP    ??CustomApp_process_ping_1 & 0xFFFF
// 1559            {
// 1560 		   nodeSearch->timestamp = pkt->timestamp;
        LCALL   ?Subroutine31 & 0xFFFF
??CrossCallReturnLabel_49:
        LCALL   ?XLOAD_R0123
        LCALL   ?Subroutine33 & 0xFFFF
??CrossCallReturnLabel_53:
        LCALL   ?XSTORE_R0123
// 1561 		   if (pkt->seqnum <= 2)
        LCALL   ?Subroutine32 & 0xFFFF
??CrossCallReturnLabel_52:
        MOVX    A,@DPTR
        CLR     C
        SUBB    A,#0x3
        JC      $+5
        LJMP    ??CustomApp_process_ping_1 & 0xFFFF
// 1562 		   CustomApp_node_register_ind(pkt->devAddr64, pkt->devAddr16);
        ; Setup parameters for call to function CustomApp_node_register_ind
        LCALL   ?Subroutine30 & 0xFFFF
// 1563            }
// 1564         }
??CrossCallReturnLabel_45:
        LCALL   ?PUSH_XSTACK8_X
          CFI CFA_XSP16 add(XSP16, 25)
        MOV     DPL,R6
        MOV     DPH,R7
        INC     DPTR
        INC     DPTR
        MOV     A,#0xc
        LCALL   ?PUSH_XSTACK8_X
          CFI CFA_XSP16 add(XSP16, 37)
        LCALL   `??CustomApp_node_register_ind::?relay`; Banked call to: CustomApp_node_register_ind
        MOV     A,#0x18
        LCALL   ?DEALLOC_XSTACK8
          CFI CFA_XSP16 add(XSP16, 13)
        LJMP    ??CustomApp_process_ping_1 & 0xFFFF
// 1565 	 else
// 1566 	 {
// 1567             pnode=CustomApp_NodeRegister(pkt->devAddr64, pkt->devAddr16);
// 1568             if(pnode!=NULL)
??CustomApp_process_ping_0:
        ; Setup parameters for call to function CustomApp_NodeRegister
        LCALL   ?Subroutine30 & 0xFFFF
??CrossCallReturnLabel_46:
        LCALL   ?PUSH_XSTACK8_X
          CFI CFA_XSP16 add(XSP16, 25)
        MOV     DPL,R6
        MOV     DPH,R7
        INC     DPTR
        INC     DPTR
        MOV     A,#0xc
        LCALL   ?PUSH_XSTACK8_X
          CFI CFA_XSP16 add(XSP16, 37)
        LCALL   `??CustomApp_NodeRegister::?relay`; Banked call to: CustomApp_NodeRegister
        MOV     A,#0x18
        LCALL   ?DEALLOC_XSTACK8
          CFI CFA_XSP16 add(XSP16, 13)
        MOV     ?V3,R3
        MOV     A,R2
        ORL     A,?V3
        JZ      ??CustomApp_process_ping_1
// 1569             {
// 1570                  CustomApp_node_register_ind(pkt->devAddr64, pkt->devAddr16);	//0x18
        MOV     A,R6
        ADD     A,#0xe
        MOV     R0,A
        CLR     A
        ADDC    A,R7
        MOV     R1,A
        MOV     ?V2,R0
        MOV     ?V3,R1
        ; Setup parameters for call to function CustomApp_node_register_ind
        MOV     DPL,R0
        MOV     DPH,A
        MOV     A,#0xc
        LCALL   ?PUSH_XSTACK8_X
          CFI CFA_XSP16 add(XSP16, 25)
        MOV     DPL,R6
        MOV     DPH,R7
        INC     DPTR
        INC     DPTR
        MOV     A,#0xc
        LCALL   ?PUSH_XSTACK8_X
          CFI CFA_XSP16 add(XSP16, 37)
        LCALL   `??CustomApp_node_register_ind::?relay`; Banked call to: CustomApp_node_register_ind
        MOV     A,#0x18
        LCALL   ?DEALLOC_XSTACK8
          CFI CFA_XSP16 add(XSP16, 13)
// 1571                  CustomApp_router_online_req(pkt->devAddr16);
        ; Setup parameters for call to function CustomApp_router_online_req
        MOV     DPL,?V2
        MOV     DPH,?V3
        MOV     A,#0xc
        LCALL   ?PUSH_XSTACK8_X
          CFI CFA_XSP16 add(XSP16, 25)
        LCALL   `??CustomApp_router_online_req::?relay`; Banked call to: CustomApp_router_online_req
        MOV     A,#0xc
        LCALL   ?DEALLOC_XSTACK8
          CFI CFA_XSP16 add(XSP16, 13)
// 1572 #if 0				 
// 1573                  osal_start_timerEx( GenericApp_TaskID,
// 1574 					GENERICAPP_ROUTER_ONLINE_EVT,
// 1575 					5000); 		
// 1576 #endif
// 1577                  CustomApp_router_online_req(pkt->devAddr16);
        ; Setup parameters for call to function CustomApp_router_online_req
        MOV     DPL,?V2
        MOV     DPH,?V3
        MOV     A,#0xc
        LCALL   ?PUSH_XSTACK8_X
          CFI CFA_XSP16 add(XSP16, 25)
        LCALL   `??CustomApp_router_online_req::?relay`; Banked call to: CustomApp_router_online_req
        MOV     A,#0xc
        LCALL   ?DEALLOC_XSTACK8
          CFI CFA_XSP16 add(XSP16, 13)
// 1578 #if defined( LCD_SUPPORTED )
// 1579                  HalLcdWriteStringValue( (char*)"nodregOK:", pkt->devAddr16.addr.shortAddr, 16, HAL_LCD_LINE_2 );  
        ; Setup parameters for call to function HalLcdWriteStringValue
        MOV     ?V4,#0x3
        MOV     R0,#?V4
        LCALL   ?PUSH_XSTACK_I_ONE
          CFI CFA_XSP16 add(XSP16, 14)
        MOV     R1,#0x10
        MOV     DPL,?V2
        MOV     DPH,?V3
        LCALL   ?Subroutine20 & 0xFFFF
// 1580 #endif
// 1581             }	  
// 1582 	 }
??CrossCallReturnLabel_22:
        LCALL   `??HalLcdWriteStringValue::?relay`; Banked call to: HalLcdWriteStringValue
        MOV     A,#0x1
        LCALL   ?DEALLOC_XSTACK8
          CFI CFA_XSP16 add(XSP16, 13)
// 1583 	 nodeSearch->oldtimestamp = nodeSearch->timestamp;  //chaokw ping
??CustomApp_process_ping_1:
        LCALL   ?Subroutine33 & 0xFFFF
??CrossCallReturnLabel_54:
        LCALL   ?XLOAD_R0123
        MOV     A,?V0
        ADD     A,#0x20
        MOV     DPL,A
        CLR     A
        ADDC    A,?V1
        MOV     DPH,A
        LCALL   ?XSTORE_R0123
// 1584 	 CustomApp_send_ping_rsp(pkt->devAddr16.addr.shortAddr);  //chaokw ping
        ; Setup parameters for call to function CustomApp_send_ping_rsp
        LCALL   ?Subroutine16 & 0xFFFF
??CrossCallReturnLabel_97:
        LCALL   `??CustomApp_send_ping_rsp::?relay`; Banked call to: CustomApp_send_ping_rsp
// 1585 	 
// 1586 }
        MOV     R7,#0x5
        LJMP    ?BANKED_LEAVE_XDATA
          CFI EndBlock cfiBlock143

        RSEG BANKED_CODE:CODE:NOROOT(0)
?Subroutine43:
          CFI Block cfiCond144 Using cfiCommon0
          CFI Function CustomApp_process_ping
          CFI Conditional ??CrossCallReturnLabel_108
          CFI R6 load(1, XDATA, add(CFA_XSP16, literal(-13)))
          CFI VB load(1, XDATA, add(CFA_XSP16, literal(-12)))
          CFI V0 load(1, XDATA, add(CFA_XSP16, literal(-11)))
          CFI V1 load(1, XDATA, add(CFA_XSP16, literal(-10)))
          CFI V2 load(1, XDATA, add(CFA_XSP16, literal(-9)))
          CFI V3 load(1, XDATA, add(CFA_XSP16, literal(-8)))
          CFI V4 load(1, XDATA, add(CFA_XSP16, literal(-7)))
          CFI R7 load(1, XDATA, add(CFA_XSP16, literal(-6)))
          CFI ?RET_LOW load(1, XDATA, add(CFA_XSP16, literal(-5)))
          CFI ?RET_HIGH load(1, XDATA, add(CFA_XSP16, literal(-4)))
          CFI ?BRET_EXT load(1, XDATA, add(CFA_XSP16, literal(-3)))
          CFI DPL0 load(1, XDATA, add(CFA_XSP16, literal(-2)))
          CFI DPH0 load(1, XDATA, add(CFA_XSP16, literal(-1)))
          CFI CFA_SP SP+-2
          CFI CFA_XSP16 add(XSP16, 13)
          CFI Block cfiCond145 Using cfiCommon0
          CFI (cfiCond145) Function CustomApp_NodeRegister
          CFI (cfiCond145) Conditional ??CrossCallReturnLabel_109, ??CrossCallReturnLabel_59
          CFI (cfiCond145) R6 load(1, XDATA, add(CFA_XSP16, literal(-10)))
          CFI (cfiCond145) VB load(1, XDATA, add(CFA_XSP16, literal(-9)))
          CFI (cfiCond145) V0 load(1, XDATA, add(CFA_XSP16, literal(-8)))
          CFI (cfiCond145) V1 load(1, XDATA, add(CFA_XSP16, literal(-7)))
          CFI (cfiCond145) R7 load(1, XDATA, add(CFA_XSP16, literal(-6)))
          CFI (cfiCond145) ?RET_LOW load(1, XDATA, add(CFA_XSP16, literal(-5)))
          CFI (cfiCond145) ?RET_HIGH load(1, XDATA, add(CFA_XSP16, literal(-4)))
          CFI (cfiCond145) ?BRET_EXT load(1, XDATA, add(CFA_XSP16, literal(-3)))
          CFI (cfiCond145) DPL0 load(1, XDATA, add(CFA_XSP16, literal(-2)))
          CFI (cfiCond145) DPH0 load(1, XDATA, add(CFA_XSP16, literal(-1)))
          CFI (cfiCond145) CFA_SP SP+-4
          CFI (cfiCond145) CFA_XSP16 add(XSP16, 10)
          CFI Block cfiCond146 Using cfiCommon0
          CFI (cfiCond146) Function CustomApp_get_connected_node_count
          CFI (cfiCond146) Conditional ??CrossCallReturnLabel_109, ??CrossCallReturnLabel_60
          CFI (cfiCond146) DPL0 Frame(CFA_SP, 4)
          CFI (cfiCond146) DPH0 Frame(CFA_SP, 5)
          CFI (cfiCond146) CFA_SP SP+-9
          CFI Block cfiPicker147 Using cfiCommon1
          CFI (cfiPicker147) NoFunction
          CFI (cfiPicker147) Picker
        MOV     A,R2
          CFI EndBlock cfiCond144
          CFI EndBlock cfiCond145
          CFI EndBlock cfiCond146
          CFI EndBlock cfiPicker147
        REQUIRE ??Subroutine55_0
        ; // Fall through to label ??Subroutine55_0

        RSEG BANKED_CODE:CODE:NOROOT(0)
??Subroutine55_0:
          CFI Block cfiCond148 Using cfiCommon0
          CFI Function CustomApp_send_ping_req
          CFI Conditional ??CrossCallReturnLabel_106
          CFI R6 load(1, XDATA, add(CFA_XSP16, literal(-14)))
          CFI VB load(1, XDATA, add(CFA_XSP16, literal(-13)))
          CFI V0 load(1, XDATA, add(CFA_XSP16, literal(-12)))
          CFI V1 load(1, XDATA, add(CFA_XSP16, literal(-11)))
          CFI V2 load(1, XDATA, add(CFA_XSP16, literal(-10)))
          CFI V3 load(1, XDATA, add(CFA_XSP16, literal(-9)))
          CFI V4 load(1, XDATA, add(CFA_XSP16, literal(-8)))
          CFI V5 load(1, XDATA, add(CFA_XSP16, literal(-7)))
          CFI R7 load(1, XDATA, add(CFA_XSP16, literal(-6)))
          CFI ?RET_LOW load(1, XDATA, add(CFA_XSP16, literal(-5)))
          CFI ?RET_HIGH load(1, XDATA, add(CFA_XSP16, literal(-4)))
          CFI ?BRET_EXT load(1, XDATA, add(CFA_XSP16, literal(-3)))
          CFI DPL0 load(1, XDATA, add(CFA_XSP16, literal(-2)))
          CFI DPH0 load(1, XDATA, add(CFA_XSP16, literal(-1)))
          CFI CFA_SP SP+-2
          CFI CFA_XSP16 add(XSP16, 16)
          CFI Block cfiCond149 Using cfiCommon0
          CFI (cfiCond149) Function CustomApp_linkstatus_updated
          CFI (cfiCond149) Conditional ??CrossCallReturnLabel_107, ??CrossCallReturnLabel_61
          CFI (cfiCond149) R6 load(1, XDATA, add(CFA_XSP16, literal(-12)))
          CFI (cfiCond149) VB load(1, XDATA, add(CFA_XSP16, literal(-11)))
          CFI (cfiCond149) V0 load(1, XDATA, add(CFA_XSP16, literal(-10)))
          CFI (cfiCond149) V1 load(1, XDATA, add(CFA_XSP16, literal(-9)))
          CFI (cfiCond149) V2 load(1, XDATA, add(CFA_XSP16, literal(-8)))
          CFI (cfiCond149) V3 load(1, XDATA, add(CFA_XSP16, literal(-7)))
          CFI (cfiCond149) R7 load(1, XDATA, add(CFA_XSP16, literal(-6)))
          CFI (cfiCond149) ?RET_LOW load(1, XDATA, add(CFA_XSP16, literal(-5)))
          CFI (cfiCond149) ?RET_HIGH load(1, XDATA, add(CFA_XSP16, literal(-4)))
          CFI (cfiCond149) ?BRET_EXT load(1, XDATA, add(CFA_XSP16, literal(-3)))
          CFI (cfiCond149) DPL0 load(1, XDATA, add(CFA_XSP16, literal(-2)))
          CFI (cfiCond149) DPH0 load(1, XDATA, add(CFA_XSP16, literal(-1)))
          CFI (cfiCond149) CFA_SP SP+-4
          CFI (cfiCond149) CFA_XSP16 add(XSP16, 12)
          CFI Block cfiCond150 Using cfiCommon0
          CFI (cfiCond150) Function CustomApp_linkstatus_updated
          CFI (cfiCond150) Conditional ??CrossCallReturnLabel_107, ??CrossCallReturnLabel_62
          CFI (cfiCond150) R6 load(1, XDATA, add(CFA_XSP16, literal(-12)))
          CFI (cfiCond150) VB load(1, XDATA, add(CFA_XSP16, literal(-11)))
          CFI (cfiCond150) V0 load(1, XDATA, add(CFA_XSP16, literal(-10)))
          CFI (cfiCond150) V1 load(1, XDATA, add(CFA_XSP16, literal(-9)))
          CFI (cfiCond150) V2 load(1, XDATA, add(CFA_XSP16, literal(-8)))
          CFI (cfiCond150) V3 load(1, XDATA, add(CFA_XSP16, literal(-7)))
          CFI (cfiCond150) R7 load(1, XDATA, add(CFA_XSP16, literal(-6)))
          CFI (cfiCond150) ?RET_LOW load(1, XDATA, add(CFA_XSP16, literal(-5)))
          CFI (cfiCond150) ?RET_HIGH load(1, XDATA, add(CFA_XSP16, literal(-4)))
          CFI (cfiCond150) ?BRET_EXT load(1, XDATA, add(CFA_XSP16, literal(-3)))
          CFI (cfiCond150) DPL0 load(1, XDATA, add(CFA_XSP16, literal(-2)))
          CFI (cfiCond150) DPH0 load(1, XDATA, add(CFA_XSP16, literal(-1)))
          CFI (cfiCond150) CFA_SP SP+-4
          CFI (cfiCond150) CFA_XSP16 add(XSP16, 12)
          CFI Block cfiCond151 Using cfiCommon0
          CFI (cfiCond151) Function CustomApp_process_ping
          CFI (cfiCond151) Conditional ??CrossCallReturnLabel_108
          CFI (cfiCond151) R6 load(1, XDATA, add(CFA_XSP16, literal(-13)))
          CFI (cfiCond151) VB load(1, XDATA, add(CFA_XSP16, literal(-12)))
          CFI (cfiCond151) V0 load(1, XDATA, add(CFA_XSP16, literal(-11)))
          CFI (cfiCond151) V1 load(1, XDATA, add(CFA_XSP16, literal(-10)))
          CFI (cfiCond151) V2 load(1, XDATA, add(CFA_XSP16, literal(-9)))
          CFI (cfiCond151) V3 load(1, XDATA, add(CFA_XSP16, literal(-8)))
          CFI (cfiCond151) V4 load(1, XDATA, add(CFA_XSP16, literal(-7)))
          CFI (cfiCond151) R7 load(1, XDATA, add(CFA_XSP16, literal(-6)))
          CFI (cfiCond151) ?RET_LOW load(1, XDATA, add(CFA_XSP16, literal(-5)))
          CFI (cfiCond151) ?RET_HIGH load(1, XDATA, add(CFA_XSP16, literal(-4)))
          CFI (cfiCond151) ?BRET_EXT load(1, XDATA, add(CFA_XSP16, literal(-3)))
          CFI (cfiCond151) DPL0 load(1, XDATA, add(CFA_XSP16, literal(-2)))
          CFI (cfiCond151) DPH0 load(1, XDATA, add(CFA_XSP16, literal(-1)))
          CFI (cfiCond151) CFA_SP SP+-2
          CFI (cfiCond151) CFA_XSP16 add(XSP16, 13)
          CFI Block cfiCond152 Using cfiCommon0
          CFI (cfiCond152) Function CustomApp_NodeRegister
          CFI (cfiCond152) Conditional ??CrossCallReturnLabel_109, ??CrossCallReturnLabel_59
          CFI (cfiCond152) R6 load(1, XDATA, add(CFA_XSP16, literal(-10)))
          CFI (cfiCond152) VB load(1, XDATA, add(CFA_XSP16, literal(-9)))
          CFI (cfiCond152) V0 load(1, XDATA, add(CFA_XSP16, literal(-8)))
          CFI (cfiCond152) V1 load(1, XDATA, add(CFA_XSP16, literal(-7)))
          CFI (cfiCond152) R7 load(1, XDATA, add(CFA_XSP16, literal(-6)))
          CFI (cfiCond152) ?RET_LOW load(1, XDATA, add(CFA_XSP16, literal(-5)))
          CFI (cfiCond152) ?RET_HIGH load(1, XDATA, add(CFA_XSP16, literal(-4)))
          CFI (cfiCond152) ?BRET_EXT load(1, XDATA, add(CFA_XSP16, literal(-3)))
          CFI (cfiCond152) DPL0 load(1, XDATA, add(CFA_XSP16, literal(-2)))
          CFI (cfiCond152) DPH0 load(1, XDATA, add(CFA_XSP16, literal(-1)))
          CFI (cfiCond152) CFA_SP SP+-4
          CFI (cfiCond152) CFA_XSP16 add(XSP16, 10)
          CFI Block cfiCond153 Using cfiCommon0
          CFI (cfiCond153) Function CustomApp_get_connected_node_count
          CFI (cfiCond153) Conditional ??CrossCallReturnLabel_109, ??CrossCallReturnLabel_60
          CFI (cfiCond153) DPL0 Frame(CFA_SP, 4)
          CFI (cfiCond153) DPH0 Frame(CFA_SP, 5)
          CFI (cfiCond153) CFA_SP SP+-9
          CFI Block cfiPicker154 Using cfiCommon1
          CFI (cfiPicker154) NoFunction
          CFI (cfiPicker154) Picker
        ADD     A,#0x1a
        MOV     DPL,A
        CLR     A
        RET
          CFI EndBlock cfiCond148
          CFI EndBlock cfiCond149
          CFI EndBlock cfiCond150
          CFI EndBlock cfiCond151
          CFI EndBlock cfiCond152
          CFI EndBlock cfiCond153
          CFI EndBlock cfiPicker154

        RSEG BANKED_CODE:CODE:NOROOT(0)
?Subroutine33:
          CFI Block cfiCond155 Using cfiCommon0
          CFI Function CustomApp_process_ping
          CFI Conditional ??CrossCallReturnLabel_53
          CFI R6 load(1, XDATA, add(CFA_XSP16, literal(-13)))
          CFI VB load(1, XDATA, add(CFA_XSP16, literal(-12)))
          CFI V0 load(1, XDATA, add(CFA_XSP16, literal(-11)))
          CFI V1 load(1, XDATA, add(CFA_XSP16, literal(-10)))
          CFI V2 load(1, XDATA, add(CFA_XSP16, literal(-9)))
          CFI V3 load(1, XDATA, add(CFA_XSP16, literal(-8)))
          CFI V4 load(1, XDATA, add(CFA_XSP16, literal(-7)))
          CFI R7 load(1, XDATA, add(CFA_XSP16, literal(-6)))
          CFI ?RET_LOW load(1, XDATA, add(CFA_XSP16, literal(-5)))
          CFI ?RET_HIGH load(1, XDATA, add(CFA_XSP16, literal(-4)))
          CFI ?BRET_EXT load(1, XDATA, add(CFA_XSP16, literal(-3)))
          CFI DPL0 load(1, XDATA, add(CFA_XSP16, literal(-2)))
          CFI DPH0 load(1, XDATA, add(CFA_XSP16, literal(-1)))
          CFI CFA_SP SP+-2
          CFI CFA_XSP16 add(XSP16, 13)
          CFI Block cfiCond156 Using cfiCommon0
          CFI (cfiCond156) Function CustomApp_process_ping
          CFI (cfiCond156) Conditional ??CrossCallReturnLabel_54
          CFI (cfiCond156) R6 load(1, XDATA, add(CFA_XSP16, literal(-13)))
          CFI (cfiCond156) VB load(1, XDATA, add(CFA_XSP16, literal(-12)))
          CFI (cfiCond156) V0 load(1, XDATA, add(CFA_XSP16, literal(-11)))
          CFI (cfiCond156) V1 load(1, XDATA, add(CFA_XSP16, literal(-10)))
          CFI (cfiCond156) V2 load(1, XDATA, add(CFA_XSP16, literal(-9)))
          CFI (cfiCond156) V3 load(1, XDATA, add(CFA_XSP16, literal(-8)))
          CFI (cfiCond156) V4 load(1, XDATA, add(CFA_XSP16, literal(-7)))
          CFI (cfiCond156) R7 load(1, XDATA, add(CFA_XSP16, literal(-6)))
          CFI (cfiCond156) ?RET_LOW load(1, XDATA, add(CFA_XSP16, literal(-5)))
          CFI (cfiCond156) ?RET_HIGH load(1, XDATA, add(CFA_XSP16, literal(-4)))
          CFI (cfiCond156) ?BRET_EXT load(1, XDATA, add(CFA_XSP16, literal(-3)))
          CFI (cfiCond156) DPL0 load(1, XDATA, add(CFA_XSP16, literal(-2)))
          CFI (cfiCond156) DPH0 load(1, XDATA, add(CFA_XSP16, literal(-1)))
          CFI (cfiCond156) CFA_SP SP+-2
          CFI (cfiCond156) CFA_XSP16 add(XSP16, 13)
          CFI Block cfiPicker157 Using cfiCommon1
          CFI (cfiPicker157) NoFunction
          CFI (cfiPicker157) Picker
        MOV     A,?V0
        ADD     A,#0x1c
        MOV     DPL,A
        CLR     A
        ADDC    A,?V1
        MOV     DPH,A
        RET
          CFI EndBlock cfiCond155
          CFI EndBlock cfiCond156
          CFI EndBlock cfiPicker157

        RSEG BANKED_CODE:CODE:NOROOT(0)
?Subroutine32:
          CFI Block cfiCond158 Using cfiCommon0
          CFI Function CustomApp_linkstatus_updated
          CFI Conditional ??CrossCallReturnLabel_50
          CFI R6 load(1, XDATA, add(CFA_XSP16, literal(-12)))
          CFI VB load(1, XDATA, add(CFA_XSP16, literal(-11)))
          CFI V0 load(1, XDATA, add(CFA_XSP16, literal(-10)))
          CFI V1 load(1, XDATA, add(CFA_XSP16, literal(-9)))
          CFI V2 load(1, XDATA, add(CFA_XSP16, literal(-8)))
          CFI V3 load(1, XDATA, add(CFA_XSP16, literal(-7)))
          CFI R7 load(1, XDATA, add(CFA_XSP16, literal(-6)))
          CFI ?RET_LOW load(1, XDATA, add(CFA_XSP16, literal(-5)))
          CFI ?RET_HIGH load(1, XDATA, add(CFA_XSP16, literal(-4)))
          CFI ?BRET_EXT load(1, XDATA, add(CFA_XSP16, literal(-3)))
          CFI DPL0 load(1, XDATA, add(CFA_XSP16, literal(-2)))
          CFI DPH0 load(1, XDATA, add(CFA_XSP16, literal(-1)))
          CFI CFA_SP SP+-2
          CFI CFA_XSP16 add(XSP16, 12)
          CFI Block cfiCond159 Using cfiCommon0
          CFI (cfiCond159) Function CustomApp_linkstatus_updated
          CFI (cfiCond159) Conditional ??CrossCallReturnLabel_51
          CFI (cfiCond159) R6 load(1, XDATA, add(CFA_XSP16, literal(-12)))
          CFI (cfiCond159) VB load(1, XDATA, add(CFA_XSP16, literal(-11)))
          CFI (cfiCond159) V0 load(1, XDATA, add(CFA_XSP16, literal(-10)))
          CFI (cfiCond159) V1 load(1, XDATA, add(CFA_XSP16, literal(-9)))
          CFI (cfiCond159) V2 load(1, XDATA, add(CFA_XSP16, literal(-8)))
          CFI (cfiCond159) V3 load(1, XDATA, add(CFA_XSP16, literal(-7)))
          CFI (cfiCond159) R7 load(1, XDATA, add(CFA_XSP16, literal(-6)))
          CFI (cfiCond159) ?RET_LOW load(1, XDATA, add(CFA_XSP16, literal(-5)))
          CFI (cfiCond159) ?RET_HIGH load(1, XDATA, add(CFA_XSP16, literal(-4)))
          CFI (cfiCond159) ?BRET_EXT load(1, XDATA, add(CFA_XSP16, literal(-3)))
          CFI (cfiCond159) DPL0 load(1, XDATA, add(CFA_XSP16, literal(-2)))
          CFI (cfiCond159) DPH0 load(1, XDATA, add(CFA_XSP16, literal(-1)))
          CFI (cfiCond159) CFA_SP SP+-2
          CFI (cfiCond159) CFA_XSP16 add(XSP16, 12)
          CFI Block cfiCond160 Using cfiCommon0
          CFI (cfiCond160) Function CustomApp_process_ping
          CFI (cfiCond160) Conditional ??CrossCallReturnLabel_52
          CFI (cfiCond160) R6 load(1, XDATA, add(CFA_XSP16, literal(-13)))
          CFI (cfiCond160) VB load(1, XDATA, add(CFA_XSP16, literal(-12)))
          CFI (cfiCond160) V0 load(1, XDATA, add(CFA_XSP16, literal(-11)))
          CFI (cfiCond160) V1 load(1, XDATA, add(CFA_XSP16, literal(-10)))
          CFI (cfiCond160) V2 load(1, XDATA, add(CFA_XSP16, literal(-9)))
          CFI (cfiCond160) V3 load(1, XDATA, add(CFA_XSP16, literal(-8)))
          CFI (cfiCond160) V4 load(1, XDATA, add(CFA_XSP16, literal(-7)))
          CFI (cfiCond160) R7 load(1, XDATA, add(CFA_XSP16, literal(-6)))
          CFI (cfiCond160) ?RET_LOW load(1, XDATA, add(CFA_XSP16, literal(-5)))
          CFI (cfiCond160) ?RET_HIGH load(1, XDATA, add(CFA_XSP16, literal(-4)))
          CFI (cfiCond160) ?BRET_EXT load(1, XDATA, add(CFA_XSP16, literal(-3)))
          CFI (cfiCond160) DPL0 load(1, XDATA, add(CFA_XSP16, literal(-2)))
          CFI (cfiCond160) DPH0 load(1, XDATA, add(CFA_XSP16, literal(-1)))
          CFI (cfiCond160) CFA_SP SP+-2
          CFI (cfiCond160) CFA_XSP16 add(XSP16, 13)
          CFI Block cfiPicker161 Using cfiCommon1
          CFI (cfiPicker161) NoFunction
          CFI (cfiPicker161) Picker
        MOV     A,R6
        ADD     A,#0x20
        MOV     DPL,A
        CLR     A
        ADDC    A,R7
        MOV     DPH,A
        RET
          CFI EndBlock cfiCond158
          CFI EndBlock cfiCond159
          CFI EndBlock cfiCond160
          CFI EndBlock cfiPicker161

        RSEG BANKED_CODE:CODE:NOROOT(0)
?Subroutine31:
          CFI Block cfiCond162 Using cfiCommon0
          CFI Function CustomApp_linkstatus_updated
          CFI Conditional ??CrossCallReturnLabel_47
          CFI R6 load(1, XDATA, add(CFA_XSP16, literal(-12)))
          CFI VB load(1, XDATA, add(CFA_XSP16, literal(-11)))
          CFI V0 load(1, XDATA, add(CFA_XSP16, literal(-10)))
          CFI V1 load(1, XDATA, add(CFA_XSP16, literal(-9)))
          CFI V2 load(1, XDATA, add(CFA_XSP16, literal(-8)))
          CFI V3 load(1, XDATA, add(CFA_XSP16, literal(-7)))
          CFI R7 load(1, XDATA, add(CFA_XSP16, literal(-6)))
          CFI ?RET_LOW load(1, XDATA, add(CFA_XSP16, literal(-5)))
          CFI ?RET_HIGH load(1, XDATA, add(CFA_XSP16, literal(-4)))
          CFI ?BRET_EXT load(1, XDATA, add(CFA_XSP16, literal(-3)))
          CFI DPL0 load(1, XDATA, add(CFA_XSP16, literal(-2)))
          CFI DPH0 load(1, XDATA, add(CFA_XSP16, literal(-1)))
          CFI CFA_SP SP+-2
          CFI CFA_XSP16 add(XSP16, 12)
          CFI Block cfiCond163 Using cfiCommon0
          CFI (cfiCond163) Function CustomApp_linkstatus_updated
          CFI (cfiCond163) Conditional ??CrossCallReturnLabel_48
          CFI (cfiCond163) R6 load(1, XDATA, add(CFA_XSP16, literal(-12)))
          CFI (cfiCond163) VB load(1, XDATA, add(CFA_XSP16, literal(-11)))
          CFI (cfiCond163) V0 load(1, XDATA, add(CFA_XSP16, literal(-10)))
          CFI (cfiCond163) V1 load(1, XDATA, add(CFA_XSP16, literal(-9)))
          CFI (cfiCond163) V2 load(1, XDATA, add(CFA_XSP16, literal(-8)))
          CFI (cfiCond163) V3 load(1, XDATA, add(CFA_XSP16, literal(-7)))
          CFI (cfiCond163) R7 load(1, XDATA, add(CFA_XSP16, literal(-6)))
          CFI (cfiCond163) ?RET_LOW load(1, XDATA, add(CFA_XSP16, literal(-5)))
          CFI (cfiCond163) ?RET_HIGH load(1, XDATA, add(CFA_XSP16, literal(-4)))
          CFI (cfiCond163) ?BRET_EXT load(1, XDATA, add(CFA_XSP16, literal(-3)))
          CFI (cfiCond163) DPL0 load(1, XDATA, add(CFA_XSP16, literal(-2)))
          CFI (cfiCond163) DPH0 load(1, XDATA, add(CFA_XSP16, literal(-1)))
          CFI (cfiCond163) CFA_SP SP+-2
          CFI (cfiCond163) CFA_XSP16 add(XSP16, 12)
          CFI Block cfiCond164 Using cfiCommon0
          CFI (cfiCond164) Function CustomApp_process_ping
          CFI (cfiCond164) Conditional ??CrossCallReturnLabel_49
          CFI (cfiCond164) R6 load(1, XDATA, add(CFA_XSP16, literal(-13)))
          CFI (cfiCond164) VB load(1, XDATA, add(CFA_XSP16, literal(-12)))
          CFI (cfiCond164) V0 load(1, XDATA, add(CFA_XSP16, literal(-11)))
          CFI (cfiCond164) V1 load(1, XDATA, add(CFA_XSP16, literal(-10)))
          CFI (cfiCond164) V2 load(1, XDATA, add(CFA_XSP16, literal(-9)))
          CFI (cfiCond164) V3 load(1, XDATA, add(CFA_XSP16, literal(-8)))
          CFI (cfiCond164) V4 load(1, XDATA, add(CFA_XSP16, literal(-7)))
          CFI (cfiCond164) R7 load(1, XDATA, add(CFA_XSP16, literal(-6)))
          CFI (cfiCond164) ?RET_LOW load(1, XDATA, add(CFA_XSP16, literal(-5)))
          CFI (cfiCond164) ?RET_HIGH load(1, XDATA, add(CFA_XSP16, literal(-4)))
          CFI (cfiCond164) ?BRET_EXT load(1, XDATA, add(CFA_XSP16, literal(-3)))
          CFI (cfiCond164) DPL0 load(1, XDATA, add(CFA_XSP16, literal(-2)))
          CFI (cfiCond164) DPH0 load(1, XDATA, add(CFA_XSP16, literal(-1)))
          CFI (cfiCond164) CFA_SP SP+-2
          CFI (cfiCond164) CFA_XSP16 add(XSP16, 13)
          CFI Block cfiPicker165 Using cfiCommon1
          CFI (cfiPicker165) NoFunction
          CFI (cfiPicker165) Picker
        MOV     A,R6
        ADD     A,#0x1c
        MOV     DPL,A
        CLR     A
        ADDC    A,R7
        MOV     DPH,A
        RET
          CFI EndBlock cfiCond162
          CFI EndBlock cfiCond163
          CFI EndBlock cfiCond164
          CFI EndBlock cfiPicker165

        RSEG BANKED_CODE:CODE:NOROOT(0)
?Subroutine30:
          CFI Block cfiCond166 Using cfiCommon0
          CFI Function CustomApp_linkstatus_updated
          CFI Conditional ??CrossCallReturnLabel_44
          CFI R6 load(1, XDATA, add(CFA_XSP16, literal(-12)))
          CFI VB load(1, XDATA, add(CFA_XSP16, literal(-11)))
          CFI V0 load(1, XDATA, add(CFA_XSP16, literal(-10)))
          CFI V1 load(1, XDATA, add(CFA_XSP16, literal(-9)))
          CFI V2 load(1, XDATA, add(CFA_XSP16, literal(-8)))
          CFI V3 load(1, XDATA, add(CFA_XSP16, literal(-7)))
          CFI R7 load(1, XDATA, add(CFA_XSP16, literal(-6)))
          CFI ?RET_LOW load(1, XDATA, add(CFA_XSP16, literal(-5)))
          CFI ?RET_HIGH load(1, XDATA, add(CFA_XSP16, literal(-4)))
          CFI ?BRET_EXT load(1, XDATA, add(CFA_XSP16, literal(-3)))
          CFI DPL0 load(1, XDATA, add(CFA_XSP16, literal(-2)))
          CFI DPH0 load(1, XDATA, add(CFA_XSP16, literal(-1)))
          CFI CFA_SP SP+-2
          CFI CFA_XSP16 add(XSP16, 12)
          CFI Block cfiCond167 Using cfiCommon0
          CFI (cfiCond167) Function CustomApp_process_ping
          CFI (cfiCond167) Conditional ??CrossCallReturnLabel_45
          CFI (cfiCond167) R6 load(1, XDATA, add(CFA_XSP16, literal(-13)))
          CFI (cfiCond167) VB load(1, XDATA, add(CFA_XSP16, literal(-12)))
          CFI (cfiCond167) V0 load(1, XDATA, add(CFA_XSP16, literal(-11)))
          CFI (cfiCond167) V1 load(1, XDATA, add(CFA_XSP16, literal(-10)))
          CFI (cfiCond167) V2 load(1, XDATA, add(CFA_XSP16, literal(-9)))
          CFI (cfiCond167) V3 load(1, XDATA, add(CFA_XSP16, literal(-8)))
          CFI (cfiCond167) V4 load(1, XDATA, add(CFA_XSP16, literal(-7)))
          CFI (cfiCond167) R7 load(1, XDATA, add(CFA_XSP16, literal(-6)))
          CFI (cfiCond167) ?RET_LOW load(1, XDATA, add(CFA_XSP16, literal(-5)))
          CFI (cfiCond167) ?RET_HIGH load(1, XDATA, add(CFA_XSP16, literal(-4)))
          CFI (cfiCond167) ?BRET_EXT load(1, XDATA, add(CFA_XSP16, literal(-3)))
          CFI (cfiCond167) DPL0 load(1, XDATA, add(CFA_XSP16, literal(-2)))
          CFI (cfiCond167) DPH0 load(1, XDATA, add(CFA_XSP16, literal(-1)))
          CFI (cfiCond167) CFA_SP SP+-2
          CFI (cfiCond167) CFA_XSP16 add(XSP16, 13)
          CFI Block cfiCond168 Using cfiCommon0
          CFI (cfiCond168) Function CustomApp_process_ping
          CFI (cfiCond168) Conditional ??CrossCallReturnLabel_46
          CFI (cfiCond168) R6 load(1, XDATA, add(CFA_XSP16, literal(-13)))
          CFI (cfiCond168) VB load(1, XDATA, add(CFA_XSP16, literal(-12)))
          CFI (cfiCond168) V0 load(1, XDATA, add(CFA_XSP16, literal(-11)))
          CFI (cfiCond168) V1 load(1, XDATA, add(CFA_XSP16, literal(-10)))
          CFI (cfiCond168) V2 load(1, XDATA, add(CFA_XSP16, literal(-9)))
          CFI (cfiCond168) V3 load(1, XDATA, add(CFA_XSP16, literal(-8)))
          CFI (cfiCond168) V4 load(1, XDATA, add(CFA_XSP16, literal(-7)))
          CFI (cfiCond168) R7 load(1, XDATA, add(CFA_XSP16, literal(-6)))
          CFI (cfiCond168) ?RET_LOW load(1, XDATA, add(CFA_XSP16, literal(-5)))
          CFI (cfiCond168) ?RET_HIGH load(1, XDATA, add(CFA_XSP16, literal(-4)))
          CFI (cfiCond168) ?BRET_EXT load(1, XDATA, add(CFA_XSP16, literal(-3)))
          CFI (cfiCond168) DPL0 load(1, XDATA, add(CFA_XSP16, literal(-2)))
          CFI (cfiCond168) DPH0 load(1, XDATA, add(CFA_XSP16, literal(-1)))
          CFI (cfiCond168) CFA_SP SP+-2
          CFI (cfiCond168) CFA_XSP16 add(XSP16, 13)
          CFI Block cfiPicker169 Using cfiCommon1
          CFI (cfiPicker169) NoFunction
          CFI (cfiPicker169) Picker
        MOV     A,R6
        ADD     A,#0xe
        MOV     DPL,A
        CLR     A
        ADDC    A,R7
        MOV     DPH,A
        MOV     A,#0xc
        RET
          CFI EndBlock cfiCond166
          CFI EndBlock cfiCond167
          CFI EndBlock cfiCond168
          CFI EndBlock cfiPicker169

        RSEG BANKED_CODE:CODE:NOROOT(0)
?Subroutine20:
          CFI Block cfiCond170 Using cfiCommon0
          CFI Function GenericApp_ProcessZDOMsgs
          CFI Conditional ??CrossCallReturnLabel_21
          CFI R6 load(1, XDATA, add(CFA_XSP16, literal(-15)))
          CFI VB load(1, XDATA, add(CFA_XSP16, literal(-14)))
          CFI V0 load(1, XDATA, add(CFA_XSP16, literal(-13)))
          CFI V1 load(1, XDATA, add(CFA_XSP16, literal(-12)))
          CFI V2 load(1, XDATA, add(CFA_XSP16, literal(-11)))
          CFI V3 load(1, XDATA, add(CFA_XSP16, literal(-10)))
          CFI V4 load(1, XDATA, add(CFA_XSP16, literal(-9)))
          CFI V5 load(1, XDATA, add(CFA_XSP16, literal(-8)))
          CFI V6 load(1, XDATA, add(CFA_XSP16, literal(-7)))
          CFI R7 load(1, XDATA, add(CFA_XSP16, literal(-6)))
          CFI ?RET_LOW load(1, XDATA, add(CFA_XSP16, literal(-5)))
          CFI ?RET_HIGH load(1, XDATA, add(CFA_XSP16, literal(-4)))
          CFI ?BRET_EXT load(1, XDATA, add(CFA_XSP16, literal(-3)))
          CFI DPL0 load(1, XDATA, add(CFA_XSP16, literal(-2)))
          CFI DPH0 load(1, XDATA, add(CFA_XSP16, literal(-1)))
          CFI CFA_SP SP+-2
          CFI CFA_XSP16 add(XSP16, 40)
          CFI Block cfiCond171 Using cfiCommon0
          CFI (cfiCond171) Function CustomApp_process_ping
          CFI (cfiCond171) Conditional ??CrossCallReturnLabel_22
          CFI (cfiCond171) R6 load(1, XDATA, add(CFA_XSP16, literal(-13)))
          CFI (cfiCond171) VB load(1, XDATA, add(CFA_XSP16, literal(-12)))
          CFI (cfiCond171) V0 load(1, XDATA, add(CFA_XSP16, literal(-11)))
          CFI (cfiCond171) V1 load(1, XDATA, add(CFA_XSP16, literal(-10)))
          CFI (cfiCond171) V2 load(1, XDATA, add(CFA_XSP16, literal(-9)))
          CFI (cfiCond171) V3 load(1, XDATA, add(CFA_XSP16, literal(-8)))
          CFI (cfiCond171) V4 load(1, XDATA, add(CFA_XSP16, literal(-7)))
          CFI (cfiCond171) R7 load(1, XDATA, add(CFA_XSP16, literal(-6)))
          CFI (cfiCond171) ?RET_LOW load(1, XDATA, add(CFA_XSP16, literal(-5)))
          CFI (cfiCond171) ?RET_HIGH load(1, XDATA, add(CFA_XSP16, literal(-4)))
          CFI (cfiCond171) ?BRET_EXT load(1, XDATA, add(CFA_XSP16, literal(-3)))
          CFI (cfiCond171) DPL0 load(1, XDATA, add(CFA_XSP16, literal(-2)))
          CFI (cfiCond171) DPH0 load(1, XDATA, add(CFA_XSP16, literal(-1)))
          CFI (cfiCond171) CFA_SP SP+-2
          CFI (cfiCond171) CFA_XSP16 add(XSP16, 14)
          CFI Block cfiPicker172 Using cfiCommon1
          CFI (cfiPicker172) NoFunction
          CFI (cfiPicker172) Picker
        MOVX    A,@DPTR
        MOV     R4,A
        INC     DPTR
        MOVX    A,@DPTR
        MOV     R5,A
        MOV     R2,#`?<Constant "nodregOK:">` & 0xff
        MOV     R3,#(`?<Constant "nodregOK:">` >> 8) & 0xff
        RET
          CFI EndBlock cfiCond170
          CFI EndBlock cfiCond171
          CFI EndBlock cfiPicker172
// 1587 
// 1588 
// 1589 #if( ZSTACK_DEVICE_BUILD != DEVICE_BUILD_COORDINATOR)	

        RSEG BANKED_CODE:CODE:NOROOT(0)
// 1590 void CustomApp_ping_timeout_check ( void )
CustomApp_ping_timeout_check:
          CFI Block cfiBlock173 Using cfiCommon0
          CFI Function CustomApp_ping_timeout_check
        CODE
// 1591 {
        FUNCALL CustomApp_ping_timeout_check, osal_getClock
        LOCFRAME ISTACK, 0, STACK
        LOCFRAME PSTACK, 0, STACK
        LOCFRAME XSTACK, 16, STACK
        LOCFRAME IOVERLAY, 0, STATIC
        LOCFRAME DOVERLAY, 0, STATIC
        ARGFRAME ISTACK, 0, STACK
        ARGFRAME PSTACK, 0, STACK
        ARGFRAME XSTACK, 16, STACK
        ARGFRAME IOVERLAY, 0, STATIC
        ARGFRAME DOVERLAY, 0, STATIC
        FUNCALL CustomApp_ping_timeout_check, abs
        LOCFRAME ISTACK, 0, STACK
        LOCFRAME PSTACK, 0, STACK
        LOCFRAME XSTACK, 16, STACK
        LOCFRAME IOVERLAY, 0, STATIC
        LOCFRAME DOVERLAY, 0, STATIC
        ARGFRAME ISTACK, 0, STACK
        ARGFRAME PSTACK, 0, STACK
        ARGFRAME XSTACK, 16, STACK
        ARGFRAME IOVERLAY, 0, STATIC
        ARGFRAME DOVERLAY, 0, STATIC
        FUNCALL CustomApp_ping_timeout_check, Onboard_soft_reset
        LOCFRAME ISTACK, 0, STACK
        LOCFRAME PSTACK, 0, STACK
        LOCFRAME XSTACK, 16, STACK
        LOCFRAME IOVERLAY, 0, STATIC
        LOCFRAME DOVERLAY, 0, STATIC
        ARGFRAME ISTACK, 0, STACK
        ARGFRAME PSTACK, 0, STACK
        ARGFRAME XSTACK, 16, STACK
        ARGFRAME IOVERLAY, 0, STATIC
        ARGFRAME DOVERLAY, 0, STATIC
        REQUIRE ?V0
        REQUIRE ?V1
        REQUIRE ?V2
        REQUIRE ?V3
        REQUIRE ?V4
        REQUIRE ?V5
        REQUIRE ?V6
        REQUIRE ?V7
        MOV     A,#-0x10
        LCALL   ?BANKED_ENTER_XDATA
          CFI DPH0 load(1, XDATA, add(CFA_XSP16, literal(-1)))
          CFI DPL0 load(1, XDATA, add(CFA_XSP16, literal(-2)))
          CFI ?BRET_EXT load(1, XDATA, add(CFA_XSP16, literal(-3)))
          CFI ?RET_HIGH load(1, XDATA, add(CFA_XSP16, literal(-4)))
          CFI ?RET_LOW load(1, XDATA, add(CFA_XSP16, literal(-5)))
          CFI R7 load(1, XDATA, add(CFA_XSP16, literal(-6)))
          CFI V7 load(1, XDATA, add(CFA_XSP16, literal(-7)))
          CFI V6 load(1, XDATA, add(CFA_XSP16, literal(-8)))
          CFI V5 load(1, XDATA, add(CFA_XSP16, literal(-9)))
          CFI V4 load(1, XDATA, add(CFA_XSP16, literal(-10)))
          CFI V3 load(1, XDATA, add(CFA_XSP16, literal(-11)))
          CFI V2 load(1, XDATA, add(CFA_XSP16, literal(-12)))
          CFI V1 load(1, XDATA, add(CFA_XSP16, literal(-13)))
          CFI V0 load(1, XDATA, add(CFA_XSP16, literal(-14)))
          CFI VB load(1, XDATA, add(CFA_XSP16, literal(-15)))
          CFI R6 load(1, XDATA, add(CFA_XSP16, literal(-16)))
          CFI CFA_SP SP+0
          CFI CFA_XSP16 add(XSP16, 16)
        ; Saved register size: 16
        ; Auto size: 0
// 1592     uint32 timestamp = osal_getClock();
        ; Setup parameters for call to function osal_getClock
        LCALL   `??osal_getClock::?relay`; Banked call to: osal_getClock
// 1593 #if 0	
// 1594 #if defined( LCD_SUPPORTED )
// 1595     HalLcdWriteStringValue( (char*)"ping timeout:", (timestamp - pingRspTime), 16, HAL_LCD_LINE_3 );  
// 1596 #endif	
// 1597 #endif
// 1598     if ( abs(timestamp - pingRspTime) >= 60 ) 
        ; Setup parameters for call to function abs
        MOV     DPTR,#pingRspTime
        MOV     R0,#?V4
        LCALL   ?L_MOV_X
        MOV     A,R2
        CLR     C
        SUBB    A,?V4
        MOV     R2,A
        MOV     A,R3
        SUBB    A,?V5
        MOV     R3,A
        LCALL   `??abs::?relay`      ; Banked call to: abs
        CLR     C
        MOV     A,R2
        SUBB    A,#0x3c
        MOV     A,R3
        SUBB    A,#0x0
        MOV     C,0xD0 /* PSW */.2
        XRL     A,PSW
        RLC     A
        JC      ??CustomApp_ping_timeout_check_0
// 1599         Onboard_soft_reset();	
        ; Setup parameters for call to function Onboard_soft_reset
        LCALL   Onboard_soft_reset & 0xFFFF
// 1600 }
??CustomApp_ping_timeout_check_0:
        LJMP    ?Subroutine5 & 0xFFFF
          CFI EndBlock cfiBlock173
// 1601 #endif
// 1602 

        RSEG BANKED_CODE:CODE:NOROOT(0)
// 1603 uint8 CustomApp_get_connected_node_count( void )
CustomApp_get_connected_node_count:
          CFI Block cfiBlock174 Using cfiCommon0
          CFI Function CustomApp_get_connected_node_count
        CODE
// 1604 {
        PUSH    DPL
          CFI DPL0 Frame(CFA_SP, 4)
          CFI CFA_SP SP+-4
        PUSH    DPH
          CFI DPH0 Frame(CFA_SP, 5)
          CFI CFA_SP SP+-5
        ; Saved register size: 2
        ; Auto size: 0
// 1605 	uint8 activeCount = 0;
        MOV     R1,#0x0
// 1606 	nodeList_t *nodeSearch;
// 1607 
// 1608        for (nodeSearch = nodeList; (nodeSearch != NULL); nodeSearch = nodeSearch->nextDesc)
        MOV     DPTR,#nodeList
        SJMP    ??CustomApp_get_connected_node_count_0
// 1609        {
// 1610         if (nodeSearch->status == nodeconnected)
??CustomApp_get_connected_node_count_1:
        LCALL   ?Subroutine36 & 0xFFFF
??CrossCallReturnLabel_60:
        MOVX    A,@DPTR
        XRL     A,#0x2
        JNZ     ??CustomApp_get_connected_node_count_2
// 1611         {
// 1612             activeCount ++;
        INC     R1
// 1613         }
// 1614        }
??CustomApp_get_connected_node_count_2:
        MOV     DPL,R2
        MOV     DPH,R3
??CustomApp_get_connected_node_count_0:
        LCALL   ??Subroutine49_0 & 0xFFFF
??CrossCallReturnLabel_92:
        MOV     A,R2
        ORL     A,R3
        JNZ     ??CustomApp_get_connected_node_count_1
// 1615        return activeCount;
        LJMP    ??Subroutine52_0 & 0xFFFF
// 1616 }
          CFI EndBlock cfiBlock174

        RSEG BANKED_CODE:CODE:NOROOT(0)
?Subroutine36:
          CFI Block cfiCond175 Using cfiCommon0
          CFI Function CustomApp_NodeRegister
          CFI Conditional ??CrossCallReturnLabel_59
          CFI R6 load(1, XDATA, add(CFA_XSP16, literal(-10)))
          CFI VB load(1, XDATA, add(CFA_XSP16, literal(-9)))
          CFI V0 load(1, XDATA, add(CFA_XSP16, literal(-8)))
          CFI V1 load(1, XDATA, add(CFA_XSP16, literal(-7)))
          CFI R7 load(1, XDATA, add(CFA_XSP16, literal(-6)))
          CFI ?RET_LOW load(1, XDATA, add(CFA_XSP16, literal(-5)))
          CFI ?RET_HIGH load(1, XDATA, add(CFA_XSP16, literal(-4)))
          CFI ?BRET_EXT load(1, XDATA, add(CFA_XSP16, literal(-3)))
          CFI DPL0 load(1, XDATA, add(CFA_XSP16, literal(-2)))
          CFI DPH0 load(1, XDATA, add(CFA_XSP16, literal(-1)))
          CFI CFA_SP SP+-2
          CFI CFA_XSP16 add(XSP16, 10)
          CFI Block cfiCond176 Using cfiCommon0
          CFI (cfiCond176) Function CustomApp_get_connected_node_count
          CFI (cfiCond176) Conditional ??CrossCallReturnLabel_60
          CFI (cfiCond176) DPL0 Frame(CFA_SP, 4)
          CFI (cfiCond176) DPH0 Frame(CFA_SP, 5)
          CFI (cfiCond176) CFA_SP SP+-7
          CFI Block cfiPicker177 Using cfiCommon1
          CFI (cfiPicker177) NoFunction
          CFI (cfiPicker177) Picker
        LCALL   ?Subroutine43 & 0xFFFF
??CrossCallReturnLabel_109:
        ADDC    A,R3
        MOV     DPH,A
        RET
          CFI EndBlock cfiCond175
          CFI EndBlock cfiCond176
          CFI EndBlock cfiPicker177
// 1617 
// 1618 

        RSEG BANKED_CODE:CODE:NOROOT(0)
// 1619 bool GenericApp_Device_JoinRsp(afIncomingMSGPacket_t *pkt)
GenericApp_Device_JoinRsp:
          CFI Block cfiBlock178 Using cfiCommon0
          CFI Function GenericApp_Device_JoinRsp
        CODE
// 1620 {
        FUNCALL GenericApp_Device_JoinRsp, osal_memcpy
        LOCFRAME ISTACK, 0, STACK
        LOCFRAME PSTACK, 0, STACK
        LOCFRAME XSTACK, 130, STACK
        LOCFRAME IOVERLAY, 0, STATIC
        LOCFRAME DOVERLAY, 0, STATIC
        ARGFRAME ISTACK, 0, STACK
        ARGFRAME PSTACK, 0, STACK
        ARGFRAME XSTACK, 130, STACK
        ARGFRAME IOVERLAY, 0, STATIC
        ARGFRAME DOVERLAY, 0, STATIC
        FUNCALL GenericApp_Device_JoinRsp, osal_msg_allocate
        LOCFRAME ISTACK, 0, STACK
        LOCFRAME PSTACK, 0, STACK
        LOCFRAME XSTACK, 127, STACK
        LOCFRAME IOVERLAY, 0, STATIC
        LOCFRAME DOVERLAY, 0, STATIC
        ARGFRAME ISTACK, 0, STACK
        ARGFRAME PSTACK, 0, STACK
        ARGFRAME XSTACK, 127, STACK
        ARGFRAME IOVERLAY, 0, STATIC
        ARGFRAME DOVERLAY, 0, STATIC
        FUNCALL GenericApp_Device_JoinRsp, NLME_GetShortAddr
        LOCFRAME ISTACK, 0, STACK
        LOCFRAME PSTACK, 0, STACK
        LOCFRAME XSTACK, 127, STACK
        LOCFRAME IOVERLAY, 0, STATIC
        LOCFRAME DOVERLAY, 0, STATIC
        ARGFRAME ISTACK, 0, STACK
        ARGFRAME PSTACK, 0, STACK
        ARGFRAME XSTACK, 127, STACK
        ARGFRAME IOVERLAY, 0, STATIC
        ARGFRAME DOVERLAY, 0, STATIC
        FUNCALL GenericApp_Device_JoinRsp, Authlist_verify_device
        LOCFRAME ISTACK, 0, STACK
        LOCFRAME PSTACK, 0, STACK
        LOCFRAME XSTACK, 128, STACK
        LOCFRAME IOVERLAY, 0, STATIC
        LOCFRAME DOVERLAY, 0, STATIC
        ARGFRAME ISTACK, 0, STACK
        ARGFRAME PSTACK, 0, STACK
        ARGFRAME XSTACK, 128, STACK
        ARGFRAME IOVERLAY, 0, STATIC
        ARGFRAME DOVERLAY, 0, STATIC
        FUNCALL GenericApp_Device_JoinRsp, osal_memset
        LOCFRAME ISTACK, 0, STACK
        LOCFRAME PSTACK, 0, STACK
        LOCFRAME XSTACK, 127, STACK
        LOCFRAME IOVERLAY, 0, STATIC
        LOCFRAME DOVERLAY, 0, STATIC
        ARGFRAME ISTACK, 0, STACK
        ARGFRAME PSTACK, 0, STACK
        ARGFRAME XSTACK, 127, STACK
        ARGFRAME IOVERLAY, 0, STATIC
        ARGFRAME DOVERLAY, 0, STATIC
        FUNCALL GenericApp_Device_JoinRsp, osal_memcpy
        LOCFRAME ISTACK, 0, STACK
        LOCFRAME PSTACK, 0, STACK
        LOCFRAME XSTACK, 130, STACK
        LOCFRAME IOVERLAY, 0, STATIC
        LOCFRAME DOVERLAY, 0, STATIC
        ARGFRAME ISTACK, 0, STACK
        ARGFRAME PSTACK, 0, STACK
        ARGFRAME XSTACK, 130, STACK
        ARGFRAME IOVERLAY, 0, STATIC
        ARGFRAME DOVERLAY, 0, STATIC
        FUNCALL GenericApp_Device_JoinRsp, osal_memcpy
        LOCFRAME ISTACK, 0, STACK
        LOCFRAME PSTACK, 0, STACK
        LOCFRAME XSTACK, 130, STACK
        LOCFRAME IOVERLAY, 0, STATIC
        LOCFRAME DOVERLAY, 0, STATIC
        ARGFRAME ISTACK, 0, STACK
        ARGFRAME PSTACK, 0, STACK
        ARGFRAME XSTACK, 130, STACK
        ARGFRAME IOVERLAY, 0, STATIC
        ARGFRAME DOVERLAY, 0, STATIC
        FUNCALL GenericApp_Device_JoinRsp, osal_memcpy
        LOCFRAME ISTACK, 0, STACK
        LOCFRAME PSTACK, 0, STACK
        LOCFRAME XSTACK, 130, STACK
        LOCFRAME IOVERLAY, 0, STATIC
        LOCFRAME DOVERLAY, 0, STATIC
        ARGFRAME ISTACK, 0, STACK
        ARGFRAME PSTACK, 0, STACK
        ARGFRAME XSTACK, 130, STACK
        ARGFRAME IOVERLAY, 0, STATIC
        ARGFRAME DOVERLAY, 0, STATIC
        FUNCALL GenericApp_Device_JoinRsp, MT_UartCalcFCS
        LOCFRAME ISTACK, 0, STACK
        LOCFRAME PSTACK, 0, STACK
        LOCFRAME XSTACK, 127, STACK
        LOCFRAME IOVERLAY, 0, STATIC
        LOCFRAME DOVERLAY, 0, STATIC
        ARGFRAME ISTACK, 0, STACK
        ARGFRAME PSTACK, 0, STACK
        ARGFRAME XSTACK, 127, STACK
        ARGFRAME IOVERLAY, 0, STATIC
        ARGFRAME DOVERLAY, 0, STATIC
        FUNCALL GenericApp_Device_JoinRsp, AF_DataRequest
        LOCFRAME ISTACK, 0, STACK
        LOCFRAME PSTACK, 0, STACK
        LOCFRAME XSTACK, 136, STACK
        LOCFRAME IOVERLAY, 0, STATIC
        LOCFRAME DOVERLAY, 0, STATIC
        ARGFRAME ISTACK, 0, STACK
        ARGFRAME PSTACK, 0, STACK
        ARGFRAME XSTACK, 136, STACK
        ARGFRAME IOVERLAY, 0, STATIC
        ARGFRAME DOVERLAY, 0, STATIC
        FUNCALL GenericApp_Device_JoinRsp, osal_msg_deallocate
        LOCFRAME ISTACK, 0, STACK
        LOCFRAME PSTACK, 0, STACK
        LOCFRAME XSTACK, 127, STACK
        LOCFRAME IOVERLAY, 0, STATIC
        LOCFRAME DOVERLAY, 0, STATIC
        ARGFRAME ISTACK, 0, STACK
        ARGFRAME PSTACK, 0, STACK
        ARGFRAME XSTACK, 127, STACK
        ARGFRAME IOVERLAY, 0, STATIC
        ARGFRAME DOVERLAY, 0, STATIC
        REQUIRE ?V0
        REQUIRE ?V1
        REQUIRE ?V2
        REQUIRE ?V3
        REQUIRE ?V4
        REQUIRE ?V5
        REQUIRE ?V6
        REQUIRE ?V8
        REQUIRE ?V9
        REQUIRE ?V10
        MOV     A,#-0x13
        LCALL   ?BANKED_ENTER_XDATA
          CFI DPH0 load(1, XDATA, add(CFA_XSP16, literal(-1)))
          CFI DPL0 load(1, XDATA, add(CFA_XSP16, literal(-2)))
          CFI ?BRET_EXT load(1, XDATA, add(CFA_XSP16, literal(-3)))
          CFI ?RET_HIGH load(1, XDATA, add(CFA_XSP16, literal(-4)))
          CFI ?RET_LOW load(1, XDATA, add(CFA_XSP16, literal(-5)))
          CFI R7 load(1, XDATA, add(CFA_XSP16, literal(-6)))
          CFI V10 load(1, XDATA, add(CFA_XSP16, literal(-7)))
          CFI V9 load(1, XDATA, add(CFA_XSP16, literal(-8)))
          CFI V8 load(1, XDATA, add(CFA_XSP16, literal(-9)))
          CFI V7 load(1, XDATA, add(CFA_XSP16, literal(-10)))
          CFI V6 load(1, XDATA, add(CFA_XSP16, literal(-11)))
          CFI V5 load(1, XDATA, add(CFA_XSP16, literal(-12)))
          CFI V4 load(1, XDATA, add(CFA_XSP16, literal(-13)))
          CFI V3 load(1, XDATA, add(CFA_XSP16, literal(-14)))
          CFI V2 load(1, XDATA, add(CFA_XSP16, literal(-15)))
          CFI V1 load(1, XDATA, add(CFA_XSP16, literal(-16)))
          CFI V0 load(1, XDATA, add(CFA_XSP16, literal(-17)))
          CFI VB load(1, XDATA, add(CFA_XSP16, literal(-18)))
          CFI R6 load(1, XDATA, add(CFA_XSP16, literal(-19)))
          CFI CFA_SP SP+0
          CFI CFA_XSP16 add(XSP16, 19)
        ; Saved register size: 19
        ; Auto size: 108
        MOV     A,#-0x6c
        LCALL   ?ALLOC_XSTACK8
          CFI CFA_XSP16 add(XSP16, 127)
// 1621 	transferpkt_t *protocol_pack;
// 1622 	uint16 clusterid;
// 1623 	uint8 buf[100];
// 1624 	bool ret = FALSE;
        MOV     ?V0,#0x0
// 1625 	uint8 extaddr[SADDR_EXT_LEN] = {0};
        MOV     DPTR,#`?<Constant {0, 0, 0, 0, 0, 0, 0, 0}>`
        MOV     R4,?XSP + 0
        MOV     R5,?XSP + 1
        MOV     A,#0x8
        LCALL   ?MOVE_LONG8_XDATA_XDATA
// 1626 
// 1627 	osal_memcpy(extaddr, pkt->cmd.Data + PKT_HEAD_LEN , SADDR_EXT_LEN);
        MOV     A,R2
        ADD     A,#0x22
        MOV     R0,A
        CLR     A
        ADDC    A,R3
        MOV     R1,A
        MOV     ?V2,R0
        MOV     ?V3,R1
        ; Setup parameters for call to function osal_memcpy
        MOV     DPL,R0
        MOV     DPH,A
        MOVX    A,@DPTR
        ADD     A,#0x9
        MOV     ?V4,A
        INC     DPTR
        MOVX    A,@DPTR
        ADDC    A,#0x0
        MOV     ?V5,A
        MOV     ?V6,#0x0
        MOV     R0,#?V4
        LCALL   ?PUSH_XSTACK_I_THREE
          CFI CFA_XSP16 add(XSP16, 130)
        MOV     R4,#0x8
        MOV     R5,#0x0
        MOV     A,#0x3
        LCALL   ?XSTACK_DISP101_8
        LCALL   `??osal_memcpy::?relay`; Banked call to: osal_memcpy
        MOV     A,#0x3
        LCALL   ?DEALLOC_XSTACK8
          CFI CFA_XSP16 add(XSP16, 127)
// 1628 
// 1629 	protocol_pack = (transferpkt_t *)osal_msg_allocate( sizeof( transferpkt_t ) + SADDR_EXT_LEN + 1);
        ; Setup parameters for call to function osal_msg_allocate
        MOV     R2,#0x15
        MOV     R3,#0x0
        LCALL   `??osal_msg_allocate::?relay`; Banked call to: osal_msg_allocate
        MOV     ?V4,R2
        MOV     ?V5,R3
        MOV     R6,?V4
        MOV     R7,?V5
// 1630 	protocol_pack->msgid = PROT_JOIN_RSP_MSG;
        MOV     DPL,R6
        MOV     DPH,R7
        MOV     A,#0x4b
        MOVX    @DPTR,A
        INC     DPTR
        MOV     A,#0x30
        LCALL   ?Subroutine39 & 0xFFFF
// 1631 	protocol_pack->msgseq = 0x0001;
??CrossCallReturnLabel_65:
        LCALL   ??Subroutine58_0 & 0xFFFF
// 1632 	protocol_pack->destid = (pkt->cmd.Data[7] << 8) | pkt->cmd.Data[6];
??CrossCallReturnLabel_118:
        LCALL   ?Subroutine19 & 0xFFFF
??CrossCallReturnLabel_20:
        INC     DPTR
        INC     DPTR
        INC     DPTR
        MOVX    A,@DPTR
        MOV     R3,A
        MOV     DPL,R0
        MOV     DPH,R1
        INC     DPTR
        INC     DPTR
        INC     DPTR
        INC     DPTR
        INC     DPTR
        INC     DPTR
        MOVX    A,@DPTR
        MOV     R0,A
        MOV     A,R3
        MOV     R1,A
        MOV     DPL,R6
        MOV     DPH,R7
        INC     DPTR
        INC     DPTR
        INC     DPTR
        INC     DPTR
        LCALL   ?Subroutine15 & 0xFFFF
// 1633 	protocol_pack->srcid = NLME_GetShortAddr();
??CrossCallReturnLabel_17:
        ; Setup parameters for call to function NLME_GetShortAddr
        LCALL   `??NLME_GetShortAddr::?relay`; Banked call to: NLME_GetShortAddr
        LCALL   ?Subroutine11 & 0xFFFF
// 1634 	protocol_pack->datalen = SADDR_EXT_LEN;
??CrossCallReturnLabel_104:
        MOV     DPL,R6
        MOV     DPH,R7
        INC     DPTR
        INC     DPTR
        INC     DPTR
        INC     DPTR
        INC     DPTR
        INC     DPTR
        INC     DPTR
        INC     DPTR
        MOV     A,#0x8
        MOVX    @DPTR,A
// 1635 
// 1636 	if (!Authlist_verify_device(0x0000, extaddr, 0, 0))
        ; Setup parameters for call to function Authlist_verify_device
        MOV     ?V1,#0x0
        MOV     R0,#?V1
        LCALL   ?PUSH_XSTACK_I_ONE
          CFI CFA_XSP16 add(XSP16, 128)
        MOV     R1,#0x0
        MOV     A,#0x1
        LCALL   ?XSTACK_DISP102_8
        MOV     R2,#0x0
        MOV     R3,#0x0
        LCALL   `??Authlist_verify_device::?relay`; Banked call to: Authlist_verify_device
        MOV     A,#0x1
        LCALL   ?DEALLOC_XSTACK8
          CFI CFA_XSP16 add(XSP16, 127)
        MOV     A,R1
        JNZ     ??GenericApp_Device_JoinRsp_0
// 1637           osal_memset(extaddr, 0, SADDR_EXT_LEN);
        ; Setup parameters for call to function osal_memset
        MOV     R4,#0x8
        MOV     R5,#0x0
        MOV     R1,#0x0
        MOV     R2,?XSP + 0
        MOV     R3,?XSP + 1
        LCALL   `??osal_memset::?relay`; Banked call to: osal_memset
// 1638 
// 1639 	protocol_pack->data = (uint8 *)(protocol_pack + 1);
??GenericApp_Device_JoinRsp_0:
        LCALL   ?Subroutine28 & 0xFFFF
??CrossCallReturnLabel_39:
        MOV     ?V4,A
        CLR     A
        ADDC    A,R7
        MOV     ?V5,A
        MOV     DPL,?V4
        MOV     DPH,A
        LCALL   ??Subroutine54_0 & 0xFFFF
// 1640 	osal_memcpy(protocol_pack->data, extaddr, SADDR_EXT_LEN);
??CrossCallReturnLabel_102:
        ; Setup parameters for call to function osal_memcpy
        MOV     R0,?XSP + 0
        MOV     R1,?XSP + 1
        MOV     ?V8,R0
        MOV     ?V9,R1
        MOV     ?V10,#0x0
        MOV     R0,#?V8
        LCALL   ?PUSH_XSTACK_I_THREE
          CFI CFA_XSP16 add(XSP16, 130)
        MOV     R4,#0x8
        MOV     R5,#0x0
        LCALL   `??osal_memcpy::?relay`; Banked call to: osal_memcpy
        MOV     A,#0x3
        LCALL   ?DEALLOC_XSTACK8
          CFI CFA_XSP16 add(XSP16, 127)
// 1641 	osal_memcpy( buf, (uint8 *)protocol_pack, PKT_HEAD_LEN );
        ; Setup parameters for call to function osal_memcpy
        MOV     ?V8,R6
        MOV     ?V9,R7
        MOV     R0,#?V8
        LCALL   ?PUSH_XSTACK_I_THREE
          CFI CFA_XSP16 add(XSP16, 130)
        MOV     R4,#0x9
        MOV     R5,#0x0
        MOV     A,#0xb
        LCALL   ?XSTACK_DISP101_8
        LCALL   `??osal_memcpy::?relay`; Banked call to: osal_memcpy
        MOV     A,#0x3
        LCALL   ?DEALLOC_XSTACK8
          CFI CFA_XSP16 add(XSP16, 127)
// 1642 	osal_memcpy(&buf[PKT_HEAD_LEN], protocol_pack->data, protocol_pack->datalen);
        LCALL   ?Subroutine38 & 0xFFFF
??CrossCallReturnLabel_63:
        ; Setup parameters for call to function osal_memcpy
        MOV     DPL,?V4
        MOV     DPH,?V5
        LCALL   ?Subroutine24 & 0xFFFF
??CrossCallReturnLabel_28:
        LCALL   ?PUSH_XSTACK_I_THREE
          CFI CFA_XSP16 add(XSP16, 130)
        MOV     DPL,?V2
        MOV     DPH,?V3
        MOVX    A,@DPTR
        MOV     R4,A
        MOV     R5,#0x0
        MOV     A,#0x14
        LCALL   ?XSTACK_DISP0_8
        MOV     R2,DPL
        MOV     R3,DPH
        LCALL   `??osal_memcpy::?relay`; Banked call to: osal_memcpy
        MOV     A,#0x3
        LCALL   ?DEALLOC_XSTACK8
          CFI CFA_XSP16 add(XSP16, 127)
// 1643 	protocol_pack->fcs = MT_UartCalcFCS( buf, PKT_HEAD_LEN + protocol_pack->datalen );
        ; Setup parameters for call to function MT_UartCalcFCS
        MOV     DPL,?V2
        MOV     DPH,?V3
        MOVX    A,@DPTR
        ADD     A,#0x9
        MOV     R1,A
        MOV     A,#0x8
        LCALL   ?XSTACK_DISP101_8
        LCALL   `??MT_UartCalcFCS::?relay`; Banked call to: MT_UartCalcFCS
        LCALL   ?Subroutine7 & 0xFFFF
// 1644 	buf[PKT_HEAD_LEN + protocol_pack->datalen] = protocol_pack->fcs;
??CrossCallReturnLabel_116:
        MOV     A,#0x8
        LCALL   ?XSTACK_DISP0_8
        LCALL   ?Subroutine27 & 0xFFFF
??CrossCallReturnLabel_37:
        LCALL   ?Subroutine12 & 0xFFFF
// 1645 	clusterid = GENERICAPP_P2P_PERMIT_JOIN_RSP_CLUSTERID;
// 1646 	SerialApp_TxAddr_p2p.addr.shortAddr = protocol_pack->destid;
??CrossCallReturnLabel_10:
        MOV     R0,A
        INC     DPTR
        MOVX    A,@DPTR
        MOV     R1,A
        MOV     DPTR,#SerialApp_TxAddr_p2p
        LCALL   ?Subroutine15 & 0xFFFF
// 1647 
// 1648 	if ( AF_DataRequest( &SerialApp_TxAddr_p2p, &GenericApp_epDesc,
// 1649 						clusterid,
// 1650 						PKT_HEAD_LEN + SADDR_EXT_LEN + 1,
// 1651 						buf, //(uint8 *)protocol_pack,
// 1652 						&GenericApp_TransID,
// 1653 						AF_DISCV_ROUTE, AF_DEFAULT_RADIUS ) == afStatus_SUCCESS )
??CrossCallReturnLabel_18:
        ; Setup parameters for call to function AF_DataRequest
        MOV     ?V1,#0x1e
        MOV     R0,#?V1
        LCALL   ?PUSH_XSTACK_I_ONE
          CFI CFA_XSP16 add(XSP16, 128)
        MOV     ?V2,#GenericApp_TransID & 0xff
        MOV     ?V3,#(GenericApp_TransID >> 8) & 0xff
        MOV     R0,#?V2
        LCALL   ?PUSH_XSTACK_I_TWO
          CFI CFA_XSP16 add(XSP16, 130)
        MOV     A,#0xb
        LCALL   ?XSTACK_DISP100_8
        MOV     ?V2,R0
        MOV     ?V3,R1
        MOV     R0,#?V2
        LCALL   ?PUSH_XSTACK_I_TWO
          CFI CFA_XSP16 add(XSP16, 132)
        MOV     ?V2,#0x12
        MOV     ?V3,#0x0
        MOV     R0,#?V2
        LCALL   ?PUSH_XSTACK_I_TWO
          CFI CFA_XSP16 add(XSP16, 134)
        MOV     ?V2,#0x7
        MOV     R0,#?V2
        LCALL   ?PUSH_XSTACK_I_TWO
          CFI CFA_XSP16 add(XSP16, 136)
        MOV     R1,#0x0
        MOV     R4,#GenericApp_epDesc & 0xff
        MOV     R5,#(GenericApp_epDesc >> 8) & 0xff
        MOV     R2,#SerialApp_TxAddr_p2p & 0xff
        MOV     R3,#(SerialApp_TxAddr_p2p >> 8) & 0xff
        LCALL   `??AF_DataRequest::?relay`; Banked call to: AF_DataRequest
        MOV     A,#0x9
        LCALL   ?DEALLOC_XSTACK8
          CFI CFA_XSP16 add(XSP16, 127)
        MOV     A,R1
        JNZ     ??GenericApp_Device_JoinRsp_1
// 1654 	{
// 1655 		ret = TRUE;
        MOV     ?V0,#0x1
// 1656 	}
// 1657 	else
// 1658 	{
// 1659 		ret = FALSE;
// 1660 	}
// 1661 	osal_msg_deallocate( (uint8 *)protocol_pack );
??GenericApp_Device_JoinRsp_1:
        ; Setup parameters for call to function osal_msg_deallocate
        MOV     A,R6
        MOV     R2,A
        MOV     A,R7
        MOV     R3,A
        LCALL   `??osal_msg_deallocate::?relay`; Banked call to: osal_msg_deallocate
// 1662 	return ret;
        MOV     R1,?V0
        MOV     A,#0x6c
        LCALL   ?DEALLOC_XSTACK8
          CFI CFA_XSP16 add(XSP16, 19)
        MOV     R7,#0xb
        LJMP    ?BANKED_LEAVE_XDATA
// 1663 }
          CFI EndBlock cfiBlock178

        RSEG BANKED_CODE:CODE:NOROOT(0)
?Subroutine19:
          CFI Block cfiCond179 Using cfiCommon0
          CFI Function GenericApp_MessageMSGCB
          CFI Conditional ??CrossCallReturnLabel_19
          CFI R6 load(1, XDATA, add(CFA_XSP16, literal(-12)))
          CFI VB load(1, XDATA, add(CFA_XSP16, literal(-11)))
          CFI V0 load(1, XDATA, add(CFA_XSP16, literal(-10)))
          CFI V1 load(1, XDATA, add(CFA_XSP16, literal(-9)))
          CFI V2 load(1, XDATA, add(CFA_XSP16, literal(-8)))
          CFI V3 load(1, XDATA, add(CFA_XSP16, literal(-7)))
          CFI R7 load(1, XDATA, add(CFA_XSP16, literal(-6)))
          CFI ?RET_LOW load(1, XDATA, add(CFA_XSP16, literal(-5)))
          CFI ?RET_HIGH load(1, XDATA, add(CFA_XSP16, literal(-4)))
          CFI ?BRET_EXT load(1, XDATA, add(CFA_XSP16, literal(-3)))
          CFI DPL0 load(1, XDATA, add(CFA_XSP16, literal(-2)))
          CFI DPH0 load(1, XDATA, add(CFA_XSP16, literal(-1)))
          CFI CFA_SP SP+-2
          CFI CFA_XSP16 add(XSP16, 12)
          CFI Block cfiCond180 Using cfiCommon0
          CFI (cfiCond180) Function GenericApp_Device_JoinRsp
          CFI (cfiCond180) Conditional ??CrossCallReturnLabel_20
          CFI (cfiCond180) R6 load(1, XDATA, add(CFA_XSP16, literal(-19)))
          CFI (cfiCond180) VB load(1, XDATA, add(CFA_XSP16, literal(-18)))
          CFI (cfiCond180) V0 load(1, XDATA, add(CFA_XSP16, literal(-17)))
          CFI (cfiCond180) V1 load(1, XDATA, add(CFA_XSP16, literal(-16)))
          CFI (cfiCond180) V2 load(1, XDATA, add(CFA_XSP16, literal(-15)))
          CFI (cfiCond180) V3 load(1, XDATA, add(CFA_XSP16, literal(-14)))
          CFI (cfiCond180) V4 load(1, XDATA, add(CFA_XSP16, literal(-13)))
          CFI (cfiCond180) V5 load(1, XDATA, add(CFA_XSP16, literal(-12)))
          CFI (cfiCond180) V6 load(1, XDATA, add(CFA_XSP16, literal(-11)))
          CFI (cfiCond180) V7 load(1, XDATA, add(CFA_XSP16, literal(-10)))
          CFI (cfiCond180) V8 load(1, XDATA, add(CFA_XSP16, literal(-9)))
          CFI (cfiCond180) V9 load(1, XDATA, add(CFA_XSP16, literal(-8)))
          CFI (cfiCond180) V10 load(1, XDATA, add(CFA_XSP16, literal(-7)))
          CFI (cfiCond180) R7 load(1, XDATA, add(CFA_XSP16, literal(-6)))
          CFI (cfiCond180) ?RET_LOW load(1, XDATA, add(CFA_XSP16, literal(-5)))
          CFI (cfiCond180) ?RET_HIGH load(1, XDATA, add(CFA_XSP16, literal(-4)))
          CFI (cfiCond180) ?BRET_EXT load(1, XDATA, add(CFA_XSP16, literal(-3)))
          CFI (cfiCond180) DPL0 load(1, XDATA, add(CFA_XSP16, literal(-2)))
          CFI (cfiCond180) DPH0 load(1, XDATA, add(CFA_XSP16, literal(-1)))
          CFI (cfiCond180) CFA_SP SP+-2
          CFI (cfiCond180) CFA_XSP16 add(XSP16, 127)
          CFI Block cfiPicker181 Using cfiCommon1
          CFI (cfiPicker181) NoFunction
          CFI (cfiPicker181) Picker
        INC     DPTR
        MOVX    A,@DPTR
        MOV     R1,A
        MOV     DPL,R0
        MOV     DPH,R1
        INC     DPTR
        INC     DPTR
        INC     DPTR
        INC     DPTR
        RET
          CFI EndBlock cfiCond179
          CFI EndBlock cfiCond180
          CFI EndBlock cfiPicker181

        RSEG BANKED_CODE:CODE:NOROOT(0)
?Subroutine12:
          CFI Block cfiCond182 Using cfiCommon0
          CFI Function GenericApp_ProcessZDOMsgs
          CFI Conditional ??CrossCallReturnLabel_9
          CFI R6 load(1, XDATA, add(CFA_XSP16, literal(-15)))
          CFI VB load(1, XDATA, add(CFA_XSP16, literal(-14)))
          CFI V0 load(1, XDATA, add(CFA_XSP16, literal(-13)))
          CFI V1 load(1, XDATA, add(CFA_XSP16, literal(-12)))
          CFI V2 load(1, XDATA, add(CFA_XSP16, literal(-11)))
          CFI V3 load(1, XDATA, add(CFA_XSP16, literal(-10)))
          CFI V4 load(1, XDATA, add(CFA_XSP16, literal(-9)))
          CFI V5 load(1, XDATA, add(CFA_XSP16, literal(-8)))
          CFI V6 load(1, XDATA, add(CFA_XSP16, literal(-7)))
          CFI R7 load(1, XDATA, add(CFA_XSP16, literal(-6)))
          CFI ?RET_LOW load(1, XDATA, add(CFA_XSP16, literal(-5)))
          CFI ?RET_HIGH load(1, XDATA, add(CFA_XSP16, literal(-4)))
          CFI ?BRET_EXT load(1, XDATA, add(CFA_XSP16, literal(-3)))
          CFI DPL0 load(1, XDATA, add(CFA_XSP16, literal(-2)))
          CFI DPH0 load(1, XDATA, add(CFA_XSP16, literal(-1)))
          CFI CFA_SP SP+-2
          CFI CFA_XSP16 add(XSP16, 39)
          CFI Block cfiCond183 Using cfiCommon0
          CFI (cfiCond183) Function GenericApp_Device_JoinRsp
          CFI (cfiCond183) Conditional ??CrossCallReturnLabel_10
          CFI (cfiCond183) R6 load(1, XDATA, add(CFA_XSP16, literal(-19)))
          CFI (cfiCond183) VB load(1, XDATA, add(CFA_XSP16, literal(-18)))
          CFI (cfiCond183) V0 load(1, XDATA, add(CFA_XSP16, literal(-17)))
          CFI (cfiCond183) V1 load(1, XDATA, add(CFA_XSP16, literal(-16)))
          CFI (cfiCond183) V2 load(1, XDATA, add(CFA_XSP16, literal(-15)))
          CFI (cfiCond183) V3 load(1, XDATA, add(CFA_XSP16, literal(-14)))
          CFI (cfiCond183) V4 load(1, XDATA, add(CFA_XSP16, literal(-13)))
          CFI (cfiCond183) V5 load(1, XDATA, add(CFA_XSP16, literal(-12)))
          CFI (cfiCond183) V6 load(1, XDATA, add(CFA_XSP16, literal(-11)))
          CFI (cfiCond183) V7 load(1, XDATA, add(CFA_XSP16, literal(-10)))
          CFI (cfiCond183) V8 load(1, XDATA, add(CFA_XSP16, literal(-9)))
          CFI (cfiCond183) V9 load(1, XDATA, add(CFA_XSP16, literal(-8)))
          CFI (cfiCond183) V10 load(1, XDATA, add(CFA_XSP16, literal(-7)))
          CFI (cfiCond183) R7 load(1, XDATA, add(CFA_XSP16, literal(-6)))
          CFI (cfiCond183) ?RET_LOW load(1, XDATA, add(CFA_XSP16, literal(-5)))
          CFI (cfiCond183) ?RET_HIGH load(1, XDATA, add(CFA_XSP16, literal(-4)))
          CFI (cfiCond183) ?BRET_EXT load(1, XDATA, add(CFA_XSP16, literal(-3)))
          CFI (cfiCond183) DPL0 load(1, XDATA, add(CFA_XSP16, literal(-2)))
          CFI (cfiCond183) DPH0 load(1, XDATA, add(CFA_XSP16, literal(-1)))
          CFI (cfiCond183) CFA_SP SP+-2
          CFI (cfiCond183) CFA_XSP16 add(XSP16, 127)
          CFI Block cfiPicker184 Using cfiCommon1
          CFI (cfiPicker184) NoFunction
          CFI (cfiPicker184) Picker
        INC     DPTR
        MOV     A,R1
        LCALL   ?Subroutine40 & 0xFFFF
??CrossCallReturnLabel_67:
        MOVX    A,@DPTR
        RET
          CFI EndBlock cfiCond182
          CFI EndBlock cfiCond183
          CFI EndBlock cfiPicker184
// 1664 
// 1665 

        RSEG BANKED_CODE:CODE:NOROOT(0)
// 1666 void GenericApp_Get_PermitJoin(afIncomingMSGPacket_t *pkt)
GenericApp_Get_PermitJoin:
          CFI Block cfiBlock185 Using cfiCommon0
          CFI Function GenericApp_Get_PermitJoin
        CODE
// 1667 {
        FUNCALL GenericApp_Get_PermitJoin, osal_memcpy
        LOCFRAME ISTACK, 0, STACK
        LOCFRAME PSTACK, 0, STACK
        LOCFRAME XSTACK, 26, STACK
        LOCFRAME IOVERLAY, 0, STATIC
        LOCFRAME DOVERLAY, 0, STATIC
        ARGFRAME ISTACK, 0, STACK
        ARGFRAME PSTACK, 0, STACK
        ARGFRAME XSTACK, 26, STACK
        ARGFRAME IOVERLAY, 0, STATIC
        ARGFRAME DOVERLAY, 0, STATIC
        FUNCALL GenericApp_Get_PermitJoin, osal_memcmp
        LOCFRAME ISTACK, 0, STACK
        LOCFRAME PSTACK, 0, STACK
        LOCFRAME XSTACK, 26, STACK
        LOCFRAME IOVERLAY, 0, STATIC
        LOCFRAME DOVERLAY, 0, STATIC
        ARGFRAME ISTACK, 0, STACK
        ARGFRAME PSTACK, 0, STACK
        ARGFRAME XSTACK, 26, STACK
        ARGFRAME IOVERLAY, 0, STATIC
        ARGFRAME DOVERLAY, 0, STATIC
        FUNCALL GenericApp_Get_PermitJoin, osal_mem_alloc
        LOCFRAME ISTACK, 0, STACK
        LOCFRAME PSTACK, 0, STACK
        LOCFRAME XSTACK, 23, STACK
        LOCFRAME IOVERLAY, 0, STATIC
        LOCFRAME DOVERLAY, 0, STATIC
        ARGFRAME ISTACK, 0, STACK
        ARGFRAME PSTACK, 0, STACK
        ARGFRAME XSTACK, 23, STACK
        ARGFRAME IOVERLAY, 0, STATIC
        ARGFRAME DOVERLAY, 0, STATIC
        FUNCALL GenericApp_Get_PermitJoin, osal_memcpy
        LOCFRAME ISTACK, 0, STACK
        LOCFRAME PSTACK, 0, STACK
        LOCFRAME XSTACK, 26, STACK
        LOCFRAME IOVERLAY, 0, STATIC
        LOCFRAME DOVERLAY, 0, STATIC
        ARGFRAME ISTACK, 0, STACK
        ARGFRAME PSTACK, 0, STACK
        ARGFRAME XSTACK, 26, STACK
        ARGFRAME IOVERLAY, 0, STATIC
        ARGFRAME DOVERLAY, 0, STATIC
        FUNCALL GenericApp_Get_PermitJoin, osal_memcpy
        LOCFRAME ISTACK, 0, STACK
        LOCFRAME PSTACK, 0, STACK
        LOCFRAME XSTACK, 26, STACK
        LOCFRAME IOVERLAY, 0, STATIC
        LOCFRAME DOVERLAY, 0, STATIC
        ARGFRAME ISTACK, 0, STACK
        ARGFRAME PSTACK, 0, STACK
        ARGFRAME XSTACK, 26, STACK
        ARGFRAME IOVERLAY, 0, STATIC
        ARGFRAME DOVERLAY, 0, STATIC
        REQUIRE ?V0
        REQUIRE ?V1
        REQUIRE ?V2
        REQUIRE ?V3
        REQUIRE ?V4
        REQUIRE ?V5
        REQUIRE ?V6
        MOV     A,#-0xf
        LCALL   ?BANKED_ENTER_XDATA
          CFI DPH0 load(1, XDATA, add(CFA_XSP16, literal(-1)))
          CFI DPL0 load(1, XDATA, add(CFA_XSP16, literal(-2)))
          CFI ?BRET_EXT load(1, XDATA, add(CFA_XSP16, literal(-3)))
          CFI ?RET_HIGH load(1, XDATA, add(CFA_XSP16, literal(-4)))
          CFI ?RET_LOW load(1, XDATA, add(CFA_XSP16, literal(-5)))
          CFI R7 load(1, XDATA, add(CFA_XSP16, literal(-6)))
          CFI V6 load(1, XDATA, add(CFA_XSP16, literal(-7)))
          CFI V5 load(1, XDATA, add(CFA_XSP16, literal(-8)))
          CFI V4 load(1, XDATA, add(CFA_XSP16, literal(-9)))
          CFI V3 load(1, XDATA, add(CFA_XSP16, literal(-10)))
          CFI V2 load(1, XDATA, add(CFA_XSP16, literal(-11)))
          CFI V1 load(1, XDATA, add(CFA_XSP16, literal(-12)))
          CFI V0 load(1, XDATA, add(CFA_XSP16, literal(-13)))
          CFI VB load(1, XDATA, add(CFA_XSP16, literal(-14)))
          CFI R6 load(1, XDATA, add(CFA_XSP16, literal(-15)))
          CFI CFA_SP SP+0
          CFI CFA_XSP16 add(XSP16, 15)
        ; Saved register size: 15
        ; Auto size: 8
        MOV     A,#-0x8
        LCALL   ?ALLOC_XSTACK8
          CFI CFA_XSP16 add(XSP16, 23)
// 1668 	uint8 extaddr[SADDR_EXT_LEN];
// 1669 	ZDO_Permit_Join_Device_t *tmp_join_device = NULL;
// 1670 	ZDO_Permit_Join_Device_t *new_join_device = NULL;
// 1671 	uint8 device_cnt = 0;
// 1672 	static uint8 device_index = 0;
// 1673 
// 1674 	osal_memcpy(extaddr, pkt->cmd.Data + PKT_HEAD_LEN, SADDR_EXT_LEN);
        ; Setup parameters for call to function osal_memcpy
        MOV     A,R2
        ADD     A,#0x22
        MOV     DPL,A
        CLR     A
        ADDC    A,R3
        MOV     DPH,A
        MOVX    A,@DPTR
        ADD     A,#0x9
        MOV     ?V0,A
        INC     DPTR
        MOVX    A,@DPTR
        ADDC    A,#0x0
        MOV     ?V1,A
        MOV     ?V2,#0x0
        MOV     R0,#?V0
        LCALL   ?PUSH_XSTACK_I_THREE
          CFI CFA_XSP16 add(XSP16, 26)
        MOV     R4,#0x8
        MOV     R5,#0x0
        MOV     A,#0x3
        LCALL   ?XSTACK_DISP101_8
        LCALL   `??osal_memcpy::?relay`; Banked call to: osal_memcpy
        MOV     A,#0x3
        LCALL   ?DEALLOC_XSTACK8
          CFI CFA_XSP16 add(XSP16, 23)
// 1675  
// 1676 	tmp_join_device = zdo_join_device;
        MOV     DPTR,#zdo_join_device
        LCALL   ?Subroutine25 & 0xFFFF
??CrossCallReturnLabel_31:
        SJMP    ??GenericApp_Get_PermitJoin_0
// 1677 	while (tmp_join_device)
// 1678 	{
// 1679 		if (osal_memcmp(tmp_join_device->permit_device.extaddr, extaddr, SADDR_EXT_LEN))
// 1680 		{
// 1681 			return;
// 1682 		}
// 1683 		tmp_join_device = tmp_join_device->next;
??GenericApp_Get_PermitJoin_1:
        MOV     DPL,R6
        MOV     DPH,R7
        INC     DPTR
        INC     DPTR
        INC     DPTR
        INC     DPTR
        INC     DPTR
        INC     DPTR
        INC     DPTR
        INC     DPTR
        MOVX    A,@DPTR
        MOV     R6,A
        INC     DPTR
        MOVX    A,@DPTR
??GenericApp_Get_PermitJoin_0:
        MOV     R7,A
        MOV     A,R6
        ORL     A,R7
        JZ      ??GenericApp_Get_PermitJoin_2
        ; Setup parameters for call to function osal_memcmp
        MOV     R0,?XSP + 0
        MOV     R1,?XSP + 1
        MOV     ?V0,R0
        MOV     ?V1,R1
        MOV     R0,#?V0
        LCALL   ?PUSH_XSTACK_I_THREE
          CFI CFA_XSP16 add(XSP16, 26)
        MOV     R4,#0x8
        MOV     R5,#0x0
        MOV     DPL,R6
        MOV     DPH,R7
        MOV     R1,DPL
        MOV     R2,DPH
        MOV     R3,#0x0
        LCALL   `??osal_memcmp::?relay`; Banked call to: osal_memcmp
        MOV     A,#0x3
        LCALL   ?DEALLOC_XSTACK8
          CFI CFA_XSP16 add(XSP16, 23)
        MOV     A,R1
        JZ      ??GenericApp_Get_PermitJoin_1
        LJMP    ??GenericApp_Get_PermitJoin_3 & 0xFFFF
// 1684 	}
// 1685 	// Calculate permit device count
// 1686 	tmp_join_device = zdo_join_device;
??GenericApp_Get_PermitJoin_2:
        MOV     DPTR,#zdo_join_device
        LCALL   ??Subroutine57_0 & 0xFFFF
// 1687 	if (tmp_join_device)
??CrossCallReturnLabel_111:
        MOV     A,R6
        ORL     A,R7
        JZ      ??GenericApp_Get_PermitJoin_4
// 1688 	{
// 1689 		device_cnt = 1;
        MOV     R2,#0x1
        SJMP    ??CrossCallReturnLabel_114
// 1690 		while (tmp_join_device->next)
// 1691 		{
// 1692 			device_cnt++;
??GenericApp_Get_PermitJoin_5:
        INC     R2
// 1693 			tmp_join_device = tmp_join_device->next;
        LCALL   ?Subroutine18 & 0xFFFF
// 1694 		}
??CrossCallReturnLabel_114:
        MOV     DPL,R6
        MOV     DPH,R7
        INC     DPTR
        INC     DPTR
        LCALL   ?Subroutine17 & 0xFFFF
// 1695 	}
??CrossCallReturnLabel_88:
        JNZ     ??GenericApp_Get_PermitJoin_5
// 1696 	if (device_cnt < MAX_JOIN_DEVICE_CNT)
        MOV     A,R2
        CLR     C
        SUBB    A,#0xa
        JNC     ??GenericApp_Get_PermitJoin_6
// 1697 	{
// 1698 		new_join_device = (ZDO_Permit_Join_Device_t *) osal_mem_alloc(sizeof(ZDO_Permit_Join_Device_t));
??GenericApp_Get_PermitJoin_4:
        ; Setup parameters for call to function osal_mem_alloc
        MOV     R2,#0xa
        MOV     R3,#0x0
        LCALL   `??osal_mem_alloc::?relay`; Banked call to: osal_mem_alloc
        MOV     ?V0,R2
        MOV     ?V1,R3
// 1699 		osal_memcpy(new_join_device->permit_device.extaddr, extaddr, SADDR_EXT_LEN);
        ; Setup parameters for call to function osal_memcpy
        MOV     R0,?XSP + 0
        MOV     R1,?XSP + 1
        MOV     ?V4,R0
        MOV     ?V5,R1
        MOV     ?V6,#0x0
        MOV     R0,#?V4
        LCALL   ?PUSH_XSTACK_I_THREE
          CFI CFA_XSP16 add(XSP16, 26)
        MOV     R4,#0x8
        MOV     R5,#0x0
        LCALL   `??osal_memcpy::?relay`; Banked call to: osal_memcpy
        MOV     A,#0x3
        LCALL   ?DEALLOC_XSTACK8
          CFI CFA_XSP16 add(XSP16, 23)
// 1700 		new_join_device->next = NULL;
        MOV     DPL,?V0
        MOV     DPH,?V1
        INC     DPTR
        INC     DPTR
        INC     DPTR
        INC     DPTR
        INC     DPTR
        INC     DPTR
        INC     DPTR
        INC     DPTR
        CLR     A
        MOVX    @DPTR,A
        INC     DPTR
        MOVX    @DPTR,A
// 1701 		if (tmp_join_device)
        MOV     A,R6
        ORL     A,R7
        JZ      ??GenericApp_Get_PermitJoin_7
// 1702 		{
// 1703 			tmp_join_device->next = new_join_device;
        MOV     DPL,R6
        MOV     DPH,R7
        INC     DPTR
        INC     DPTR
        INC     DPTR
        INC     DPTR
        INC     DPTR
        INC     DPTR
        INC     DPTR
        INC     DPTR
        SJMP    ??GenericApp_Get_PermitJoin_8
// 1704 		}
// 1705 		else
// 1706 		{
// 1707 			zdo_join_device = new_join_device;
??GenericApp_Get_PermitJoin_7:
        MOV     DPTR,#zdo_join_device
??GenericApp_Get_PermitJoin_8:
        MOV     A,?V0
        MOVX    @DPTR,A
        INC     DPTR
        MOV     A,?V1
        SJMP    ??GenericApp_Get_PermitJoin_9
// 1708 		}
// 1709 		device_cnt++;
// 1710 	}
// 1711 	else
// 1712 	{
// 1713 		tmp_join_device = zdo_join_device;
??GenericApp_Get_PermitJoin_6:
        MOV     DPTR,#zdo_join_device
        LCALL   ??Subroutine57_0 & 0xFFFF
// 1714 		for (uint8 i = 0; i < device_index; i++)
??CrossCallReturnLabel_112:
        MOV     R0,#0x0
        SJMP    ??GenericApp_Get_PermitJoin_10
// 1715 		{
// 1716 			tmp_join_device = tmp_join_device->next;
??GenericApp_Get_PermitJoin_11:
        LCALL   ?Subroutine18 & 0xFFFF
// 1717 		}
??CrossCallReturnLabel_115:
        INC     R0
??GenericApp_Get_PermitJoin_10:
        MOV     DPTR,#??device_index
        MOVX    A,@DPTR
        MOV     R1,A
        MOV     A,R0
        CLR     C
        SUBB    A,R1
        JC      ??GenericApp_Get_PermitJoin_11
// 1718 		osal_memcpy(tmp_join_device->permit_device.extaddr, extaddr, SADDR_EXT_LEN);
        ; Setup parameters for call to function osal_memcpy
        MOV     R0,?XSP + 0
        MOV     R1,?XSP + 1
        MOV     ?V0,R0
        MOV     ?V1,R1
        MOV     R0,#?V0
        LCALL   ?PUSH_XSTACK_I_THREE
          CFI CFA_XSP16 add(XSP16, 26)
        MOV     R4,#0x8
        MOV     R5,#0x0
        MOV     A,R6
        MOV     R2,A
        MOV     A,R7
        MOV     R3,A
        LCALL   `??osal_memcpy::?relay`; Banked call to: osal_memcpy
        MOV     A,#0x3
        LCALL   ?DEALLOC_XSTACK8
          CFI CFA_XSP16 add(XSP16, 23)
// 1719 		if (++device_index >= MAX_JOIN_DEVICE_CNT)
        MOV     DPTR,#??device_index
        MOVX    A,@DPTR
        INC     A
        MOVX    @DPTR,A
        CLR     C
        SUBB    A,#0xa
        JC      ??GenericApp_Get_PermitJoin_3
// 1720 		{
// 1721 			device_index = 0;
        CLR     A
??GenericApp_Get_PermitJoin_9:
        MOVX    @DPTR,A
// 1722 		}
// 1723 	}
// 1724 	
// 1725 }
??GenericApp_Get_PermitJoin_3:
        MOV     A,#0x8
        LJMP    ?Subroutine2 & 0xFFFF
          CFI EndBlock cfiBlock185

        RSEG BANKED_CODE:CODE:NOROOT(0)
?Subroutine25:
          CFI Block cfiCond186 Using cfiCommon0
          CFI Function CustomApp_linkstatus_updated
          CFI Conditional ??CrossCallReturnLabel_30
          CFI R6 load(1, XDATA, add(CFA_XSP16, literal(-12)))
          CFI VB load(1, XDATA, add(CFA_XSP16, literal(-11)))
          CFI V0 load(1, XDATA, add(CFA_XSP16, literal(-10)))
          CFI V1 load(1, XDATA, add(CFA_XSP16, literal(-9)))
          CFI V2 load(1, XDATA, add(CFA_XSP16, literal(-8)))
          CFI V3 load(1, XDATA, add(CFA_XSP16, literal(-7)))
          CFI R7 load(1, XDATA, add(CFA_XSP16, literal(-6)))
          CFI ?RET_LOW load(1, XDATA, add(CFA_XSP16, literal(-5)))
          CFI ?RET_HIGH load(1, XDATA, add(CFA_XSP16, literal(-4)))
          CFI ?BRET_EXT load(1, XDATA, add(CFA_XSP16, literal(-3)))
          CFI DPL0 load(1, XDATA, add(CFA_XSP16, literal(-2)))
          CFI DPH0 load(1, XDATA, add(CFA_XSP16, literal(-1)))
          CFI CFA_SP SP+-2
          CFI CFA_XSP16 add(XSP16, 12)
          CFI Block cfiCond187 Using cfiCommon0
          CFI (cfiCond187) Function GenericApp_Get_PermitJoin
          CFI (cfiCond187) Conditional ??CrossCallReturnLabel_31
          CFI (cfiCond187) R6 load(1, XDATA, add(CFA_XSP16, literal(-15)))
          CFI (cfiCond187) VB load(1, XDATA, add(CFA_XSP16, literal(-14)))
          CFI (cfiCond187) V0 load(1, XDATA, add(CFA_XSP16, literal(-13)))
          CFI (cfiCond187) V1 load(1, XDATA, add(CFA_XSP16, literal(-12)))
          CFI (cfiCond187) V2 load(1, XDATA, add(CFA_XSP16, literal(-11)))
          CFI (cfiCond187) V3 load(1, XDATA, add(CFA_XSP16, literal(-10)))
          CFI (cfiCond187) V4 load(1, XDATA, add(CFA_XSP16, literal(-9)))
          CFI (cfiCond187) V5 load(1, XDATA, add(CFA_XSP16, literal(-8)))
          CFI (cfiCond187) V6 load(1, XDATA, add(CFA_XSP16, literal(-7)))
          CFI (cfiCond187) R7 load(1, XDATA, add(CFA_XSP16, literal(-6)))
          CFI (cfiCond187) ?RET_LOW load(1, XDATA, add(CFA_XSP16, literal(-5)))
          CFI (cfiCond187) ?RET_HIGH load(1, XDATA, add(CFA_XSP16, literal(-4)))
          CFI (cfiCond187) ?BRET_EXT load(1, XDATA, add(CFA_XSP16, literal(-3)))
          CFI (cfiCond187) DPL0 load(1, XDATA, add(CFA_XSP16, literal(-2)))
          CFI (cfiCond187) DPH0 load(1, XDATA, add(CFA_XSP16, literal(-1)))
          CFI (cfiCond187) CFA_SP SP+-2
          CFI (cfiCond187) CFA_XSP16 add(XSP16, 23)
          CFI Block cfiPicker188 Using cfiCommon1
          CFI (cfiPicker188) NoFunction
          CFI (cfiPicker188) Picker
        MOVX    A,@DPTR
        MOV     R0,A
        INC     DPTR
        MOVX    A,@DPTR
        MOV     R1,A
        MOV     A,R0
        MOV     R6,A
        MOV     A,R1
        RET
          CFI EndBlock cfiCond186
          CFI EndBlock cfiCond187
          CFI EndBlock cfiPicker188

        RSEG BANKED_CODE:CODE:NOROOT(0)
?Subroutine18:
          CFI Block cfiCond189 Using cfiCommon0
          CFI Function GenericApp_Get_PermitJoin
          CFI Conditional ??CrossCallReturnLabel_114
          CFI R6 load(1, XDATA, add(CFA_XSP16, literal(-15)))
          CFI VB load(1, XDATA, add(CFA_XSP16, literal(-14)))
          CFI V0 load(1, XDATA, add(CFA_XSP16, literal(-13)))
          CFI V1 load(1, XDATA, add(CFA_XSP16, literal(-12)))
          CFI V2 load(1, XDATA, add(CFA_XSP16, literal(-11)))
          CFI V3 load(1, XDATA, add(CFA_XSP16, literal(-10)))
          CFI V4 load(1, XDATA, add(CFA_XSP16, literal(-9)))
          CFI V5 load(1, XDATA, add(CFA_XSP16, literal(-8)))
          CFI V6 load(1, XDATA, add(CFA_XSP16, literal(-7)))
          CFI R7 load(1, XDATA, add(CFA_XSP16, literal(-6)))
          CFI ?RET_LOW load(1, XDATA, add(CFA_XSP16, literal(-5)))
          CFI ?RET_HIGH load(1, XDATA, add(CFA_XSP16, literal(-4)))
          CFI ?BRET_EXT load(1, XDATA, add(CFA_XSP16, literal(-3)))
          CFI DPL0 load(1, XDATA, add(CFA_XSP16, literal(-2)))
          CFI DPH0 load(1, XDATA, add(CFA_XSP16, literal(-1)))
          CFI CFA_SP SP+-2
          CFI CFA_XSP16 add(XSP16, 23)
          CFI Block cfiCond190 Using cfiCommon0
          CFI (cfiCond190) Function GenericApp_Get_PermitJoin
          CFI (cfiCond190) Conditional ??CrossCallReturnLabel_115
          CFI (cfiCond190) R6 load(1, XDATA, add(CFA_XSP16, literal(-15)))
          CFI (cfiCond190) VB load(1, XDATA, add(CFA_XSP16, literal(-14)))
          CFI (cfiCond190) V0 load(1, XDATA, add(CFA_XSP16, literal(-13)))
          CFI (cfiCond190) V1 load(1, XDATA, add(CFA_XSP16, literal(-12)))
          CFI (cfiCond190) V2 load(1, XDATA, add(CFA_XSP16, literal(-11)))
          CFI (cfiCond190) V3 load(1, XDATA, add(CFA_XSP16, literal(-10)))
          CFI (cfiCond190) V4 load(1, XDATA, add(CFA_XSP16, literal(-9)))
          CFI (cfiCond190) V5 load(1, XDATA, add(CFA_XSP16, literal(-8)))
          CFI (cfiCond190) V6 load(1, XDATA, add(CFA_XSP16, literal(-7)))
          CFI (cfiCond190) R7 load(1, XDATA, add(CFA_XSP16, literal(-6)))
          CFI (cfiCond190) ?RET_LOW load(1, XDATA, add(CFA_XSP16, literal(-5)))
          CFI (cfiCond190) ?RET_HIGH load(1, XDATA, add(CFA_XSP16, literal(-4)))
          CFI (cfiCond190) ?BRET_EXT load(1, XDATA, add(CFA_XSP16, literal(-3)))
          CFI (cfiCond190) DPL0 load(1, XDATA, add(CFA_XSP16, literal(-2)))
          CFI (cfiCond190) DPH0 load(1, XDATA, add(CFA_XSP16, literal(-1)))
          CFI (cfiCond190) CFA_SP SP+-2
          CFI (cfiCond190) CFA_XSP16 add(XSP16, 23)
          CFI Block cfiPicker191 Using cfiCommon1
          CFI (cfiPicker191) NoFunction
          CFI (cfiPicker191) Picker
        MOV     DPL,R6
        MOV     DPH,R7
          CFI EndBlock cfiCond189
          CFI EndBlock cfiCond190
          CFI EndBlock cfiPicker191
        REQUIRE ??Subroutine56_0
        ; // Fall through to label ??Subroutine56_0

        RSEG BANKED_CODE:CODE:NOROOT(0)
??Subroutine56_0:
          CFI Block cfiCond192 Using cfiCommon0
          CFI Function GenericApp_Free_Join_DeviceInfo
          CFI Conditional ??CrossCallReturnLabel_113
          CFI R6 load(1, XDATA, add(CFA_XSP16, literal(-9)))
          CFI VB load(1, XDATA, add(CFA_XSP16, literal(-8)))
          CFI V0 load(1, XDATA, add(CFA_XSP16, literal(-7)))
          CFI R7 load(1, XDATA, add(CFA_XSP16, literal(-6)))
          CFI ?RET_LOW load(1, XDATA, add(CFA_XSP16, literal(-5)))
          CFI ?RET_HIGH load(1, XDATA, add(CFA_XSP16, literal(-4)))
          CFI ?BRET_EXT load(1, XDATA, add(CFA_XSP16, literal(-3)))
          CFI DPL0 load(1, XDATA, add(CFA_XSP16, literal(-2)))
          CFI DPH0 load(1, XDATA, add(CFA_XSP16, literal(-1)))
          CFI CFA_SP SP+-2
          CFI CFA_XSP16 add(XSP16, 9)
          CFI Block cfiCond193 Using cfiCommon0
          CFI (cfiCond193) Function GenericApp_Get_PermitJoin
          CFI (cfiCond193) Conditional ??CrossCallReturnLabel_114
          CFI (cfiCond193) R6 load(1, XDATA, add(CFA_XSP16, literal(-15)))
          CFI (cfiCond193) VB load(1, XDATA, add(CFA_XSP16, literal(-14)))
          CFI (cfiCond193) V0 load(1, XDATA, add(CFA_XSP16, literal(-13)))
          CFI (cfiCond193) V1 load(1, XDATA, add(CFA_XSP16, literal(-12)))
          CFI (cfiCond193) V2 load(1, XDATA, add(CFA_XSP16, literal(-11)))
          CFI (cfiCond193) V3 load(1, XDATA, add(CFA_XSP16, literal(-10)))
          CFI (cfiCond193) V4 load(1, XDATA, add(CFA_XSP16, literal(-9)))
          CFI (cfiCond193) V5 load(1, XDATA, add(CFA_XSP16, literal(-8)))
          CFI (cfiCond193) V6 load(1, XDATA, add(CFA_XSP16, literal(-7)))
          CFI (cfiCond193) R7 load(1, XDATA, add(CFA_XSP16, literal(-6)))
          CFI (cfiCond193) ?RET_LOW load(1, XDATA, add(CFA_XSP16, literal(-5)))
          CFI (cfiCond193) ?RET_HIGH load(1, XDATA, add(CFA_XSP16, literal(-4)))
          CFI (cfiCond193) ?BRET_EXT load(1, XDATA, add(CFA_XSP16, literal(-3)))
          CFI (cfiCond193) DPL0 load(1, XDATA, add(CFA_XSP16, literal(-2)))
          CFI (cfiCond193) DPH0 load(1, XDATA, add(CFA_XSP16, literal(-1)))
          CFI (cfiCond193) CFA_SP SP+-2
          CFI (cfiCond193) CFA_XSP16 add(XSP16, 23)
          CFI Block cfiCond194 Using cfiCommon0
          CFI (cfiCond194) Function GenericApp_Get_PermitJoin
          CFI (cfiCond194) Conditional ??CrossCallReturnLabel_115
          CFI (cfiCond194) R6 load(1, XDATA, add(CFA_XSP16, literal(-15)))
          CFI (cfiCond194) VB load(1, XDATA, add(CFA_XSP16, literal(-14)))
          CFI (cfiCond194) V0 load(1, XDATA, add(CFA_XSP16, literal(-13)))
          CFI (cfiCond194) V1 load(1, XDATA, add(CFA_XSP16, literal(-12)))
          CFI (cfiCond194) V2 load(1, XDATA, add(CFA_XSP16, literal(-11)))
          CFI (cfiCond194) V3 load(1, XDATA, add(CFA_XSP16, literal(-10)))
          CFI (cfiCond194) V4 load(1, XDATA, add(CFA_XSP16, literal(-9)))
          CFI (cfiCond194) V5 load(1, XDATA, add(CFA_XSP16, literal(-8)))
          CFI (cfiCond194) V6 load(1, XDATA, add(CFA_XSP16, literal(-7)))
          CFI (cfiCond194) R7 load(1, XDATA, add(CFA_XSP16, literal(-6)))
          CFI (cfiCond194) ?RET_LOW load(1, XDATA, add(CFA_XSP16, literal(-5)))
          CFI (cfiCond194) ?RET_HIGH load(1, XDATA, add(CFA_XSP16, literal(-4)))
          CFI (cfiCond194) ?BRET_EXT load(1, XDATA, add(CFA_XSP16, literal(-3)))
          CFI (cfiCond194) DPL0 load(1, XDATA, add(CFA_XSP16, literal(-2)))
          CFI (cfiCond194) DPH0 load(1, XDATA, add(CFA_XSP16, literal(-1)))
          CFI (cfiCond194) CFA_SP SP+-2
          CFI (cfiCond194) CFA_XSP16 add(XSP16, 23)
          CFI Block cfiPicker195 Using cfiCommon1
          CFI (cfiPicker195) NoFunction
          CFI (cfiPicker195) Picker
        INC     DPTR
        INC     DPTR
        INC     DPTR
        INC     DPTR
        INC     DPTR
        INC     DPTR
        INC     DPTR
        INC     DPTR
          CFI EndBlock cfiCond192
          CFI EndBlock cfiCond193
          CFI EndBlock cfiCond194
          CFI EndBlock cfiPicker195
        REQUIRE ??Subroutine57_0
        ; // Fall through to label ??Subroutine57_0

        RSEG BANKED_CODE:CODE:NOROOT(0)
??Subroutine57_0:
          CFI Block cfiCond196 Using cfiCommon0
          CFI Function CustomApp_NodeFindMacAddrList
          CFI Conditional ??CrossCallReturnLabel_110
          CFI R6 load(1, XDATA, add(CFA_XSP16, literal(-10)))
          CFI VB load(1, XDATA, add(CFA_XSP16, literal(-9)))
          CFI V0 load(1, XDATA, add(CFA_XSP16, literal(-8)))
          CFI V1 load(1, XDATA, add(CFA_XSP16, literal(-7)))
          CFI R7 load(1, XDATA, add(CFA_XSP16, literal(-6)))
          CFI ?RET_LOW load(1, XDATA, add(CFA_XSP16, literal(-5)))
          CFI ?RET_HIGH load(1, XDATA, add(CFA_XSP16, literal(-4)))
          CFI ?BRET_EXT load(1, XDATA, add(CFA_XSP16, literal(-3)))
          CFI DPL0 load(1, XDATA, add(CFA_XSP16, literal(-2)))
          CFI DPH0 load(1, XDATA, add(CFA_XSP16, literal(-1)))
          CFI CFA_SP SP+-2
          CFI CFA_XSP16 add(XSP16, 10)
          CFI Block cfiCond197 Using cfiCommon0
          CFI (cfiCond197) Function GenericApp_Get_PermitJoin
          CFI (cfiCond197) Conditional ??CrossCallReturnLabel_111
          CFI (cfiCond197) R6 load(1, XDATA, add(CFA_XSP16, literal(-15)))
          CFI (cfiCond197) VB load(1, XDATA, add(CFA_XSP16, literal(-14)))
          CFI (cfiCond197) V0 load(1, XDATA, add(CFA_XSP16, literal(-13)))
          CFI (cfiCond197) V1 load(1, XDATA, add(CFA_XSP16, literal(-12)))
          CFI (cfiCond197) V2 load(1, XDATA, add(CFA_XSP16, literal(-11)))
          CFI (cfiCond197) V3 load(1, XDATA, add(CFA_XSP16, literal(-10)))
          CFI (cfiCond197) V4 load(1, XDATA, add(CFA_XSP16, literal(-9)))
          CFI (cfiCond197) V5 load(1, XDATA, add(CFA_XSP16, literal(-8)))
          CFI (cfiCond197) V6 load(1, XDATA, add(CFA_XSP16, literal(-7)))
          CFI (cfiCond197) R7 load(1, XDATA, add(CFA_XSP16, literal(-6)))
          CFI (cfiCond197) ?RET_LOW load(1, XDATA, add(CFA_XSP16, literal(-5)))
          CFI (cfiCond197) ?RET_HIGH load(1, XDATA, add(CFA_XSP16, literal(-4)))
          CFI (cfiCond197) ?BRET_EXT load(1, XDATA, add(CFA_XSP16, literal(-3)))
          CFI (cfiCond197) DPL0 load(1, XDATA, add(CFA_XSP16, literal(-2)))
          CFI (cfiCond197) DPH0 load(1, XDATA, add(CFA_XSP16, literal(-1)))
          CFI (cfiCond197) CFA_SP SP+-2
          CFI (cfiCond197) CFA_XSP16 add(XSP16, 23)
          CFI Block cfiCond198 Using cfiCommon0
          CFI (cfiCond198) Function GenericApp_Get_PermitJoin
          CFI (cfiCond198) Conditional ??CrossCallReturnLabel_112
          CFI (cfiCond198) R6 load(1, XDATA, add(CFA_XSP16, literal(-15)))
          CFI (cfiCond198) VB load(1, XDATA, add(CFA_XSP16, literal(-14)))
          CFI (cfiCond198) V0 load(1, XDATA, add(CFA_XSP16, literal(-13)))
          CFI (cfiCond198) V1 load(1, XDATA, add(CFA_XSP16, literal(-12)))
          CFI (cfiCond198) V2 load(1, XDATA, add(CFA_XSP16, literal(-11)))
          CFI (cfiCond198) V3 load(1, XDATA, add(CFA_XSP16, literal(-10)))
          CFI (cfiCond198) V4 load(1, XDATA, add(CFA_XSP16, literal(-9)))
          CFI (cfiCond198) V5 load(1, XDATA, add(CFA_XSP16, literal(-8)))
          CFI (cfiCond198) V6 load(1, XDATA, add(CFA_XSP16, literal(-7)))
          CFI (cfiCond198) R7 load(1, XDATA, add(CFA_XSP16, literal(-6)))
          CFI (cfiCond198) ?RET_LOW load(1, XDATA, add(CFA_XSP16, literal(-5)))
          CFI (cfiCond198) ?RET_HIGH load(1, XDATA, add(CFA_XSP16, literal(-4)))
          CFI (cfiCond198) ?BRET_EXT load(1, XDATA, add(CFA_XSP16, literal(-3)))
          CFI (cfiCond198) DPL0 load(1, XDATA, add(CFA_XSP16, literal(-2)))
          CFI (cfiCond198) DPH0 load(1, XDATA, add(CFA_XSP16, literal(-1)))
          CFI (cfiCond198) CFA_SP SP+-2
          CFI (cfiCond198) CFA_XSP16 add(XSP16, 23)
          CFI Block cfiCond199 Using cfiCommon0
          CFI (cfiCond199) Function GenericApp_Free_Join_DeviceInfo
          CFI (cfiCond199) Conditional ??CrossCallReturnLabel_113
          CFI (cfiCond199) R6 load(1, XDATA, add(CFA_XSP16, literal(-9)))
          CFI (cfiCond199) VB load(1, XDATA, add(CFA_XSP16, literal(-8)))
          CFI (cfiCond199) V0 load(1, XDATA, add(CFA_XSP16, literal(-7)))
          CFI (cfiCond199) R7 load(1, XDATA, add(CFA_XSP16, literal(-6)))
          CFI (cfiCond199) ?RET_LOW load(1, XDATA, add(CFA_XSP16, literal(-5)))
          CFI (cfiCond199) ?RET_HIGH load(1, XDATA, add(CFA_XSP16, literal(-4)))
          CFI (cfiCond199) ?BRET_EXT load(1, XDATA, add(CFA_XSP16, literal(-3)))
          CFI (cfiCond199) DPL0 load(1, XDATA, add(CFA_XSP16, literal(-2)))
          CFI (cfiCond199) DPH0 load(1, XDATA, add(CFA_XSP16, literal(-1)))
          CFI (cfiCond199) CFA_SP SP+-2
          CFI (cfiCond199) CFA_XSP16 add(XSP16, 9)
          CFI Block cfiCond200 Using cfiCommon0
          CFI (cfiCond200) Function GenericApp_Get_PermitJoin
          CFI (cfiCond200) Conditional ??CrossCallReturnLabel_114
          CFI (cfiCond200) R6 load(1, XDATA, add(CFA_XSP16, literal(-15)))
          CFI (cfiCond200) VB load(1, XDATA, add(CFA_XSP16, literal(-14)))
          CFI (cfiCond200) V0 load(1, XDATA, add(CFA_XSP16, literal(-13)))
          CFI (cfiCond200) V1 load(1, XDATA, add(CFA_XSP16, literal(-12)))
          CFI (cfiCond200) V2 load(1, XDATA, add(CFA_XSP16, literal(-11)))
          CFI (cfiCond200) V3 load(1, XDATA, add(CFA_XSP16, literal(-10)))
          CFI (cfiCond200) V4 load(1, XDATA, add(CFA_XSP16, literal(-9)))
          CFI (cfiCond200) V5 load(1, XDATA, add(CFA_XSP16, literal(-8)))
          CFI (cfiCond200) V6 load(1, XDATA, add(CFA_XSP16, literal(-7)))
          CFI (cfiCond200) R7 load(1, XDATA, add(CFA_XSP16, literal(-6)))
          CFI (cfiCond200) ?RET_LOW load(1, XDATA, add(CFA_XSP16, literal(-5)))
          CFI (cfiCond200) ?RET_HIGH load(1, XDATA, add(CFA_XSP16, literal(-4)))
          CFI (cfiCond200) ?BRET_EXT load(1, XDATA, add(CFA_XSP16, literal(-3)))
          CFI (cfiCond200) DPL0 load(1, XDATA, add(CFA_XSP16, literal(-2)))
          CFI (cfiCond200) DPH0 load(1, XDATA, add(CFA_XSP16, literal(-1)))
          CFI (cfiCond200) CFA_SP SP+-2
          CFI (cfiCond200) CFA_XSP16 add(XSP16, 23)
          CFI Block cfiCond201 Using cfiCommon0
          CFI (cfiCond201) Function GenericApp_Get_PermitJoin
          CFI (cfiCond201) Conditional ??CrossCallReturnLabel_115
          CFI (cfiCond201) R6 load(1, XDATA, add(CFA_XSP16, literal(-15)))
          CFI (cfiCond201) VB load(1, XDATA, add(CFA_XSP16, literal(-14)))
          CFI (cfiCond201) V0 load(1, XDATA, add(CFA_XSP16, literal(-13)))
          CFI (cfiCond201) V1 load(1, XDATA, add(CFA_XSP16, literal(-12)))
          CFI (cfiCond201) V2 load(1, XDATA, add(CFA_XSP16, literal(-11)))
          CFI (cfiCond201) V3 load(1, XDATA, add(CFA_XSP16, literal(-10)))
          CFI (cfiCond201) V4 load(1, XDATA, add(CFA_XSP16, literal(-9)))
          CFI (cfiCond201) V5 load(1, XDATA, add(CFA_XSP16, literal(-8)))
          CFI (cfiCond201) V6 load(1, XDATA, add(CFA_XSP16, literal(-7)))
          CFI (cfiCond201) R7 load(1, XDATA, add(CFA_XSP16, literal(-6)))
          CFI (cfiCond201) ?RET_LOW load(1, XDATA, add(CFA_XSP16, literal(-5)))
          CFI (cfiCond201) ?RET_HIGH load(1, XDATA, add(CFA_XSP16, literal(-4)))
          CFI (cfiCond201) ?BRET_EXT load(1, XDATA, add(CFA_XSP16, literal(-3)))
          CFI (cfiCond201) DPL0 load(1, XDATA, add(CFA_XSP16, literal(-2)))
          CFI (cfiCond201) DPH0 load(1, XDATA, add(CFA_XSP16, literal(-1)))
          CFI (cfiCond201) CFA_SP SP+-2
          CFI (cfiCond201) CFA_XSP16 add(XSP16, 23)
          CFI Block cfiPicker202 Using cfiCommon1
          CFI (cfiPicker202) NoFunction
          CFI (cfiPicker202) Picker
        MOVX    A,@DPTR
        MOV     R6,A
        INC     DPTR
        MOVX    A,@DPTR
        MOV     R7,A
        RET
          CFI EndBlock cfiCond196
          CFI EndBlock cfiCond197
          CFI EndBlock cfiCond198
          CFI EndBlock cfiCond199
          CFI EndBlock cfiCond200
          CFI EndBlock cfiCond201
          CFI EndBlock cfiPicker202

        RSEG XDATA_Z:XDATA:NOROOT(0)
        DATA8
??device_index:
        DS 1
        REQUIRE __INIT_XDATA_Z
// 1726 

        RSEG BANKED_CODE:CODE:NOROOT(0)
// 1727 bool GenericApp_Device_JoinReq(void)
GenericApp_Device_JoinReq:
          CFI Block cfiBlock203 Using cfiCommon0
          CFI Function GenericApp_Device_JoinReq
        CODE
// 1728 {
        FUNCALL GenericApp_Device_JoinReq, osal_msg_allocate
        LOCFRAME ISTACK, 0, STACK
        LOCFRAME PSTACK, 0, STACK
        LOCFRAME XSTACK, 218, STACK
        LOCFRAME IOVERLAY, 0, STATIC
        LOCFRAME DOVERLAY, 0, STATIC
        ARGFRAME ISTACK, 0, STACK
        ARGFRAME PSTACK, 0, STACK
        ARGFRAME XSTACK, 218, STACK
        ARGFRAME IOVERLAY, 0, STATIC
        ARGFRAME DOVERLAY, 0, STATIC
        FUNCALL GenericApp_Device_JoinReq, NLME_GetShortAddr
        LOCFRAME ISTACK, 0, STACK
        LOCFRAME PSTACK, 0, STACK
        LOCFRAME XSTACK, 218, STACK
        LOCFRAME IOVERLAY, 0, STATIC
        LOCFRAME DOVERLAY, 0, STATIC
        ARGFRAME ISTACK, 0, STACK
        ARGFRAME PSTACK, 0, STACK
        ARGFRAME XSTACK, 218, STACK
        ARGFRAME IOVERLAY, 0, STATIC
        ARGFRAME DOVERLAY, 0, STATIC
        FUNCALL GenericApp_Device_JoinReq, osal_memcpy
        LOCFRAME ISTACK, 0, STACK
        LOCFRAME PSTACK, 0, STACK
        LOCFRAME XSTACK, 221, STACK
        LOCFRAME IOVERLAY, 0, STATIC
        LOCFRAME DOVERLAY, 0, STATIC
        ARGFRAME ISTACK, 0, STACK
        ARGFRAME PSTACK, 0, STACK
        ARGFRAME XSTACK, 221, STACK
        ARGFRAME IOVERLAY, 0, STATIC
        ARGFRAME DOVERLAY, 0, STATIC
        FUNCALL GenericApp_Device_JoinReq, osal_memcpy
        LOCFRAME ISTACK, 0, STACK
        LOCFRAME PSTACK, 0, STACK
        LOCFRAME XSTACK, 221, STACK
        LOCFRAME IOVERLAY, 0, STATIC
        LOCFRAME DOVERLAY, 0, STATIC
        ARGFRAME ISTACK, 0, STACK
        ARGFRAME PSTACK, 0, STACK
        ARGFRAME XSTACK, 221, STACK
        ARGFRAME IOVERLAY, 0, STATIC
        ARGFRAME DOVERLAY, 0, STATIC
        FUNCALL GenericApp_Device_JoinReq, osal_memcpy
        LOCFRAME ISTACK, 0, STACK
        LOCFRAME PSTACK, 0, STACK
        LOCFRAME XSTACK, 221, STACK
        LOCFRAME IOVERLAY, 0, STATIC
        LOCFRAME DOVERLAY, 0, STATIC
        ARGFRAME ISTACK, 0, STACK
        ARGFRAME PSTACK, 0, STACK
        ARGFRAME XSTACK, 221, STACK
        ARGFRAME IOVERLAY, 0, STATIC
        ARGFRAME DOVERLAY, 0, STATIC
        FUNCALL GenericApp_Device_JoinReq, MT_UartCalcFCS
        LOCFRAME ISTACK, 0, STACK
        LOCFRAME PSTACK, 0, STACK
        LOCFRAME XSTACK, 218, STACK
        LOCFRAME IOVERLAY, 0, STATIC
        LOCFRAME DOVERLAY, 0, STATIC
        ARGFRAME ISTACK, 0, STACK
        ARGFRAME PSTACK, 0, STACK
        ARGFRAME XSTACK, 218, STACK
        ARGFRAME IOVERLAY, 0, STATIC
        ARGFRAME DOVERLAY, 0, STATIC
        FUNCALL GenericApp_Device_JoinReq, AF_DataRequest
        LOCFRAME ISTACK, 0, STACK
        LOCFRAME PSTACK, 0, STACK
        LOCFRAME XSTACK, 227, STACK
        LOCFRAME IOVERLAY, 0, STATIC
        LOCFRAME DOVERLAY, 0, STATIC
        ARGFRAME ISTACK, 0, STACK
        ARGFRAME PSTACK, 0, STACK
        ARGFRAME XSTACK, 227, STACK
        ARGFRAME IOVERLAY, 0, STATIC
        ARGFRAME DOVERLAY, 0, STATIC
        FUNCALL GenericApp_Device_JoinReq, osal_msg_deallocate
        LOCFRAME ISTACK, 0, STACK
        LOCFRAME PSTACK, 0, STACK
        LOCFRAME XSTACK, 218, STACK
        LOCFRAME IOVERLAY, 0, STATIC
        LOCFRAME DOVERLAY, 0, STATIC
        ARGFRAME ISTACK, 0, STACK
        ARGFRAME PSTACK, 0, STACK
        ARGFRAME XSTACK, 218, STACK
        ARGFRAME IOVERLAY, 0, STATIC
        ARGFRAME DOVERLAY, 0, STATIC
        REQUIRE ?V0
        REQUIRE ?V1
        REQUIRE ?V2
        REQUIRE ?V3
        REQUIRE ?V4
        REQUIRE ?V5
        REQUIRE ?V6
        REQUIRE ?V8
        REQUIRE ?V9
        MOV     A,#-0x12
        LCALL   ?BANKED_ENTER_XDATA
          CFI DPH0 load(1, XDATA, add(CFA_XSP16, literal(-1)))
          CFI DPL0 load(1, XDATA, add(CFA_XSP16, literal(-2)))
          CFI ?BRET_EXT load(1, XDATA, add(CFA_XSP16, literal(-3)))
          CFI ?RET_HIGH load(1, XDATA, add(CFA_XSP16, literal(-4)))
          CFI ?RET_LOW load(1, XDATA, add(CFA_XSP16, literal(-5)))
          CFI R7 load(1, XDATA, add(CFA_XSP16, literal(-6)))
          CFI V9 load(1, XDATA, add(CFA_XSP16, literal(-7)))
          CFI V8 load(1, XDATA, add(CFA_XSP16, literal(-8)))
          CFI V7 load(1, XDATA, add(CFA_XSP16, literal(-9)))
          CFI V6 load(1, XDATA, add(CFA_XSP16, literal(-10)))
          CFI V5 load(1, XDATA, add(CFA_XSP16, literal(-11)))
          CFI V4 load(1, XDATA, add(CFA_XSP16, literal(-12)))
          CFI V3 load(1, XDATA, add(CFA_XSP16, literal(-13)))
          CFI V2 load(1, XDATA, add(CFA_XSP16, literal(-14)))
          CFI V1 load(1, XDATA, add(CFA_XSP16, literal(-15)))
          CFI V0 load(1, XDATA, add(CFA_XSP16, literal(-16)))
          CFI VB load(1, XDATA, add(CFA_XSP16, literal(-17)))
          CFI R6 load(1, XDATA, add(CFA_XSP16, literal(-18)))
          CFI CFA_SP SP+0
          CFI CFA_XSP16 add(XSP16, 18)
        ; Saved register size: 18
        ; Auto size: 200
        MOV     A,#0x38
        LCALL   ?ALLOC_XSTACK8
          CFI CFA_XSP16 add(XSP16, 218)
// 1729 	transferpkt_t *protocol_pack;
// 1730 	uint16 clusterid;
// 1731 	uint8 buf[200];
// 1732 	bool ret = FALSE;
        MOV     ?V0,#0x0
// 1733 
// 1734 	protocol_pack = (transferpkt_t *)osal_msg_allocate( sizeof( transferpkt_t ) + SADDR_EXT_LEN + 1);
        ; Setup parameters for call to function osal_msg_allocate
        MOV     R2,#0x15
        MOV     R3,#0x0
        LCALL   `??osal_msg_allocate::?relay`; Banked call to: osal_msg_allocate
        MOV     ?V2,R2
        MOV     ?V3,R3
        MOV     R6,?V2
        MOV     R7,?V3
// 1735 	if ( protocol_pack == NULL )
        MOV     A,R6
        ORL     A,R7
        JNZ     ??GenericApp_Device_JoinReq_0
// 1736 	{
// 1737 		return ZFailure;
        MOV     R1,#0x1
        LJMP    ??GenericApp_Device_JoinReq_1 & 0xFFFF
// 1738 	}
// 1739 
// 1740 	protocol_pack->msgid = PROT_JOIN_REQ_MSG;
??GenericApp_Device_JoinReq_0:
        MOV     DPL,R6
        MOV     DPH,R7
        MOV     A,#0x4a
        MOVX    @DPTR,A
        INC     DPTR
        MOV     A,#0x30
        LCALL   ?Subroutine6 & 0xFFFF
// 1741 	protocol_pack->msgseq = 0x0001;
// 1742 	protocol_pack->destid = 0x0000;
??CrossCallReturnLabel_1:
        MOVX    @DPTR,A
        INC     DPTR
        MOVX    @DPTR,A
// 1743 	protocol_pack->srcid = NLME_GetShortAddr();
        ; Setup parameters for call to function NLME_GetShortAddr
        LCALL   `??NLME_GetShortAddr::?relay`; Banked call to: NLME_GetShortAddr
        LCALL   ?Subroutine11 & 0xFFFF
// 1744 	protocol_pack->datalen = SADDR_EXT_LEN;
??CrossCallReturnLabel_105:
        LCALL   ?Subroutine38 & 0xFFFF
??CrossCallReturnLabel_64:
        MOV     DPL,?V2
        MOV     DPH,A
        MOV     A,#0x8
        MOVX    @DPTR,A
// 1745 
// 1746 	protocol_pack->data = (uint8 *)(protocol_pack + 1);
        LCALL   ?Subroutine28 & 0xFFFF
??CrossCallReturnLabel_40:
        MOV     ?V8,A
        CLR     A
        ADDC    A,R7
        MOV     ?V9,A
        MOV     DPL,?V8
        MOV     DPH,A
        LCALL   ??Subroutine54_0 & 0xFFFF
// 1747 	osal_memcpy(protocol_pack->data, join_device_extaddr, SADDR_EXT_LEN);
??CrossCallReturnLabel_103:
        ; Setup parameters for call to function osal_memcpy
        MOV     ?V4,#join_device_extaddr & 0xff
        MOV     ?V5,#(join_device_extaddr >> 8) & 0xff
        MOV     ?V6,#0x0
        MOV     R0,#?V4
        LCALL   ?PUSH_XSTACK_I_THREE
          CFI CFA_XSP16 add(XSP16, 221)
        MOV     R4,#0x8
        MOV     R5,#0x0
        LCALL   `??osal_memcpy::?relay`; Banked call to: osal_memcpy
        MOV     A,#0x3
        LCALL   ?DEALLOC_XSTACK8
          CFI CFA_XSP16 add(XSP16, 218)
// 1748 	//+msg id 2B+msg_seq2B+len byte+ dest_id 2B+src_id 2B
// 1749 	osal_memcpy( buf, (uint8 *)protocol_pack, PKT_HEAD_LEN );
        ; Setup parameters for call to function osal_memcpy
        MOV     ?V4,R6
        MOV     ?V5,R7
        MOV     R0,#?V4
        LCALL   ?PUSH_XSTACK_I_THREE
          CFI CFA_XSP16 add(XSP16, 221)
        MOV     R4,#0x9
        MOV     R5,#0x0
        MOV     A,#0x3
        LCALL   ?XSTACK_DISP101_8
        LCALL   `??osal_memcpy::?relay`; Banked call to: osal_memcpy
        MOV     A,#0x3
        LCALL   ?DEALLOC_XSTACK8
          CFI CFA_XSP16 add(XSP16, 218)
// 1750 	osal_memcpy(&buf[PKT_HEAD_LEN], protocol_pack->data, SADDR_EXT_LEN);
        ; Setup parameters for call to function osal_memcpy
        MOV     DPL,?V8
        MOV     DPH,?V9
        LCALL   ?Subroutine24 & 0xFFFF
??CrossCallReturnLabel_29:
        LCALL   ?PUSH_XSTACK_I_THREE
          CFI CFA_XSP16 add(XSP16, 221)
        MOV     R4,#0x8
        MOV     R5,#0x0
        MOV     A,#0xc
        LCALL   ?XSTACK_DISP0_8
        MOV     R2,DPL
        MOV     R3,DPH
        LCALL   `??osal_memcpy::?relay`; Banked call to: osal_memcpy
        MOV     A,#0x3
        LCALL   ?DEALLOC_XSTACK8
          CFI CFA_XSP16 add(XSP16, 218)
// 1751 	protocol_pack->fcs = MT_UartCalcFCS( buf, PKT_HEAD_LEN + protocol_pack->datalen );
        ; Setup parameters for call to function MT_UartCalcFCS
        MOV     DPL,?V2
        MOV     DPH,?V3
        MOVX    A,@DPTR
        ADD     A,#0x9
        MOV     R1,A
        MOV     R2,?XSP + 0
        MOV     R3,?XSP + 1
        LCALL   `??MT_UartCalcFCS::?relay`; Banked call to: MT_UartCalcFCS
        LCALL   ?Subroutine7 & 0xFFFF
// 1752 	buf[PKT_HEAD_LEN + protocol_pack->datalen] = protocol_pack->fcs;
??CrossCallReturnLabel_117:
        MOV     DPL,?XSP + 0
        MOV     DPH,?XSP + 1
        LCALL   ?Subroutine27 & 0xFFFF
??CrossCallReturnLabel_38:
        INC     DPTR
        MOV     A,R1
        MOVX    @DPTR,A
// 1753 
// 1754 	clusterid = GENERICAPP_P2P_PERMIT_JOIN_REQ_CLUSTERID;
// 1755 	SerialApp_TxAddr_p2p.addr.shortAddr = 0x0000;
        MOV     DPTR,#SerialApp_TxAddr_p2p
        CLR     A
        MOVX    @DPTR,A
        INC     DPTR
        MOVX    @DPTR,A
// 1756 
// 1757 	if ( AF_DataRequest( &SerialApp_TxAddr_p2p, &GenericApp_epDesc,
// 1758 						clusterid,
// 1759 						PKT_HEAD_LEN + SADDR_EXT_LEN + 1,
// 1760 						buf, //(uint8 *)protocol_pack,
// 1761 						&GenericApp_TransID,
// 1762 						AF_DISCV_ROUTE, AF_DEFAULT_RADIUS ) == afStatus_SUCCESS )
        ; Setup parameters for call to function AF_DataRequest
        MOV     ?V1,#0x1e
        MOV     R0,#?V1
        LCALL   ?PUSH_XSTACK_I_ONE
          CFI CFA_XSP16 add(XSP16, 219)
        MOV     ?V2,#GenericApp_TransID & 0xff
        MOV     ?V3,#(GenericApp_TransID >> 8) & 0xff
        MOV     R0,#?V2
        LCALL   ?PUSH_XSTACK_I_TWO
          CFI CFA_XSP16 add(XSP16, 221)
        MOV     A,#0x3
        LCALL   ?XSTACK_DISP100_8
        MOV     ?V2,R0
        MOV     ?V3,R1
        MOV     R0,#?V2
        LCALL   ?PUSH_XSTACK_I_TWO
          CFI CFA_XSP16 add(XSP16, 223)
        MOV     ?V2,#0x12
        MOV     ?V3,#0x0
        MOV     R0,#?V2
        LCALL   ?PUSH_XSTACK_I_TWO
          CFI CFA_XSP16 add(XSP16, 225)
        MOV     ?V2,#0x6
        MOV     R0,#?V2
        LCALL   ?PUSH_XSTACK_I_TWO
          CFI CFA_XSP16 add(XSP16, 227)
        MOV     R1,#0x0
        MOV     R4,#GenericApp_epDesc & 0xff
        MOV     R5,#(GenericApp_epDesc >> 8) & 0xff
        MOV     R2,#SerialApp_TxAddr_p2p & 0xff
        MOV     R3,#(SerialApp_TxAddr_p2p >> 8) & 0xff
        LCALL   `??AF_DataRequest::?relay`; Banked call to: AF_DataRequest
        MOV     A,#0x9
        LCALL   ?DEALLOC_XSTACK8
          CFI CFA_XSP16 add(XSP16, 218)
        MOV     A,R1
        JNZ     ??GenericApp_Device_JoinReq_2
// 1763 	{
// 1764 		ret = TRUE;
        MOV     ?V0,#0x1
// 1765 	}
// 1766 	else
// 1767 	{
// 1768 		ret = FALSE;
// 1769 	}
// 1770 	osal_msg_deallocate( (uint8 *)protocol_pack );
??GenericApp_Device_JoinReq_2:
        ; Setup parameters for call to function osal_msg_deallocate
        MOV     A,R6
        MOV     R2,A
        MOV     A,R7
        MOV     R3,A
        LCALL   `??osal_msg_deallocate::?relay`; Banked call to: osal_msg_deallocate
// 1771 	return ret;
        MOV     R1,?V0
??GenericApp_Device_JoinReq_1:
        MOV     A,#-0x38
        LCALL   ?DEALLOC_XSTACK8
          CFI CFA_XSP16 add(XSP16, 18)
        MOV     R7,#0xa
        LJMP    ?BANKED_LEAVE_XDATA
// 1772 }
          CFI EndBlock cfiBlock203

        RSEG BANKED_CODE:CODE:NOROOT(0)
?Subroutine38:
          CFI Block cfiCond204 Using cfiCommon0
          CFI Function GenericApp_Device_JoinRsp
          CFI Conditional ??CrossCallReturnLabel_63
          CFI R6 load(1, XDATA, add(CFA_XSP16, literal(-19)))
          CFI VB load(1, XDATA, add(CFA_XSP16, literal(-18)))
          CFI V0 load(1, XDATA, add(CFA_XSP16, literal(-17)))
          CFI V1 load(1, XDATA, add(CFA_XSP16, literal(-16)))
          CFI V2 load(1, XDATA, add(CFA_XSP16, literal(-15)))
          CFI V3 load(1, XDATA, add(CFA_XSP16, literal(-14)))
          CFI V4 load(1, XDATA, add(CFA_XSP16, literal(-13)))
          CFI V5 load(1, XDATA, add(CFA_XSP16, literal(-12)))
          CFI V6 load(1, XDATA, add(CFA_XSP16, literal(-11)))
          CFI V7 load(1, XDATA, add(CFA_XSP16, literal(-10)))
          CFI V8 load(1, XDATA, add(CFA_XSP16, literal(-9)))
          CFI V9 load(1, XDATA, add(CFA_XSP16, literal(-8)))
          CFI V10 load(1, XDATA, add(CFA_XSP16, literal(-7)))
          CFI R7 load(1, XDATA, add(CFA_XSP16, literal(-6)))
          CFI ?RET_LOW load(1, XDATA, add(CFA_XSP16, literal(-5)))
          CFI ?RET_HIGH load(1, XDATA, add(CFA_XSP16, literal(-4)))
          CFI ?BRET_EXT load(1, XDATA, add(CFA_XSP16, literal(-3)))
          CFI DPL0 load(1, XDATA, add(CFA_XSP16, literal(-2)))
          CFI DPH0 load(1, XDATA, add(CFA_XSP16, literal(-1)))
          CFI CFA_SP SP+-2
          CFI CFA_XSP16 add(XSP16, 127)
          CFI Block cfiCond205 Using cfiCommon0
          CFI (cfiCond205) Function GenericApp_Device_JoinReq
          CFI (cfiCond205) Conditional ??CrossCallReturnLabel_64
          CFI (cfiCond205) R6 load(1, XDATA, add(CFA_XSP16, literal(-18)))
          CFI (cfiCond205) VB load(1, XDATA, add(CFA_XSP16, literal(-17)))
          CFI (cfiCond205) V0 load(1, XDATA, add(CFA_XSP16, literal(-16)))
          CFI (cfiCond205) V1 load(1, XDATA, add(CFA_XSP16, literal(-15)))
          CFI (cfiCond205) V2 load(1, XDATA, add(CFA_XSP16, literal(-14)))
          CFI (cfiCond205) V3 load(1, XDATA, add(CFA_XSP16, literal(-13)))
          CFI (cfiCond205) V4 load(1, XDATA, add(CFA_XSP16, literal(-12)))
          CFI (cfiCond205) V5 load(1, XDATA, add(CFA_XSP16, literal(-11)))
          CFI (cfiCond205) V6 load(1, XDATA, add(CFA_XSP16, literal(-10)))
          CFI (cfiCond205) V7 load(1, XDATA, add(CFA_XSP16, literal(-9)))
          CFI (cfiCond205) V8 load(1, XDATA, add(CFA_XSP16, literal(-8)))
          CFI (cfiCond205) V9 load(1, XDATA, add(CFA_XSP16, literal(-7)))
          CFI (cfiCond205) R7 load(1, XDATA, add(CFA_XSP16, literal(-6)))
          CFI (cfiCond205) ?RET_LOW load(1, XDATA, add(CFA_XSP16, literal(-5)))
          CFI (cfiCond205) ?RET_HIGH load(1, XDATA, add(CFA_XSP16, literal(-4)))
          CFI (cfiCond205) ?BRET_EXT load(1, XDATA, add(CFA_XSP16, literal(-3)))
          CFI (cfiCond205) DPL0 load(1, XDATA, add(CFA_XSP16, literal(-2)))
          CFI (cfiCond205) DPH0 load(1, XDATA, add(CFA_XSP16, literal(-1)))
          CFI (cfiCond205) CFA_SP SP+-2
          CFI (cfiCond205) CFA_XSP16 add(XSP16, 218)
          CFI Block cfiPicker206 Using cfiCommon1
          CFI (cfiPicker206) NoFunction
          CFI (cfiPicker206) Picker
        MOV     A,R6
        ADD     A,#0x8
        MOV     ?V2,A
        CLR     A
        ADDC    A,R7
        MOV     ?V3,A
        RET
          CFI EndBlock cfiCond204
          CFI EndBlock cfiCond205
          CFI EndBlock cfiPicker206

        RSEG BANKED_CODE:CODE:NOROOT(0)
?Subroutine28:
          CFI Block cfiCond207 Using cfiCommon0
          CFI Function GenericApp_Device_JoinRsp
          CFI Conditional ??CrossCallReturnLabel_39
          CFI R6 load(1, XDATA, add(CFA_XSP16, literal(-19)))
          CFI VB load(1, XDATA, add(CFA_XSP16, literal(-18)))
          CFI V0 load(1, XDATA, add(CFA_XSP16, literal(-17)))
          CFI V1 load(1, XDATA, add(CFA_XSP16, literal(-16)))
          CFI V2 load(1, XDATA, add(CFA_XSP16, literal(-15)))
          CFI V3 load(1, XDATA, add(CFA_XSP16, literal(-14)))
          CFI V4 load(1, XDATA, add(CFA_XSP16, literal(-13)))
          CFI V5 load(1, XDATA, add(CFA_XSP16, literal(-12)))
          CFI V6 load(1, XDATA, add(CFA_XSP16, literal(-11)))
          CFI V7 load(1, XDATA, add(CFA_XSP16, literal(-10)))
          CFI V8 load(1, XDATA, add(CFA_XSP16, literal(-9)))
          CFI V9 load(1, XDATA, add(CFA_XSP16, literal(-8)))
          CFI V10 load(1, XDATA, add(CFA_XSP16, literal(-7)))
          CFI R7 load(1, XDATA, add(CFA_XSP16, literal(-6)))
          CFI ?RET_LOW load(1, XDATA, add(CFA_XSP16, literal(-5)))
          CFI ?RET_HIGH load(1, XDATA, add(CFA_XSP16, literal(-4)))
          CFI ?BRET_EXT load(1, XDATA, add(CFA_XSP16, literal(-3)))
          CFI DPL0 load(1, XDATA, add(CFA_XSP16, literal(-2)))
          CFI DPH0 load(1, XDATA, add(CFA_XSP16, literal(-1)))
          CFI CFA_SP SP+-2
          CFI CFA_XSP16 add(XSP16, 127)
          CFI Block cfiCond208 Using cfiCommon0
          CFI (cfiCond208) Function GenericApp_Device_JoinReq
          CFI (cfiCond208) Conditional ??CrossCallReturnLabel_40
          CFI (cfiCond208) R6 load(1, XDATA, add(CFA_XSP16, literal(-18)))
          CFI (cfiCond208) VB load(1, XDATA, add(CFA_XSP16, literal(-17)))
          CFI (cfiCond208) V0 load(1, XDATA, add(CFA_XSP16, literal(-16)))
          CFI (cfiCond208) V1 load(1, XDATA, add(CFA_XSP16, literal(-15)))
          CFI (cfiCond208) V2 load(1, XDATA, add(CFA_XSP16, literal(-14)))
          CFI (cfiCond208) V3 load(1, XDATA, add(CFA_XSP16, literal(-13)))
          CFI (cfiCond208) V4 load(1, XDATA, add(CFA_XSP16, literal(-12)))
          CFI (cfiCond208) V5 load(1, XDATA, add(CFA_XSP16, literal(-11)))
          CFI (cfiCond208) V6 load(1, XDATA, add(CFA_XSP16, literal(-10)))
          CFI (cfiCond208) V7 load(1, XDATA, add(CFA_XSP16, literal(-9)))
          CFI (cfiCond208) V8 load(1, XDATA, add(CFA_XSP16, literal(-8)))
          CFI (cfiCond208) V9 load(1, XDATA, add(CFA_XSP16, literal(-7)))
          CFI (cfiCond208) R7 load(1, XDATA, add(CFA_XSP16, literal(-6)))
          CFI (cfiCond208) ?RET_LOW load(1, XDATA, add(CFA_XSP16, literal(-5)))
          CFI (cfiCond208) ?RET_HIGH load(1, XDATA, add(CFA_XSP16, literal(-4)))
          CFI (cfiCond208) ?BRET_EXT load(1, XDATA, add(CFA_XSP16, literal(-3)))
          CFI (cfiCond208) DPL0 load(1, XDATA, add(CFA_XSP16, literal(-2)))
          CFI (cfiCond208) DPH0 load(1, XDATA, add(CFA_XSP16, literal(-1)))
          CFI (cfiCond208) CFA_SP SP+-2
          CFI (cfiCond208) CFA_XSP16 add(XSP16, 218)
          CFI Block cfiPicker209 Using cfiCommon1
          CFI (cfiPicker209) NoFunction
          CFI (cfiPicker209) Picker
        MOV     A,R6
        ADD     A,#0xc
        MOV     R2,A
        CLR     A
        ADDC    A,R7
        MOV     R3,A
        MOV     A,R6
        ADD     A,#0x9
        RET
          CFI EndBlock cfiCond207
          CFI EndBlock cfiCond208
          CFI EndBlock cfiPicker209

        RSEG BANKED_CODE:CODE:NOROOT(0)
?Subroutine27:
          CFI Block cfiCond210 Using cfiCommon0
          CFI Function GenericApp_Device_JoinRsp
          CFI Conditional ??CrossCallReturnLabel_37
          CFI R6 load(1, XDATA, add(CFA_XSP16, literal(-19)))
          CFI VB load(1, XDATA, add(CFA_XSP16, literal(-18)))
          CFI V0 load(1, XDATA, add(CFA_XSP16, literal(-17)))
          CFI V1 load(1, XDATA, add(CFA_XSP16, literal(-16)))
          CFI V2 load(1, XDATA, add(CFA_XSP16, literal(-15)))
          CFI V3 load(1, XDATA, add(CFA_XSP16, literal(-14)))
          CFI V4 load(1, XDATA, add(CFA_XSP16, literal(-13)))
          CFI V5 load(1, XDATA, add(CFA_XSP16, literal(-12)))
          CFI V6 load(1, XDATA, add(CFA_XSP16, literal(-11)))
          CFI V7 load(1, XDATA, add(CFA_XSP16, literal(-10)))
          CFI V8 load(1, XDATA, add(CFA_XSP16, literal(-9)))
          CFI V9 load(1, XDATA, add(CFA_XSP16, literal(-8)))
          CFI V10 load(1, XDATA, add(CFA_XSP16, literal(-7)))
          CFI R7 load(1, XDATA, add(CFA_XSP16, literal(-6)))
          CFI ?RET_LOW load(1, XDATA, add(CFA_XSP16, literal(-5)))
          CFI ?RET_HIGH load(1, XDATA, add(CFA_XSP16, literal(-4)))
          CFI ?BRET_EXT load(1, XDATA, add(CFA_XSP16, literal(-3)))
          CFI DPL0 load(1, XDATA, add(CFA_XSP16, literal(-2)))
          CFI DPH0 load(1, XDATA, add(CFA_XSP16, literal(-1)))
          CFI CFA_SP SP+-2
          CFI CFA_XSP16 add(XSP16, 127)
          CFI Block cfiCond211 Using cfiCommon0
          CFI (cfiCond211) Function GenericApp_Device_JoinReq
          CFI (cfiCond211) Conditional ??CrossCallReturnLabel_38
          CFI (cfiCond211) R6 load(1, XDATA, add(CFA_XSP16, literal(-18)))
          CFI (cfiCond211) VB load(1, XDATA, add(CFA_XSP16, literal(-17)))
          CFI (cfiCond211) V0 load(1, XDATA, add(CFA_XSP16, literal(-16)))
          CFI (cfiCond211) V1 load(1, XDATA, add(CFA_XSP16, literal(-15)))
          CFI (cfiCond211) V2 load(1, XDATA, add(CFA_XSP16, literal(-14)))
          CFI (cfiCond211) V3 load(1, XDATA, add(CFA_XSP16, literal(-13)))
          CFI (cfiCond211) V4 load(1, XDATA, add(CFA_XSP16, literal(-12)))
          CFI (cfiCond211) V5 load(1, XDATA, add(CFA_XSP16, literal(-11)))
          CFI (cfiCond211) V6 load(1, XDATA, add(CFA_XSP16, literal(-10)))
          CFI (cfiCond211) V7 load(1, XDATA, add(CFA_XSP16, literal(-9)))
          CFI (cfiCond211) V8 load(1, XDATA, add(CFA_XSP16, literal(-8)))
          CFI (cfiCond211) V9 load(1, XDATA, add(CFA_XSP16, literal(-7)))
          CFI (cfiCond211) R7 load(1, XDATA, add(CFA_XSP16, literal(-6)))
          CFI (cfiCond211) ?RET_LOW load(1, XDATA, add(CFA_XSP16, literal(-5)))
          CFI (cfiCond211) ?RET_HIGH load(1, XDATA, add(CFA_XSP16, literal(-4)))
          CFI (cfiCond211) ?BRET_EXT load(1, XDATA, add(CFA_XSP16, literal(-3)))
          CFI (cfiCond211) DPL0 load(1, XDATA, add(CFA_XSP16, literal(-2)))
          CFI (cfiCond211) DPH0 load(1, XDATA, add(CFA_XSP16, literal(-1)))
          CFI (cfiCond211) CFA_SP SP+-2
          CFI (cfiCond211) CFA_XSP16 add(XSP16, 218)
          CFI Block cfiPicker212 Using cfiCommon1
          CFI (cfiPicker212) NoFunction
          CFI (cfiPicker212) Picker
        MOV     A,DPL
        ADD     A,R0
        MOV     DPL,A
        CLR     A
        ADDC    A,DPH
        MOV     DPH,A
        INC     DPTR
        INC     DPTR
        INC     DPTR
        INC     DPTR
        INC     DPTR
        INC     DPTR
        INC     DPTR
        INC     DPTR
        RET
          CFI EndBlock cfiCond210
          CFI EndBlock cfiCond211
          CFI EndBlock cfiPicker212

        RSEG BANKED_CODE:CODE:NOROOT(0)
?Subroutine24:
          CFI Block cfiCond213 Using cfiCommon0
          CFI Function GenericApp_Device_JoinRsp
          CFI Conditional ??CrossCallReturnLabel_28
          CFI R6 load(1, XDATA, add(CFA_XSP16, literal(-19)))
          CFI VB load(1, XDATA, add(CFA_XSP16, literal(-18)))
          CFI V0 load(1, XDATA, add(CFA_XSP16, literal(-17)))
          CFI V1 load(1, XDATA, add(CFA_XSP16, literal(-16)))
          CFI V2 load(1, XDATA, add(CFA_XSP16, literal(-15)))
          CFI V3 load(1, XDATA, add(CFA_XSP16, literal(-14)))
          CFI V4 load(1, XDATA, add(CFA_XSP16, literal(-13)))
          CFI V5 load(1, XDATA, add(CFA_XSP16, literal(-12)))
          CFI V6 load(1, XDATA, add(CFA_XSP16, literal(-11)))
          CFI V7 load(1, XDATA, add(CFA_XSP16, literal(-10)))
          CFI V8 load(1, XDATA, add(CFA_XSP16, literal(-9)))
          CFI V9 load(1, XDATA, add(CFA_XSP16, literal(-8)))
          CFI V10 load(1, XDATA, add(CFA_XSP16, literal(-7)))
          CFI R7 load(1, XDATA, add(CFA_XSP16, literal(-6)))
          CFI ?RET_LOW load(1, XDATA, add(CFA_XSP16, literal(-5)))
          CFI ?RET_HIGH load(1, XDATA, add(CFA_XSP16, literal(-4)))
          CFI ?BRET_EXT load(1, XDATA, add(CFA_XSP16, literal(-3)))
          CFI DPL0 load(1, XDATA, add(CFA_XSP16, literal(-2)))
          CFI DPH0 load(1, XDATA, add(CFA_XSP16, literal(-1)))
          CFI CFA_SP SP+-2
          CFI CFA_XSP16 add(XSP16, 127)
          CFI Block cfiCond214 Using cfiCommon0
          CFI (cfiCond214) Function GenericApp_Device_JoinReq
          CFI (cfiCond214) Conditional ??CrossCallReturnLabel_29
          CFI (cfiCond214) R6 load(1, XDATA, add(CFA_XSP16, literal(-18)))
          CFI (cfiCond214) VB load(1, XDATA, add(CFA_XSP16, literal(-17)))
          CFI (cfiCond214) V0 load(1, XDATA, add(CFA_XSP16, literal(-16)))
          CFI (cfiCond214) V1 load(1, XDATA, add(CFA_XSP16, literal(-15)))
          CFI (cfiCond214) V2 load(1, XDATA, add(CFA_XSP16, literal(-14)))
          CFI (cfiCond214) V3 load(1, XDATA, add(CFA_XSP16, literal(-13)))
          CFI (cfiCond214) V4 load(1, XDATA, add(CFA_XSP16, literal(-12)))
          CFI (cfiCond214) V5 load(1, XDATA, add(CFA_XSP16, literal(-11)))
          CFI (cfiCond214) V6 load(1, XDATA, add(CFA_XSP16, literal(-10)))
          CFI (cfiCond214) V7 load(1, XDATA, add(CFA_XSP16, literal(-9)))
          CFI (cfiCond214) V8 load(1, XDATA, add(CFA_XSP16, literal(-8)))
          CFI (cfiCond214) V9 load(1, XDATA, add(CFA_XSP16, literal(-7)))
          CFI (cfiCond214) R7 load(1, XDATA, add(CFA_XSP16, literal(-6)))
          CFI (cfiCond214) ?RET_LOW load(1, XDATA, add(CFA_XSP16, literal(-5)))
          CFI (cfiCond214) ?RET_HIGH load(1, XDATA, add(CFA_XSP16, literal(-4)))
          CFI (cfiCond214) ?BRET_EXT load(1, XDATA, add(CFA_XSP16, literal(-3)))
          CFI (cfiCond214) DPL0 load(1, XDATA, add(CFA_XSP16, literal(-2)))
          CFI (cfiCond214) DPH0 load(1, XDATA, add(CFA_XSP16, literal(-1)))
          CFI (cfiCond214) CFA_SP SP+-2
          CFI (cfiCond214) CFA_XSP16 add(XSP16, 218)
          CFI Block cfiPicker215 Using cfiCommon1
          CFI (cfiPicker215) NoFunction
          CFI (cfiPicker215) Picker
        MOVX    A,@DPTR
        MOV     ?V4,A
        INC     DPTR
        MOVX    A,@DPTR
        MOV     ?V5,A
        MOV     R0,#?V4
        RET
          CFI EndBlock cfiCond213
          CFI EndBlock cfiCond214
          CFI EndBlock cfiPicker215

        RSEG BANKED_CODE:CODE:NOROOT(0)
?Subroutine7:
          CFI Block cfiCond216 Using cfiCommon0
          CFI Function GenericApp_Device_JoinRsp
          CFI Conditional ??CrossCallReturnLabel_116
          CFI R6 load(1, XDATA, add(CFA_XSP16, literal(-19)))
          CFI VB load(1, XDATA, add(CFA_XSP16, literal(-18)))
          CFI V0 load(1, XDATA, add(CFA_XSP16, literal(-17)))
          CFI V1 load(1, XDATA, add(CFA_XSP16, literal(-16)))
          CFI V2 load(1, XDATA, add(CFA_XSP16, literal(-15)))
          CFI V3 load(1, XDATA, add(CFA_XSP16, literal(-14)))
          CFI V4 load(1, XDATA, add(CFA_XSP16, literal(-13)))
          CFI V5 load(1, XDATA, add(CFA_XSP16, literal(-12)))
          CFI V6 load(1, XDATA, add(CFA_XSP16, literal(-11)))
          CFI V7 load(1, XDATA, add(CFA_XSP16, literal(-10)))
          CFI V8 load(1, XDATA, add(CFA_XSP16, literal(-9)))
          CFI V9 load(1, XDATA, add(CFA_XSP16, literal(-8)))
          CFI V10 load(1, XDATA, add(CFA_XSP16, literal(-7)))
          CFI R7 load(1, XDATA, add(CFA_XSP16, literal(-6)))
          CFI ?RET_LOW load(1, XDATA, add(CFA_XSP16, literal(-5)))
          CFI ?RET_HIGH load(1, XDATA, add(CFA_XSP16, literal(-4)))
          CFI ?BRET_EXT load(1, XDATA, add(CFA_XSP16, literal(-3)))
          CFI DPL0 load(1, XDATA, add(CFA_XSP16, literal(-2)))
          CFI DPH0 load(1, XDATA, add(CFA_XSP16, literal(-1)))
          CFI CFA_SP SP+-2
          CFI CFA_XSP16 add(XSP16, 127)
          CFI Block cfiCond217 Using cfiCommon0
          CFI (cfiCond217) Function GenericApp_Device_JoinReq
          CFI (cfiCond217) Conditional ??CrossCallReturnLabel_117
          CFI (cfiCond217) R6 load(1, XDATA, add(CFA_XSP16, literal(-18)))
          CFI (cfiCond217) VB load(1, XDATA, add(CFA_XSP16, literal(-17)))
          CFI (cfiCond217) V0 load(1, XDATA, add(CFA_XSP16, literal(-16)))
          CFI (cfiCond217) V1 load(1, XDATA, add(CFA_XSP16, literal(-15)))
          CFI (cfiCond217) V2 load(1, XDATA, add(CFA_XSP16, literal(-14)))
          CFI (cfiCond217) V3 load(1, XDATA, add(CFA_XSP16, literal(-13)))
          CFI (cfiCond217) V4 load(1, XDATA, add(CFA_XSP16, literal(-12)))
          CFI (cfiCond217) V5 load(1, XDATA, add(CFA_XSP16, literal(-11)))
          CFI (cfiCond217) V6 load(1, XDATA, add(CFA_XSP16, literal(-10)))
          CFI (cfiCond217) V7 load(1, XDATA, add(CFA_XSP16, literal(-9)))
          CFI (cfiCond217) V8 load(1, XDATA, add(CFA_XSP16, literal(-8)))
          CFI (cfiCond217) V9 load(1, XDATA, add(CFA_XSP16, literal(-7)))
          CFI (cfiCond217) R7 load(1, XDATA, add(CFA_XSP16, literal(-6)))
          CFI (cfiCond217) ?RET_LOW load(1, XDATA, add(CFA_XSP16, literal(-5)))
          CFI (cfiCond217) ?RET_HIGH load(1, XDATA, add(CFA_XSP16, literal(-4)))
          CFI (cfiCond217) ?BRET_EXT load(1, XDATA, add(CFA_XSP16, literal(-3)))
          CFI (cfiCond217) DPL0 load(1, XDATA, add(CFA_XSP16, literal(-2)))
          CFI (cfiCond217) DPH0 load(1, XDATA, add(CFA_XSP16, literal(-1)))
          CFI (cfiCond217) CFA_SP SP+-2
          CFI (cfiCond217) CFA_XSP16 add(XSP16, 218)
          CFI Block cfiPicker218 Using cfiCommon1
          CFI (cfiPicker218) NoFunction
          CFI (cfiPicker218) Picker
        MOV     A,R1
        MOV     R0,A
        MOV     A,R6
        ADD     A,#0xb
        MOV     DPL,A
        CLR     A
        ADDC    A,R7
        MOV     DPH,A
        MOV     A,R0
          CFI EndBlock cfiCond216
          CFI EndBlock cfiCond217
          CFI EndBlock cfiPicker218
        REQUIRE ??Subroutine58_0
        ; // Fall through to label ??Subroutine58_0

        RSEG BANKED_CODE:CODE:NOROOT(0)
??Subroutine58_0:
          CFI Block cfiCond219 Using cfiCommon0
          CFI Function GenericApp_Device_JoinRsp
          CFI Conditional ??CrossCallReturnLabel_118
          CFI R6 load(1, XDATA, add(CFA_XSP16, literal(-19)))
          CFI VB load(1, XDATA, add(CFA_XSP16, literal(-18)))
          CFI V0 load(1, XDATA, add(CFA_XSP16, literal(-17)))
          CFI V1 load(1, XDATA, add(CFA_XSP16, literal(-16)))
          CFI V2 load(1, XDATA, add(CFA_XSP16, literal(-15)))
          CFI V3 load(1, XDATA, add(CFA_XSP16, literal(-14)))
          CFI V4 load(1, XDATA, add(CFA_XSP16, literal(-13)))
          CFI V5 load(1, XDATA, add(CFA_XSP16, literal(-12)))
          CFI V6 load(1, XDATA, add(CFA_XSP16, literal(-11)))
          CFI V7 load(1, XDATA, add(CFA_XSP16, literal(-10)))
          CFI V8 load(1, XDATA, add(CFA_XSP16, literal(-9)))
          CFI V9 load(1, XDATA, add(CFA_XSP16, literal(-8)))
          CFI V10 load(1, XDATA, add(CFA_XSP16, literal(-7)))
          CFI R7 load(1, XDATA, add(CFA_XSP16, literal(-6)))
          CFI ?RET_LOW load(1, XDATA, add(CFA_XSP16, literal(-5)))
          CFI ?RET_HIGH load(1, XDATA, add(CFA_XSP16, literal(-4)))
          CFI ?BRET_EXT load(1, XDATA, add(CFA_XSP16, literal(-3)))
          CFI DPL0 load(1, XDATA, add(CFA_XSP16, literal(-2)))
          CFI DPH0 load(1, XDATA, add(CFA_XSP16, literal(-1)))
          CFI CFA_SP SP+-2
          CFI CFA_XSP16 add(XSP16, 127)
          CFI Block cfiCond220 Using cfiCommon0
          CFI (cfiCond220) Function GenericApp_Device_JoinRsp
          CFI (cfiCond220) Conditional ??CrossCallReturnLabel_116
          CFI (cfiCond220) R6 load(1, XDATA, add(CFA_XSP16, literal(-19)))
          CFI (cfiCond220) VB load(1, XDATA, add(CFA_XSP16, literal(-18)))
          CFI (cfiCond220) V0 load(1, XDATA, add(CFA_XSP16, literal(-17)))
          CFI (cfiCond220) V1 load(1, XDATA, add(CFA_XSP16, literal(-16)))
          CFI (cfiCond220) V2 load(1, XDATA, add(CFA_XSP16, literal(-15)))
          CFI (cfiCond220) V3 load(1, XDATA, add(CFA_XSP16, literal(-14)))
          CFI (cfiCond220) V4 load(1, XDATA, add(CFA_XSP16, literal(-13)))
          CFI (cfiCond220) V5 load(1, XDATA, add(CFA_XSP16, literal(-12)))
          CFI (cfiCond220) V6 load(1, XDATA, add(CFA_XSP16, literal(-11)))
          CFI (cfiCond220) V7 load(1, XDATA, add(CFA_XSP16, literal(-10)))
          CFI (cfiCond220) V8 load(1, XDATA, add(CFA_XSP16, literal(-9)))
          CFI (cfiCond220) V9 load(1, XDATA, add(CFA_XSP16, literal(-8)))
          CFI (cfiCond220) V10 load(1, XDATA, add(CFA_XSP16, literal(-7)))
          CFI (cfiCond220) R7 load(1, XDATA, add(CFA_XSP16, literal(-6)))
          CFI (cfiCond220) ?RET_LOW load(1, XDATA, add(CFA_XSP16, literal(-5)))
          CFI (cfiCond220) ?RET_HIGH load(1, XDATA, add(CFA_XSP16, literal(-4)))
          CFI (cfiCond220) ?BRET_EXT load(1, XDATA, add(CFA_XSP16, literal(-3)))
          CFI (cfiCond220) DPL0 load(1, XDATA, add(CFA_XSP16, literal(-2)))
          CFI (cfiCond220) DPH0 load(1, XDATA, add(CFA_XSP16, literal(-1)))
          CFI (cfiCond220) CFA_SP SP+-2
          CFI (cfiCond220) CFA_XSP16 add(XSP16, 127)
          CFI Block cfiCond221 Using cfiCommon0
          CFI (cfiCond221) Function GenericApp_Device_JoinReq
          CFI (cfiCond221) Conditional ??CrossCallReturnLabel_117
          CFI (cfiCond221) R6 load(1, XDATA, add(CFA_XSP16, literal(-18)))
          CFI (cfiCond221) VB load(1, XDATA, add(CFA_XSP16, literal(-17)))
          CFI (cfiCond221) V0 load(1, XDATA, add(CFA_XSP16, literal(-16)))
          CFI (cfiCond221) V1 load(1, XDATA, add(CFA_XSP16, literal(-15)))
          CFI (cfiCond221) V2 load(1, XDATA, add(CFA_XSP16, literal(-14)))
          CFI (cfiCond221) V3 load(1, XDATA, add(CFA_XSP16, literal(-13)))
          CFI (cfiCond221) V4 load(1, XDATA, add(CFA_XSP16, literal(-12)))
          CFI (cfiCond221) V5 load(1, XDATA, add(CFA_XSP16, literal(-11)))
          CFI (cfiCond221) V6 load(1, XDATA, add(CFA_XSP16, literal(-10)))
          CFI (cfiCond221) V7 load(1, XDATA, add(CFA_XSP16, literal(-9)))
          CFI (cfiCond221) V8 load(1, XDATA, add(CFA_XSP16, literal(-8)))
          CFI (cfiCond221) V9 load(1, XDATA, add(CFA_XSP16, literal(-7)))
          CFI (cfiCond221) R7 load(1, XDATA, add(CFA_XSP16, literal(-6)))
          CFI (cfiCond221) ?RET_LOW load(1, XDATA, add(CFA_XSP16, literal(-5)))
          CFI (cfiCond221) ?RET_HIGH load(1, XDATA, add(CFA_XSP16, literal(-4)))
          CFI (cfiCond221) ?BRET_EXT load(1, XDATA, add(CFA_XSP16, literal(-3)))
          CFI (cfiCond221) DPL0 load(1, XDATA, add(CFA_XSP16, literal(-2)))
          CFI (cfiCond221) DPH0 load(1, XDATA, add(CFA_XSP16, literal(-1)))
          CFI (cfiCond221) CFA_SP SP+-2
          CFI (cfiCond221) CFA_XSP16 add(XSP16, 218)
          CFI Block cfiPicker222 Using cfiCommon1
          CFI (cfiPicker222) NoFunction
          CFI (cfiPicker222) Picker
        MOVX    @DPTR,A
        MOV     DPL,?V2
        MOV     DPH,?V3
        MOVX    A,@DPTR
        MOV     R0,A
        RET
          CFI EndBlock cfiCond219
          CFI EndBlock cfiCond220
          CFI EndBlock cfiCond221
          CFI EndBlock cfiPicker222

        RSEG BANKED_CODE:CODE:NOROOT(0)
?Subroutine6:
          CFI Block cfiCond223 Using cfiCommon0
          CFI Function CustomApp_node_register_ind
          CFI Conditional ??CrossCallReturnLabel_0
          CFI R6 load(1, XDATA, add(CFA_XSP16, literal(-16)))
          CFI VB load(1, XDATA, add(CFA_XSP16, literal(-15)))
          CFI V0 load(1, XDATA, add(CFA_XSP16, literal(-14)))
          CFI V1 load(1, XDATA, add(CFA_XSP16, literal(-13)))
          CFI V2 load(1, XDATA, add(CFA_XSP16, literal(-12)))
          CFI V3 load(1, XDATA, add(CFA_XSP16, literal(-11)))
          CFI V4 load(1, XDATA, add(CFA_XSP16, literal(-10)))
          CFI V5 load(1, XDATA, add(CFA_XSP16, literal(-9)))
          CFI V6 load(1, XDATA, add(CFA_XSP16, literal(-8)))
          CFI V7 load(1, XDATA, add(CFA_XSP16, literal(-7)))
          CFI R7 load(1, XDATA, add(CFA_XSP16, literal(-6)))
          CFI ?RET_LOW load(1, XDATA, add(CFA_XSP16, literal(-5)))
          CFI ?RET_HIGH load(1, XDATA, add(CFA_XSP16, literal(-4)))
          CFI ?BRET_EXT load(1, XDATA, add(CFA_XSP16, literal(-3)))
          CFI DPL0 load(1, XDATA, add(CFA_XSP16, literal(-2)))
          CFI DPH0 load(1, XDATA, add(CFA_XSP16, literal(-1)))
          CFI CFA_SP SP+-2
          CFI CFA_XSP16 add(XSP16, 42)
          CFI Block cfiCond224 Using cfiCommon0
          CFI (cfiCond224) Function GenericApp_Device_JoinReq
          CFI (cfiCond224) Conditional ??CrossCallReturnLabel_1
          CFI (cfiCond224) R6 load(1, XDATA, add(CFA_XSP16, literal(-18)))
          CFI (cfiCond224) VB load(1, XDATA, add(CFA_XSP16, literal(-17)))
          CFI (cfiCond224) V0 load(1, XDATA, add(CFA_XSP16, literal(-16)))
          CFI (cfiCond224) V1 load(1, XDATA, add(CFA_XSP16, literal(-15)))
          CFI (cfiCond224) V2 load(1, XDATA, add(CFA_XSP16, literal(-14)))
          CFI (cfiCond224) V3 load(1, XDATA, add(CFA_XSP16, literal(-13)))
          CFI (cfiCond224) V4 load(1, XDATA, add(CFA_XSP16, literal(-12)))
          CFI (cfiCond224) V5 load(1, XDATA, add(CFA_XSP16, literal(-11)))
          CFI (cfiCond224) V6 load(1, XDATA, add(CFA_XSP16, literal(-10)))
          CFI (cfiCond224) V7 load(1, XDATA, add(CFA_XSP16, literal(-9)))
          CFI (cfiCond224) V8 load(1, XDATA, add(CFA_XSP16, literal(-8)))
          CFI (cfiCond224) V9 load(1, XDATA, add(CFA_XSP16, literal(-7)))
          CFI (cfiCond224) R7 load(1, XDATA, add(CFA_XSP16, literal(-6)))
          CFI (cfiCond224) ?RET_LOW load(1, XDATA, add(CFA_XSP16, literal(-5)))
          CFI (cfiCond224) ?RET_HIGH load(1, XDATA, add(CFA_XSP16, literal(-4)))
          CFI (cfiCond224) ?BRET_EXT load(1, XDATA, add(CFA_XSP16, literal(-3)))
          CFI (cfiCond224) DPL0 load(1, XDATA, add(CFA_XSP16, literal(-2)))
          CFI (cfiCond224) DPH0 load(1, XDATA, add(CFA_XSP16, literal(-1)))
          CFI (cfiCond224) CFA_SP SP+-2
          CFI (cfiCond224) CFA_XSP16 add(XSP16, 218)
          CFI Block cfiPicker225 Using cfiCommon1
          CFI (cfiPicker225) NoFunction
          CFI (cfiPicker225) Picker
        LCALL   ?Subroutine39 & 0xFFFF
??CrossCallReturnLabel_66:
        LCALL   ?Subroutine40 & 0xFFFF
??CrossCallReturnLabel_68:
        RET
          CFI EndBlock cfiCond223
          CFI EndBlock cfiCond224
          CFI EndBlock cfiPicker225

        RSEG BANKED_CODE:CODE:NOROOT(0)
?Subroutine40:
          CFI Block cfiCond226 Using cfiCommon0
          CFI Function GenericApp_ProcessZDOMsgs
          CFI Conditional ??CrossCallReturnLabel_67, ??CrossCallReturnLabel_9
          CFI R6 load(1, XDATA, add(CFA_XSP16, literal(-15)))
          CFI VB load(1, XDATA, add(CFA_XSP16, literal(-14)))
          CFI V0 load(1, XDATA, add(CFA_XSP16, literal(-13)))
          CFI V1 load(1, XDATA, add(CFA_XSP16, literal(-12)))
          CFI V2 load(1, XDATA, add(CFA_XSP16, literal(-11)))
          CFI V3 load(1, XDATA, add(CFA_XSP16, literal(-10)))
          CFI V4 load(1, XDATA, add(CFA_XSP16, literal(-9)))
          CFI V5 load(1, XDATA, add(CFA_XSP16, literal(-8)))
          CFI V6 load(1, XDATA, add(CFA_XSP16, literal(-7)))
          CFI R7 load(1, XDATA, add(CFA_XSP16, literal(-6)))
          CFI ?RET_LOW load(1, XDATA, add(CFA_XSP16, literal(-5)))
          CFI ?RET_HIGH load(1, XDATA, add(CFA_XSP16, literal(-4)))
          CFI ?BRET_EXT load(1, XDATA, add(CFA_XSP16, literal(-3)))
          CFI DPL0 load(1, XDATA, add(CFA_XSP16, literal(-2)))
          CFI DPH0 load(1, XDATA, add(CFA_XSP16, literal(-1)))
          CFI CFA_SP SP+-4
          CFI CFA_XSP16 add(XSP16, 39)
          CFI Block cfiCond227 Using cfiCommon0
          CFI (cfiCond227) Function GenericApp_Device_JoinRsp
          CFI (cfiCond227) Conditional ??CrossCallReturnLabel_67, ??CrossCallReturnLabel_10
          CFI (cfiCond227) R6 load(1, XDATA, add(CFA_XSP16, literal(-19)))
          CFI (cfiCond227) VB load(1, XDATA, add(CFA_XSP16, literal(-18)))
          CFI (cfiCond227) V0 load(1, XDATA, add(CFA_XSP16, literal(-17)))
          CFI (cfiCond227) V1 load(1, XDATA, add(CFA_XSP16, literal(-16)))
          CFI (cfiCond227) V2 load(1, XDATA, add(CFA_XSP16, literal(-15)))
          CFI (cfiCond227) V3 load(1, XDATA, add(CFA_XSP16, literal(-14)))
          CFI (cfiCond227) V4 load(1, XDATA, add(CFA_XSP16, literal(-13)))
          CFI (cfiCond227) V5 load(1, XDATA, add(CFA_XSP16, literal(-12)))
          CFI (cfiCond227) V6 load(1, XDATA, add(CFA_XSP16, literal(-11)))
          CFI (cfiCond227) V7 load(1, XDATA, add(CFA_XSP16, literal(-10)))
          CFI (cfiCond227) V8 load(1, XDATA, add(CFA_XSP16, literal(-9)))
          CFI (cfiCond227) V9 load(1, XDATA, add(CFA_XSP16, literal(-8)))
          CFI (cfiCond227) V10 load(1, XDATA, add(CFA_XSP16, literal(-7)))
          CFI (cfiCond227) R7 load(1, XDATA, add(CFA_XSP16, literal(-6)))
          CFI (cfiCond227) ?RET_LOW load(1, XDATA, add(CFA_XSP16, literal(-5)))
          CFI (cfiCond227) ?RET_HIGH load(1, XDATA, add(CFA_XSP16, literal(-4)))
          CFI (cfiCond227) ?BRET_EXT load(1, XDATA, add(CFA_XSP16, literal(-3)))
          CFI (cfiCond227) DPL0 load(1, XDATA, add(CFA_XSP16, literal(-2)))
          CFI (cfiCond227) DPH0 load(1, XDATA, add(CFA_XSP16, literal(-1)))
          CFI (cfiCond227) CFA_SP SP+-4
          CFI (cfiCond227) CFA_XSP16 add(XSP16, 127)
          CFI Block cfiCond228 Using cfiCommon0
          CFI (cfiCond228) Function CustomApp_node_register_ind
          CFI (cfiCond228) Conditional ??CrossCallReturnLabel_68, ??CrossCallReturnLabel_0
          CFI (cfiCond228) R6 load(1, XDATA, add(CFA_XSP16, literal(-16)))
          CFI (cfiCond228) VB load(1, XDATA, add(CFA_XSP16, literal(-15)))
          CFI (cfiCond228) V0 load(1, XDATA, add(CFA_XSP16, literal(-14)))
          CFI (cfiCond228) V1 load(1, XDATA, add(CFA_XSP16, literal(-13)))
          CFI (cfiCond228) V2 load(1, XDATA, add(CFA_XSP16, literal(-12)))
          CFI (cfiCond228) V3 load(1, XDATA, add(CFA_XSP16, literal(-11)))
          CFI (cfiCond228) V4 load(1, XDATA, add(CFA_XSP16, literal(-10)))
          CFI (cfiCond228) V5 load(1, XDATA, add(CFA_XSP16, literal(-9)))
          CFI (cfiCond228) V6 load(1, XDATA, add(CFA_XSP16, literal(-8)))
          CFI (cfiCond228) V7 load(1, XDATA, add(CFA_XSP16, literal(-7)))
          CFI (cfiCond228) R7 load(1, XDATA, add(CFA_XSP16, literal(-6)))
          CFI (cfiCond228) ?RET_LOW load(1, XDATA, add(CFA_XSP16, literal(-5)))
          CFI (cfiCond228) ?RET_HIGH load(1, XDATA, add(CFA_XSP16, literal(-4)))
          CFI (cfiCond228) ?BRET_EXT load(1, XDATA, add(CFA_XSP16, literal(-3)))
          CFI (cfiCond228) DPL0 load(1, XDATA, add(CFA_XSP16, literal(-2)))
          CFI (cfiCond228) DPH0 load(1, XDATA, add(CFA_XSP16, literal(-1)))
          CFI (cfiCond228) CFA_SP SP+-4
          CFI (cfiCond228) CFA_XSP16 add(XSP16, 42)
          CFI Block cfiCond229 Using cfiCommon0
          CFI (cfiCond229) Function GenericApp_Device_JoinReq
          CFI (cfiCond229) Conditional ??CrossCallReturnLabel_68, ??CrossCallReturnLabel_1
          CFI (cfiCond229) R6 load(1, XDATA, add(CFA_XSP16, literal(-18)))
          CFI (cfiCond229) VB load(1, XDATA, add(CFA_XSP16, literal(-17)))
          CFI (cfiCond229) V0 load(1, XDATA, add(CFA_XSP16, literal(-16)))
          CFI (cfiCond229) V1 load(1, XDATA, add(CFA_XSP16, literal(-15)))
          CFI (cfiCond229) V2 load(1, XDATA, add(CFA_XSP16, literal(-14)))
          CFI (cfiCond229) V3 load(1, XDATA, add(CFA_XSP16, literal(-13)))
          CFI (cfiCond229) V4 load(1, XDATA, add(CFA_XSP16, literal(-12)))
          CFI (cfiCond229) V5 load(1, XDATA, add(CFA_XSP16, literal(-11)))
          CFI (cfiCond229) V6 load(1, XDATA, add(CFA_XSP16, literal(-10)))
          CFI (cfiCond229) V7 load(1, XDATA, add(CFA_XSP16, literal(-9)))
          CFI (cfiCond229) V8 load(1, XDATA, add(CFA_XSP16, literal(-8)))
          CFI (cfiCond229) V9 load(1, XDATA, add(CFA_XSP16, literal(-7)))
          CFI (cfiCond229) R7 load(1, XDATA, add(CFA_XSP16, literal(-6)))
          CFI (cfiCond229) ?RET_LOW load(1, XDATA, add(CFA_XSP16, literal(-5)))
          CFI (cfiCond229) ?RET_HIGH load(1, XDATA, add(CFA_XSP16, literal(-4)))
          CFI (cfiCond229) ?BRET_EXT load(1, XDATA, add(CFA_XSP16, literal(-3)))
          CFI (cfiCond229) DPL0 load(1, XDATA, add(CFA_XSP16, literal(-2)))
          CFI (cfiCond229) DPH0 load(1, XDATA, add(CFA_XSP16, literal(-1)))
          CFI (cfiCond229) CFA_SP SP+-4
          CFI (cfiCond229) CFA_XSP16 add(XSP16, 218)
          CFI Block cfiPicker230 Using cfiCommon1
          CFI (cfiPicker230) NoFunction
          CFI (cfiPicker230) Picker
        LCALL   ?Subroutine44 & 0xFFFF
??CrossCallReturnLabel_74:
        INC     DPTR
        INC     DPTR
        INC     DPTR
        RET
          CFI EndBlock cfiCond226
          CFI EndBlock cfiCond227
          CFI EndBlock cfiCond228
          CFI EndBlock cfiCond229
          CFI EndBlock cfiPicker230

        RSEG BANKED_CODE:CODE:NOROOT(0)
?Subroutine44:
          CFI Block cfiCond231 Using cfiCommon0
          CFI Function GenericApp_ProcessZDOMsgs
          CFI Conditional ??CrossCallReturnLabel_73
          CFI R6 load(1, XDATA, add(CFA_XSP16, literal(-15)))
          CFI VB load(1, XDATA, add(CFA_XSP16, literal(-14)))
          CFI V0 load(1, XDATA, add(CFA_XSP16, literal(-13)))
          CFI V1 load(1, XDATA, add(CFA_XSP16, literal(-12)))
          CFI V2 load(1, XDATA, add(CFA_XSP16, literal(-11)))
          CFI V3 load(1, XDATA, add(CFA_XSP16, literal(-10)))
          CFI V4 load(1, XDATA, add(CFA_XSP16, literal(-9)))
          CFI V5 load(1, XDATA, add(CFA_XSP16, literal(-8)))
          CFI V6 load(1, XDATA, add(CFA_XSP16, literal(-7)))
          CFI R7 load(1, XDATA, add(CFA_XSP16, literal(-6)))
          CFI ?RET_LOW load(1, XDATA, add(CFA_XSP16, literal(-5)))
          CFI ?RET_HIGH load(1, XDATA, add(CFA_XSP16, literal(-4)))
          CFI ?BRET_EXT load(1, XDATA, add(CFA_XSP16, literal(-3)))
          CFI DPL0 load(1, XDATA, add(CFA_XSP16, literal(-2)))
          CFI DPH0 load(1, XDATA, add(CFA_XSP16, literal(-1)))
          CFI CFA_SP SP+-2
          CFI CFA_XSP16 add(XSP16, 39)
          CFI Block cfiCond232 Using cfiCommon0
          CFI (cfiCond232) Function GenericApp_ProcessZDOMsgs
          CFI (cfiCond232) Conditional ??CrossCallReturnLabel_74, ??CrossCallReturnLabel_67, ??CrossCallReturnLabel_9
          CFI (cfiCond232) R6 load(1, XDATA, add(CFA_XSP16, literal(-15)))
          CFI (cfiCond232) VB load(1, XDATA, add(CFA_XSP16, literal(-14)))
          CFI (cfiCond232) V0 load(1, XDATA, add(CFA_XSP16, literal(-13)))
          CFI (cfiCond232) V1 load(1, XDATA, add(CFA_XSP16, literal(-12)))
          CFI (cfiCond232) V2 load(1, XDATA, add(CFA_XSP16, literal(-11)))
          CFI (cfiCond232) V3 load(1, XDATA, add(CFA_XSP16, literal(-10)))
          CFI (cfiCond232) V4 load(1, XDATA, add(CFA_XSP16, literal(-9)))
          CFI (cfiCond232) V5 load(1, XDATA, add(CFA_XSP16, literal(-8)))
          CFI (cfiCond232) V6 load(1, XDATA, add(CFA_XSP16, literal(-7)))
          CFI (cfiCond232) R7 load(1, XDATA, add(CFA_XSP16, literal(-6)))
          CFI (cfiCond232) ?RET_LOW load(1, XDATA, add(CFA_XSP16, literal(-5)))
          CFI (cfiCond232) ?RET_HIGH load(1, XDATA, add(CFA_XSP16, literal(-4)))
          CFI (cfiCond232) ?BRET_EXT load(1, XDATA, add(CFA_XSP16, literal(-3)))
          CFI (cfiCond232) DPL0 load(1, XDATA, add(CFA_XSP16, literal(-2)))
          CFI (cfiCond232) DPH0 load(1, XDATA, add(CFA_XSP16, literal(-1)))
          CFI (cfiCond232) CFA_SP SP+-6
          CFI (cfiCond232) CFA_XSP16 add(XSP16, 39)
          CFI Block cfiCond233 Using cfiCommon0
          CFI (cfiCond233) Function GenericApp_Device_JoinRsp
          CFI (cfiCond233) Conditional ??CrossCallReturnLabel_74, ??CrossCallReturnLabel_67, ??CrossCallReturnLabel_10
          CFI (cfiCond233) R6 load(1, XDATA, add(CFA_XSP16, literal(-19)))
          CFI (cfiCond233) VB load(1, XDATA, add(CFA_XSP16, literal(-18)))
          CFI (cfiCond233) V0 load(1, XDATA, add(CFA_XSP16, literal(-17)))
          CFI (cfiCond233) V1 load(1, XDATA, add(CFA_XSP16, literal(-16)))
          CFI (cfiCond233) V2 load(1, XDATA, add(CFA_XSP16, literal(-15)))
          CFI (cfiCond233) V3 load(1, XDATA, add(CFA_XSP16, literal(-14)))
          CFI (cfiCond233) V4 load(1, XDATA, add(CFA_XSP16, literal(-13)))
          CFI (cfiCond233) V5 load(1, XDATA, add(CFA_XSP16, literal(-12)))
          CFI (cfiCond233) V6 load(1, XDATA, add(CFA_XSP16, literal(-11)))
          CFI (cfiCond233) V7 load(1, XDATA, add(CFA_XSP16, literal(-10)))
          CFI (cfiCond233) V8 load(1, XDATA, add(CFA_XSP16, literal(-9)))
          CFI (cfiCond233) V9 load(1, XDATA, add(CFA_XSP16, literal(-8)))
          CFI (cfiCond233) V10 load(1, XDATA, add(CFA_XSP16, literal(-7)))
          CFI (cfiCond233) R7 load(1, XDATA, add(CFA_XSP16, literal(-6)))
          CFI (cfiCond233) ?RET_LOW load(1, XDATA, add(CFA_XSP16, literal(-5)))
          CFI (cfiCond233) ?RET_HIGH load(1, XDATA, add(CFA_XSP16, literal(-4)))
          CFI (cfiCond233) ?BRET_EXT load(1, XDATA, add(CFA_XSP16, literal(-3)))
          CFI (cfiCond233) DPL0 load(1, XDATA, add(CFA_XSP16, literal(-2)))
          CFI (cfiCond233) DPH0 load(1, XDATA, add(CFA_XSP16, literal(-1)))
          CFI (cfiCond233) CFA_SP SP+-6
          CFI (cfiCond233) CFA_XSP16 add(XSP16, 127)
          CFI Block cfiCond234 Using cfiCommon0
          CFI (cfiCond234) Function CustomApp_node_register_ind
          CFI (cfiCond234) Conditional ??CrossCallReturnLabel_74, ??CrossCallReturnLabel_68, ??CrossCallReturnLabel_0
          CFI (cfiCond234) R6 load(1, XDATA, add(CFA_XSP16, literal(-16)))
          CFI (cfiCond234) VB load(1, XDATA, add(CFA_XSP16, literal(-15)))
          CFI (cfiCond234) V0 load(1, XDATA, add(CFA_XSP16, literal(-14)))
          CFI (cfiCond234) V1 load(1, XDATA, add(CFA_XSP16, literal(-13)))
          CFI (cfiCond234) V2 load(1, XDATA, add(CFA_XSP16, literal(-12)))
          CFI (cfiCond234) V3 load(1, XDATA, add(CFA_XSP16, literal(-11)))
          CFI (cfiCond234) V4 load(1, XDATA, add(CFA_XSP16, literal(-10)))
          CFI (cfiCond234) V5 load(1, XDATA, add(CFA_XSP16, literal(-9)))
          CFI (cfiCond234) V6 load(1, XDATA, add(CFA_XSP16, literal(-8)))
          CFI (cfiCond234) V7 load(1, XDATA, add(CFA_XSP16, literal(-7)))
          CFI (cfiCond234) R7 load(1, XDATA, add(CFA_XSP16, literal(-6)))
          CFI (cfiCond234) ?RET_LOW load(1, XDATA, add(CFA_XSP16, literal(-5)))
          CFI (cfiCond234) ?RET_HIGH load(1, XDATA, add(CFA_XSP16, literal(-4)))
          CFI (cfiCond234) ?BRET_EXT load(1, XDATA, add(CFA_XSP16, literal(-3)))
          CFI (cfiCond234) DPL0 load(1, XDATA, add(CFA_XSP16, literal(-2)))
          CFI (cfiCond234) DPH0 load(1, XDATA, add(CFA_XSP16, literal(-1)))
          CFI (cfiCond234) CFA_SP SP+-6
          CFI (cfiCond234) CFA_XSP16 add(XSP16, 42)
          CFI Block cfiCond235 Using cfiCommon0
          CFI (cfiCond235) Function GenericApp_Device_JoinReq
          CFI (cfiCond235) Conditional ??CrossCallReturnLabel_74, ??CrossCallReturnLabel_68, ??CrossCallReturnLabel_1
          CFI (cfiCond235) R6 load(1, XDATA, add(CFA_XSP16, literal(-18)))
          CFI (cfiCond235) VB load(1, XDATA, add(CFA_XSP16, literal(-17)))
          CFI (cfiCond235) V0 load(1, XDATA, add(CFA_XSP16, literal(-16)))
          CFI (cfiCond235) V1 load(1, XDATA, add(CFA_XSP16, literal(-15)))
          CFI (cfiCond235) V2 load(1, XDATA, add(CFA_XSP16, literal(-14)))
          CFI (cfiCond235) V3 load(1, XDATA, add(CFA_XSP16, literal(-13)))
          CFI (cfiCond235) V4 load(1, XDATA, add(CFA_XSP16, literal(-12)))
          CFI (cfiCond235) V5 load(1, XDATA, add(CFA_XSP16, literal(-11)))
          CFI (cfiCond235) V6 load(1, XDATA, add(CFA_XSP16, literal(-10)))
          CFI (cfiCond235) V7 load(1, XDATA, add(CFA_XSP16, literal(-9)))
          CFI (cfiCond235) V8 load(1, XDATA, add(CFA_XSP16, literal(-8)))
          CFI (cfiCond235) V9 load(1, XDATA, add(CFA_XSP16, literal(-7)))
          CFI (cfiCond235) R7 load(1, XDATA, add(CFA_XSP16, literal(-6)))
          CFI (cfiCond235) ?RET_LOW load(1, XDATA, add(CFA_XSP16, literal(-5)))
          CFI (cfiCond235) ?RET_HIGH load(1, XDATA, add(CFA_XSP16, literal(-4)))
          CFI (cfiCond235) ?BRET_EXT load(1, XDATA, add(CFA_XSP16, literal(-3)))
          CFI (cfiCond235) DPL0 load(1, XDATA, add(CFA_XSP16, literal(-2)))
          CFI (cfiCond235) DPH0 load(1, XDATA, add(CFA_XSP16, literal(-1)))
          CFI (cfiCond235) CFA_SP SP+-6
          CFI (cfiCond235) CFA_XSP16 add(XSP16, 218)
          CFI Block cfiCond236 Using cfiCommon0
          CFI (cfiCond236) Function GenericApp_Device_JoinRsp
          CFI (cfiCond236) Conditional ??CrossCallReturnLabel_75, ??CrossCallReturnLabel_65
          CFI (cfiCond236) R6 load(1, XDATA, add(CFA_XSP16, literal(-19)))
          CFI (cfiCond236) VB load(1, XDATA, add(CFA_XSP16, literal(-18)))
          CFI (cfiCond236) V0 load(1, XDATA, add(CFA_XSP16, literal(-17)))
          CFI (cfiCond236) V1 load(1, XDATA, add(CFA_XSP16, literal(-16)))
          CFI (cfiCond236) V2 load(1, XDATA, add(CFA_XSP16, literal(-15)))
          CFI (cfiCond236) V3 load(1, XDATA, add(CFA_XSP16, literal(-14)))
          CFI (cfiCond236) V4 load(1, XDATA, add(CFA_XSP16, literal(-13)))
          CFI (cfiCond236) V5 load(1, XDATA, add(CFA_XSP16, literal(-12)))
          CFI (cfiCond236) V6 load(1, XDATA, add(CFA_XSP16, literal(-11)))
          CFI (cfiCond236) V7 load(1, XDATA, add(CFA_XSP16, literal(-10)))
          CFI (cfiCond236) V8 load(1, XDATA, add(CFA_XSP16, literal(-9)))
          CFI (cfiCond236) V9 load(1, XDATA, add(CFA_XSP16, literal(-8)))
          CFI (cfiCond236) V10 load(1, XDATA, add(CFA_XSP16, literal(-7)))
          CFI (cfiCond236) R7 load(1, XDATA, add(CFA_XSP16, literal(-6)))
          CFI (cfiCond236) ?RET_LOW load(1, XDATA, add(CFA_XSP16, literal(-5)))
          CFI (cfiCond236) ?RET_HIGH load(1, XDATA, add(CFA_XSP16, literal(-4)))
          CFI (cfiCond236) ?BRET_EXT load(1, XDATA, add(CFA_XSP16, literal(-3)))
          CFI (cfiCond236) DPL0 load(1, XDATA, add(CFA_XSP16, literal(-2)))
          CFI (cfiCond236) DPH0 load(1, XDATA, add(CFA_XSP16, literal(-1)))
          CFI (cfiCond236) CFA_SP SP+-4
          CFI (cfiCond236) CFA_XSP16 add(XSP16, 127)
          CFI Block cfiCond237 Using cfiCommon0
          CFI (cfiCond237) Function CustomApp_node_register_ind
          CFI (cfiCond237) Conditional ??CrossCallReturnLabel_75, ??CrossCallReturnLabel_66, ??CrossCallReturnLabel_0
          CFI (cfiCond237) R6 load(1, XDATA, add(CFA_XSP16, literal(-16)))
          CFI (cfiCond237) VB load(1, XDATA, add(CFA_XSP16, literal(-15)))
          CFI (cfiCond237) V0 load(1, XDATA, add(CFA_XSP16, literal(-14)))
          CFI (cfiCond237) V1 load(1, XDATA, add(CFA_XSP16, literal(-13)))
          CFI (cfiCond237) V2 load(1, XDATA, add(CFA_XSP16, literal(-12)))
          CFI (cfiCond237) V3 load(1, XDATA, add(CFA_XSP16, literal(-11)))
          CFI (cfiCond237) V4 load(1, XDATA, add(CFA_XSP16, literal(-10)))
          CFI (cfiCond237) V5 load(1, XDATA, add(CFA_XSP16, literal(-9)))
          CFI (cfiCond237) V6 load(1, XDATA, add(CFA_XSP16, literal(-8)))
          CFI (cfiCond237) V7 load(1, XDATA, add(CFA_XSP16, literal(-7)))
          CFI (cfiCond237) R7 load(1, XDATA, add(CFA_XSP16, literal(-6)))
          CFI (cfiCond237) ?RET_LOW load(1, XDATA, add(CFA_XSP16, literal(-5)))
          CFI (cfiCond237) ?RET_HIGH load(1, XDATA, add(CFA_XSP16, literal(-4)))
          CFI (cfiCond237) ?BRET_EXT load(1, XDATA, add(CFA_XSP16, literal(-3)))
          CFI (cfiCond237) DPL0 load(1, XDATA, add(CFA_XSP16, literal(-2)))
          CFI (cfiCond237) DPH0 load(1, XDATA, add(CFA_XSP16, literal(-1)))
          CFI (cfiCond237) CFA_SP SP+-6
          CFI (cfiCond237) CFA_XSP16 add(XSP16, 42)
          CFI Block cfiCond238 Using cfiCommon0
          CFI (cfiCond238) Function GenericApp_Device_JoinReq
          CFI (cfiCond238) Conditional ??CrossCallReturnLabel_75, ??CrossCallReturnLabel_66, ??CrossCallReturnLabel_1
          CFI (cfiCond238) R6 load(1, XDATA, add(CFA_XSP16, literal(-18)))
          CFI (cfiCond238) VB load(1, XDATA, add(CFA_XSP16, literal(-17)))
          CFI (cfiCond238) V0 load(1, XDATA, add(CFA_XSP16, literal(-16)))
          CFI (cfiCond238) V1 load(1, XDATA, add(CFA_XSP16, literal(-15)))
          CFI (cfiCond238) V2 load(1, XDATA, add(CFA_XSP16, literal(-14)))
          CFI (cfiCond238) V3 load(1, XDATA, add(CFA_XSP16, literal(-13)))
          CFI (cfiCond238) V4 load(1, XDATA, add(CFA_XSP16, literal(-12)))
          CFI (cfiCond238) V5 load(1, XDATA, add(CFA_XSP16, literal(-11)))
          CFI (cfiCond238) V6 load(1, XDATA, add(CFA_XSP16, literal(-10)))
          CFI (cfiCond238) V7 load(1, XDATA, add(CFA_XSP16, literal(-9)))
          CFI (cfiCond238) V8 load(1, XDATA, add(CFA_XSP16, literal(-8)))
          CFI (cfiCond238) V9 load(1, XDATA, add(CFA_XSP16, literal(-7)))
          CFI (cfiCond238) R7 load(1, XDATA, add(CFA_XSP16, literal(-6)))
          CFI (cfiCond238) ?RET_LOW load(1, XDATA, add(CFA_XSP16, literal(-5)))
          CFI (cfiCond238) ?RET_HIGH load(1, XDATA, add(CFA_XSP16, literal(-4)))
          CFI (cfiCond238) ?BRET_EXT load(1, XDATA, add(CFA_XSP16, literal(-3)))
          CFI (cfiCond238) DPL0 load(1, XDATA, add(CFA_XSP16, literal(-2)))
          CFI (cfiCond238) DPH0 load(1, XDATA, add(CFA_XSP16, literal(-1)))
          CFI (cfiCond238) CFA_SP SP+-6
          CFI (cfiCond238) CFA_XSP16 add(XSP16, 218)
          CFI Block cfiPicker239 Using cfiCommon1
          CFI (cfiPicker239) NoFunction
          CFI (cfiPicker239) Picker
        MOVX    @DPTR,A
        MOV     DPL,R6
        MOV     DPH,R7
        INC     DPTR
        RET
          CFI EndBlock cfiCond231
          CFI EndBlock cfiCond232
          CFI EndBlock cfiCond233
          CFI EndBlock cfiCond234
          CFI EndBlock cfiCond235
          CFI EndBlock cfiCond236
          CFI EndBlock cfiCond237
          CFI EndBlock cfiCond238
          CFI EndBlock cfiPicker239

        RSEG BANKED_CODE:CODE:NOROOT(0)
?Subroutine39:
          CFI Block cfiCond240 Using cfiCommon0
          CFI Function GenericApp_Device_JoinRsp
          CFI Conditional ??CrossCallReturnLabel_65
          CFI R6 load(1, XDATA, add(CFA_XSP16, literal(-19)))
          CFI VB load(1, XDATA, add(CFA_XSP16, literal(-18)))
          CFI V0 load(1, XDATA, add(CFA_XSP16, literal(-17)))
          CFI V1 load(1, XDATA, add(CFA_XSP16, literal(-16)))
          CFI V2 load(1, XDATA, add(CFA_XSP16, literal(-15)))
          CFI V3 load(1, XDATA, add(CFA_XSP16, literal(-14)))
          CFI V4 load(1, XDATA, add(CFA_XSP16, literal(-13)))
          CFI V5 load(1, XDATA, add(CFA_XSP16, literal(-12)))
          CFI V6 load(1, XDATA, add(CFA_XSP16, literal(-11)))
          CFI V7 load(1, XDATA, add(CFA_XSP16, literal(-10)))
          CFI V8 load(1, XDATA, add(CFA_XSP16, literal(-9)))
          CFI V9 load(1, XDATA, add(CFA_XSP16, literal(-8)))
          CFI V10 load(1, XDATA, add(CFA_XSP16, literal(-7)))
          CFI R7 load(1, XDATA, add(CFA_XSP16, literal(-6)))
          CFI ?RET_LOW load(1, XDATA, add(CFA_XSP16, literal(-5)))
          CFI ?RET_HIGH load(1, XDATA, add(CFA_XSP16, literal(-4)))
          CFI ?BRET_EXT load(1, XDATA, add(CFA_XSP16, literal(-3)))
          CFI DPL0 load(1, XDATA, add(CFA_XSP16, literal(-2)))
          CFI DPH0 load(1, XDATA, add(CFA_XSP16, literal(-1)))
          CFI CFA_SP SP+-2
          CFI CFA_XSP16 add(XSP16, 127)
          CFI Block cfiCond241 Using cfiCommon0
          CFI (cfiCond241) Function CustomApp_node_register_ind
          CFI (cfiCond241) Conditional ??CrossCallReturnLabel_66, ??CrossCallReturnLabel_0
          CFI (cfiCond241) R6 load(1, XDATA, add(CFA_XSP16, literal(-16)))
          CFI (cfiCond241) VB load(1, XDATA, add(CFA_XSP16, literal(-15)))
          CFI (cfiCond241) V0 load(1, XDATA, add(CFA_XSP16, literal(-14)))
          CFI (cfiCond241) V1 load(1, XDATA, add(CFA_XSP16, literal(-13)))
          CFI (cfiCond241) V2 load(1, XDATA, add(CFA_XSP16, literal(-12)))
          CFI (cfiCond241) V3 load(1, XDATA, add(CFA_XSP16, literal(-11)))
          CFI (cfiCond241) V4 load(1, XDATA, add(CFA_XSP16, literal(-10)))
          CFI (cfiCond241) V5 load(1, XDATA, add(CFA_XSP16, literal(-9)))
          CFI (cfiCond241) V6 load(1, XDATA, add(CFA_XSP16, literal(-8)))
          CFI (cfiCond241) V7 load(1, XDATA, add(CFA_XSP16, literal(-7)))
          CFI (cfiCond241) R7 load(1, XDATA, add(CFA_XSP16, literal(-6)))
          CFI (cfiCond241) ?RET_LOW load(1, XDATA, add(CFA_XSP16, literal(-5)))
          CFI (cfiCond241) ?RET_HIGH load(1, XDATA, add(CFA_XSP16, literal(-4)))
          CFI (cfiCond241) ?BRET_EXT load(1, XDATA, add(CFA_XSP16, literal(-3)))
          CFI (cfiCond241) DPL0 load(1, XDATA, add(CFA_XSP16, literal(-2)))
          CFI (cfiCond241) DPH0 load(1, XDATA, add(CFA_XSP16, literal(-1)))
          CFI (cfiCond241) CFA_SP SP+-4
          CFI (cfiCond241) CFA_XSP16 add(XSP16, 42)
          CFI Block cfiCond242 Using cfiCommon0
          CFI (cfiCond242) Function GenericApp_Device_JoinReq
          CFI (cfiCond242) Conditional ??CrossCallReturnLabel_66, ??CrossCallReturnLabel_1
          CFI (cfiCond242) R6 load(1, XDATA, add(CFA_XSP16, literal(-18)))
          CFI (cfiCond242) VB load(1, XDATA, add(CFA_XSP16, literal(-17)))
          CFI (cfiCond242) V0 load(1, XDATA, add(CFA_XSP16, literal(-16)))
          CFI (cfiCond242) V1 load(1, XDATA, add(CFA_XSP16, literal(-15)))
          CFI (cfiCond242) V2 load(1, XDATA, add(CFA_XSP16, literal(-14)))
          CFI (cfiCond242) V3 load(1, XDATA, add(CFA_XSP16, literal(-13)))
          CFI (cfiCond242) V4 load(1, XDATA, add(CFA_XSP16, literal(-12)))
          CFI (cfiCond242) V5 load(1, XDATA, add(CFA_XSP16, literal(-11)))
          CFI (cfiCond242) V6 load(1, XDATA, add(CFA_XSP16, literal(-10)))
          CFI (cfiCond242) V7 load(1, XDATA, add(CFA_XSP16, literal(-9)))
          CFI (cfiCond242) V8 load(1, XDATA, add(CFA_XSP16, literal(-8)))
          CFI (cfiCond242) V9 load(1, XDATA, add(CFA_XSP16, literal(-7)))
          CFI (cfiCond242) R7 load(1, XDATA, add(CFA_XSP16, literal(-6)))
          CFI (cfiCond242) ?RET_LOW load(1, XDATA, add(CFA_XSP16, literal(-5)))
          CFI (cfiCond242) ?RET_HIGH load(1, XDATA, add(CFA_XSP16, literal(-4)))
          CFI (cfiCond242) ?BRET_EXT load(1, XDATA, add(CFA_XSP16, literal(-3)))
          CFI (cfiCond242) DPL0 load(1, XDATA, add(CFA_XSP16, literal(-2)))
          CFI (cfiCond242) DPH0 load(1, XDATA, add(CFA_XSP16, literal(-1)))
          CFI (cfiCond242) CFA_SP SP+-4
          CFI (cfiCond242) CFA_XSP16 add(XSP16, 218)
          CFI Block cfiPicker243 Using cfiCommon1
          CFI (cfiPicker243) NoFunction
          CFI (cfiPicker243) Picker
        LCALL   ?Subroutine44 & 0xFFFF
??CrossCallReturnLabel_75:
        INC     DPTR
        MOV     A,#0x1
        MOVX    @DPTR,A
        INC     DPTR
        CLR     A
        RET
          CFI EndBlock cfiCond240
          CFI EndBlock cfiCond241
          CFI EndBlock cfiCond242
          CFI EndBlock cfiPicker243
// 1773 

        RSEG BANKED_CODE:CODE:NOROOT(0)
// 1774 void GenericApp_Free_Join_DeviceInfo(ZDO_Permit_Join_Device_t *permit_join_device)  
GenericApp_Free_Join_DeviceInfo:
          CFI Block cfiBlock244 Using cfiCommon0
          CFI Function GenericApp_Free_Join_DeviceInfo
        CODE
// 1775 {
        FUNCALL GenericApp_Free_Join_DeviceInfo, osal_mem_free
        LOCFRAME ISTACK, 0, STACK
        LOCFRAME PSTACK, 0, STACK
        LOCFRAME XSTACK, 9, STACK
        LOCFRAME IOVERLAY, 0, STATIC
        LOCFRAME DOVERLAY, 0, STATIC
        ARGFRAME ISTACK, 0, STACK
        ARGFRAME PSTACK, 0, STACK
        ARGFRAME XSTACK, 9, STACK
        ARGFRAME IOVERLAY, 0, STATIC
        ARGFRAME DOVERLAY, 0, STATIC
        MOV     A,#-0x9
        LCALL   ?BANKED_ENTER_XDATA
          CFI DPH0 load(1, XDATA, add(CFA_XSP16, literal(-1)))
          CFI DPL0 load(1, XDATA, add(CFA_XSP16, literal(-2)))
          CFI ?BRET_EXT load(1, XDATA, add(CFA_XSP16, literal(-3)))
          CFI ?RET_HIGH load(1, XDATA, add(CFA_XSP16, literal(-4)))
          CFI ?RET_LOW load(1, XDATA, add(CFA_XSP16, literal(-5)))
          CFI R7 load(1, XDATA, add(CFA_XSP16, literal(-6)))
          CFI V0 load(1, XDATA, add(CFA_XSP16, literal(-7)))
          CFI VB load(1, XDATA, add(CFA_XSP16, literal(-8)))
          CFI R6 load(1, XDATA, add(CFA_XSP16, literal(-9)))
          CFI CFA_SP SP+0
          CFI CFA_XSP16 add(XSP16, 9)
        ; Saved register size: 9
        ; Auto size: 0
// 1776 	ZDO_Permit_Join_Device_t *head_join_device;
// 1777 	ZDO_Permit_Join_Device_t *tmp_join_device = permit_join_device;
        SJMP    ??GenericApp_Free_Join_DeviceInfo_0
// 1778 	while (tmp_join_device)
// 1779 	{
// 1780 		head_join_device = tmp_join_device->next;
??GenericApp_Free_Join_DeviceInfo_1:
        MOV     DPL,R2
        MOV     DPH,R3
        LCALL   ??Subroutine56_0 & 0xFFFF
// 1781 		osal_mem_free(tmp_join_device);   //chaokw open issue
??CrossCallReturnLabel_113:
        ; Setup parameters for call to function osal_mem_free
        LCALL   `??osal_mem_free::?relay`; Banked call to: osal_mem_free
// 1782 		tmp_join_device = head_join_device;
        MOV     A,R6
        MOV     R2,A
        MOV     A,R7
        MOV     R3,A
// 1783 	}
??GenericApp_Free_Join_DeviceInfo_0:
        MOV     A,R2
        ORL     A,R3
        JNZ     ??GenericApp_Free_Join_DeviceInfo_1
// 1784 }
        LJMP    ?Subroutine0 & 0xFFFF
          CFI EndBlock cfiBlock244

        RSEG XDATA_ID:CODE:NOROOT(0)
`?<Initializer for txMsgDelay>`:
        DATA32
        DD 5000

        RSEG XDATA_ID:CODE:NOROOT(0)
`?<Initializer for fw_version>`:
        DATA16
        DW `?<Constant "v01.00.007">`

        RSEG BANK_RELAYS:CODE:REORDER:NOROOT(0)
`??GenericApp_Init::?relay`:
        CODE
        LCALL   ?BDISPATCH
        DATA24
        DC24    GenericApp_Init

        RSEG BANK_RELAYS:CODE:REORDER:NOROOT(0)
`??GenericApp_ProcessEvent::?relay`:
        CODE
        LCALL   ?BDISPATCH
        DATA24
        DC24    GenericApp_ProcessEvent

        RSEG BANK_RELAYS:CODE:REORDER:NOROOT(0)
`??GenericApp_ProcessZDOMsgs::?relay`:
        CODE
        LCALL   ?BDISPATCH
        DATA24
        DC24    GenericApp_ProcessZDOMsgs

        RSEG BANK_RELAYS:CODE:REORDER:NOROOT(0)
`??GenericApp_HandleKeys::?relay`:
        CODE
        LCALL   ?BDISPATCH
        DATA24
        DC24    GenericApp_HandleKeys

        RSEG BANK_RELAYS:CODE:REORDER:NOROOT(0)
`??GenericApp_MessageMSGCB::?relay`:
        CODE
        LCALL   ?BDISPATCH
        DATA24
        DC24    GenericApp_MessageMSGCB

        RSEG BANK_RELAYS:CODE:REORDER:NOROOT(0)
`??CustomApp_NodeRegister::?relay`:
        CODE
        LCALL   ?BDISPATCH
        DATA24
        DC24    CustomApp_NodeRegister

        RSEG BANK_RELAYS:CODE:REORDER:NOROOT(0)
`??CustomApp_NodeDelete::?relay`:
        CODE
        LCALL   ?BDISPATCH
        DATA24
        DC24    CustomApp_NodeDelete

        RSEG BANK_RELAYS:CODE:REORDER:NOROOT(0)
`??CustomApp_NodeFindNwkAddrList::?relay`:
        CODE
        LCALL   ?BDISPATCH
        DATA24
        DC24    CustomApp_NodeFindNwkAddrList

        RSEG BANK_RELAYS:CODE:REORDER:NOROOT(0)
`??CustomApp_NodeFindMacAddrList::?relay`:
        CODE
        LCALL   ?BDISPATCH
        DATA24
        DC24    CustomApp_NodeFindMacAddrList

        RSEG BANK_RELAYS:CODE:REORDER:NOROOT(0)
`??CustomApp_ping_request_init::?relay`:
        CODE
        LCALL   ?BDISPATCH
        DATA24
        DC24    CustomApp_ping_request_init

        RSEG BANK_RELAYS:CODE:REORDER:NOROOT(0)
`??CustomApp_linkstatus_init::?relay`:
        CODE
        LCALL   ?BDISPATCH
        DATA24
        DC24    CustomApp_linkstatus_init

        RSEG BANK_RELAYS:CODE:REORDER:NOROOT(0)
`??CustomApp_ping_timeout_check_init::?relay`:
        CODE
        LCALL   ?BDISPATCH
        DATA24
        DC24    CustomApp_ping_timeout_check_init

        RSEG BANK_RELAYS:CODE:REORDER:NOROOT(0)
`??CustomApp_coordinater_broadcast_ping_init::?r`:
        CODE
        LCALL   ?BDISPATCH
        DATA24
        DC24    CustomApp_coordinater_broadcast_ping_init

        RSEG BANK_RELAYS:CODE:REORDER:NOROOT(0)
`??CustomApp_zigbee_start_ind::?relay`:
        CODE
        LCALL   ?BDISPATCH
        DATA24
        DC24    CustomApp_zigbee_start_ind

        RSEG BANK_RELAYS:CODE:REORDER:NOROOT(0)
`??CustomApp_loadstatus_ind::?relay`:
        CODE
        LCALL   ?BDISPATCH
        DATA24
        DC24    CustomApp_loadstatus_ind

        RSEG BANK_RELAYS:CODE:REORDER:NOROOT(0)
`??CustomApp_node_register_ind::?relay`:
        CODE
        LCALL   ?BDISPATCH
        DATA24
        DC24    CustomApp_node_register_ind

        RSEG BANK_RELAYS:CODE:REORDER:NOROOT(0)
`??CustomApp_node_deregister_ind::?relay`:
        CODE
        LCALL   ?BDISPATCH
        DATA24
        DC24    CustomApp_node_deregister_ind

        RSEG BANK_RELAYS:CODE:REORDER:NOROOT(0)
`??CustomApp_send_ping_req::?relay`:
        CODE
        LCALL   ?BDISPATCH
        DATA24
        DC24    CustomApp_send_ping_req

        RSEG BANK_RELAYS:CODE:REORDER:NOROOT(0)
`??CustomApp_send_ping_rsp::?relay`:
        CODE
        LCALL   ?BDISPATCH
        DATA24
        DC24    CustomApp_send_ping_rsp

        RSEG BANK_RELAYS:CODE:REORDER:NOROOT(0)
`??CustomApp_coordinater_broadcast_ping::?relay`:
        CODE
        LCALL   ?BDISPATCH
        DATA24
        DC24    CustomApp_coordinater_broadcast_ping

        RSEG BANK_RELAYS:CODE:REORDER:NOROOT(0)
`??CustomApp_linkstatus_updated::?relay`:
        CODE
        LCALL   ?BDISPATCH
        DATA24
        DC24    CustomApp_linkstatus_updated

        RSEG BANK_RELAYS:CODE:REORDER:NOROOT(0)
`??CustomApp_process_ping::?relay`:
        CODE
        LCALL   ?BDISPATCH
        DATA24
        DC24    CustomApp_process_ping

        RSEG BANK_RELAYS:CODE:REORDER:NOROOT(0)
`??CustomApp_ping_timeout_check::?relay`:
        CODE
        LCALL   ?BDISPATCH
        DATA24
        DC24    CustomApp_ping_timeout_check

        RSEG BANK_RELAYS:CODE:REORDER:NOROOT(0)
`??CustomApp_get_connected_node_count::?relay`:
        CODE
        LCALL   ?BDISPATCH
        DATA24
        DC24    CustomApp_get_connected_node_count

        RSEG BANK_RELAYS:CODE:REORDER:NOROOT(0)
`??GenericApp_Device_JoinRsp::?relay`:
        CODE
        LCALL   ?BDISPATCH
        DATA24
        DC24    GenericApp_Device_JoinRsp

        RSEG BANK_RELAYS:CODE:REORDER:NOROOT(0)
`??GenericApp_Get_PermitJoin::?relay`:
        CODE
        LCALL   ?BDISPATCH
        DATA24
        DC24    GenericApp_Get_PermitJoin

        RSEG BANK_RELAYS:CODE:REORDER:NOROOT(0)
`??GenericApp_Device_JoinReq::?relay`:
        CODE
        LCALL   ?BDISPATCH
        DATA24
        DC24    GenericApp_Device_JoinReq

        RSEG BANK_RELAYS:CODE:REORDER:NOROOT(0)
`??GenericApp_Free_Join_DeviceInfo::?relay`:
        CODE
        LCALL   ?BDISPATCH
        DATA24
        DC24    GenericApp_Free_Join_DeviceInfo

        RSEG XDATA_ROM_C:CONST:REORDER:NOROOT(0)
        DATA8
`?<Constant "v01.00.007">`:
        DB "v01.00.007"

        RSEG XDATA_ROM_C:CONST:REORDER:NOROOT(0)
        DATA8
`?<Constant "GenericApp">`:
        DB "GenericApp"

        RSEG XDATA_ROM_C:CONST:REORDER:NOROOT(0)
        DATA8
`?<Constant "aps ack:">`:
        DB "aps ack:"

        RSEG XDATA_ROM_C:CONST:REORDER:NOROOT(0)
        DATA8
`?<Constant "pingresult">`:
        DB "pingresult"

        RSEG XDATA_ROM_C:CONST:REORDER:NOROOT(0)
        DATA8
`?<Constant "panid:">`:
        DB "panid:"

        RSEG XDATA_ROM_C:CONST:REORDER:NOROOT(0)
        DATA8
`?<Constant "devState:">`:
        DB "devState:"

        RSEG XDATA_ROM_C:CONST:REORDER:NOROOT(0)
        DATA8
`?<Constant "nodregOK:">`:
        DB "nodregOK:"

        RSEG XDATA_ROM_C:CONST:REORDER:NOROOT(0)
        DATA8
`?<Constant "Rcvd:">`:
        DB "Rcvd:"

        RSEG XDATA_ROM_C:CONST:REORDER:NOROOT(0)
        DATA8
`?<Constant "cmd Rcvd:">`:
        DB "cmd Rcvd:"

        RSEG XDATA_ROM_C:CONST:REORDER:NOROOT(0)
        DATA8
`?<Constant "ping rsp:">`:
        DB "ping rsp:"

        RSEG XDATA_ROM_C:CONST:REORDER:NOROOT(0)
        DATA8
`?<Constant "ask WL:">`:
        DB "ask WL:"

        RSEG XDATA_ROM_C:CONST:REORDER:NOROOT(0)
        DATA8
`?<Constant "Hello World">`:
        DB "Hello World"

        RSEG XDATA_ROM_C:CONST:REORDER:NOROOT(0)
        DATA8
`?<Constant "pingreqSend">`:
        DB "pingreqSend"

        RSEG XDATA_ROM_C:CONST:REORDER:NOROOT(0)
        DATA8
`?<Constant "pingrspSend">`:
        DB "pingrspSend"

        RSEG XDATA_ROM_C:CONST:REORDER:NOROOT(0)
        DATA8
`?<Constant "broadcast ping">`:
        DB "broadcast ping"

        RSEG XDATA_ROM_C:CONST:REORDER:NOROOT(0)
        DATA8
`?<Constant "nodedelete OK:">`:
        DB "nodedelete OK:"

        RSEG XDATA_ROM_C:CONST:REORDER:NOROOT(0)
        DATA8
`?<Constant "nodedelete NOK:">`:
        DB "nodedelete NOK:"

        RSEG XDATA_ROM_C:CONST:REORDER:NOROOT(0)
        DATA8
`?<Constant "connected:">`:
        DB "connected:"

        RSEG XDATA_ROM_C:CONST:REORDER:NOROOT(0)
        DATA8
`?<Constant {0, 0, 0, 0, 0, 0, 0, 0}>`:
        DB 0
        DB 0
        DB 0
        DB 0
        DB 0
        DB 0
        DB 0
        DB 0

        RSEG XDATA_ROM_C:CONST:REORDER:NOROOT(0)
        DATA32
__Constant_1388:
        DD 5000

        RSEG XDATA_ROM_C:CONST:REORDER:NOROOT(0)
        DATA32
__Constant_3a98:
        DD 15000

        RSEG XDATA_ROM_C:CONST:REORDER:NOROOT(0)
        DATA32
__Constant_2710:
        DD 10000

        RSEG XDATA_ROM_C:CONST:REORDER:NOROOT(0)
        DATA32
__Constant_7d0:
        DD 2000

        RSEG XDATA_ROM_C:CONST:REORDER:NOROOT(0)
        DATA32
__Constant_65:
        DD 101

        END
// 
// 6 038 bytes in segment BANKED_CODE
//   168 bytes in segment BANK_RELAYS
//     6 bytes in segment XDATA_I
//     6 bytes in segment XDATA_ID
//   250 bytes in segment XDATA_ROM_C
//    74 bytes in segment XDATA_Z
// 
// 6 212 bytes of CODE  memory
//   230 bytes of CONST memory (+ 20 bytes shared)
//    80 bytes of XDATA memory
//
//Errors: none
//Warnings: none
