///////////////////////////////////////////////////////////////////////////////
//
// IAR C/C++ Compiler V9.30.1.3056 for 8051               21/Apr/2017  13:45:58
// Copyright 2004-2015 IAR Systems AB.
//
//    Core               =  plain
//    Code model         =  banked
//    Data model         =  large
//    Calling convention =  xdata reentrant
//    Constant location  =  data_rom
//    Dptr setup         =  1,16
//                          
//    Source file        =  
//        C:\Texas Instruments\Z-Stack Mesh 1.0.0_chaokw_20160317\Z-Stack Mesh
//        1.0.0_chaokw_20160316\Z-Stack Mesh 1.0.0_LCDOK\Z-Stack Mesh
//        1.0.0\Projects\zstack\Samples\GenericApp\Source\GenericApp.c
//    Command line       =  
//        -f "C:\Texas Instruments\Z-Stack Mesh 1.0.0_chaokw_20160317\Z-Stack
//        Mesh 1.0.0_chaokw_20160316\Z-Stack Mesh 1.0.0_LCDOK\Z-Stack Mesh
//        1.0.0\Projects\zstack\Samples\GenericApp\CC2530DB\..\..\..\Tools\CC2530DB\f8wRouter.cfg"
//        (-DCPU32MHZ -DROOT=__near_func -DMAC_CFG_APP_PENDING_QUEUE=TRUE
//        -DMAC_CFG_TX_DATA_MAX=5 -DMAC_CFG_TX_MAX=8 -DMAC_CFG_RX_MAX=5
//        -DRTR_NWK) -f "C:\Texas Instruments\Z-Stack Mesh
//        1.0.0_chaokw_20160317\Z-Stack Mesh 1.0.0_chaokw_20160316\Z-Stack Mesh
//        1.0.0_LCDOK\Z-Stack Mesh
//        1.0.0\Projects\zstack\Samples\GenericApp\CC2530DB\..\..\..\Tools\CC2530DB\f8wConfig.cfg"
//        (-DZIGBEEPRO -DSECURE=1 -DZG_SECURE_DYNAMIC=0 -DREFLECTOR
//        -DDEFAULT_CHANLIST=0x04000000 -DZDAPP_CONFIG_PAN_ID=0x0100
//        -DNWK_START_DELAY=100 -DEXTENDED_JOINING_RANDOM_MASK=0x007F
//        -DBEACON_REQUEST_DELAY=100 -DBEACON_REQ_DELAY_MASK=0x00FF
//        -DLINK_STATUS_JITTER_MASK=0x007F -DROUTE_EXPIRY_TIME=30
//        -DAPSC_ACK_WAIT_DURATION_POLLED=3000 -DNWK_INDIRECT_MSG_TIMEOUT=7
//        -DMAX_RREQ_ENTRIES=8 -DAPSC_MAX_FRAME_RETRIES=5
//        -DNWK_MAX_DATA_RETRIES=2 -DMAX_POLL_FAILURE_RETRIES=2 -DMAX_BCAST=9
//        -DAPS_MAX_GROUPS=16 -DMAX_RTG_ENTRIES=40 -DNWK_MAX_BINDING_ENTRIES=4
//        -DMAX_BINDING_CLUSTER_IDS=4 "-DDEFAULT_KEY={0x01, 0x03, 0x05, 0x07,
//        0x09, 0x0B, 0x0D, 0x0F, 0x00, 0x02, 0x04, 0x06, 0x08, 0x0A, 0x0C,
//        0x0D}" -DMAC_MAX_FRAME_SIZE=116 -DZDNWKMGR_MIN_TRANSMISSIONS=20
//        "-DCONST=const __code" -DGENERIC=__generic -DRFD_RCVC_ALWAYS_ON=FALSE
//        -DPOLL_RATE=1000 -DQUEUED_POLL_RATE=100 -DRESPONSE_POLL_RATE=100
//        -DREJOIN_POLL_RATE=440) -DCHANNEL_CNT=0x01 "C:\Texas
//        Instruments\Z-Stack Mesh 1.0.0_chaokw_20160317\Z-Stack Mesh
//        1.0.0_chaokw_20160316\Z-Stack Mesh 1.0.0_LCDOK\Z-Stack Mesh
//        1.0.0\Projects\zstack\Samples\GenericApp\Source\GenericApp.c" -D
//        ZTOOL_P1 -D MT_TASK -D MT_SYS_FUNC -D MT_ZDO_FUNC -D
//        LCD_SUPPORTED=DEBUG -D xNV_RESTORE -D NV_INIT -D OPEN_FCS -D
//        PANID_INCREASE -D MAKE_CRC_SHDW -lC "C:\Texas Instruments\Z-Stack
//        Mesh 1.0.0_chaokw_20160317\Z-Stack Mesh 1.0.0_chaokw_20160316\Z-Stack
//        Mesh 1.0.0_LCDOK\Z-Stack Mesh
//        1.0.0\Projects\zstack\Samples\GenericApp\CC2530DB\RouterEB-SBL\List"
//        -lA "C:\Texas Instruments\Z-Stack Mesh 1.0.0_chaokw_20160317\Z-Stack
//        Mesh 1.0.0_chaokw_20160316\Z-Stack Mesh 1.0.0_LCDOK\Z-Stack Mesh
//        1.0.0\Projects\zstack\Samples\GenericApp\CC2530DB\RouterEB-SBL\List"
//        --diag_suppress Pe001,Pa010 -o "C:\Texas Instruments\Z-Stack Mesh
//        1.0.0_chaokw_20160317\Z-Stack Mesh 1.0.0_chaokw_20160316\Z-Stack Mesh
//        1.0.0_LCDOK\Z-Stack Mesh
//        1.0.0\Projects\zstack\Samples\GenericApp\CC2530DB\RouterEB-SBL\Obj"
//        -e --no_code_motion --debug --core=plain --dptr=16,1
//        --data_model=large --code_model=banked
//        --calling_convention=xdata_reentrant --place_constants=data_rom
//        --nr_virtual_regs 16 -I "C:\Texas Instruments\Z-Stack Mesh
//        1.0.0_chaokw_20160317\Z-Stack Mesh 1.0.0_chaokw_20160316\Z-Stack Mesh
//        1.0.0_LCDOK\Z-Stack Mesh
//        1.0.0\Projects\zstack\Samples\GenericApp\CC2530DB\" -I "C:\Texas
//        Instruments\Z-Stack Mesh 1.0.0_chaokw_20160317\Z-Stack Mesh
//        1.0.0_chaokw_20160316\Z-Stack Mesh 1.0.0_LCDOK\Z-Stack Mesh
//        1.0.0\Projects\zstack\Samples\GenericApp\CC2530DB\..\Source\" -I
//        "C:\Texas Instruments\Z-Stack Mesh 1.0.0_chaokw_20160317\Z-Stack Mesh
//        1.0.0_chaokw_20160316\Z-Stack Mesh 1.0.0_LCDOK\Z-Stack Mesh
//        1.0.0\Projects\zstack\Samples\GenericApp\CC2530DB\..\..\..\Application\"
//        -I "C:\Texas Instruments\Z-Stack Mesh 1.0.0_chaokw_20160317\Z-Stack
//        Mesh 1.0.0_chaokw_20160316\Z-Stack Mesh 1.0.0_LCDOK\Z-Stack Mesh
//        1.0.0\Projects\zstack\Samples\GenericApp\CC2530DB\..\..\..\ZMain\TI2530DB\"
//        -I "C:\Texas Instruments\Z-Stack Mesh 1.0.0_chaokw_20160317\Z-Stack
//        Mesh 1.0.0_chaokw_20160316\Z-Stack Mesh 1.0.0_LCDOK\Z-Stack Mesh
//        1.0.0\Projects\zstack\Samples\GenericApp\CC2530DB\..\..\..\..\..\Components\hal\include\"
//        -I "C:\Texas Instruments\Z-Stack Mesh 1.0.0_chaokw_20160317\Z-Stack
//        Mesh 1.0.0_chaokw_20160316\Z-Stack Mesh 1.0.0_LCDOK\Z-Stack Mesh
//        1.0.0\Projects\zstack\Samples\GenericApp\CC2530DB\..\..\..\..\..\Components\hal\target\CC2530EB\"
//        -I "C:\Texas Instruments\Z-Stack Mesh 1.0.0_chaokw_20160317\Z-Stack
//        Mesh 1.0.0_chaokw_20160316\Z-Stack Mesh 1.0.0_LCDOK\Z-Stack Mesh
//        1.0.0\Projects\zstack\Samples\GenericApp\CC2530DB\..\..\..\..\..\Components\mac\include\"
//        -I "C:\Texas Instruments\Z-Stack Mesh 1.0.0_chaokw_20160317\Z-Stack
//        Mesh 1.0.0_chaokw_20160316\Z-Stack Mesh 1.0.0_LCDOK\Z-Stack Mesh
//        1.0.0\Projects\zstack\Samples\GenericApp\CC2530DB\..\..\..\..\..\Components\mac\high_level\"
//        -I "C:\Texas Instruments\Z-Stack Mesh 1.0.0_chaokw_20160317\Z-Stack
//        Mesh 1.0.0_chaokw_20160316\Z-Stack Mesh 1.0.0_LCDOK\Z-Stack Mesh
//        1.0.0\Projects\zstack\Samples\GenericApp\CC2530DB\..\..\..\..\..\Components\mac\low_level\srf04\"
//        -I "C:\Texas Instruments\Z-Stack Mesh 1.0.0_chaokw_20160317\Z-Stack
//        Mesh 1.0.0_chaokw_20160316\Z-Stack Mesh 1.0.0_LCDOK\Z-Stack Mesh
//        1.0.0\Projects\zstack\Samples\GenericApp\CC2530DB\..\..\..\..\..\Components\mac\low_level\srf04\single_chip\"
//        -I "C:\Texas Instruments\Z-Stack Mesh 1.0.0_chaokw_20160317\Z-Stack
//        Mesh 1.0.0_chaokw_20160316\Z-Stack Mesh 1.0.0_LCDOK\Z-Stack Mesh
//        1.0.0\Projects\zstack\Samples\GenericApp\CC2530DB\..\..\..\..\..\Components\mt\"
//        -I "C:\Texas Instruments\Z-Stack Mesh 1.0.0_chaokw_20160317\Z-Stack
//        Mesh 1.0.0_chaokw_20160316\Z-Stack Mesh 1.0.0_LCDOK\Z-Stack Mesh
//        1.0.0\Projects\zstack\Samples\GenericApp\CC2530DB\..\..\..\..\..\Components\osal\include\"
//        -I "C:\Texas Instruments\Z-Stack Mesh 1.0.0_chaokw_20160317\Z-Stack
//        Mesh 1.0.0_chaokw_20160316\Z-Stack Mesh 1.0.0_LCDOK\Z-Stack Mesh
//        1.0.0\Projects\zstack\Samples\GenericApp\CC2530DB\..\..\..\..\..\Components\services\saddr\"
//        -I "C:\Texas Instruments\Z-Stack Mesh 1.0.0_chaokw_20160317\Z-Stack
//        Mesh 1.0.0_chaokw_20160316\Z-Stack Mesh 1.0.0_LCDOK\Z-Stack Mesh
//        1.0.0\Projects\zstack\Samples\GenericApp\CC2530DB\..\..\..\..\..\Components\services\sdata\"
//        -I "C:\Texas Instruments\Z-Stack Mesh 1.0.0_chaokw_20160317\Z-Stack
//        Mesh 1.0.0_chaokw_20160316\Z-Stack Mesh 1.0.0_LCDOK\Z-Stack Mesh
//        1.0.0\Projects\zstack\Samples\GenericApp\CC2530DB\..\..\..\..\..\Components\stack\af\"
//        -I "C:\Texas Instruments\Z-Stack Mesh 1.0.0_chaokw_20160317\Z-Stack
//        Mesh 1.0.0_chaokw_20160316\Z-Stack Mesh 1.0.0_LCDOK\Z-Stack Mesh
//        1.0.0\Projects\zstack\Samples\GenericApp\CC2530DB\..\..\..\..\..\Components\stack\nwk\"
//        -I "C:\Texas Instruments\Z-Stack Mesh 1.0.0_chaokw_20160317\Z-Stack
//        Mesh 1.0.0_chaokw_20160316\Z-Stack Mesh 1.0.0_LCDOK\Z-Stack Mesh
//        1.0.0\Projects\zstack\Samples\GenericApp\CC2530DB\..\..\..\..\..\Components\stack\sapi\"
//        -I "C:\Texas Instruments\Z-Stack Mesh 1.0.0_chaokw_20160317\Z-Stack
//        Mesh 1.0.0_chaokw_20160316\Z-Stack Mesh 1.0.0_LCDOK\Z-Stack Mesh
//        1.0.0\Projects\zstack\Samples\GenericApp\CC2530DB\..\..\..\..\..\Components\stack\sec\"
//        -I "C:\Texas Instruments\Z-Stack Mesh 1.0.0_chaokw_20160317\Z-Stack
//        Mesh 1.0.0_chaokw_20160316\Z-Stack Mesh 1.0.0_LCDOK\Z-Stack Mesh
//        1.0.0\Projects\zstack\Samples\GenericApp\CC2530DB\..\..\..\..\..\Components\stack\sys\"
//        -I "C:\Texas Instruments\Z-Stack Mesh 1.0.0_chaokw_20160317\Z-Stack
//        Mesh 1.0.0_chaokw_20160316\Z-Stack Mesh 1.0.0_LCDOK\Z-Stack Mesh
//        1.0.0\Projects\zstack\Samples\GenericApp\CC2530DB\..\..\..\..\..\Components\stack\zdo\"
//        -I "C:\Texas Instruments\Z-Stack Mesh 1.0.0_chaokw_20160317\Z-Stack
//        Mesh 1.0.0_chaokw_20160316\Z-Stack Mesh 1.0.0_LCDOK\Z-Stack Mesh
//        1.0.0\Projects\zstack\Samples\GenericApp\CC2530DB\..\..\..\..\..\Components\zmac\"
//        -I "C:\Texas Instruments\Z-Stack Mesh 1.0.0_chaokw_20160317\Z-Stack
//        Mesh 1.0.0_chaokw_20160316\Z-Stack Mesh 1.0.0_LCDOK\Z-Stack Mesh
//        1.0.0\Projects\zstack\Samples\GenericApp\CC2530DB\..\..\..\..\..\Components\zmac\f8w\"
//        -Ohz --require_prototypes
//    List file          =  
//        C:\Texas Instruments\Z-Stack Mesh 1.0.0_chaokw_20160317\Z-Stack Mesh
//        1.0.0_chaokw_20160316\Z-Stack Mesh 1.0.0_LCDOK\Z-Stack Mesh
//        1.0.0\Projects\zstack\Samples\GenericApp\CC2530DB\RouterEB-SBL\List\GenericApp.s51
//
///////////////////////////////////////////////////////////////////////////////

        NAME GenericApp

        RTMODEL "__SystemLibrary", "CLib"
        RTMODEL "__calling_convention", "xdata_reentrant"
        RTMODEL "__code_model", "banked"
        RTMODEL "__core", "plain"
        RTMODEL "__data_model", "large"
        RTMODEL "__dptr_size", "16"
        RTMODEL "__extended_stack", "disabled"
        RTMODEL "__location_for_constants", "data"
        RTMODEL "__number_of_dptrs", "1"
        RTMODEL "__rt_version", "1"

        RSEG DOVERLAY:DATA:NOROOT(0)
        RSEG IOVERLAY:IDATA:NOROOT(0)
        RSEG ISTACK:IDATA:NOROOT(0)
        RSEG PSTACK:XDATA:NOROOT(0)
        RSEG XSTACK:XDATA:NOROOT(0)

        EXTERN ?V0
        EXTERN ?V1
        EXTERN ?V2
        EXTERN ?V3
        EXTERN ?V4
        EXTERN ?V5
        EXTERN ?V6
        EXTERN ?V7
        EXTERN ?V8
        EXTERN ?V9
        EXTERN ?V10
        EXTERN ?ALLOC_XSTACK8
        EXTERN ?BANKED_ENTER_XDATA
        EXTERN ?BANKED_LEAVE_XDATA
        EXTERN ?BDISPATCH
        EXTERN ?BRET
        EXTERN ?DEALLOC_XSTACK8
        EXTERN ?L_EQ_X
        EXTERN ?L_MOV_TO_X
        EXTERN ?L_MOV_X
        EXTERN ?MOVE_LONG8_XDATA_XDATA
        EXTERN ?PUSH_XSTACK8_X
        EXTERN ?PUSH_XSTACK8_X_FOUR
        EXTERN ?PUSH_XSTACK_I_ONE
        EXTERN ?PUSH_XSTACK_I_THREE
        EXTERN ?PUSH_XSTACK_I_TWO
        EXTERN ?UL_GT_X
        EXTERN ?UL_SHR
        EXTERN ?US_SWITCH_DENSE
        EXTERN ?US_SWITCH_SPARSE
        EXTERN ?XLOAD_R0123
        EXTERN ?XSP
        EXTERN ?XSTACK_DISP0_8
        EXTERN ?XSTACK_DISP100_8
        EXTERN ?XSTACK_DISP101_8
        EXTERN ?XSTACK_DISP102_8
        EXTERN ?XSTORE_R0123
        EXTERN ?XSTORE_R2345
        EXTERN __INIT_XDATA_I
        EXTERN __INIT_XDATA_Z

        PUBLIC `??CustomApp_NodeDelete::?relay`
        FUNCTION `??CustomApp_NodeDelete::?relay`,0203H
        PUBLIC `??CustomApp_NodeFindMacAddrList::?relay`
        FUNCTION `??CustomApp_NodeFindMacAddrList::?relay`,0203H
        PUBLIC `??CustomApp_NodeFindNwkAddrList::?relay`
        FUNCTION `??CustomApp_NodeFindNwkAddrList::?relay`,0203H
        PUBLIC `??CustomApp_NodeRegister::?relay`
        FUNCTION `??CustomApp_NodeRegister::?relay`,0203H
        PUBLIC `??CustomApp_coordinater_broadcast_ping::?relay`
        FUNCTION `??CustomApp_coordinater_broadcast_ping::?relay`,0203H
        PUBLIC `??CustomApp_coordinater_broadcast_ping_init::?r`
        FUNCTION `??CustomApp_coordinater_broadcast_ping_init::?r`,0203H
        PUBLIC `??CustomApp_get_connected_node_count::?relay`
        FUNCTION `??CustomApp_get_connected_node_count::?relay`,0203H
        PUBLIC `??CustomApp_linkstatus_init::?relay`
        FUNCTION `??CustomApp_linkstatus_init::?relay`,0203H
        PUBLIC `??CustomApp_linkstatus_updated::?relay`
        FUNCTION `??CustomApp_linkstatus_updated::?relay`,0203H
        PUBLIC `??CustomApp_loadstatus_ind::?relay`
        FUNCTION `??CustomApp_loadstatus_ind::?relay`,0203H
        PUBLIC `??CustomApp_node_deregister_ind::?relay`
        FUNCTION `??CustomApp_node_deregister_ind::?relay`,0203H
        PUBLIC `??CustomApp_node_register_ind::?relay`
        FUNCTION `??CustomApp_node_register_ind::?relay`,0203H
        PUBLIC `??CustomApp_ping_request_init::?relay`
        FUNCTION `??CustomApp_ping_request_init::?relay`,0203H
        PUBLIC `??CustomApp_ping_timeout_check::?relay`
        FUNCTION `??CustomApp_ping_timeout_check::?relay`,0203H
        PUBLIC `??CustomApp_ping_timeout_check_init::?relay`
        FUNCTION `??CustomApp_ping_timeout_check_init::?relay`,0203H
        PUBLIC `??CustomApp_process_ping::?relay`
        FUNCTION `??CustomApp_process_ping::?relay`,0203H
        PUBLIC `??CustomApp_send_ping_req::?relay`
        FUNCTION `??CustomApp_send_ping_req::?relay`,0203H
        PUBLIC `??CustomApp_send_ping_rsp::?relay`
        FUNCTION `??CustomApp_send_ping_rsp::?relay`,0203H
        PUBLIC `??CustomApp_zigbee_start_ind::?relay`
        FUNCTION `??CustomApp_zigbee_start_ind::?relay`,0203H
        PUBLIC `??GenericApp_Device_JoinReq::?relay`
        FUNCTION `??GenericApp_Device_JoinReq::?relay`,0203H
        PUBLIC `??GenericApp_Device_JoinRsp::?relay`
        FUNCTION `??GenericApp_Device_JoinRsp::?relay`,0203H
        PUBLIC `??GenericApp_Free_Join_DeviceInfo::?relay`
        FUNCTION `??GenericApp_Free_Join_DeviceInfo::?relay`,0203H
        PUBLIC `??GenericApp_Get_PermitJoin::?relay`
        FUNCTION `??GenericApp_Get_PermitJoin::?relay`,0203H
        FUNCTION `??GenericApp_HandleKeys::?relay`,0203H
        PUBLIC `??GenericApp_Init::?relay`
        FUNCTION `??GenericApp_Init::?relay`,0203H
        FUNCTION `??GenericApp_MessageMSGCB::?relay`,0203H
        PUBLIC `??GenericApp_ProcessEvent::?relay`
        FUNCTION `??GenericApp_ProcessEvent::?relay`,0203H
        FUNCTION `??GenericApp_ProcessZDOMsgs::?relay`,0203H
        PUBLIC CustomApp_NodeDelete
        FUNCTION CustomApp_NodeDelete,021203H
        ARGFRAME XSTACK, 12, STACK
        ARGFRAME IOVERLAY, 0, STATIC
        ARGFRAME DOVERLAY, 0, STATIC
        LOCFRAME XSTACK, 9, STACK
        PUBLIC CustomApp_NodeFindMacAddrList
        FUNCTION CustomApp_NodeFindMacAddrList,0a1203H
        ARGFRAME XSTACK, 10, STACK
        ARGFRAME IOVERLAY, 0, STATIC
        ARGFRAME DOVERLAY, 0, STATIC
        LOCFRAME XSTACK, 10, STACK
        PUBLIC CustomApp_NodeFindNwkAddrList
        FUNCTION CustomApp_NodeFindNwkAddrList,0203H
        ARGFRAME XSTACK, 13, STACK
        ARGFRAME IOVERLAY, 0, STATIC
        ARGFRAME DOVERLAY, 0, STATIC
        LOCFRAME ISTACK, 2, STACK
        PUBLIC CustomApp_NodeRegister
        FUNCTION CustomApp_NodeRegister,0a1203H
        ARGFRAME XSTACK, 63, STACK
        ARGFRAME IOVERLAY, 0, STATIC
        ARGFRAME DOVERLAY, 0, STATIC
        LOCFRAME XSTACK, 10, STACK
        PUBLIC CustomApp_coordinater_broadcast_ping
        FUNCTION CustomApp_coordinater_broadcast_ping,0a1203H
        ARGFRAME XSTACK, 24, STACK
        ARGFRAME IOVERLAY, 0, STATIC
        ARGFRAME DOVERLAY, 0, STATIC
        LOCFRAME XSTACK, 21, STACK
        PUBLIC CustomApp_coordinater_broadcast_ping_init
        FUNCTION CustomApp_coordinater_broadcast_ping_init,021203H
        ARGFRAME XSTACK, 24, STACK
        ARGFRAME IOVERLAY, 0, STATIC
        ARGFRAME DOVERLAY, 0, STATIC
        LOCFRAME ISTACK, 2, STACK
        LOCFRAME XSTACK, 4, STACK
        PUBLIC CustomApp_get_connected_node_count
        FUNCTION CustomApp_get_connected_node_count,0203H
        ARGFRAME XSTACK, 12, STACK
        ARGFRAME IOVERLAY, 0, STATIC
        ARGFRAME DOVERLAY, 0, STATIC
        LOCFRAME ISTACK, 2, STACK
        PUBLIC CustomApp_linkstatus_init
        FUNCTION CustomApp_linkstatus_init,021203H
        ARGFRAME XSTACK, 0, STACK
        LOCFRAME ISTACK, 2, STACK
        LOCFRAME XSTACK, 4, STACK
        PUBLIC CustomApp_linkstatus_updated
        FUNCTION CustomApp_linkstatus_updated,0a1203H
        ARGFRAME XSTACK, 24, STACK
        ARGFRAME IOVERLAY, 0, STATIC
        ARGFRAME DOVERLAY, 0, STATIC
        LOCFRAME XSTACK, 36, STACK
        PUBLIC CustomApp_loadstatus_ind
        FUNCTION CustomApp_loadstatus_ind,0a1203H
        ARGFRAME XSTACK, 24, STACK
        ARGFRAME IOVERLAY, 0, STATIC
        ARGFRAME DOVERLAY, 0, STATIC
        LOCFRAME ISTACK, 1, STACK
        LOCFRAME XSTACK, 30, STACK
        PUBLIC CustomApp_node_deregister_ind
        FUNCTION CustomApp_node_deregister_ind,0a1203H
        ARGFRAME XSTACK, 36, STACK
        ARGFRAME IOVERLAY, 0, STATIC
        ARGFRAME DOVERLAY, 0, STATIC
        LOCFRAME ISTACK, 1, STACK
        LOCFRAME XSTACK, 27, STACK
        PUBLIC CustomApp_node_register_ind
        FUNCTION CustomApp_node_register_ind,0a1203H
        ARGFRAME XSTACK, 63, STACK
        ARGFRAME IOVERLAY, 0, STATIC
        ARGFRAME DOVERLAY, 0, STATIC
        LOCFRAME ISTACK, 1, STACK
        LOCFRAME XSTACK, 45, STACK
        PUBLIC CustomApp_ping_request_init
        FUNCTION CustomApp_ping_request_init,021203H
        ARGFRAME XSTACK, 24, STACK
        ARGFRAME IOVERLAY, 0, STATIC
        ARGFRAME DOVERLAY, 0, STATIC
        LOCFRAME ISTACK, 2, STACK
        LOCFRAME XSTACK, 4, STACK
        PUBLIC CustomApp_ping_timeout_check
        FUNCTION CustomApp_ping_timeout_check,0a1203H
        ARGFRAME XSTACK, 24, STACK
        ARGFRAME IOVERLAY, 0, STATIC
        ARGFRAME DOVERLAY, 0, STATIC
        LOCFRAME XSTACK, 16, STACK
        PUBLIC CustomApp_ping_timeout_check_init
        FUNCTION CustomApp_ping_timeout_check_init,021203H
        ARGFRAME XSTACK, 24, STACK
        ARGFRAME IOVERLAY, 0, STATIC
        ARGFRAME DOVERLAY, 0, STATIC
        LOCFRAME ISTACK, 2, STACK
        LOCFRAME XSTACK, 4, STACK
        PUBLIC CustomApp_process_ping
        FUNCTION CustomApp_process_ping,0a1203H
        ARGFRAME XSTACK, 12, STACK
        ARGFRAME IOVERLAY, 0, STATIC
        ARGFRAME DOVERLAY, 0, STATIC
        LOCFRAME XSTACK, 37, STACK
        PUBLIC CustomApp_send_ping_req
        FUNCTION CustomApp_send_ping_req,0a1203H
        ARGFRAME XSTACK, 24, STACK
        ARGFRAME IOVERLAY, 0, STATIC
        ARGFRAME DOVERLAY, 0, STATIC
        LOCFRAME ISTACK, 1, STACK
        LOCFRAME XSTACK, 25, STACK
        PUBLIC CustomApp_send_ping_rsp
        FUNCTION CustomApp_send_ping_rsp,0a1203H
        ARGFRAME XSTACK, 13, STACK
        ARGFRAME IOVERLAY, 0, STATIC
        ARGFRAME DOVERLAY, 0, STATIC
        LOCFRAME XSTACK, 21, STACK
        PUBLIC CustomApp_zigbee_start_ind
        FUNCTION CustomApp_zigbee_start_ind,0a1203H
        ARGFRAME XSTACK, 9, STACK
        ARGFRAME IOVERLAY, 0, STATIC
        ARGFRAME DOVERLAY, 0, STATIC
        LOCFRAME ISTACK, 1, STACK
        LOCFRAME XSTACK, 28, STACK
        PUBLIC GenericApp_ClusterList
        PUBLIC GenericApp_Device_JoinReq
        FUNCTION GenericApp_Device_JoinReq,0a1203H
        ARGFRAME XSTACK, 24, STACK
        ARGFRAME IOVERLAY, 0, STATIC
        ARGFRAME DOVERLAY, 0, STATIC
        LOCFRAME ISTACK, 1, STACK
        LOCFRAME XSTACK, 227, STACK
        PUBLIC GenericApp_Device_JoinRsp
        FUNCTION GenericApp_Device_JoinRsp,0a1203H
        ARGFRAME XSTACK, 12, STACK
        ARGFRAME IOVERLAY, 0, STATIC
        ARGFRAME DOVERLAY, 0, STATIC
        LOCFRAME ISTACK, 1, STACK
        LOCFRAME XSTACK, 136, STACK
        PUBLIC GenericApp_DstAddr
        PUBLIC GenericApp_Free_Join_DeviceInfo
        FUNCTION GenericApp_Free_Join_DeviceInfo,021203H
        ARGFRAME XSTACK, 24, STACK
        ARGFRAME IOVERLAY, 0, STATIC
        ARGFRAME DOVERLAY, 0, STATIC
        LOCFRAME XSTACK, 9, STACK
        PUBLIC GenericApp_Get_PermitJoin
        FUNCTION GenericApp_Get_PermitJoin,0a1203H
        ARGFRAME XSTACK, 12, STACK
        ARGFRAME IOVERLAY, 0, STATIC
        ARGFRAME DOVERLAY, 0, STATIC
        LOCFRAME XSTACK, 26, STACK
        FUNCTION GenericApp_HandleKeys,0a1203H
        ARGFRAME XSTACK, 24, STACK
        ARGFRAME IOVERLAY, 0, STATIC
        ARGFRAME DOVERLAY, 0, STATIC
        LOCFRAME XSTACK, 30, STACK
        PUBLIC GenericApp_Init
        FUNCTION GenericApp_Init,021203H
        ARGFRAME XSTACK, 0, STACK
        LOCFRAME XSTACK, 9, STACK
        FUNCTION GenericApp_MessageMSGCB,0a1203H
        ARGFRAME XSTACK, 24, STACK
        ARGFRAME IOVERLAY, 0, STATIC
        ARGFRAME DOVERLAY, 0, STATIC
        LOCFRAME XSTACK, 13, STACK
        PUBLIC GenericApp_NwkState
        PUBLIC GenericApp_ProcessEvent
        FUNCTION GenericApp_ProcessEvent,0a1203H
        ARGFRAME XSTACK, 0, STACK
        LOCFRAME XSTACK, 33, STACK
        FUNCTION GenericApp_ProcessZDOMsgs,0a1203H
        ARGFRAME XSTACK, 24, STACK
        ARGFRAME IOVERLAY, 0, STATIC
        ARGFRAME DOVERLAY, 0, STATIC
        LOCFRAME XSTACK, 63, STACK
        PUBLIC GenericApp_SimpleDesc
        PUBLIC GenericApp_TaskID
        PUBLIC GenericApp_TransID
        PUBLIC GenericApp_epDesc
        PUBLIC SerialApp_TxAddr_broadcast
        PUBLIC SerialApp_TxAddr_group
        PUBLIC SerialApp_TxAddr_p2p
        PUBWEAK __Constant_1388
        PUBWEAK __Constant_2710
        PUBWEAK __Constant_3a98
        PUBWEAK __Constant_65
        PUBWEAK __Constant_7d0
        PUBLIC cnt
        PUBLIC fw_version
        PUBLIC nodeList
        PUBLIC pingRspTime
        PUBLIC ping_error_cnt
        PUBLIC ping_result
        PUBLIC transfer_join_times
        PUBLIC zc_online_report_cnt
        PUBLIC zr_online_report_cnt
        
          CFI Names cfiNames0
          CFI StackFrame CFA_SP SP IDATA
          CFI StackFrame CFA_PSP16 PSP16 XDATA
          CFI StackFrame CFA_XSP16 XSP16 XDATA
          CFI StaticOverlayFrame CFA_IOVERLAY IOVERLAY
          CFI StaticOverlayFrame CFA_DOVERLAY DOVERLAY
          CFI Resource `PSW.CY`:1, `B.BR0`:1, `B.BR1`:1, `B.BR2`:1, `B.BR3`:1
          CFI Resource `B.BR4`:1, `B.BR5`:1, `B.BR6`:1, `B.BR7`:1, `VB.BR8`:1
          CFI Resource `VB.BR9`:1, `VB.BR10`:1, `VB.BR11`:1, `VB.BR12`:1
          CFI Resource `VB.BR13`:1, `VB.BR14`:1, `VB.BR15`:1, VB:8, B:8, A:8
          CFI Resource PSW:8, DPL0:8, DPH0:8, R0:8, R1:8, R2:8, R3:8, R4:8, R5:8
          CFI Resource R6:8, R7:8, V0:8, V1:8, V2:8, V3:8, V4:8, V5:8, V6:8, V7:8
          CFI Resource V8:8, V9:8, V10:8, V11:8, V12:8, V13:8, V14:8, V15:8, SP:8
          CFI Resource PSPH:8, PSPL:8, PSP16:16, XSPH:8, XSPL:8, XSP16:16
          CFI VirtualResource ?RET:24
          CFI Resource ?BRET_EXT:8
          CFI VirtualResource ?RET_HIGH:8, ?RET_LOW:8
          CFI ResourceParts PSP16 PSPH, PSPL
          CFI ResourceParts XSP16 XSPH, XSPL
          CFI ResourceParts ?RET ?BRET_EXT, ?RET_HIGH, ?RET_LOW
          CFI EndNames cfiNames0
        
          CFI Common cfiCommon0 Using cfiNames0
          CFI CodeAlign 1
          CFI DataAlign -1
          CFI ReturnAddress ?RET CODE
          CFI CFA_DOVERLAY Used
          CFI CFA_IOVERLAY Used
          CFI CFA_SP SP+-3
          CFI CFA_PSP16 PSP16+0
          CFI CFA_XSP16 XSP16+0
          CFI `PSW.CY` SameValue
          CFI `B.BR0` SameValue
          CFI `B.BR1` SameValue
          CFI `B.BR2` SameValue
          CFI `B.BR3` SameValue
          CFI `B.BR4` SameValue
          CFI `B.BR5` SameValue
          CFI `B.BR6` SameValue
          CFI `B.BR7` SameValue
          CFI `VB.BR8` SameValue
          CFI `VB.BR9` SameValue
          CFI `VB.BR10` SameValue
          CFI `VB.BR11` SameValue
          CFI `VB.BR12` SameValue
          CFI `VB.BR13` SameValue
          CFI `VB.BR14` SameValue
          CFI `VB.BR15` SameValue
          CFI VB SameValue
          CFI B Undefined
          CFI A Undefined
          CFI PSW SameValue
          CFI DPL0 SameValue
          CFI DPH0 SameValue
          CFI R0 Undefined
          CFI R1 Undefined
          CFI R2 Undefined
          CFI R3 Undefined
          CFI R4 Undefined
          CFI R5 Undefined
          CFI R6 SameValue
          CFI R7 SameValue
          CFI V0 SameValue
          CFI V1 SameValue
          CFI V2 SameValue
          CFI V3 SameValue
          CFI V4 SameValue
          CFI V5 SameValue
          CFI V6 SameValue
          CFI V7 SameValue
          CFI V8 SameValue
          CFI V9 SameValue
          CFI V10 SameValue
          CFI V11 SameValue
          CFI V12 SameValue
          CFI V13 SameValue
          CFI V14 SameValue
          CFI V15 SameValue
          CFI PSPH Undefined
          CFI PSPL Undefined
          CFI XSPH Undefined
          CFI XSPL Undefined
          CFI ?RET Concat
          CFI ?BRET_EXT Frame(CFA_SP, 3)
          CFI ?RET_HIGH Frame(CFA_SP, 2)
          CFI ?RET_LOW Frame(CFA_SP, 1)
          CFI EndCommon cfiCommon0
        
        
          CFI Common cfiCommon1 Using cfiNames0
          CFI CodeAlign 1
          CFI DataAlign -1
          CFI ReturnAddress ?RET CODE
          CFI CFA_DOVERLAY Used
          CFI CFA_IOVERLAY Used
          CFI CFA_SP SP+-2
          CFI CFA_PSP16 PSP16+0
          CFI CFA_XSP16 XSP16+0
          CFI `PSW.CY` SameValue
          CFI `B.BR0` SameValue
          CFI `B.BR1` SameValue
          CFI `B.BR2` SameValue
          CFI `B.BR3` SameValue
          CFI `B.BR4` SameValue
          CFI `B.BR5` SameValue
          CFI `B.BR6` SameValue
          CFI `B.BR7` SameValue
          CFI `VB.BR8` SameValue
          CFI `VB.BR9` SameValue
          CFI `VB.BR10` SameValue
          CFI `VB.BR11` SameValue
          CFI `VB.BR12` SameValue
          CFI `VB.BR13` SameValue
          CFI `VB.BR14` SameValue
          CFI `VB.BR15` SameValue
          CFI VB SameValue
          CFI B SameValue
          CFI A SameValue
          CFI PSW SameValue
          CFI DPL0 SameValue
          CFI DPH0 SameValue
          CFI R0 SameValue
          CFI R1 SameValue
          CFI R2 SameValue
          CFI R3 SameValue
          CFI R4 SameValue
          CFI R5 SameValue
          CFI R6 SameValue
          CFI R7 SameValue
          CFI V0 SameValue
          CFI V1 SameValue
          CFI V2 SameValue
          CFI V3 SameValue
          CFI V4 SameValue
          CFI V5 SameValue
          CFI V6 SameValue
          CFI V7 SameValue
          CFI V8 SameValue
          CFI V9 SameValue
          CFI V10 SameValue
          CFI V11 SameValue
          CFI V12 SameValue
          CFI V13 SameValue
          CFI V14 SameValue
          CFI V15 SameValue
          CFI PSPH Undefined
          CFI PSPL Undefined
          CFI XSPH Undefined
          CFI XSPL Undefined
          CFI ?RET Concat
          CFI ?BRET_EXT SameValue
          CFI ?RET_HIGH Frame(CFA_SP, 2)
          CFI ?RET_LOW Frame(CFA_SP, 1)
          CFI EndCommon cfiCommon1
        
AF_DataRequest      SYMBOL "AF_DataRequest"
`??AF_DataRequest::?relay` SYMBOL "?relay", AF_DataRequest
Authlist_item_cnt   SYMBOL "Authlist_item_cnt"
`??Authlist_item_cnt::?relay` SYMBOL "?relay", Authlist_item_cnt
Authlist_verify_device SYMBOL "Authlist_verify_device"
`??Authlist_verify_device::?relay` SYMBOL "?relay", Authlist_verify_device
CustomApp_AF_Broadcast_Data_Process SYMBOL "CustomApp_AF_Broadcast_Data_Process"
`??CustomApp_AF_Broadcast_Data_Process::?relay` SYMBOL "?relay", CustomApp_AF_Broadcast_Data_Process
CustomApp_AF_Group_Data_Process SYMBOL "CustomApp_AF_Group_Data_Process"
`??CustomApp_AF_Group_Data_Process::?relay` SYMBOL "?relay", CustomApp_AF_Group_Data_Process
CustomApp_AF_P2P_Data_Process SYMBOL "CustomApp_AF_P2P_Data_Process"
`??CustomApp_AF_P2P_Data_Process::?relay` SYMBOL "?relay", CustomApp_AF_P2P_Data_Process
CustomApp_Coordinator_Online SYMBOL "CustomApp_Coordinator_Online"
`??CustomApp_Coordinator_Online::?relay` SYMBOL "?relay", CustomApp_Coordinator_Online
CustomApp_FW_Update SYMBOL "CustomApp_FW_Update"
`??CustomApp_FW_Update::?relay` SYMBOL "?relay", CustomApp_FW_Update
CustomApp_Get_Active_Cnt SYMBOL "CustomApp_Get_Active_Cnt"
`??CustomApp_Get_Active_Cnt::?relay` SYMBOL "?relay", CustomApp_Get_Active_Cnt
CustomApp_Get_ExtAddr SYMBOL "CustomApp_Get_ExtAddr"
`??CustomApp_Get_ExtAddr::?relay` SYMBOL "?relay", CustomApp_Get_ExtAddr
CustomApp_Get_Flex_Devinfo SYMBOL "CustomApp_Get_Flex_Devinfo"
`??CustomApp_Get_Flex_Devinfo::?relay` SYMBOL "?relay", CustomApp_Get_Flex_Devinfo
CustomApp_Get_NWKInfo SYMBOL "CustomApp_Get_NWKInfo"
`??CustomApp_Get_NWKInfo::?relay` SYMBOL "?relay", CustomApp_Get_NWKInfo
CustomApp_Get_Version SYMBOL "CustomApp_Get_Version"
`??CustomApp_Get_Version::?relay` SYMBOL "?relay", CustomApp_Get_Version
CustomApp_Send_BroadCast_Data SYMBOL "CustomApp_Send_BroadCast_Data"
`??CustomApp_Send_BroadCast_Data::?relay` SYMBOL "?relay", CustomApp_Send_BroadCast_Data
CustomApp_Send_Group_Data SYMBOL "CustomApp_Send_Group_Data"
`??CustomApp_Send_Group_Data::?relay` SYMBOL "?relay", CustomApp_Send_Group_Data
CustomApp_Send_P2P_Data SYMBOL "CustomApp_Send_P2P_Data"
`??CustomApp_Send_P2P_Data::?relay` SYMBOL "?relay", CustomApp_Send_P2P_Data
CustomApp_Set_Multiway SYMBOL "CustomApp_Set_Multiway"
`??CustomApp_Set_Multiway::?relay` SYMBOL "?relay", CustomApp_Set_Multiway
CustomApp_coordinator_online_req SYMBOL "CustomApp_coordinator_online_req"
`??CustomApp_coordinator_online_req::?relay` SYMBOL "?relay", CustomApp_coordinator_online_req
CustomApp_router_online_req SYMBOL "CustomApp_router_online_req"
`??CustomApp_router_online_req::?relay` SYMBOL "?relay", CustomApp_router_online_req
HalLcdWriteString   SYMBOL "HalLcdWriteString"
`??HalLcdWriteString::?relay` SYMBOL "?relay", HalLcdWriteString
HalLcdWriteStringValue SYMBOL "HalLcdWriteStringValue"
`??HalLcdWriteStringValue::?relay` SYMBOL "?relay", HalLcdWriteStringValue
HalLedSet           SYMBOL "HalLedSet"
`??HalLedSet::?relay` SYMBOL "?relay", HalLedSet
HalUARTWrite        SYMBOL "HalUARTWrite"
`??HalUARTWrite::?relay` SYMBOL "?relay", HalUARTWrite
MT_UartCalcFCS      SYMBOL "MT_UartCalcFCS"
`??MT_UartCalcFCS::?relay` SYMBOL "?relay", MT_UartCalcFCS
NLME_GetExtAddr     SYMBOL "NLME_GetExtAddr"
`??NLME_GetExtAddr::?relay` SYMBOL "?relay", NLME_GetExtAddr
NLME_GetShortAddr   SYMBOL "NLME_GetShortAddr"
`??NLME_GetShortAddr::?relay` SYMBOL "?relay", NLME_GetShortAddr
RegisterForKeys     SYMBOL "RegisterForKeys"
`??RegisterForKeys::?relay` SYMBOL "?relay", RegisterForKeys
Register_Group_Multiway SYMBOL "Register_Group_Multiway"
`??Register_Group_Multiway::?relay` SYMBOL "?relay", Register_Group_Multiway
ZDO_ParseDeviceAnnce SYMBOL "ZDO_ParseDeviceAnnce"
`??ZDO_ParseDeviceAnnce::?relay` SYMBOL "?relay", ZDO_ParseDeviceAnnce
ZDO_ParseEPListRsp  SYMBOL "ZDO_ParseEPListRsp"
`??ZDO_ParseEPListRsp::?relay` SYMBOL "?relay", ZDO_ParseEPListRsp
ZDO_RegisterForZDOMsg SYMBOL "ZDO_RegisterForZDOMsg"
`??ZDO_RegisterForZDOMsg::?relay` SYMBOL "?relay", ZDO_RegisterForZDOMsg
ZDP_EndDeviceBindReq SYMBOL "ZDP_EndDeviceBindReq"
`??ZDP_EndDeviceBindReq::?relay` SYMBOL "?relay", ZDP_EndDeviceBindReq
ZDP_MatchDescReq    SYMBOL "ZDP_MatchDescReq"
`??ZDP_MatchDescReq::?relay` SYMBOL "?relay", ZDP_MatchDescReq
abs                 SYMBOL "abs"
`??abs::?relay`     SYMBOL "?relay", abs
afRegister          SYMBOL "afRegister"
`??afRegister::?relay` SYMBOL "?relay", afRegister
osal_getClock       SYMBOL "osal_getClock"
`??osal_getClock::?relay` SYMBOL "?relay", osal_getClock
osal_mem_alloc      SYMBOL "osal_mem_alloc"
`??osal_mem_alloc::?relay` SYMBOL "?relay", osal_mem_alloc
osal_mem_free       SYMBOL "osal_mem_free"
`??osal_mem_free::?relay` SYMBOL "?relay", osal_mem_free
osal_memcmp         SYMBOL "osal_memcmp"
`??osal_memcmp::?relay` SYMBOL "?relay", osal_memcmp
osal_memcpy         SYMBOL "osal_memcpy"
`??osal_memcpy::?relay` SYMBOL "?relay", osal_memcpy
osal_memset         SYMBOL "osal_memset"
`??osal_memset::?relay` SYMBOL "?relay", osal_memset
osal_msg_allocate   SYMBOL "osal_msg_allocate"
`??osal_msg_allocate::?relay` SYMBOL "?relay", osal_msg_allocate
osal_msg_deallocate SYMBOL "osal_msg_deallocate"
`??osal_msg_deallocate::?relay` SYMBOL "?relay", osal_msg_deallocate
osal_msg_receive    SYMBOL "osal_msg_receive"
`??osal_msg_receive::?relay` SYMBOL "?relay", osal_msg_receive
osal_start_timerEx  SYMBOL "osal_start_timerEx"
`??osal_start_timerEx::?relay` SYMBOL "?relay", osal_start_timerEx
osal_stop_timerEx   SYMBOL "osal_stop_timerEx"
`??osal_stop_timerEx::?relay` SYMBOL "?relay", osal_stop_timerEx
osal_strlen         SYMBOL "osal_strlen"
`??osal_strlen::?relay` SYMBOL "?relay", osal_strlen
sAddrExtCmp         SYMBOL "sAddrExtCmp"
`??sAddrExtCmp::?relay` SYMBOL "?relay", sAddrExtCmp
CustomApp_NodeDelete SYMBOL "CustomApp_NodeDelete"
`??CustomApp_NodeDelete::?relay` SYMBOL "?relay", CustomApp_NodeDelete
CustomApp_NodeFindMacAddrList SYMBOL "CustomApp_NodeFindMacAddrList"
`??CustomApp_NodeFindMacAddrList::?relay` SYMBOL "?relay", CustomApp_NodeFindMacAddrList
CustomApp_NodeFindNwkAddrList SYMBOL "CustomApp_NodeFindNwkAddrList"
`??CustomApp_NodeFindNwkAddrList::?relay` SYMBOL "?relay", CustomApp_NodeFindNwkAddrList
CustomApp_NodeRegister SYMBOL "CustomApp_NodeRegister"
`??CustomApp_NodeRegister::?relay` SYMBOL "?relay", CustomApp_NodeRegister
CustomApp_coordinater_broadcast_ping SYMBOL "CustomApp_coordinater_broadcast_ping"
`??CustomApp_coordinater_broadcast_ping::?relay` SYMBOL "?relay", CustomApp_coordinater_broadcast_ping
CustomApp_coordinater_broadcast_ping_init SYMBOL "CustomApp_coordinater_broadcast_ping_init"
`??CustomApp_coordinater_broadcast_ping_init::?r` SYMBOL "?relay", CustomApp_coordinater_broadcast_ping_init
CustomApp_get_connected_node_count SYMBOL "CustomApp_get_connected_node_count"
`??CustomApp_get_connected_node_count::?relay` SYMBOL "?relay", CustomApp_get_connected_node_count
CustomApp_linkstatus_init SYMBOL "CustomApp_linkstatus_init"
`??CustomApp_linkstatus_init::?relay` SYMBOL "?relay", CustomApp_linkstatus_init
CustomApp_linkstatus_updated SYMBOL "CustomApp_linkstatus_updated"
`??CustomApp_linkstatus_updated::?relay` SYMBOL "?relay", CustomApp_linkstatus_updated
CustomApp_loadstatus_ind SYMBOL "CustomApp_loadstatus_ind"
`??CustomApp_loadstatus_ind::?relay` SYMBOL "?relay", CustomApp_loadstatus_ind
CustomApp_node_deregister_ind SYMBOL "CustomApp_node_deregister_ind"
`??CustomApp_node_deregister_ind::?relay` SYMBOL "?relay", CustomApp_node_deregister_ind
CustomApp_node_register_ind SYMBOL "CustomApp_node_register_ind"
`??CustomApp_node_register_ind::?relay` SYMBOL "?relay", CustomApp_node_register_ind
CustomApp_ping_request_init SYMBOL "CustomApp_ping_request_init"
`??CustomApp_ping_request_init::?relay` SYMBOL "?relay", CustomApp_ping_request_init
CustomApp_ping_timeout_check SYMBOL "CustomApp_ping_timeout_check"
`??CustomApp_ping_timeout_check::?relay` SYMBOL "?relay", CustomApp_ping_timeout_check
CustomApp_ping_timeout_check_init SYMBOL "CustomApp_ping_timeout_check_init"
`??CustomApp_ping_timeout_check_init::?relay` SYMBOL "?relay", CustomApp_ping_timeout_check_init
CustomApp_process_ping SYMBOL "CustomApp_process_ping"
`??CustomApp_process_ping::?relay` SYMBOL "?relay", CustomApp_process_ping
CustomApp_send_ping_req SYMBOL "CustomApp_send_ping_req"
`??CustomApp_send_ping_req::?relay` SYMBOL "?relay", CustomApp_send_ping_req
CustomApp_send_ping_rsp SYMBOL "CustomApp_send_ping_rsp"
`??CustomApp_send_ping_rsp::?relay` SYMBOL "?relay", CustomApp_send_ping_rsp
CustomApp_zigbee_start_ind SYMBOL "CustomApp_zigbee_start_ind"
`??CustomApp_zigbee_start_ind::?relay` SYMBOL "?relay", CustomApp_zigbee_start_ind
GenericApp_Device_JoinReq SYMBOL "GenericApp_Device_JoinReq"
`??GenericApp_Device_JoinReq::?relay` SYMBOL "?relay", GenericApp_Device_JoinReq
GenericApp_Device_JoinRsp SYMBOL "GenericApp_Device_JoinRsp"
`??GenericApp_Device_JoinRsp::?relay` SYMBOL "?relay", GenericApp_Device_JoinRsp
GenericApp_Free_Join_DeviceInfo SYMBOL "GenericApp_Free_Join_DeviceInfo"
`??GenericApp_Free_Join_DeviceInfo::?relay` SYMBOL "?relay", GenericApp_Free_Join_DeviceInfo
GenericApp_Get_PermitJoin SYMBOL "GenericApp_Get_PermitJoin"
`??GenericApp_Get_PermitJoin::?relay` SYMBOL "?relay", GenericApp_Get_PermitJoin
GenericApp_Init     SYMBOL "GenericApp_Init"
`??GenericApp_Init::?relay` SYMBOL "?relay", GenericApp_Init
GenericApp_ProcessEvent SYMBOL "GenericApp_ProcessEvent"
`??GenericApp_ProcessEvent::?relay` SYMBOL "?relay", GenericApp_ProcessEvent

        EXTERN `??AF_DataRequest::?relay`
        FUNCTION `??AF_DataRequest::?relay`,00H
        EXTERN `??Authlist_item_cnt::?relay`
        FUNCTION `??Authlist_item_cnt::?relay`,00H
        EXTERN `??Authlist_verify_device::?relay`
        FUNCTION `??Authlist_verify_device::?relay`,00H
        EXTERN `??CustomApp_AF_Broadcast_Data_Process::?relay`
        FUNCTION `??CustomApp_AF_Broadcast_Data_Process::?relay`,00H
        EXTERN `??CustomApp_AF_Group_Data_Process::?relay`
        FUNCTION `??CustomApp_AF_Group_Data_Process::?relay`,00H
        EXTERN `??CustomApp_AF_P2P_Data_Process::?relay`
        FUNCTION `??CustomApp_AF_P2P_Data_Process::?relay`,00H
        EXTERN `??CustomApp_Coordinator_Online::?relay`
        FUNCTION `??CustomApp_Coordinator_Online::?relay`,00H
        EXTERN `??CustomApp_FW_Update::?relay`
        FUNCTION `??CustomApp_FW_Update::?relay`,00H
        EXTERN `??CustomApp_Get_Active_Cnt::?relay`
        FUNCTION `??CustomApp_Get_Active_Cnt::?relay`,00H
        EXTERN `??CustomApp_Get_ExtAddr::?relay`
        FUNCTION `??CustomApp_Get_ExtAddr::?relay`,00H
        EXTERN `??CustomApp_Get_Flex_Devinfo::?relay`
        FUNCTION `??CustomApp_Get_Flex_Devinfo::?relay`,00H
        EXTERN `??CustomApp_Get_NWKInfo::?relay`
        FUNCTION `??CustomApp_Get_NWKInfo::?relay`,00H
        EXTERN `??CustomApp_Get_Version::?relay`
        FUNCTION `??CustomApp_Get_Version::?relay`,00H
        EXTERN `??CustomApp_Send_BroadCast_Data::?relay`
        FUNCTION `??CustomApp_Send_BroadCast_Data::?relay`,00H
        EXTERN `??CustomApp_Send_Group_Data::?relay`
        FUNCTION `??CustomApp_Send_Group_Data::?relay`,00H
        EXTERN `??CustomApp_Send_P2P_Data::?relay`
        FUNCTION `??CustomApp_Send_P2P_Data::?relay`,00H
        EXTERN `??CustomApp_Set_Multiway::?relay`
        FUNCTION `??CustomApp_Set_Multiway::?relay`,00H
        EXTERN `??CustomApp_coordinator_online_req::?relay`
        FUNCTION `??CustomApp_coordinator_online_req::?relay`,00H
        EXTERN `??CustomApp_router_online_req::?relay`
        FUNCTION `??CustomApp_router_online_req::?relay`,00H
        EXTERN `??HalLcdWriteString::?relay`
        FUNCTION `??HalLcdWriteString::?relay`,00H
        EXTERN `??HalLcdWriteStringValue::?relay`
        FUNCTION `??HalLcdWriteStringValue::?relay`,00H
        EXTERN `??HalLedSet::?relay`
        FUNCTION `??HalLedSet::?relay`,00H
        EXTERN `??HalUARTWrite::?relay`
        FUNCTION `??HalUARTWrite::?relay`,00H
        EXTERN `??MT_UartCalcFCS::?relay`
        FUNCTION `??MT_UartCalcFCS::?relay`,00H
        EXTERN `??NLME_GetExtAddr::?relay`
        FUNCTION `??NLME_GetExtAddr::?relay`,00H
        EXTERN `??NLME_GetShortAddr::?relay`
        FUNCTION `??NLME_GetShortAddr::?relay`,00H
        EXTERN `??RegisterForKeys::?relay`
        FUNCTION `??RegisterForKeys::?relay`,00H
        EXTERN `??Register_Group_Multiway::?relay`
        FUNCTION `??Register_Group_Multiway::?relay`,00H
        EXTERN `??ZDO_ParseDeviceAnnce::?relay`
        FUNCTION `??ZDO_ParseDeviceAnnce::?relay`,00H
        EXTERN `??ZDO_ParseEPListRsp::?relay`
        FUNCTION `??ZDO_ParseEPListRsp::?relay`,00H
        EXTERN `??ZDO_RegisterForZDOMsg::?relay`
        FUNCTION `??ZDO_RegisterForZDOMsg::?relay`,00H
        EXTERN `??ZDP_EndDeviceBindReq::?relay`
        FUNCTION `??ZDP_EndDeviceBindReq::?relay`,00H
        EXTERN `??ZDP_MatchDescReq::?relay`
        FUNCTION `??ZDP_MatchDescReq::?relay`,00H
        EXTERN `??abs::?relay`
        FUNCTION `??abs::?relay`,00H
        EXTERN `??afRegister::?relay`
        FUNCTION `??afRegister::?relay`,00H
        EXTERN `??osal_getClock::?relay`
        FUNCTION `??osal_getClock::?relay`,00H
        EXTERN `??osal_mem_alloc::?relay`
        FUNCTION `??osal_mem_alloc::?relay`,00H
        EXTERN `??osal_mem_free::?relay`
        FUNCTION `??osal_mem_free::?relay`,00H
        EXTERN `??osal_memcmp::?relay`
        FUNCTION `??osal_memcmp::?relay`,00H
        EXTERN `??osal_memcpy::?relay`
        FUNCTION `??osal_memcpy::?relay`,00H
        EXTERN `??osal_memset::?relay`
        FUNCTION `??osal_memset::?relay`,00H
        EXTERN `??osal_msg_allocate::?relay`
        FUNCTION `??osal_msg_allocate::?relay`,00H
        EXTERN `??osal_msg_deallocate::?relay`
        FUNCTION `??osal_msg_deallocate::?relay`,00H
        EXTERN `??osal_msg_receive::?relay`
        FUNCTION `??osal_msg_receive::?relay`,00H
        EXTERN `??osal_start_timerEx::?relay`
        FUNCTION `??osal_start_timerEx::?relay`,00H
        EXTERN `??osal_stop_timerEx::?relay`
        FUNCTION `??osal_stop_timerEx::?relay`,00H
        EXTERN `??osal_strlen::?relay`
        FUNCTION `??osal_strlen::?relay`,00H
        EXTERN `??sAddrExtCmp::?relay`
        FUNCTION `??sAddrExtCmp::?relay`,00H
        EXTERN AF_DataRequest
        FUNCTION AF_DataRequest,0202H
        ARGFRAME ISTACK, 0, STACK
        ARGFRAME PSTACK, 0, STACK
        ARGFRAME XSTACK, 227, STACK
        ARGFRAME IOVERLAY, 0, STATIC
        ARGFRAME DOVERLAY, 0, STATIC
        EXTERN Authlist_item_cnt
        FUNCTION Authlist_item_cnt,0202H
        ARGFRAME ISTACK, 0, STACK
        ARGFRAME PSTACK, 0, STACK
        ARGFRAME XSTACK, 12, STACK
        ARGFRAME IOVERLAY, 0, STATIC
        ARGFRAME DOVERLAY, 0, STATIC
        EXTERN Authlist_verify_device
        FUNCTION Authlist_verify_device,0202H
        ARGFRAME ISTACK, 0, STACK
        ARGFRAME PSTACK, 0, STACK
        ARGFRAME XSTACK, 128, STACK
        ARGFRAME IOVERLAY, 0, STATIC
        ARGFRAME DOVERLAY, 0, STATIC
        EXTERN CustomApp_AF_Broadcast_Data_Process
        FUNCTION CustomApp_AF_Broadcast_Data_Process,0202H
        ARGFRAME ISTACK, 0, STACK
        ARGFRAME PSTACK, 0, STACK
        ARGFRAME XSTACK, 12, STACK
        ARGFRAME IOVERLAY, 0, STATIC
        ARGFRAME DOVERLAY, 0, STATIC
        EXTERN CustomApp_AF_Group_Data_Process
        FUNCTION CustomApp_AF_Group_Data_Process,0202H
        ARGFRAME ISTACK, 0, STACK
        ARGFRAME PSTACK, 0, STACK
        ARGFRAME XSTACK, 12, STACK
        ARGFRAME IOVERLAY, 0, STATIC
        ARGFRAME DOVERLAY, 0, STATIC
        EXTERN CustomApp_AF_P2P_Data_Process
        FUNCTION CustomApp_AF_P2P_Data_Process,0202H
        ARGFRAME ISTACK, 0, STACK
        ARGFRAME PSTACK, 0, STACK
        ARGFRAME XSTACK, 12, STACK
        ARGFRAME IOVERLAY, 0, STATIC
        ARGFRAME DOVERLAY, 0, STATIC
        EXTERN CustomApp_Coordinator_Online
        FUNCTION CustomApp_Coordinator_Online,0202H
        ARGFRAME ISTACK, 0, STACK
        ARGFRAME PSTACK, 0, STACK
        ARGFRAME XSTACK, 12, STACK
        ARGFRAME IOVERLAY, 0, STATIC
        ARGFRAME DOVERLAY, 0, STATIC
        EXTERN CustomApp_FW_Update
        FUNCTION CustomApp_FW_Update,0202H
        ARGFRAME ISTACK, 0, STACK
        ARGFRAME PSTACK, 0, STACK
        ARGFRAME XSTACK, 24, STACK
        ARGFRAME IOVERLAY, 0, STATIC
        ARGFRAME DOVERLAY, 0, STATIC
        EXTERN CustomApp_Get_Active_Cnt
        FUNCTION CustomApp_Get_Active_Cnt,0202H
        ARGFRAME ISTACK, 0, STACK
        ARGFRAME PSTACK, 0, STACK
        ARGFRAME XSTACK, 24, STACK
        ARGFRAME IOVERLAY, 0, STATIC
        ARGFRAME DOVERLAY, 0, STATIC
        EXTERN CustomApp_Get_ExtAddr
        FUNCTION CustomApp_Get_ExtAddr,0202H
        ARGFRAME ISTACK, 0, STACK
        ARGFRAME PSTACK, 0, STACK
        ARGFRAME XSTACK, 24, STACK
        ARGFRAME IOVERLAY, 0, STATIC
        ARGFRAME DOVERLAY, 0, STATIC
        EXTERN CustomApp_Get_Flex_Devinfo
        FUNCTION CustomApp_Get_Flex_Devinfo,0202H
        ARGFRAME ISTACK, 0, STACK
        ARGFRAME PSTACK, 0, STACK
        ARGFRAME XSTACK, 12, STACK
        ARGFRAME IOVERLAY, 0, STATIC
        ARGFRAME DOVERLAY, 0, STATIC
        EXTERN CustomApp_Get_NWKInfo
        FUNCTION CustomApp_Get_NWKInfo,0202H
        ARGFRAME ISTACK, 0, STACK
        ARGFRAME PSTACK, 0, STACK
        ARGFRAME XSTACK, 24, STACK
        ARGFRAME IOVERLAY, 0, STATIC
        ARGFRAME DOVERLAY, 0, STATIC
        EXTERN CustomApp_Get_Version
        FUNCTION CustomApp_Get_Version,0202H
        ARGFRAME ISTACK, 0, STACK
        ARGFRAME PSTACK, 0, STACK
        ARGFRAME XSTACK, 24, STACK
        ARGFRAME IOVERLAY, 0, STATIC
        ARGFRAME DOVERLAY, 0, STATIC
        EXTERN CustomApp_Send_BroadCast_Data
        FUNCTION CustomApp_Send_BroadCast_Data,0202H
        ARGFRAME ISTACK, 0, STACK
        ARGFRAME PSTACK, 0, STACK
        ARGFRAME XSTACK, 24, STACK
        ARGFRAME IOVERLAY, 0, STATIC
        ARGFRAME DOVERLAY, 0, STATIC
        EXTERN CustomApp_Send_Group_Data
        FUNCTION CustomApp_Send_Group_Data,0202H
        ARGFRAME ISTACK, 0, STACK
        ARGFRAME PSTACK, 0, STACK
        ARGFRAME XSTACK, 24, STACK
        ARGFRAME IOVERLAY, 0, STATIC
        ARGFRAME DOVERLAY, 0, STATIC
        EXTERN CustomApp_Send_P2P_Data
        FUNCTION CustomApp_Send_P2P_Data,0202H
        ARGFRAME ISTACK, 0, STACK
        ARGFRAME PSTACK, 0, STACK
        ARGFRAME XSTACK, 24, STACK
        ARGFRAME IOVERLAY, 0, STATIC
        ARGFRAME DOVERLAY, 0, STATIC
        EXTERN CustomApp_Set_Multiway
        FUNCTION CustomApp_Set_Multiway,0202H
        ARGFRAME ISTACK, 0, STACK
        ARGFRAME PSTACK, 0, STACK
        ARGFRAME XSTACK, 24, STACK
        ARGFRAME IOVERLAY, 0, STATIC
        ARGFRAME DOVERLAY, 0, STATIC
        EXTERN CustomApp_coordinator_online_req
        FUNCTION CustomApp_coordinator_online_req,0202H
        ARGFRAME ISTACK, 0, STACK
        ARGFRAME PSTACK, 0, STACK
        ARGFRAME XSTACK, 24, STACK
        ARGFRAME IOVERLAY, 0, STATIC
        ARGFRAME DOVERLAY, 0, STATIC
        EXTERN CustomApp_router_online_req
        FUNCTION CustomApp_router_online_req,0202H
        ARGFRAME ISTACK, 0, STACK
        ARGFRAME PSTACK, 0, STACK
        ARGFRAME XSTACK, 25, STACK
        ARGFRAME IOVERLAY, 0, STATIC
        ARGFRAME DOVERLAY, 0, STATIC
        EXTERN HalLcdWriteString
        FUNCTION HalLcdWriteString,0202H
        ARGFRAME ISTACK, 0, STACK
        ARGFRAME PSTACK, 0, STACK
        ARGFRAME XSTACK, 12, STACK
        ARGFRAME IOVERLAY, 0, STATIC
        ARGFRAME DOVERLAY, 0, STATIC
        EXTERN HalLcdWriteStringValue
        FUNCTION HalLcdWriteStringValue,0202H
        ARGFRAME ISTACK, 0, STACK
        ARGFRAME PSTACK, 0, STACK
        ARGFRAME XSTACK, 40, STACK
        ARGFRAME IOVERLAY, 0, STATIC
        ARGFRAME DOVERLAY, 0, STATIC
        EXTERN HalLedSet
        FUNCTION HalLedSet,0202H
        ARGFRAME ISTACK, 0, STACK
        ARGFRAME PSTACK, 0, STACK
        ARGFRAME XSTACK, 39, STACK
        ARGFRAME IOVERLAY, 0, STATIC
        ARGFRAME DOVERLAY, 0, STATIC
        EXTERN HalUARTWrite
        FUNCTION HalUARTWrite,0202H
        ARGFRAME ISTACK, 0, STACK
        ARGFRAME PSTACK, 0, STACK
        ARGFRAME XSTACK, 42, STACK
        ARGFRAME IOVERLAY, 0, STATIC
        ARGFRAME DOVERLAY, 0, STATIC
        EXTERN MT_UartCalcFCS
        FUNCTION MT_UartCalcFCS,0202H
        ARGFRAME ISTACK, 0, STACK
        ARGFRAME PSTACK, 0, STACK
        ARGFRAME XSTACK, 218, STACK
        ARGFRAME IOVERLAY, 0, STATIC
        ARGFRAME DOVERLAY, 0, STATIC
        EXTERN NLME_GetExtAddr
        FUNCTION NLME_GetExtAddr,0202H
        ARGFRAME ISTACK, 0, STACK
        ARGFRAME PSTACK, 0, STACK
        ARGFRAME XSTACK, 27, STACK
        ARGFRAME IOVERLAY, 0, STATIC
        ARGFRAME DOVERLAY, 0, STATIC
        EXTERN NLME_GetShortAddr
        FUNCTION NLME_GetShortAddr,0202H
        ARGFRAME ISTACK, 0, STACK
        ARGFRAME PSTACK, 0, STACK
        ARGFRAME XSTACK, 218, STACK
        ARGFRAME IOVERLAY, 0, STATIC
        ARGFRAME DOVERLAY, 0, STATIC
        EXTERN Onboard_soft_reset
        FUNCTION Onboard_soft_reset,0202H
        ARGFRAME ISTACK, 0, STACK
        ARGFRAME PSTACK, 0, STACK
        ARGFRAME XSTACK, 24, STACK
        ARGFRAME IOVERLAY, 0, STATIC
        ARGFRAME DOVERLAY, 0, STATIC
        EXTERN RegisterForKeys
        FUNCTION RegisterForKeys,0202H
        ARGFRAME ISTACK, 0, STACK
        ARGFRAME PSTACK, 0, STACK
        ARGFRAME XSTACK, 9, STACK
        ARGFRAME IOVERLAY, 0, STATIC
        ARGFRAME DOVERLAY, 0, STATIC
        EXTERN Register_Group_Multiway
        FUNCTION Register_Group_Multiway,0202H
        ARGFRAME ISTACK, 0, STACK
        ARGFRAME PSTACK, 0, STACK
        ARGFRAME XSTACK, 9, STACK
        ARGFRAME IOVERLAY, 0, STATIC
        ARGFRAME DOVERLAY, 0, STATIC
        EXTERN ZDO_ParseDeviceAnnce
        FUNCTION ZDO_ParseDeviceAnnce,0202H
        ARGFRAME ISTACK, 0, STACK
        ARGFRAME PSTACK, 0, STACK
        ARGFRAME XSTACK, 39, STACK
        ARGFRAME IOVERLAY, 0, STATIC
        ARGFRAME DOVERLAY, 0, STATIC
        EXTERN ZDO_ParseEPListRsp
        FUNCTION ZDO_ParseEPListRsp,0202H
        ARGFRAME ISTACK, 0, STACK
        ARGFRAME PSTACK, 0, STACK
        ARGFRAME XSTACK, 39, STACK
        ARGFRAME IOVERLAY, 0, STATIC
        ARGFRAME DOVERLAY, 0, STATIC
        EXTERN ZDO_RegisterForZDOMsg
        FUNCTION ZDO_RegisterForZDOMsg,0202H
        ARGFRAME ISTACK, 0, STACK
        ARGFRAME PSTACK, 0, STACK
        ARGFRAME XSTACK, 9, STACK
        ARGFRAME IOVERLAY, 0, STATIC
        ARGFRAME DOVERLAY, 0, STATIC
        EXTERN ZDP_EndDeviceBindReq
        FUNCTION ZDP_EndDeviceBindReq,0202H
        ARGFRAME ISTACK, 0, STACK
        ARGFRAME PSTACK, 0, STACK
        ARGFRAME XSTACK, 30, STACK
        ARGFRAME IOVERLAY, 0, STATIC
        ARGFRAME DOVERLAY, 0, STATIC
        EXTERN ZDP_MatchDescReq
        FUNCTION ZDP_MatchDescReq,0202H
        ARGFRAME ISTACK, 0, STACK
        ARGFRAME PSTACK, 0, STACK
        ARGFRAME XSTACK, 29, STACK
        ARGFRAME IOVERLAY, 0, STATIC
        ARGFRAME DOVERLAY, 0, STATIC
        EXTERN _NIB
        EXTERN abs
        FUNCTION abs,010202H
        ARGFRAME ISTACK, 0, STACK
        ARGFRAME PSTACK, 0, STACK
        ARGFRAME XSTACK, 16, STACK
        ARGFRAME IOVERLAY, 0, STATIC
        ARGFRAME DOVERLAY, 0, STATIC
        EXTERN afRegister
        FUNCTION afRegister,0202H
        ARGFRAME ISTACK, 0, STACK
        ARGFRAME PSTACK, 0, STACK
        ARGFRAME XSTACK, 9, STACK
        ARGFRAME IOVERLAY, 0, STATIC
        ARGFRAME DOVERLAY, 0, STATIC
        EXTERN devState
        EXTERN join_device_extaddr
        EXTERN osal_getClock
        FUNCTION osal_getClock,0202H
        ARGFRAME ISTACK, 0, STACK
        ARGFRAME PSTACK, 0, STACK
        ARGFRAME XSTACK, 16, STACK
        ARGFRAME IOVERLAY, 0, STATIC
        ARGFRAME DOVERLAY, 0, STATIC
        EXTERN osal_mem_alloc
        FUNCTION osal_mem_alloc,0202H
        ARGFRAME ISTACK, 0, STACK
        ARGFRAME PSTACK, 0, STACK
        ARGFRAME XSTACK, 39, STACK
        ARGFRAME IOVERLAY, 0, STATIC
        ARGFRAME DOVERLAY, 0, STATIC
        EXTERN osal_mem_free
        FUNCTION osal_mem_free,0202H
        ARGFRAME ISTACK, 0, STACK
        ARGFRAME PSTACK, 0, STACK
        ARGFRAME XSTACK, 39, STACK
        ARGFRAME IOVERLAY, 0, STATIC
        ARGFRAME DOVERLAY, 0, STATIC
        EXTERN osal_memcmp
        FUNCTION osal_memcmp,0202H
        ARGFRAME ISTACK, 0, STACK
        ARGFRAME PSTACK, 0, STACK
        ARGFRAME XSTACK, 26, STACK
        ARGFRAME IOVERLAY, 0, STATIC
        ARGFRAME DOVERLAY, 0, STATIC
        EXTERN osal_memcpy
        FUNCTION osal_memcpy,0202H
        ARGFRAME ISTACK, 0, STACK
        ARGFRAME PSTACK, 0, STACK
        ARGFRAME XSTACK, 221, STACK
        ARGFRAME IOVERLAY, 0, STATIC
        ARGFRAME DOVERLAY, 0, STATIC
        EXTERN osal_memset
        FUNCTION osal_memset,0202H
        ARGFRAME ISTACK, 0, STACK
        ARGFRAME PSTACK, 0, STACK
        ARGFRAME XSTACK, 127, STACK
        ARGFRAME IOVERLAY, 0, STATIC
        ARGFRAME DOVERLAY, 0, STATIC
        EXTERN osal_msg_allocate
        FUNCTION osal_msg_allocate,0202H
        ARGFRAME ISTACK, 0, STACK
        ARGFRAME PSTACK, 0, STACK
        ARGFRAME XSTACK, 218, STACK
        ARGFRAME IOVERLAY, 0, STATIC
        ARGFRAME DOVERLAY, 0, STATIC
        EXTERN osal_msg_deallocate
        FUNCTION osal_msg_deallocate,0202H
        ARGFRAME ISTACK, 0, STACK
        ARGFRAME PSTACK, 0, STACK
        ARGFRAME XSTACK, 218, STACK
        ARGFRAME IOVERLAY, 0, STATIC
        ARGFRAME DOVERLAY, 0, STATIC
        EXTERN osal_msg_receive
        FUNCTION osal_msg_receive,0202H
        ARGFRAME ISTACK, 0, STACK
        ARGFRAME PSTACK, 0, STACK
        ARGFRAME XSTACK, 24, STACK
        ARGFRAME IOVERLAY, 0, STATIC
        ARGFRAME DOVERLAY, 0, STATIC
        EXTERN osal_start_timerEx
        FUNCTION osal_start_timerEx,0202H
        ARGFRAME ISTACK, 2, STACK
        ARGFRAME PSTACK, 0, STACK
        ARGFRAME XSTACK, 28, STACK
        ARGFRAME IOVERLAY, 0, STATIC
        ARGFRAME DOVERLAY, 0, STATIC
        EXTERN osal_stop_timerEx
        FUNCTION osal_stop_timerEx,0202H
        ARGFRAME ISTACK, 0, STACK
        ARGFRAME PSTACK, 0, STACK
        ARGFRAME XSTACK, 24, STACK
        ARGFRAME IOVERLAY, 0, STATIC
        ARGFRAME DOVERLAY, 0, STATIC
        EXTERN osal_strlen
        FUNCTION osal_strlen,0202H
        ARGFRAME ISTACK, 0, STACK
        ARGFRAME PSTACK, 0, STACK
        ARGFRAME XSTACK, 24, STACK
        ARGFRAME IOVERLAY, 0, STATIC
        ARGFRAME DOVERLAY, 0, STATIC
        EXTERN sAddrExtCmp
        FUNCTION sAddrExtCmp,0202H
        ARGFRAME ISTACK, 0, STACK
        ARGFRAME PSTACK, 0, STACK
        ARGFRAME XSTACK, 10, STACK
        ARGFRAME IOVERLAY, 0, STATIC
        ARGFRAME DOVERLAY, 0, STATIC
        EXTERN zdo_join_device
        EXTERN zgConfigPANID

// C:\Texas Instruments\Z-Stack Mesh 1.0.0_chaokw_20160317\Z-Stack Mesh 1.0.0_chaokw_20160316\Z-Stack Mesh 1.0.0_LCDOK\Z-Stack Mesh 1.0.0\Projects\zstack\Samples\GenericApp\Source\GenericApp.c
//    1 /******************************************************************************
//    2   Filename:       GenericApp.c
//    3   Revised:        $Date: 2014-09-07 13:36:30 -0700 (Sun, 07 Sep 2014) $
//    4   Revision:       $Revision: 40046 $
//    5 
//    6   Description:    Generic Application (no Profile).
//    7 
//    8 
//    9   Copyright 2004-2014 Texas Instruments Incorporated. All rights reserved.
//   10 
//   11   IMPORTANT: Your use of this Software is limited to those specific rights
//   12   granted under the terms of a software license agreement between the user
//   13   who downloaded the software, his/her employer (which must be your employer)
//   14   and Texas Instruments Incorporated (the "License"). You may not use this
//   15   Software unless you agree to abide by the terms of the License. The License
//   16   limits your use, and you acknowledge, that the Software may not be modified,
//   17   copied or distributed unless embedded on a Texas Instruments microcontroller
//   18   or used solely and exclusively in conjunction with a Texas Instruments radio
//   19   frequency transceiver, which is integrated into your product. Other than for
//   20   the foregoing purpose, you may not use, reproduce, copy, prepare derivative
//   21   works of, modify, distribute, perform, display or sell this Software and/or
//   22   its documentation for any purpose.
//   23 
//   24   YOU FURTHER ACKNOWLEDGE AND AGREE THAT THE SOFTWARE AND DOCUMENTATION ARE
//   25   PROVIDED AS IS WITHOUT WARRANTY OF ANY KIND, EITHER EXPRESS OR IMPLIED,
//   26   INCLUDING WITHOUT LIMITATION, ANY WARRANTY OF MERCHANTABILITY, TITLE,
//   27   NON-INFRINGEMENT AND FITNESS FOR A PARTICULAR PURPOSE. IN NO EVENT SHALL
//   28   TEXAS INSTRUMENTS OR ITS LICENSORS BE LIABLE OR OBLIGATED UNDER CONTRACT,
//   29   NEGLIGENCE, STRICT LIABILITY, CONTRIBUTION, BREACH OF WARRANTY, OR OTHER
//   30   LEGAL EQUITABLE THEORY ANY DIRECT OR INDIRECT DAMAGES OR EXPENSES
//   31   INCLUDING BUT NOT LIMITED TO ANY INCIDENTAL, SPECIAL, INDIRECT, PUNITIVE
//   32   OR CONSEQUENTIAL DAMAGES, LOST PROFITS OR LOST DATA, COST OF PROCUREMENT
//   33   OF SUBSTITUTE GOODS, TECHNOLOGY, SERVICES, OR ANY CLAIMS BY THIRD PARTIES
//   34   (INCLUDING BUT NOT LIMITED TO ANY DEFENSE THEREOF), OR OTHER SIMILAR COSTS.
//   35 
//   36   Should you have any questions regarding your right to use this Software,
//   37   contact Texas Instruments Incorporated at www.TI.com.
//   38 ******************************************************************************/
//   39 
//   40 /*********************************************************************
//   41   This application isn't intended to do anything useful - it is
//   42   intended to be a simple example of an application's structure.
//   43 
//   44   This application periodically sends a "Hello World" message to
//   45   another "Generic" application (see 'txMsgDelay'). The application
//   46   will also receive "Hello World" packets.
//   47 
//   48   This application doesn't have a profile, so it handles everything
//   49   directly - by itself.
//   50 
//   51   Key control:
//   52     SW1:  changes the delay between TX packets
//   53     SW2:  initiates end device binding
//   54     SW3:
//   55     SW4:  initiates a match description request
//   56 *********************************************************************/
//   57 
//   58 /*********************************************************************
//   59  * INCLUDES
//   60  */
//   61 #include "OSAL.h"
//   62 #include "AF.h"
//   63 #include "ZDApp.h"
//   64 #include "ZDObject.h"
//   65 #include "ZDProfile.h"
//   66 
//   67 #include "GenericApp.h"
//   68 #include "DebugTrace.h"
//   69 
//   70 #if !defined( WIN32 ) || defined( ZBIT )
//   71   #include "OnBoard.h"
//   72 #endif
//   73 
//   74 /* HAL */
//   75 #include "hal_lcd.h"
//   76 #include "hal_led.h"
//   77 #include "hal_key.h"
//   78 #include "hal_uart.h"
//   79 
//   80 #include "MT_UART.h"
//   81 #include "OSAL_Clock.h"
//   82 
//   83 #include "ZDSecMgr.h"
//   84 #include "ProtocolHandler.h"
//   85 #include "NodeAuth.h"
//   86 
//   87 #include "stdlib.h"
//   88 
//   89 /* RTOS */
//   90 #if defined( IAR_ARMCM3_LM )
//   91 #include "RTOS_App.h"
//   92 #endif
//   93 
//   94 /*********************************************************************
//   95  * MACROS
//   96  */
//   97 
//   98 /*********************************************************************
//   99  * CONSTANTS
//  100  */
//  101 
//  102 /*********************************************************************
//  103  * TYPEDEFS
//  104  */
//  105 
//  106 /*********************************************************************
//  107  * GLOBAL VARIABLES
//  108  */
//  109 // This list should be filled with Application specific Cluster IDs.

        RSEG XDATA_ROM_C:CONST:REORDER:NOROOT(0)
        DATA8
//  110 const cId_t GenericApp_ClusterList[GENERICAPP_MAX_CLUSTERS] =
GenericApp_ClusterList:
        DATA16
        DW 1
        DW 2
        DW 3
        DW 4
        DW 5
        DW 6
        DW 7
//  111 {
//  112   GENERICAPP_CLUSTERID,					  
//  113   GENERICAPP_DATA_P2P_CLUSTERID, 		  
//  114   GENERICAPP_GROUP_CLUSTERID,		  
//  115   GENERICAPP_CMD_P2P_CLUSTERID,			  
//  116   GENERICAPP_BROADCAST_CLUSTERID,
//  117   GENERICAPP_P2P_PERMIT_JOIN_REQ_CLUSTERID,
//  118   GENERICAPP_P2P_PERMIT_JOIN_RSP_CLUSTERID
//  119 };
//  120 

        RSEG XDATA_ROM_C:CONST:REORDER:NOROOT(0)
        DATA8
//  121 const SimpleDescriptionFormat_t GenericApp_SimpleDesc =
GenericApp_SimpleDesc:
        DB 10
        DATA16
        DW 3844
        DW 1
        DATA8
        DB 0
        DB 7
        DATA16
        DW GenericApp_ClusterList
        DATA8
        DB 7
        DATA16
        DW GenericApp_ClusterList
//  122 {
//  123   GENERICAPP_ENDPOINT,              //  int Endpoint;
//  124   GENERICAPP_PROFID,                //  uint16 AppProfId[2];
//  125   GENERICAPP_DEVICEID,              //  uint16 AppDeviceId[2];
//  126   GENERICAPP_DEVICE_VERSION,        //  int   AppDevVer:4;
//  127   GENERICAPP_FLAGS,                 //  int   AppFlags:4;
//  128   GENERICAPP_MAX_CLUSTERS,          //  byte  AppNumInClusters;
//  129   (cId_t *)GenericApp_ClusterList,  //  byte *pAppInClusterList;
//  130   GENERICAPP_MAX_CLUSTERS,          //  byte  AppNumInClusters;
//  131   (cId_t *)GenericApp_ClusterList   //  byte *pAppInClusterList;
//  132 };
//  133 
//  134 // This is the Endpoint/Interface description.  It is defined here, but
//  135 // filled-in in GenericApp_Init().  Another way to go would be to fill
//  136 // in the structure here and make it a "const" (in code space).  The
//  137 // way it's defined in this sample app it is define in RAM.

        RSEG XDATA_Z:XDATA:NOROOT(0)
        DATA8
//  138 endPointDesc_t GenericApp_epDesc;
GenericApp_epDesc:
        DS 6
        REQUIRE __INIT_XDATA_Z
//  139 
//  140 

        RSEG XDATA_Z:XDATA:NOROOT(0)
        DATA16
//  141 nodeList_t *nodeList = NULL;
nodeList:
        DS 2
        REQUIRE __INIT_XDATA_Z
//  142 
//  143 
//  144 
//  145 /*********************************************************************
//  146  * EXTERNAL VARIABLES
//  147  */
//  148 
//  149 /*********************************************************************
//  150  * EXTERNAL FUNCTIONS
//  151  */
//  152 
//  153 /*********************************************************************
//  154  * LOCAL VARIABLES
//  155  */

        RSEG XDATA_Z:XDATA:NOROOT(0)
        DATA8
//  156 byte GenericApp_TaskID;   // Task ID for internal task/event processing
GenericApp_TaskID:
        DS 1
        REQUIRE __INIT_XDATA_Z
//  157                           // This variable will be received when
//  158                           // GenericApp_Init() is called.
//  159 

        RSEG XDATA_Z:XDATA:NOROOT(0)
        DATA8
//  160 devStates_t GenericApp_NwkState;
GenericApp_NwkState:
        DS 1
        REQUIRE __INIT_XDATA_Z
//  161 

        RSEG XDATA_Z:XDATA:NOROOT(0)
        DATA8
//  162 byte GenericApp_TransID;  // This is the unique message ID (counter)
GenericApp_TransID:
        DS 1
        REQUIRE __INIT_XDATA_Z
//  163 

        RSEG XDATA_Z:XDATA:NOROOT(0)
        DATA8
//  164 afAddrType_t GenericApp_DstAddr;
GenericApp_DstAddr:
        DS 12
        REQUIRE __INIT_XDATA_Z

        RSEG XDATA_Z:XDATA:NOROOT(0)
        DATA8
//  165 afAddrType_t SerialApp_TxAddr_broadcast;
SerialApp_TxAddr_broadcast:
        DS 12
        REQUIRE __INIT_XDATA_Z

        RSEG XDATA_Z:XDATA:NOROOT(0)
        DATA8
//  166 afAddrType_t SerialApp_TxAddr_group;
SerialApp_TxAddr_group:
        DS 12
        REQUIRE __INIT_XDATA_Z

        RSEG XDATA_Z:XDATA:NOROOT(0)
        DATA8
//  167 afAddrType_t SerialApp_TxAddr_p2p;
SerialApp_TxAddr_p2p:
        DS 12
        REQUIRE __INIT_XDATA_Z
//  168 
//  169 

        RSEG XDATA_Z:XDATA:NOROOT(0)
        DATA8
//  170 uint8 ping_result;
ping_result:
        DS 1
        REQUIRE __INIT_XDATA_Z

        RSEG XDATA_Z:XDATA:NOROOT(0)
        DATA8
//  171 uint8 ping_error_cnt;
ping_error_cnt:
        DS 1
        REQUIRE __INIT_XDATA_Z
//  172 

        RSEG XDATA_Z:XDATA:NOROOT(0)
        DATA8
//  173 uint8 zc_online_report_cnt =0;
zc_online_report_cnt:
        DS 1
        REQUIRE __INIT_XDATA_Z

        RSEG XDATA_Z:XDATA:NOROOT(0)
        DATA8
//  174 uint8 zr_online_report_cnt =0;
zr_online_report_cnt:
        DS 1
        REQUIRE __INIT_XDATA_Z
//  175 
//  176 
//  177 // Number of recieved messages

        RSEG XDATA_Z:XDATA:NOROOT(0)
        DATA16
//  178 static uint16 rxMsgCount;
rxMsgCount:
        DS 2
        REQUIRE __INIT_XDATA_Z
//  179 
//  180 #if defined( LCD_SUPPORTED )		

        RSEG XDATA_Z:XDATA:NOROOT(0)
        DATA16
//  181 static uint16 askWhiteListCount;   //chaokw panid
askWhiteListCount:
        DS 2
        REQUIRE __INIT_XDATA_Z
//  182 #endif
//  183 
//  184 // Time interval between sending messages

        RSEG XDATA_I:XDATA:NOROOT(0)
//  185 static uint32 txMsgDelay = GENERICAPP_SEND_MSG_TIMEOUT;
txMsgDelay:
        DATA32
        DS 4
        REQUIRE `?<Initializer for txMsgDelay>`
        REQUIRE __INIT_XDATA_I
//  186 

        RSEG XDATA_I:XDATA:NOROOT(0)
//  187 const uint8* fw_version = ZIGBEE_FW_VERSION;
fw_version:
        DATA16
        DS 2
        REQUIRE `?<Initializer for fw_version>`
        REQUIRE __INIT_XDATA_I
//  188 

        RSEG XDATA_Z:XDATA:NOROOT(0)
        DATA8
//  189 uint8 transfer_join_times = 0;  //chaokw
transfer_join_times:
        DS 1
        REQUIRE __INIT_XDATA_Z
//  190 
//  191 #if( ZSTACK_DEVICE_BUILD != DEVICE_BUILD_COORDINATOR)		

        RSEG XDATA_Z:XDATA:NOROOT(0)
        DATA32
//  192 uint32 pingRspTime = 0;   //chaokw ping
pingRspTime:
        DS 4
        REQUIRE __INIT_XDATA_Z
//  193 #endif
//  194 
//  195 /*********************************************************************
//  196  * LOCAL FUNCTIONS
//  197  */
//  198 static void GenericApp_ProcessZDOMsgs( zdoIncomingMsg_t *inMsg );
//  199 static void GenericApp_HandleKeys( byte shift, byte keys );
//  200 static void GenericApp_MessageMSGCB( afIncomingMSGPacket_t *pckt );
//  201 static void GenericApp_SendTheMessage( void );
//  202 
//  203 #if defined( IAR_ARMCM3_LM )
//  204 static void GenericApp_ProcessRtosMessage( void );
//  205 #endif
//  206 
//  207 /*********************************************************************
//  208  * NETWORK LAYER CALLBACKS
//  209  */
//  210 
//  211 /*********************************************************************
//  212  * PUBLIC FUNCTIONS
//  213  */
//  214 
//  215 /*********************************************************************
//  216  * @fn      GenericApp_Init
//  217  *
//  218  * @brief   Initialization function for the Generic App Task.
//  219  *          This is called during initialization and should contain
//  220  *          any application specific initialization (ie. hardware
//  221  *          initialization/setup, table initialization, power up
//  222  *          notificaiton ... ).
//  223  *
//  224  * @param   task_id - the ID assigned by OSAL.  This ID should be
//  225  *                    used to send messages and set timers.
//  226  *
//  227  * @return  none
//  228  */

        RSEG BANKED_CODE:CODE:NOROOT(0)
//  229 void GenericApp_Init( uint8 task_id )
GenericApp_Init:
          CFI Block cfiBlock0 Using cfiCommon0
          CFI Function GenericApp_Init
        CODE
//  230 {
        FUNCALL GenericApp_Init, afRegister
        LOCFRAME ISTACK, 0, STACK
        LOCFRAME PSTACK, 0, STACK
        LOCFRAME XSTACK, 9, STACK
        LOCFRAME IOVERLAY, 0, STATIC
        LOCFRAME DOVERLAY, 0, STATIC
        ARGFRAME ISTACK, 0, STACK
        ARGFRAME PSTACK, 0, STACK
        ARGFRAME XSTACK, 9, STACK
        ARGFRAME IOVERLAY, 0, STATIC
        ARGFRAME DOVERLAY, 0, STATIC
        FUNCALL GenericApp_Init, RegisterForKeys
        LOCFRAME ISTACK, 0, STACK
        LOCFRAME PSTACK, 0, STACK
        LOCFRAME XSTACK, 9, STACK
        LOCFRAME IOVERLAY, 0, STATIC
        LOCFRAME DOVERLAY, 0, STATIC
        ARGFRAME ISTACK, 0, STACK
        ARGFRAME PSTACK, 0, STACK
        ARGFRAME XSTACK, 9, STACK
        ARGFRAME IOVERLAY, 0, STATIC
        ARGFRAME DOVERLAY, 0, STATIC
        FUNCALL GenericApp_Init, HalLcdWriteString
        LOCFRAME ISTACK, 0, STACK
        LOCFRAME PSTACK, 0, STACK
        LOCFRAME XSTACK, 9, STACK
        LOCFRAME IOVERLAY, 0, STATIC
        LOCFRAME DOVERLAY, 0, STATIC
        ARGFRAME ISTACK, 0, STACK
        ARGFRAME PSTACK, 0, STACK
        ARGFRAME XSTACK, 9, STACK
        ARGFRAME IOVERLAY, 0, STATIC
        ARGFRAME DOVERLAY, 0, STATIC
        FUNCALL GenericApp_Init, ZDO_RegisterForZDOMsg
        LOCFRAME ISTACK, 0, STACK
        LOCFRAME PSTACK, 0, STACK
        LOCFRAME XSTACK, 9, STACK
        LOCFRAME IOVERLAY, 0, STATIC
        LOCFRAME DOVERLAY, 0, STATIC
        ARGFRAME ISTACK, 0, STACK
        ARGFRAME PSTACK, 0, STACK
        ARGFRAME XSTACK, 9, STACK
        ARGFRAME IOVERLAY, 0, STATIC
        ARGFRAME DOVERLAY, 0, STATIC
        FUNCALL GenericApp_Init, ZDO_RegisterForZDOMsg
        LOCFRAME ISTACK, 0, STACK
        LOCFRAME PSTACK, 0, STACK
        LOCFRAME XSTACK, 9, STACK
        LOCFRAME IOVERLAY, 0, STATIC
        LOCFRAME DOVERLAY, 0, STATIC
        ARGFRAME ISTACK, 0, STACK
        ARGFRAME PSTACK, 0, STACK
        ARGFRAME XSTACK, 9, STACK
        ARGFRAME IOVERLAY, 0, STATIC
        ARGFRAME DOVERLAY, 0, STATIC
        FUNCALL GenericApp_Init, CustomApp_zigbee_start_ind
        LOCFRAME ISTACK, 0, STACK
        LOCFRAME PSTACK, 0, STACK
        LOCFRAME XSTACK, 9, STACK
        LOCFRAME IOVERLAY, 0, STATIC
        LOCFRAME DOVERLAY, 0, STATIC
        ARGFRAME ISTACK, 0, STACK
        ARGFRAME PSTACK, 0, STACK
        ARGFRAME XSTACK, 9, STACK
        ARGFRAME IOVERLAY, 0, STATIC
        ARGFRAME DOVERLAY, 0, STATIC
        FUNCALL GenericApp_Init, Register_Group_Multiway
        LOCFRAME ISTACK, 0, STACK
        LOCFRAME PSTACK, 0, STACK
        LOCFRAME XSTACK, 9, STACK
        LOCFRAME IOVERLAY, 0, STATIC
        LOCFRAME DOVERLAY, 0, STATIC
        ARGFRAME ISTACK, 0, STACK
        ARGFRAME PSTACK, 0, STACK
        ARGFRAME XSTACK, 9, STACK
        ARGFRAME IOVERLAY, 0, STATIC
        ARGFRAME DOVERLAY, 0, STATIC
        MOV     A,#-0x9
        LCALL   ?BANKED_ENTER_XDATA
          CFI DPH0 load(1, XDATA, add(CFA_XSP16, literal(-1)))
          CFI DPL0 load(1, XDATA, add(CFA_XSP16, literal(-2)))
          CFI ?BRET_EXT load(1, XDATA, add(CFA_XSP16, literal(-3)))
          CFI ?RET_HIGH load(1, XDATA, add(CFA_XSP16, literal(-4)))
          CFI ?RET_LOW load(1, XDATA, add(CFA_XSP16, literal(-5)))
          CFI R7 load(1, XDATA, add(CFA_XSP16, literal(-6)))
          CFI V0 load(1, XDATA, add(CFA_XSP16, literal(-7)))
          CFI VB load(1, XDATA, add(CFA_XSP16, literal(-8)))
          CFI R6 load(1, XDATA, add(CFA_XSP16, literal(-9)))
          CFI CFA_SP SP+0
          CFI CFA_XSP16 add(XSP16, 9)
        ; Saved register size: 9
        ; Auto size: 0
        MOV     A,R1
//  231   GenericApp_TaskID = task_id;
        MOV     DPTR,#GenericApp_TaskID
        MOVX    @DPTR,A
//  232   GenericApp_NwkState = DEV_INIT;
        MOV     DPTR,#GenericApp_NwkState
        MOV     A,#0x1
        MOVX    @DPTR,A
//  233   GenericApp_TransID = 0;
        MOV     DPTR,#GenericApp_TransID
        CLR     A
        MOVX    @DPTR,A
//  234 
//  235   // Device hardware initialization can be added here or in main() (Zmain.c).
//  236   // If the hardware is application specific - add it here.
//  237   // If the hardware is other parts of the device add it in main().
//  238 
//  239   GenericApp_DstAddr.addrMode = (afAddrMode_t)Addr16Bit;
        MOV     DPTR,#GenericApp_DstAddr + 8
        LCALL   ?Subroutine13 & 0xFFFF
//  240   GenericApp_DstAddr.endPoint = GENERICAPP_ENDPOINT;
//  241   GenericApp_DstAddr.addr.shortAddr = 0;
??CrossCallReturnLabel_76:
        MOV     DPTR,#GenericApp_DstAddr
        CLR     A
        MOVX    @DPTR,A
        INC     DPTR
        MOVX    @DPTR,A
//  242 
//  243   // Fill out the endpoint description.
//  244   GenericApp_epDesc.endPoint = GENERICAPP_ENDPOINT;
        MOV     DPTR,#GenericApp_epDesc
        MOV     A,#0xa
        MOVX    @DPTR,A
//  245   GenericApp_epDesc.task_id = &GenericApp_TaskID;
        INC     DPTR
        MOV     A,#GenericApp_TaskID & 0xff
        MOVX    @DPTR,A
        INC     DPTR
        MOV     A,#(GenericApp_TaskID >> 8) & 0xff
        MOVX    @DPTR,A
//  246   GenericApp_epDesc.simpleDesc
//  247             = (SimpleDescriptionFormat_t *)&GenericApp_SimpleDesc;
        INC     DPTR
        MOV     A,#GenericApp_SimpleDesc & 0xff
        MOVX    @DPTR,A
        INC     DPTR
        MOV     A,#(GenericApp_SimpleDesc >> 8) & 0xff
        MOVX    @DPTR,A
//  248   GenericApp_epDesc.latencyReq = noLatencyReqs;
        INC     DPTR
        CLR     A
        MOVX    @DPTR,A
//  249 
//  250 
//  251     //broadcast to everyone
//  252     SerialApp_TxAddr_broadcast.addrMode = (afAddrMode_t)AddrBroadcast;
        MOV     DPTR,#SerialApp_TxAddr_broadcast + 8
        MOV     A,#0xf
        LCALL   ??Subroutine45_0 & 0xFFFF
//  253     SerialApp_TxAddr_broadcast.endPoint = GENERICAPP_ENDPOINT;
//  254     SerialApp_TxAddr_broadcast.addr.shortAddr = 0xFFFF;
??CrossCallReturnLabel_78:
        MOV     DPTR,#SerialApp_TxAddr_broadcast
        MOV     A,#-0x1
        MOVX    @DPTR,A
        INC     DPTR
        MOVX    @DPTR,A
//  255 
//  256     //send to group
//  257     SerialApp_TxAddr_group.addrMode = (afAddrMode_t)AddrGroup;
        MOV     DPTR,#SerialApp_TxAddr_group + 8
        MOV     A,#0x1
        LCALL   ??Subroutine45_0 & 0xFFFF
//  258     SerialApp_TxAddr_group.endPoint = GENERICAPP_ENDPOINT;
//  259     SerialApp_TxAddr_group.addr.shortAddr = 0x0000;
??CrossCallReturnLabel_79:
        MOV     DPTR,#SerialApp_TxAddr_group
        CLR     A
        MOVX    @DPTR,A
        INC     DPTR
        MOVX    @DPTR,A
//  260 	
//  261     //point  to point
//  262     SerialApp_TxAddr_p2p.addrMode = (afAddrMode_t)Addr16Bit;
        MOV     DPTR,#SerialApp_TxAddr_p2p + 8
        LCALL   ?Subroutine13 & 0xFFFF
//  263     SerialApp_TxAddr_p2p.endPoint = GENERICAPP_ENDPOINT;
//  264     SerialApp_TxAddr_p2p.addr.shortAddr = 0x0000;
??CrossCallReturnLabel_77:
        MOV     DPTR,#SerialApp_TxAddr_p2p
        CLR     A
        MOVX    @DPTR,A
        INC     DPTR
        MOVX    @DPTR,A
//  265 
//  266 
//  267   // Register the endpoint description with the AF
//  268   afRegister( &GenericApp_epDesc );
        ; Setup parameters for call to function afRegister
        MOV     R2,#GenericApp_epDesc & 0xff
        MOV     R3,#(GenericApp_epDesc >> 8) & 0xff
        LCALL   `??afRegister::?relay`; Banked call to: afRegister
//  269 
//  270   // Register for all key events - This app will handle all key events
//  271   RegisterForKeys( GenericApp_TaskID );
        ; Setup parameters for call to function RegisterForKeys
        MOV     DPTR,#GenericApp_TaskID
        MOVX    A,@DPTR
        MOV     R1,A
        LCALL   `??RegisterForKeys::?relay`; Banked call to: RegisterForKeys
//  272 
//  273   // Update the display
//  274 #if defined ( LCD_SUPPORTED )
//  275   HalLcdWriteString( "GenericApp", HAL_LCD_LINE_1 );
        ; Setup parameters for call to function HalLcdWriteString
        MOV     R1,#0x1
        MOV     R2,#`?<Constant "GenericApp">` & 0xff
        MOV     R3,#(`?<Constant "GenericApp">` >> 8) & 0xff
        LCALL   `??HalLcdWriteString::?relay`; Banked call to: HalLcdWriteString
//  276 #endif
//  277 
//  278   ZDO_RegisterForZDOMsg( GenericApp_TaskID, End_Device_Bind_rsp );
        ; Setup parameters for call to function ZDO_RegisterForZDOMsg
        MOV     R2,#0x20
        MOV     R3,#-0x80
        MOV     DPTR,#GenericApp_TaskID
        MOVX    A,@DPTR
        MOV     R1,A
        LCALL   `??ZDO_RegisterForZDOMsg::?relay`; Banked call to: ZDO_RegisterForZDOMsg
//  279   ZDO_RegisterForZDOMsg( GenericApp_TaskID, Match_Desc_rsp );
        ; Setup parameters for call to function ZDO_RegisterForZDOMsg
        MOV     R2,#0x6
        MOV     R3,#-0x80
        MOV     DPTR,#GenericApp_TaskID
        MOVX    A,@DPTR
        MOV     R1,A
        LCALL   `??ZDO_RegisterForZDOMsg::?relay`; Banked call to: ZDO_RegisterForZDOMsg
//  280   
//  281 #if( ZSTACK_DEVICE_BUILD == DEVICE_BUILD_COORDINATOR)
//  282     ZDO_RegisterForZDOMsg( GenericApp_TaskID, Device_annce );  //chaokw
//  283 #endif 
//  284 
//  285 
//  286 #if defined( IAR_ARMCM3_LM )
//  287   // Register this task with RTOS task initiator
//  288   RTOS_RegisterApp( task_id, GENERICAPP_RTOS_MSG_EVT );
//  289 #endif
//  290 
//  291     CustomApp_zigbee_start_ind(); //chaokw lucis	
        ; Setup parameters for call to function CustomApp_zigbee_start_ind
        LCALL   `??CustomApp_zigbee_start_ind::?relay`; Banked call to: CustomApp_zigbee_start_ind
//  292 
//  293 #if( ZSTACK_DEVICE_BUILD != DEVICE_BUILD_COORDINATOR)	
//  294     Register_Group_Multiway();
        ; Setup parameters for call to function Register_Group_Multiway
        LCALL   `??Register_Group_Multiway::?relay`; Banked call to: Register_Group_Multiway
//  295 #endif
//  296     
//  297 #if( ZSTACK_DEVICE_BUILD == DEVICE_BUILD_COORDINATOR)
//  298     CustomApp_loadstatus_ind();
//  299     CustomApp_linkstatus_init();   //chaokw debug
//  300 
//  301 
//  302     //CustomApp_coordinater_broadcast_ping();
//  303 	
//  304 #if  NODE_AUTH 	
//  305     Node_auth_init();
//  306 #endif    
//  307 #endif    
//  308 
//  309 #if defined( ZDO_COORDINATOR ) && defined( WIFI_FREQUENCY_SELECT )
//  310     //CustomApp_WifiChannelReq();
//  311 #endif
//  312 
//  313 #ifdef WDT_IN_PM1
//  314   osal_start_timerEx( GenericApp_TaskID,
//  315                       GENERICAPP_FEED_DOG_EVT,
//  316                       GENERICAPP_FEED_DOG_TIME_MAX);
//  317 #endif
//  318 
//  319 }
          CFI EndBlock cfiBlock0
        REQUIRE ?Subroutine0
        ; // Fall through to label ?Subroutine0

        RSEG BANKED_CODE:CODE:NOROOT(0)
?Subroutine0:
          CFI Block cfiBlock1 Using cfiCommon0
          CFI NoFunction
          CFI CFA_SP SP+0
          CFI CFA_XSP16 add(XSP16, 9)
          CFI VB load(1, XDATA, add(CFA_XSP16, literal(-8)))
          CFI DPL0 load(1, XDATA, add(CFA_XSP16, literal(-2)))
          CFI DPH0 load(1, XDATA, add(CFA_XSP16, literal(-1)))
          CFI R6 load(1, XDATA, add(CFA_XSP16, literal(-9)))
          CFI R7 load(1, XDATA, add(CFA_XSP16, literal(-6)))
          CFI V0 load(1, XDATA, add(CFA_XSP16, literal(-7)))
          CFI ?BRET_EXT load(1, XDATA, add(CFA_XSP16, literal(-3)))
          CFI ?RET_HIGH load(1, XDATA, add(CFA_XSP16, literal(-4)))
          CFI ?RET_LOW load(1, XDATA, add(CFA_XSP16, literal(-5)))
        MOV     R7,#0x1
        LJMP    ?BANKED_LEAVE_XDATA
          CFI EndBlock cfiBlock1

        RSEG BANKED_CODE:CODE:NOROOT(0)
?Subroutine13:
          CFI Block cfiCond2 Using cfiCommon0
          CFI Function GenericApp_Init
          CFI Conditional ??CrossCallReturnLabel_76
          CFI R6 load(1, XDATA, add(CFA_XSP16, literal(-9)))
          CFI VB load(1, XDATA, add(CFA_XSP16, literal(-8)))
          CFI V0 load(1, XDATA, add(CFA_XSP16, literal(-7)))
          CFI R7 load(1, XDATA, add(CFA_XSP16, literal(-6)))
          CFI ?RET_LOW load(1, XDATA, add(CFA_XSP16, literal(-5)))
          CFI ?RET_HIGH load(1, XDATA, add(CFA_XSP16, literal(-4)))
          CFI ?BRET_EXT load(1, XDATA, add(CFA_XSP16, literal(-3)))
          CFI DPL0 load(1, XDATA, add(CFA_XSP16, literal(-2)))
          CFI DPH0 load(1, XDATA, add(CFA_XSP16, literal(-1)))
          CFI CFA_SP SP+-2
          CFI CFA_XSP16 add(XSP16, 9)
          CFI Block cfiCond3 Using cfiCommon0
          CFI (cfiCond3) Function GenericApp_Init
          CFI (cfiCond3) Conditional ??CrossCallReturnLabel_77
          CFI (cfiCond3) R6 load(1, XDATA, add(CFA_XSP16, literal(-9)))
          CFI (cfiCond3) VB load(1, XDATA, add(CFA_XSP16, literal(-8)))
          CFI (cfiCond3) V0 load(1, XDATA, add(CFA_XSP16, literal(-7)))
          CFI (cfiCond3) R7 load(1, XDATA, add(CFA_XSP16, literal(-6)))
          CFI (cfiCond3) ?RET_LOW load(1, XDATA, add(CFA_XSP16, literal(-5)))
          CFI (cfiCond3) ?RET_HIGH load(1, XDATA, add(CFA_XSP16, literal(-4)))
          CFI (cfiCond3) ?BRET_EXT load(1, XDATA, add(CFA_XSP16, literal(-3)))
          CFI (cfiCond3) DPL0 load(1, XDATA, add(CFA_XSP16, literal(-2)))
          CFI (cfiCond3) DPH0 load(1, XDATA, add(CFA_XSP16, literal(-1)))
          CFI (cfiCond3) CFA_SP SP+-2
          CFI (cfiCond3) CFA_XSP16 add(XSP16, 9)
          CFI Block cfiPicker4 Using cfiCommon1
          CFI (cfiPicker4) NoFunction
          CFI (cfiPicker4) Picker
        MOV     A,#0x2
          CFI EndBlock cfiCond2
          CFI EndBlock cfiCond3
          CFI EndBlock cfiPicker4
        REQUIRE ??Subroutine45_0
        ; // Fall through to label ??Subroutine45_0

        RSEG BANKED_CODE:CODE:NOROOT(0)
??Subroutine45_0:
          CFI Block cfiCond5 Using cfiCommon0
          CFI Function GenericApp_Init
          CFI Conditional ??CrossCallReturnLabel_78
          CFI R6 load(1, XDATA, add(CFA_XSP16, literal(-9)))
          CFI VB load(1, XDATA, add(CFA_XSP16, literal(-8)))
          CFI V0 load(1, XDATA, add(CFA_XSP16, literal(-7)))
          CFI R7 load(1, XDATA, add(CFA_XSP16, literal(-6)))
          CFI ?RET_LOW load(1, XDATA, add(CFA_XSP16, literal(-5)))
          CFI ?RET_HIGH load(1, XDATA, add(CFA_XSP16, literal(-4)))
          CFI ?BRET_EXT load(1, XDATA, add(CFA_XSP16, literal(-3)))
          CFI DPL0 load(1, XDATA, add(CFA_XSP16, literal(-2)))
          CFI DPH0 load(1, XDATA, add(CFA_XSP16, literal(-1)))
          CFI CFA_SP SP+-2
          CFI CFA_XSP16 add(XSP16, 9)
          CFI Block cfiCond6 Using cfiCommon0
          CFI (cfiCond6) Function GenericApp_Init
          CFI (cfiCond6) Conditional ??CrossCallReturnLabel_79
          CFI (cfiCond6) R6 load(1, XDATA, add(CFA_XSP16, literal(-9)))
          CFI (cfiCond6) VB load(1, XDATA, add(CFA_XSP16, literal(-8)))
          CFI (cfiCond6) V0 load(1, XDATA, add(CFA_XSP16, literal(-7)))
          CFI (cfiCond6) R7 load(1, XDATA, add(CFA_XSP16, literal(-6)))
          CFI (cfiCond6) ?RET_LOW load(1, XDATA, add(CFA_XSP16, literal(-5)))
          CFI (cfiCond6) ?RET_HIGH load(1, XDATA, add(CFA_XSP16, literal(-4)))
          CFI (cfiCond6) ?BRET_EXT load(1, XDATA, add(CFA_XSP16, literal(-3)))
          CFI (cfiCond6) DPL0 load(1, XDATA, add(CFA_XSP16, literal(-2)))
          CFI (cfiCond6) DPH0 load(1, XDATA, add(CFA_XSP16, literal(-1)))
          CFI (cfiCond6) CFA_SP SP+-2
          CFI (cfiCond6) CFA_XSP16 add(XSP16, 9)
          CFI Block cfiCond7 Using cfiCommon0
          CFI (cfiCond7) Function GenericApp_Init
          CFI (cfiCond7) Conditional ??CrossCallReturnLabel_76
          CFI (cfiCond7) R6 load(1, XDATA, add(CFA_XSP16, literal(-9)))
          CFI (cfiCond7) VB load(1, XDATA, add(CFA_XSP16, literal(-8)))
          CFI (cfiCond7) V0 load(1, XDATA, add(CFA_XSP16, literal(-7)))
          CFI (cfiCond7) R7 load(1, XDATA, add(CFA_XSP16, literal(-6)))
          CFI (cfiCond7) ?RET_LOW load(1, XDATA, add(CFA_XSP16, literal(-5)))
          CFI (cfiCond7) ?RET_HIGH load(1, XDATA, add(CFA_XSP16, literal(-4)))
          CFI (cfiCond7) ?BRET_EXT load(1, XDATA, add(CFA_XSP16, literal(-3)))
          CFI (cfiCond7) DPL0 load(1, XDATA, add(CFA_XSP16, literal(-2)))
          CFI (cfiCond7) DPH0 load(1, XDATA, add(CFA_XSP16, literal(-1)))
          CFI (cfiCond7) CFA_SP SP+-2
          CFI (cfiCond7) CFA_XSP16 add(XSP16, 9)
          CFI Block cfiCond8 Using cfiCommon0
          CFI (cfiCond8) Function GenericApp_Init
          CFI (cfiCond8) Conditional ??CrossCallReturnLabel_77
          CFI (cfiCond8) R6 load(1, XDATA, add(CFA_XSP16, literal(-9)))
          CFI (cfiCond8) VB load(1, XDATA, add(CFA_XSP16, literal(-8)))
          CFI (cfiCond8) V0 load(1, XDATA, add(CFA_XSP16, literal(-7)))
          CFI (cfiCond8) R7 load(1, XDATA, add(CFA_XSP16, literal(-6)))
          CFI (cfiCond8) ?RET_LOW load(1, XDATA, add(CFA_XSP16, literal(-5)))
          CFI (cfiCond8) ?RET_HIGH load(1, XDATA, add(CFA_XSP16, literal(-4)))
          CFI (cfiCond8) ?BRET_EXT load(1, XDATA, add(CFA_XSP16, literal(-3)))
          CFI (cfiCond8) DPL0 load(1, XDATA, add(CFA_XSP16, literal(-2)))
          CFI (cfiCond8) DPH0 load(1, XDATA, add(CFA_XSP16, literal(-1)))
          CFI (cfiCond8) CFA_SP SP+-2
          CFI (cfiCond8) CFA_XSP16 add(XSP16, 9)
          CFI Block cfiPicker9 Using cfiCommon1
          CFI (cfiPicker9) NoFunction
          CFI (cfiPicker9) Picker
        MOVX    @DPTR,A
        INC     DPTR
        MOV     A,#0xa
        MOVX    @DPTR,A
        RET
          CFI EndBlock cfiCond5
          CFI EndBlock cfiCond6
          CFI EndBlock cfiCond7
          CFI EndBlock cfiCond8
          CFI EndBlock cfiPicker9
//  320 
//  321 /*********************************************************************
//  322  * @fn      GenericApp_ProcessEvent
//  323  *
//  324  * @brief   Generic Application Task event processor.  This function
//  325  *          is called to process all events for the task.  Events
//  326  *          include timers, messages and any other user defined events.
//  327  *
//  328  * @param   task_id  - The OSAL assigned task ID.
//  329  * @param   events - events to process.  This is a bit map and can
//  330  *                   contain more than one event.
//  331  *
//  332  * @return  none
//  333  */

        RSEG BANKED_CODE:CODE:NOROOT(0)
//  334 uint16 GenericApp_ProcessEvent( uint8 task_id, uint16 events )
GenericApp_ProcessEvent:
          CFI Block cfiBlock10 Using cfiCommon0
          CFI Function GenericApp_ProcessEvent
        CODE
//  335 {
        FUNCALL GenericApp_ProcessEvent, osal_msg_receive
        LOCFRAME ISTACK, 0, STACK
        LOCFRAME PSTACK, 0, STACK
        LOCFRAME XSTACK, 24, STACK
        LOCFRAME IOVERLAY, 0, STATIC
        LOCFRAME DOVERLAY, 0, STATIC
        ARGFRAME ISTACK, 0, STACK
        ARGFRAME PSTACK, 0, STACK
        ARGFRAME XSTACK, 24, STACK
        ARGFRAME IOVERLAY, 0, STATIC
        ARGFRAME DOVERLAY, 0, STATIC
        FUNCALL GenericApp_ProcessEvent, CustomApp_Set_Multiway
        LOCFRAME ISTACK, 0, STACK
        LOCFRAME PSTACK, 0, STACK
        LOCFRAME XSTACK, 24, STACK
        LOCFRAME IOVERLAY, 0, STATIC
        LOCFRAME DOVERLAY, 0, STATIC
        ARGFRAME ISTACK, 0, STACK
        ARGFRAME PSTACK, 0, STACK
        ARGFRAME XSTACK, 24, STACK
        ARGFRAME IOVERLAY, 0, STATIC
        ARGFRAME DOVERLAY, 0, STATIC
        FUNCALL GenericApp_ProcessEvent, osal_msg_deallocate
        LOCFRAME ISTACK, 0, STACK
        LOCFRAME PSTACK, 0, STACK
        LOCFRAME XSTACK, 24, STACK
        LOCFRAME IOVERLAY, 0, STATIC
        LOCFRAME DOVERLAY, 0, STATIC
        ARGFRAME ISTACK, 0, STACK
        ARGFRAME PSTACK, 0, STACK
        ARGFRAME XSTACK, 24, STACK
        ARGFRAME IOVERLAY, 0, STATIC
        ARGFRAME DOVERLAY, 0, STATIC
        FUNCALL GenericApp_ProcessEvent, osal_msg_receive
        LOCFRAME ISTACK, 0, STACK
        LOCFRAME PSTACK, 0, STACK
        LOCFRAME XSTACK, 24, STACK
        LOCFRAME IOVERLAY, 0, STATIC
        LOCFRAME DOVERLAY, 0, STATIC
        ARGFRAME ISTACK, 0, STACK
        ARGFRAME PSTACK, 0, STACK
        ARGFRAME XSTACK, 24, STACK
        ARGFRAME IOVERLAY, 0, STATIC
        ARGFRAME DOVERLAY, 0, STATIC
        FUNCALL GenericApp_ProcessEvent, GenericApp_ProcessZDOMsgs
        LOCFRAME ISTACK, 0, STACK
        LOCFRAME PSTACK, 0, STACK
        LOCFRAME XSTACK, 24, STACK
        LOCFRAME IOVERLAY, 0, STATIC
        LOCFRAME DOVERLAY, 0, STATIC
        ARGFRAME ISTACK, 0, STACK
        ARGFRAME PSTACK, 0, STACK
        ARGFRAME XSTACK, 24, STACK
        ARGFRAME IOVERLAY, 0, STATIC
        ARGFRAME DOVERLAY, 0, STATIC
        FUNCALL GenericApp_ProcessEvent, GenericApp_HandleKeys
        LOCFRAME ISTACK, 0, STACK
        LOCFRAME PSTACK, 0, STACK
        LOCFRAME XSTACK, 24, STACK
        LOCFRAME IOVERLAY, 0, STATIC
        LOCFRAME DOVERLAY, 0, STATIC
        ARGFRAME ISTACK, 0, STACK
        ARGFRAME PSTACK, 0, STACK
        ARGFRAME XSTACK, 24, STACK
        ARGFRAME IOVERLAY, 0, STATIC
        ARGFRAME DOVERLAY, 0, STATIC
        FUNCALL GenericApp_ProcessEvent, HalLcdWriteStringValue
        LOCFRAME ISTACK, 0, STACK
        LOCFRAME PSTACK, 0, STACK
        LOCFRAME XSTACK, 25, STACK
        LOCFRAME IOVERLAY, 0, STATIC
        LOCFRAME DOVERLAY, 0, STATIC
        ARGFRAME ISTACK, 0, STACK
        ARGFRAME PSTACK, 0, STACK
        ARGFRAME XSTACK, 25, STACK
        ARGFRAME IOVERLAY, 0, STATIC
        ARGFRAME DOVERLAY, 0, STATIC
        FUNCALL GenericApp_ProcessEvent, HalLcdWriteStringValue
        LOCFRAME ISTACK, 0, STACK
        LOCFRAME PSTACK, 0, STACK
        LOCFRAME XSTACK, 25, STACK
        LOCFRAME IOVERLAY, 0, STATIC
        LOCFRAME DOVERLAY, 0, STATIC
        ARGFRAME ISTACK, 0, STACK
        ARGFRAME PSTACK, 0, STACK
        ARGFRAME XSTACK, 25, STACK
        ARGFRAME IOVERLAY, 0, STATIC
        ARGFRAME DOVERLAY, 0, STATIC
        FUNCALL GenericApp_ProcessEvent, GenericApp_MessageMSGCB
        LOCFRAME ISTACK, 0, STACK
        LOCFRAME PSTACK, 0, STACK
        LOCFRAME XSTACK, 24, STACK
        LOCFRAME IOVERLAY, 0, STATIC
        LOCFRAME DOVERLAY, 0, STATIC
        ARGFRAME ISTACK, 0, STACK
        ARGFRAME PSTACK, 0, STACK
        ARGFRAME XSTACK, 24, STACK
        ARGFRAME IOVERLAY, 0, STATIC
        ARGFRAME DOVERLAY, 0, STATIC
        FUNCALL GenericApp_ProcessEvent, Onboard_soft_reset
        LOCFRAME ISTACK, 0, STACK
        LOCFRAME PSTACK, 0, STACK
        LOCFRAME XSTACK, 24, STACK
        LOCFRAME IOVERLAY, 0, STATIC
        LOCFRAME DOVERLAY, 0, STATIC
        ARGFRAME ISTACK, 0, STACK
        ARGFRAME PSTACK, 0, STACK
        ARGFRAME XSTACK, 24, STACK
        ARGFRAME IOVERLAY, 0, STATIC
        ARGFRAME DOVERLAY, 0, STATIC
        FUNCALL GenericApp_ProcessEvent, HalLcdWriteStringValue
        LOCFRAME ISTACK, 0, STACK
        LOCFRAME PSTACK, 0, STACK
        LOCFRAME XSTACK, 25, STACK
        LOCFRAME IOVERLAY, 0, STATIC
        LOCFRAME DOVERLAY, 0, STATIC
        ARGFRAME ISTACK, 0, STACK
        ARGFRAME PSTACK, 0, STACK
        ARGFRAME XSTACK, 25, STACK
        ARGFRAME IOVERLAY, 0, STATIC
        ARGFRAME DOVERLAY, 0, STATIC
        FUNCALL GenericApp_ProcessEvent, HalLcdWriteStringValue
        LOCFRAME ISTACK, 0, STACK
        LOCFRAME PSTACK, 0, STACK
        LOCFRAME XSTACK, 25, STACK
        LOCFRAME IOVERLAY, 0, STATIC
        LOCFRAME DOVERLAY, 0, STATIC
        ARGFRAME ISTACK, 0, STACK
        ARGFRAME PSTACK, 0, STACK
        ARGFRAME XSTACK, 25, STACK
        ARGFRAME IOVERLAY, 0, STATIC
        ARGFRAME DOVERLAY, 0, STATIC
        FUNCALL GenericApp_ProcessEvent, CustomApp_loadstatus_ind
        LOCFRAME ISTACK, 0, STACK
        LOCFRAME PSTACK, 0, STACK
        LOCFRAME XSTACK, 24, STACK
        LOCFRAME IOVERLAY, 0, STATIC
        LOCFRAME DOVERLAY, 0, STATIC
        ARGFRAME ISTACK, 0, STACK
        ARGFRAME PSTACK, 0, STACK
        ARGFRAME XSTACK, 24, STACK
        ARGFRAME IOVERLAY, 0, STATIC
        ARGFRAME DOVERLAY, 0, STATIC
        FUNCALL GenericApp_ProcessEvent, CustomApp_ping_request_init
        LOCFRAME ISTACK, 0, STACK
        LOCFRAME PSTACK, 0, STACK
        LOCFRAME XSTACK, 24, STACK
        LOCFRAME IOVERLAY, 0, STATIC
        LOCFRAME DOVERLAY, 0, STATIC
        ARGFRAME ISTACK, 0, STACK
        ARGFRAME PSTACK, 0, STACK
        ARGFRAME XSTACK, 24, STACK
        ARGFRAME IOVERLAY, 0, STATIC
        ARGFRAME DOVERLAY, 0, STATIC
        FUNCALL GenericApp_ProcessEvent, CustomApp_ping_timeout_check_init
        LOCFRAME ISTACK, 0, STACK
        LOCFRAME PSTACK, 0, STACK
        LOCFRAME XSTACK, 24, STACK
        LOCFRAME IOVERLAY, 0, STATIC
        LOCFRAME DOVERLAY, 0, STATIC
        ARGFRAME ISTACK, 0, STACK
        ARGFRAME PSTACK, 0, STACK
        ARGFRAME XSTACK, 24, STACK
        ARGFRAME IOVERLAY, 0, STATIC
        ARGFRAME DOVERLAY, 0, STATIC
        FUNCALL GenericApp_ProcessEvent, CustomApp_send_ping_req
        LOCFRAME ISTACK, 0, STACK
        LOCFRAME PSTACK, 0, STACK
        LOCFRAME XSTACK, 24, STACK
        LOCFRAME IOVERLAY, 0, STATIC
        LOCFRAME DOVERLAY, 0, STATIC
        ARGFRAME ISTACK, 0, STACK
        ARGFRAME PSTACK, 0, STACK
        ARGFRAME XSTACK, 24, STACK
        ARGFRAME IOVERLAY, 0, STATIC
        ARGFRAME DOVERLAY, 0, STATIC
        FUNCALL GenericApp_ProcessEvent, osal_start_timerEx
        LOCFRAME ISTACK, 0, STACK
        LOCFRAME PSTACK, 0, STACK
        LOCFRAME XSTACK, 28, STACK
        LOCFRAME IOVERLAY, 0, STATIC
        LOCFRAME DOVERLAY, 0, STATIC
        ARGFRAME ISTACK, 0, STACK
        ARGFRAME PSTACK, 0, STACK
        ARGFRAME XSTACK, 28, STACK
        ARGFRAME IOVERLAY, 0, STATIC
        ARGFRAME DOVERLAY, 0, STATIC
        FUNCALL GenericApp_ProcessEvent, CustomApp_coordinator_online_req
        LOCFRAME ISTACK, 0, STACK
        LOCFRAME PSTACK, 0, STACK
        LOCFRAME XSTACK, 24, STACK
        LOCFRAME IOVERLAY, 0, STATIC
        LOCFRAME DOVERLAY, 0, STATIC
        ARGFRAME ISTACK, 0, STACK
        ARGFRAME PSTACK, 0, STACK
        ARGFRAME XSTACK, 24, STACK
        ARGFRAME IOVERLAY, 0, STATIC
        ARGFRAME DOVERLAY, 0, STATIC
        FUNCALL GenericApp_ProcessEvent, osal_start_timerEx
        LOCFRAME ISTACK, 0, STACK
        LOCFRAME PSTACK, 0, STACK
        LOCFRAME XSTACK, 28, STACK
        LOCFRAME IOVERLAY, 0, STATIC
        LOCFRAME DOVERLAY, 0, STATIC
        ARGFRAME ISTACK, 0, STACK
        ARGFRAME PSTACK, 0, STACK
        ARGFRAME XSTACK, 28, STACK
        ARGFRAME IOVERLAY, 0, STATIC
        ARGFRAME DOVERLAY, 0, STATIC
        FUNCALL GenericApp_ProcessEvent, CustomApp_coordinater_broadcast_ping_init
        LOCFRAME ISTACK, 0, STACK
        LOCFRAME PSTACK, 0, STACK
        LOCFRAME XSTACK, 24, STACK
        LOCFRAME IOVERLAY, 0, STATIC
        LOCFRAME DOVERLAY, 0, STATIC
        ARGFRAME ISTACK, 0, STACK
        ARGFRAME PSTACK, 0, STACK
        ARGFRAME XSTACK, 24, STACK
        ARGFRAME IOVERLAY, 0, STATIC
        ARGFRAME DOVERLAY, 0, STATIC
        FUNCALL GenericApp_ProcessEvent, CustomApp_Send_P2P_Data
        LOCFRAME ISTACK, 0, STACK
        LOCFRAME PSTACK, 0, STACK
        LOCFRAME XSTACK, 24, STACK
        LOCFRAME IOVERLAY, 0, STATIC
        LOCFRAME DOVERLAY, 0, STATIC
        ARGFRAME ISTACK, 0, STACK
        ARGFRAME PSTACK, 0, STACK
        ARGFRAME XSTACK, 24, STACK
        ARGFRAME IOVERLAY, 0, STATIC
        ARGFRAME DOVERLAY, 0, STATIC
        FUNCALL GenericApp_ProcessEvent, CustomApp_Send_Group_Data
        LOCFRAME ISTACK, 0, STACK
        LOCFRAME PSTACK, 0, STACK
        LOCFRAME XSTACK, 24, STACK
        LOCFRAME IOVERLAY, 0, STATIC
        LOCFRAME DOVERLAY, 0, STATIC
        ARGFRAME ISTACK, 0, STACK
        ARGFRAME PSTACK, 0, STACK
        ARGFRAME XSTACK, 24, STACK
        ARGFRAME IOVERLAY, 0, STATIC
        ARGFRAME DOVERLAY, 0, STATIC
        FUNCALL GenericApp_ProcessEvent, CustomApp_Send_BroadCast_Data
        LOCFRAME ISTACK, 0, STACK
        LOCFRAME PSTACK, 0, STACK
        LOCFRAME XSTACK, 24, STACK
        LOCFRAME IOVERLAY, 0, STATIC
        LOCFRAME DOVERLAY, 0, STATIC
        ARGFRAME ISTACK, 0, STACK
        ARGFRAME PSTACK, 0, STACK
        ARGFRAME XSTACK, 24, STACK
        ARGFRAME IOVERLAY, 0, STATIC
        ARGFRAME DOVERLAY, 0, STATIC
        FUNCALL GenericApp_ProcessEvent, CustomApp_Get_ExtAddr
        LOCFRAME ISTACK, 0, STACK
        LOCFRAME PSTACK, 0, STACK
        LOCFRAME XSTACK, 24, STACK
        LOCFRAME IOVERLAY, 0, STATIC
        LOCFRAME DOVERLAY, 0, STATIC
        ARGFRAME ISTACK, 0, STACK
        ARGFRAME PSTACK, 0, STACK
        ARGFRAME XSTACK, 24, STACK
        ARGFRAME IOVERLAY, 0, STATIC
        ARGFRAME DOVERLAY, 0, STATIC
        FUNCALL GenericApp_ProcessEvent, CustomApp_Get_NWKInfo
        LOCFRAME ISTACK, 0, STACK
        LOCFRAME PSTACK, 0, STACK
        LOCFRAME XSTACK, 24, STACK
        LOCFRAME IOVERLAY, 0, STATIC
        LOCFRAME DOVERLAY, 0, STATIC
        ARGFRAME ISTACK, 0, STACK
        ARGFRAME PSTACK, 0, STACK
        ARGFRAME XSTACK, 24, STACK
        ARGFRAME IOVERLAY, 0, STATIC
        ARGFRAME DOVERLAY, 0, STATIC
        FUNCALL GenericApp_ProcessEvent, CustomApp_Get_Active_Cnt
        LOCFRAME ISTACK, 0, STACK
        LOCFRAME PSTACK, 0, STACK
        LOCFRAME XSTACK, 24, STACK
        LOCFRAME IOVERLAY, 0, STATIC
        LOCFRAME DOVERLAY, 0, STATIC
        ARGFRAME ISTACK, 0, STACK
        ARGFRAME PSTACK, 0, STACK
        ARGFRAME XSTACK, 24, STACK
        ARGFRAME IOVERLAY, 0, STATIC
        ARGFRAME DOVERLAY, 0, STATIC
        FUNCALL GenericApp_ProcessEvent, CustomApp_Get_Version
        LOCFRAME ISTACK, 0, STACK
        LOCFRAME PSTACK, 0, STACK
        LOCFRAME XSTACK, 24, STACK
        LOCFRAME IOVERLAY, 0, STATIC
        LOCFRAME DOVERLAY, 0, STATIC
        ARGFRAME ISTACK, 0, STACK
        ARGFRAME PSTACK, 0, STACK
        ARGFRAME XSTACK, 24, STACK
        ARGFRAME IOVERLAY, 0, STATIC
        ARGFRAME DOVERLAY, 0, STATIC
        FUNCALL GenericApp_ProcessEvent, CustomApp_FW_Update
        LOCFRAME ISTACK, 0, STACK
        LOCFRAME PSTACK, 0, STACK
        LOCFRAME XSTACK, 24, STACK
        LOCFRAME IOVERLAY, 0, STATIC
        LOCFRAME DOVERLAY, 0, STATIC
        ARGFRAME ISTACK, 0, STACK
        ARGFRAME PSTACK, 0, STACK
        ARGFRAME XSTACK, 24, STACK
        ARGFRAME IOVERLAY, 0, STATIC
        ARGFRAME DOVERLAY, 0, STATIC
        FUNCALL GenericApp_ProcessEvent, osal_strlen
        LOCFRAME ISTACK, 0, STACK
        LOCFRAME PSTACK, 0, STACK
        LOCFRAME XSTACK, 24, STACK
        LOCFRAME IOVERLAY, 0, STATIC
        LOCFRAME DOVERLAY, 0, STATIC
        ARGFRAME ISTACK, 0, STACK
        ARGFRAME PSTACK, 0, STACK
        ARGFRAME XSTACK, 24, STACK
        ARGFRAME IOVERLAY, 0, STATIC
        ARGFRAME DOVERLAY, 0, STATIC
        FUNCALL GenericApp_ProcessEvent, AF_DataRequest
        LOCFRAME ISTACK, 0, STACK
        LOCFRAME PSTACK, 0, STACK
        LOCFRAME XSTACK, 33, STACK
        LOCFRAME IOVERLAY, 0, STATIC
        LOCFRAME DOVERLAY, 0, STATIC
        ARGFRAME ISTACK, 0, STACK
        ARGFRAME PSTACK, 0, STACK
        ARGFRAME XSTACK, 33, STACK
        ARGFRAME IOVERLAY, 0, STATIC
        ARGFRAME DOVERLAY, 0, STATIC
        FUNCALL GenericApp_ProcessEvent, osal_start_timerEx
        LOCFRAME ISTACK, 0, STACK
        LOCFRAME PSTACK, 0, STACK
        LOCFRAME XSTACK, 28, STACK
        LOCFRAME IOVERLAY, 0, STATIC
        LOCFRAME DOVERLAY, 0, STATIC
        ARGFRAME ISTACK, 0, STACK
        ARGFRAME PSTACK, 0, STACK
        ARGFRAME XSTACK, 28, STACK
        ARGFRAME IOVERLAY, 0, STATIC
        ARGFRAME DOVERLAY, 0, STATIC
        FUNCALL GenericApp_ProcessEvent, osal_stop_timerEx
        LOCFRAME ISTACK, 0, STACK
        LOCFRAME PSTACK, 0, STACK
        LOCFRAME XSTACK, 24, STACK
        LOCFRAME IOVERLAY, 0, STATIC
        LOCFRAME DOVERLAY, 0, STATIC
        ARGFRAME ISTACK, 0, STACK
        ARGFRAME PSTACK, 0, STACK
        ARGFRAME XSTACK, 24, STACK
        ARGFRAME IOVERLAY, 0, STATIC
        ARGFRAME DOVERLAY, 0, STATIC
        FUNCALL GenericApp_ProcessEvent, CustomApp_send_ping_req
        LOCFRAME ISTACK, 0, STACK
        LOCFRAME PSTACK, 0, STACK
        LOCFRAME XSTACK, 24, STACK
        LOCFRAME IOVERLAY, 0, STATIC
        LOCFRAME DOVERLAY, 0, STATIC
        ARGFRAME ISTACK, 0, STACK
        ARGFRAME PSTACK, 0, STACK
        ARGFRAME XSTACK, 24, STACK
        ARGFRAME IOVERLAY, 0, STATIC
        ARGFRAME DOVERLAY, 0, STATIC
        FUNCALL GenericApp_ProcessEvent, osal_start_timerEx
        LOCFRAME ISTACK, 0, STACK
        LOCFRAME PSTACK, 0, STACK
        LOCFRAME XSTACK, 28, STACK
        LOCFRAME IOVERLAY, 0, STATIC
        LOCFRAME DOVERLAY, 0, STATIC
        ARGFRAME ISTACK, 0, STACK
        ARGFRAME PSTACK, 0, STACK
        ARGFRAME XSTACK, 28, STACK
        ARGFRAME IOVERLAY, 0, STATIC
        ARGFRAME DOVERLAY, 0, STATIC
        FUNCALL GenericApp_ProcessEvent, osal_stop_timerEx
        LOCFRAME ISTACK, 0, STACK
        LOCFRAME PSTACK, 0, STACK
        LOCFRAME XSTACK, 24, STACK
        LOCFRAME IOVERLAY, 0, STATIC
        LOCFRAME DOVERLAY, 0, STATIC
        ARGFRAME ISTACK, 0, STACK
        ARGFRAME PSTACK, 0, STACK
        ARGFRAME XSTACK, 24, STACK
        ARGFRAME IOVERLAY, 0, STATIC
        ARGFRAME DOVERLAY, 0, STATIC
        FUNCALL GenericApp_ProcessEvent, CustomApp_linkstatus_updated
        LOCFRAME ISTACK, 0, STACK
        LOCFRAME PSTACK, 0, STACK
        LOCFRAME XSTACK, 24, STACK
        LOCFRAME IOVERLAY, 0, STATIC
        LOCFRAME DOVERLAY, 0, STATIC
        ARGFRAME ISTACK, 0, STACK
        ARGFRAME PSTACK, 0, STACK
        ARGFRAME XSTACK, 24, STACK
        ARGFRAME IOVERLAY, 0, STATIC
        ARGFRAME DOVERLAY, 0, STATIC
        FUNCALL GenericApp_ProcessEvent, osal_start_timerEx
        LOCFRAME ISTACK, 0, STACK
        LOCFRAME PSTACK, 0, STACK
        LOCFRAME XSTACK, 28, STACK
        LOCFRAME IOVERLAY, 0, STATIC
        LOCFRAME DOVERLAY, 0, STATIC
        ARGFRAME ISTACK, 0, STACK
        ARGFRAME PSTACK, 0, STACK
        ARGFRAME XSTACK, 28, STACK
        ARGFRAME IOVERLAY, 0, STATIC
        ARGFRAME DOVERLAY, 0, STATIC
        FUNCALL GenericApp_ProcessEvent, osal_stop_timerEx
        LOCFRAME ISTACK, 0, STACK
        LOCFRAME PSTACK, 0, STACK
        LOCFRAME XSTACK, 24, STACK
        LOCFRAME IOVERLAY, 0, STATIC
        LOCFRAME DOVERLAY, 0, STATIC
        ARGFRAME ISTACK, 0, STACK
        ARGFRAME PSTACK, 0, STACK
        ARGFRAME XSTACK, 24, STACK
        ARGFRAME IOVERLAY, 0, STATIC
        ARGFRAME DOVERLAY, 0, STATIC
        FUNCALL GenericApp_ProcessEvent, CustomApp_ping_timeout_check
        LOCFRAME ISTACK, 0, STACK
        LOCFRAME PSTACK, 0, STACK
        LOCFRAME XSTACK, 24, STACK
        LOCFRAME IOVERLAY, 0, STATIC
        LOCFRAME DOVERLAY, 0, STATIC
        ARGFRAME ISTACK, 0, STACK
        ARGFRAME PSTACK, 0, STACK
        ARGFRAME XSTACK, 24, STACK
        ARGFRAME IOVERLAY, 0, STATIC
        ARGFRAME DOVERLAY, 0, STATIC
        FUNCALL GenericApp_ProcessEvent, osal_start_timerEx
        LOCFRAME ISTACK, 0, STACK
        LOCFRAME PSTACK, 0, STACK
        LOCFRAME XSTACK, 28, STACK
        LOCFRAME IOVERLAY, 0, STATIC
        LOCFRAME DOVERLAY, 0, STATIC
        ARGFRAME ISTACK, 0, STACK
        ARGFRAME PSTACK, 0, STACK
        ARGFRAME XSTACK, 28, STACK
        ARGFRAME IOVERLAY, 0, STATIC
        ARGFRAME DOVERLAY, 0, STATIC
        FUNCALL GenericApp_ProcessEvent, osal_stop_timerEx
        LOCFRAME ISTACK, 0, STACK
        LOCFRAME PSTACK, 0, STACK
        LOCFRAME XSTACK, 24, STACK
        LOCFRAME IOVERLAY, 0, STATIC
        LOCFRAME DOVERLAY, 0, STATIC
        ARGFRAME ISTACK, 0, STACK
        ARGFRAME PSTACK, 0, STACK
        ARGFRAME XSTACK, 24, STACK
        ARGFRAME IOVERLAY, 0, STATIC
        ARGFRAME DOVERLAY, 0, STATIC
        FUNCALL GenericApp_ProcessEvent, CustomApp_coordinater_broadcast_ping
        LOCFRAME ISTACK, 0, STACK
        LOCFRAME PSTACK, 0, STACK
        LOCFRAME XSTACK, 24, STACK
        LOCFRAME IOVERLAY, 0, STATIC
        LOCFRAME DOVERLAY, 0, STATIC
        ARGFRAME ISTACK, 0, STACK
        ARGFRAME PSTACK, 0, STACK
        ARGFRAME XSTACK, 24, STACK
        ARGFRAME IOVERLAY, 0, STATIC
        ARGFRAME DOVERLAY, 0, STATIC
        FUNCALL GenericApp_ProcessEvent, osal_start_timerEx
        LOCFRAME ISTACK, 0, STACK
        LOCFRAME PSTACK, 0, STACK
        LOCFRAME XSTACK, 28, STACK
        LOCFRAME IOVERLAY, 0, STATIC
        LOCFRAME DOVERLAY, 0, STATIC
        ARGFRAME ISTACK, 0, STACK
        ARGFRAME PSTACK, 0, STACK
        ARGFRAME XSTACK, 28, STACK
        ARGFRAME IOVERLAY, 0, STATIC
        ARGFRAME DOVERLAY, 0, STATIC
        FUNCALL GenericApp_ProcessEvent, Onboard_soft_reset
        LOCFRAME ISTACK, 0, STACK
        LOCFRAME PSTACK, 0, STACK
        LOCFRAME XSTACK, 24, STACK
        LOCFRAME IOVERLAY, 0, STATIC
        LOCFRAME DOVERLAY, 0, STATIC
        ARGFRAME ISTACK, 0, STACK
        ARGFRAME PSTACK, 0, STACK
        ARGFRAME XSTACK, 24, STACK
        ARGFRAME IOVERLAY, 0, STATIC
        ARGFRAME DOVERLAY, 0, STATIC
        FUNCALL GenericApp_ProcessEvent, CustomApp_loadstatus_ind
        LOCFRAME ISTACK, 0, STACK
        LOCFRAME PSTACK, 0, STACK
        LOCFRAME XSTACK, 24, STACK
        LOCFRAME IOVERLAY, 0, STATIC
        LOCFRAME DOVERLAY, 0, STATIC
        ARGFRAME ISTACK, 0, STACK
        ARGFRAME PSTACK, 0, STACK
        ARGFRAME XSTACK, 24, STACK
        ARGFRAME IOVERLAY, 0, STATIC
        ARGFRAME DOVERLAY, 0, STATIC
        FUNCALL GenericApp_ProcessEvent, osal_stop_timerEx
        LOCFRAME ISTACK, 0, STACK
        LOCFRAME PSTACK, 0, STACK
        LOCFRAME XSTACK, 24, STACK
        LOCFRAME IOVERLAY, 0, STATIC
        LOCFRAME DOVERLAY, 0, STATIC
        ARGFRAME ISTACK, 0, STACK
        ARGFRAME PSTACK, 0, STACK
        ARGFRAME XSTACK, 24, STACK
        ARGFRAME IOVERLAY, 0, STATIC
        ARGFRAME DOVERLAY, 0, STATIC
        FUNCALL GenericApp_ProcessEvent, CustomApp_coordinator_online_req
        LOCFRAME ISTACK, 0, STACK
        LOCFRAME PSTACK, 0, STACK
        LOCFRAME XSTACK, 24, STACK
        LOCFRAME IOVERLAY, 0, STATIC
        LOCFRAME DOVERLAY, 0, STATIC
        ARGFRAME ISTACK, 0, STACK
        ARGFRAME PSTACK, 0, STACK
        ARGFRAME XSTACK, 24, STACK
        ARGFRAME IOVERLAY, 0, STATIC
        ARGFRAME DOVERLAY, 0, STATIC
        FUNCALL GenericApp_ProcessEvent, osal_start_timerEx
        LOCFRAME ISTACK, 0, STACK
        LOCFRAME PSTACK, 0, STACK
        LOCFRAME XSTACK, 28, STACK
        LOCFRAME IOVERLAY, 0, STATIC
        LOCFRAME DOVERLAY, 0, STATIC
        ARGFRAME ISTACK, 0, STACK
        ARGFRAME PSTACK, 0, STACK
        ARGFRAME XSTACK, 28, STACK
        ARGFRAME IOVERLAY, 0, STATIC
        ARGFRAME DOVERLAY, 0, STATIC
        FUNCALL GenericApp_ProcessEvent, GenericApp_Device_JoinReq
        LOCFRAME ISTACK, 0, STACK
        LOCFRAME PSTACK, 0, STACK
        LOCFRAME XSTACK, 24, STACK
        LOCFRAME IOVERLAY, 0, STATIC
        LOCFRAME DOVERLAY, 0, STATIC
        ARGFRAME ISTACK, 0, STACK
        ARGFRAME PSTACK, 0, STACK
        ARGFRAME XSTACK, 24, STACK
        ARGFRAME IOVERLAY, 0, STATIC
        ARGFRAME DOVERLAY, 0, STATIC
        FUNCALL GenericApp_ProcessEvent, osal_start_timerEx
        LOCFRAME ISTACK, 0, STACK
        LOCFRAME PSTACK, 0, STACK
        LOCFRAME XSTACK, 28, STACK
        LOCFRAME IOVERLAY, 0, STATIC
        LOCFRAME DOVERLAY, 0, STATIC
        ARGFRAME ISTACK, 0, STACK
        ARGFRAME PSTACK, 0, STACK
        ARGFRAME XSTACK, 28, STACK
        ARGFRAME IOVERLAY, 0, STATIC
        ARGFRAME DOVERLAY, 0, STATIC
        FUNCALL GenericApp_ProcessEvent, GenericApp_Free_Join_DeviceInfo
        LOCFRAME ISTACK, 0, STACK
        LOCFRAME PSTACK, 0, STACK
        LOCFRAME XSTACK, 24, STACK
        LOCFRAME IOVERLAY, 0, STATIC
        LOCFRAME DOVERLAY, 0, STATIC
        ARGFRAME ISTACK, 0, STACK
        ARGFRAME PSTACK, 0, STACK
        ARGFRAME XSTACK, 24, STACK
        ARGFRAME IOVERLAY, 0, STATIC
        ARGFRAME DOVERLAY, 0, STATIC
        REQUIRE ?V0
        REQUIRE ?V1
        REQUIRE ?V2
        REQUIRE ?V3
        MOV     A,#-0xc
        LCALL   ?BANKED_ENTER_XDATA
          CFI DPH0 load(1, XDATA, add(CFA_XSP16, literal(-1)))
          CFI DPL0 load(1, XDATA, add(CFA_XSP16, literal(-2)))
          CFI ?BRET_EXT load(1, XDATA, add(CFA_XSP16, literal(-3)))
          CFI ?RET_HIGH load(1, XDATA, add(CFA_XSP16, literal(-4)))
          CFI ?RET_LOW load(1, XDATA, add(CFA_XSP16, literal(-5)))
          CFI R7 load(1, XDATA, add(CFA_XSP16, literal(-6)))
          CFI V3 load(1, XDATA, add(CFA_XSP16, literal(-7)))
          CFI V2 load(1, XDATA, add(CFA_XSP16, literal(-8)))
          CFI V1 load(1, XDATA, add(CFA_XSP16, literal(-9)))
          CFI V0 load(1, XDATA, add(CFA_XSP16, literal(-10)))
          CFI VB load(1, XDATA, add(CFA_XSP16, literal(-11)))
          CFI R6 load(1, XDATA, add(CFA_XSP16, literal(-12)))
          CFI CFA_SP SP+0
          CFI CFA_XSP16 add(XSP16, 12)
        ; Saved register size: 12
        ; Auto size: 12
        MOV     A,#-0xc
        LCALL   ?ALLOC_XSTACK8
          CFI CFA_XSP16 add(XSP16, 24)
        MOV     A,R2
        MOV     R6,A
        MOV     A,R3
        MOV     R7,A
//  336   afIncomingMSGPacket_t *MSGpkt;
//  337   afDataConfirm_t *afDataConfirm;
//  338 
//  339   // Data Confirmation message fields
//  340   byte sentEP;
//  341 #if( ZSTACK_DEVICE_BUILD != DEVICE_BUILD_COORDINATOR) 
//  342   ZStatus_t sentStatus;
//  343 #endif 
//  344   byte sentTransID;       // This should match the value sent
//  345   (void)task_id;  // Intentionally unreferenced parameter
//  346 
//  347   if (events & GENERICAPP_FEED_DOG_EVT)
        ANL     A,#0x4
        JZ      ??GenericApp_ProcessEvent_0
//  348   {
//  349 #ifdef WDT_IN_PM1
//  350         WatchDogFeedDog();
//  351         osal_start_timerEx( GenericApp_TaskID,
//  352                       GENERICAPP_FEED_DOG_EVT,
//  353                       GENERICAPP_FEED_DOG_TIME_MAX);
//  354 #endif
//  355         return (events ^ GENERICAPP_FEED_DOG_EVT);
        MOV     A,R7
        XRL     A,#0x4
        LJMP    ??GenericApp_ProcessEvent_1 & 0xFFFF
//  356   }
//  357 
//  358   if ( events & SYS_EVENT_MSG )
??GenericApp_ProcessEvent_0:
        MOV     A,R7
        ANL     A,#0x80
        JNZ     $+5
        LJMP    ??GenericApp_ProcessEvent_2 & 0xFFFF
//  359   {
//  360     MSGpkt = (afIncomingMSGPacket_t *)osal_msg_receive( GenericApp_TaskID );
        ; Setup parameters for call to function osal_msg_receive
        SJMP    ??GenericApp_ProcessEvent_3
//  361     while ( MSGpkt )
//  362     {
//  363       switch ( MSGpkt->hdr.event )
//  364       {
//  365         case ZDO_CB_MSG:
//  366           GenericApp_ProcessZDOMsgs( (zdoIncomingMsg_t *)MSGpkt );
//  367           break;
//  368 
//  369         case KEY_CHANGE:
//  370           GenericApp_HandleKeys( ((keyChange_t *)MSGpkt)->state, ((keyChange_t *)MSGpkt)->keys );
//  371           break;
//  372 
//  373         case AF_DATA_CONFIRM_CMD:	
//  374           // This message is received as a confirmation of a data packet sent.
//  375           // The status is of ZStatus_t type [defined in ZComDef.h]
//  376           // The message fields are defined in AF.h
//  377           afDataConfirm = (afDataConfirm_t *)MSGpkt;
//  378 
//  379           sentEP = afDataConfirm->endpoint;
//  380           (void)sentEP;  // This info not used now
//  381           sentTransID = afDataConfirm->transID;
//  382           (void)sentTransID;  // This info not used now
//  383 
//  384 #if 1   //chaokw ping
//  385 #if( ZSTACK_DEVICE_BUILD != DEVICE_BUILD_COORDINATOR)		
//  386           sentStatus = afDataConfirm->hdr.status;
//  387           // Action taken when confirmation is received.
//  388           if ( sentStatus != ZSuccess )
//  389           {
//  390             // The data wasn't delivered -- Do something
//  391 #if defined( LCD_SUPPORTED )
//  392                 HalLcdWriteStringValue( (char*)"aps ack:", sentStatus, 16, HAL_LCD_LINE_2 );  //chaokw		
//  393 #endif
//  394 
//  395 //---------------------------------------
//  396 #if 0
//  397                 if(0x0000 == _NIB.nwkCoordAddress)
//  398                 {
//  399                    if(sentStatus == ZMacNoACK)
//  400                      ping_error_cnt++;
//  401                 }
//  402 		  else
//  403 		  {
//  404 		     if(sentStatus == ZApsNoAck)
//  405                      ping_error_cnt++;
//  406 		  }
//  407 #else
//  408                 ping_error_cnt++;
//  409 #endif
//  410 //----------------------------------------
//  411 
//  412                 if(ping_error_cnt < TIMEOUT_CNT)
//  413                 {
//  414 		      //SerialApp_ping_request_init();
//  415                 }
//  416 		  else if(ping_error_cnt > TIMEOUT_CNT)
//  417 		  {
//  418                     ping_error_cnt = TIMEOUT_CNT;
//  419 		      ping_result = 1;
//  420                     // rejoin network by zstack?
//  421 #if 0  //chaokw
//  422 		      // restart and clear NV mwk info
//  423 #if defined(NV_INIT) && defined(NV_RESTORE)
//  424                     NLME_InitNV();
//  425                     NLME_SetDefaultNV();
//  426                     ZDSecMgrClearNVKeyValues();
//  427 #endif
//  428                     Onboard_soft_reset();	
//  429 #else
//  430                     //Onboard_soft_reset();	 //chaokw ping
//  431 #endif
//  432 		  }
//  433           }
//  434           else
//  435           {
//  436                     ping_error_cnt = 0;    //chaokw 20170412
//  437                     ping_result = 0;
//  438 	   }
//  439 #if defined( LCD_SUPPORTED )		  
//  440           HalLcdWriteStringValue( (char*)"pingresult", ping_result, 10, HAL_LCD_LINE_1 );
//  441 #endif
//  442 #endif
//  443 #endif
//  444 
//  445           break;
//  446 
//  447         case AF_INCOMING_MSG_CMD:
//  448           GenericApp_MessageMSGCB( MSGpkt );
//  449           break;
//  450 
//  451         case ZDO_STATE_CHANGE:
//  452           GenericApp_NwkState = (devStates_t)(MSGpkt->hdr.status);
//  453 
//  454           if ((_NIB.nwkPanId >= (ZDAPP_CONFIG_PAN_ID + PANID_INCREASE_CNT))   //chaokw panid
//  455             || (zgConfigPANID >= (ZDAPP_CONFIG_PAN_ID + PANID_INCREASE_CNT)))
//  456           {
//  457   #if defined(NV_INIT) && defined(NV_RESTORE)
//  458               NLME_InitNV();
//  459               NLME_SetDefaultNV();
//  460               ZDSecMgrClearNVKeyValues();
//  461   #endif
//  462               Onboard_soft_reset();
//  463           }            
//  464 
//  465 
//  466 #if defined( LCD_SUPPORTED )			       
//  467              HalLcdWriteStringValue( (char*)"panid:", _NIB.nwkPanId, 16, HAL_LCD_LINE_1 ); 
//  468              HalLcdWriteStringValue( (char*)"devState:", devState, 10, HAL_LCD_LINE_3 ); 			 
//  469 #endif			  
//  470 		  
//  471           if ( (GenericApp_NwkState == DEV_ROUTER) ||
//  472                (GenericApp_NwkState == DEV_END_DEVICE) )
//  473           {
//  474 	      CustomApp_loadstatus_ind();	  
//  475 	      CustomApp_ping_request_init();
//  476              CustomApp_ping_timeout_check_init();  //chaokw ping		  
//  477              CustomApp_send_ping_req();  //chaokw  20170322	
//  478              osal_start_timerEx( GenericApp_TaskID,
//  479 					GENERICAPP_LOADSTATUS_MSG_EVT,
//  480 					5000); 		 
//  481           }
//  482 		  
//  483           if ( (GenericApp_NwkState == DEV_ZB_COORD) )
//  484           {
//  485              CustomApp_coordinator_online_req();
//  486              osal_start_timerEx( GenericApp_TaskID,
//  487 					GENERICAPP_COORDINATOR_ONLINE_EVT,
//  488 					5000); 			 
//  489              CustomApp_coordinater_broadcast_ping_init();  //chaokw ping			 
//  490           }		 
//  491           break;
//  492 
//  493 
//  494 #if defined( ZDO_COORDINATOR ) && defined( WIFI_FREQUENCY_SELECT )
//  495         case ZDO_CHANNEL_UPDATE:
//  496           CustomApp_ChannelSelect(MSGpkt);
//  497 	   break;
//  498 #endif
//  499 		  
//  500         case ZDO_P2P_REQ:
//  501           CustomApp_Send_P2P_Data(MSGpkt);
//  502           break;
//  503 
//  504         case ZDO_GROUP_REQ:
//  505           CustomApp_Send_Group_Data(MSGpkt);
//  506           break;
//  507 		  
//  508         case ZDO_BROADCAST_REQ:
//  509           CustomApp_Send_BroadCast_Data(MSGpkt);
//  510           break;			  
//  511 
//  512         case ZDO_MAC_REQ:
//  513           CustomApp_Get_ExtAddr();
//  514           break;
//  515 
//  516         case ZDO_NWKINFO_REQ:
//  517           CustomApp_Get_NWKInfo();
//  518           break;
//  519 
//  520         case ZDO_ACTIVE_CNT_REQ:
//  521           CustomApp_Get_Active_Cnt();
//  522           break;
//  523 
//  524         case ZDO_FW_VERSION_REQ:
//  525           CustomApp_Get_Version();
//  526           break;
//  527 
//  528         case ZDO_FW_UPDATE_REQ:
//  529           CustomApp_FW_Update();
//  530           break;
//  531 
//  532         case ZDO_MULTIWAY_SET_REQ:
//  533           CustomApp_Set_Multiway(MSGpkt);
??GenericApp_ProcessEvent_4:
        ; Setup parameters for call to function CustomApp_Set_Multiway
        MOV     R2,?V0
        MOV     R3,?V1
        LCALL   `??CustomApp_Set_Multiway::?relay`; Banked call to: CustomApp_Set_Multiway
//  534           break;
//  535 		  
//  536         default:
//  537           break;
//  538       }
//  539       // Release the memory
//  540       osal_msg_deallocate( (uint8 *)MSGpkt );
??GenericApp_ProcessEvent_5:
        ; Setup parameters for call to function osal_msg_deallocate
        MOV     R2,?V0
        MOV     R3,?V1
        LCALL   `??osal_msg_deallocate::?relay`; Banked call to: osal_msg_deallocate
//  541 
//  542       // Next
//  543       MSGpkt = (afIncomingMSGPacket_t *)osal_msg_receive( GenericApp_TaskID );
        ; Setup parameters for call to function osal_msg_receive
??GenericApp_ProcessEvent_3:
        MOV     DPTR,#GenericApp_TaskID
        MOVX    A,@DPTR
        MOV     R1,A
        LCALL   `??osal_msg_receive::?relay`; Banked call to: osal_msg_receive
        MOV     ?V0,R2
        MOV     ?V1,R3
        MOV     A,?V0
        ORL     A,?V1
        JNZ     $+5
        LJMP    ??GenericApp_ProcessEvent_6 & 0xFFFF
        MOV     DPL,?V0
        MOV     DPH,?V1
        MOVX    A,@DPTR
        ADD     A,#-0x1a
        JNZ     $+5
        LJMP    ??GenericApp_ProcessEvent_7 & 0xFFFF
        ADD     A,#0x5a
        JZ      ??GenericApp_ProcessEvent_8
        ADD     A,#-0x11
        JNZ     $+5
        LJMP    ??GenericApp_ProcessEvent_9 & 0xFFFF
        ADD     A,#-0x2
        JZ      ??GenericApp_ProcessEvent_10
        ADD     A,#-0xe
        JNZ     $+5
        LJMP    ??GenericApp_ProcessEvent_11 & 0xFFFF
        ADD     A,#-0x2
        JNZ     $+5
        LJMP    ??GenericApp_ProcessEvent_12 & 0xFFFF
        ADD     A,#-0x4
        JNZ     $+5
        LJMP    ??GenericApp_ProcessEvent_13 & 0xFFFF
        DEC     A
        JNZ     $+5
        LJMP    ??GenericApp_ProcessEvent_14 & 0xFFFF
        DEC     A
        JNZ     $+5
        LJMP    ??GenericApp_ProcessEvent_15 & 0xFFFF
        DEC     A
        JNZ     $+5
        LJMP    ??GenericApp_ProcessEvent_16 & 0xFFFF
        ADD     A,#-0x2
        JZ      ??GenericApp_ProcessEvent_4
        DEC     A
        JNZ     $+5
        LJMP    ??GenericApp_ProcessEvent_17 & 0xFFFF
        DEC     A
        JNZ     $+5
        LJMP    ??GenericApp_ProcessEvent_18 & 0xFFFF
        ADD     A,#-0xf
        JZ      ??GenericApp_ProcessEvent_19
        SJMP    ??GenericApp_ProcessEvent_5
??GenericApp_ProcessEvent_10:
        ; Setup parameters for call to function GenericApp_ProcessZDOMsgs
        MOV     R2,?V0
        MOV     R3,?V1
        LCALL   `??GenericApp_ProcessZDOMsgs::?relay`; Banked call to: GenericApp_ProcessZDOMsgs
        SJMP    ??GenericApp_ProcessEvent_5
??GenericApp_ProcessEvent_8:
        ; Setup parameters for call to function GenericApp_HandleKeys
        INC     DPTR
        INC     DPTR
        INC     DPTR
        MOVX    A,@DPTR
        MOV     R2,A
        MOV     DPL,?V0
        MOV     DPH,?V1
        INC     DPTR
        INC     DPTR
        MOVX    A,@DPTR
        MOV     R1,A
        LCALL   `??GenericApp_HandleKeys::?relay`; Banked call to: GenericApp_HandleKeys
        LJMP    ??GenericApp_ProcessEvent_5 & 0xFFFF
??GenericApp_ProcessEvent_19:
        INC     DPTR
        MOVX    A,@DPTR
        MOV     R4,A
        JZ      ??GenericApp_ProcessEvent_20
        ; Setup parameters for call to function HalLcdWriteStringValue
        MOV     ?V2,#0x3
        MOV     R0,#?V2
        LCALL   ?PUSH_XSTACK_I_ONE
          CFI CFA_XSP16 add(XSP16, 25)
        MOV     R1,#0x10
        MOV     R5,#0x0
        MOV     R2,#`?<Constant "aps ack:">` & 0xff
        MOV     R3,#(`?<Constant "aps ack:">` >> 8) & 0xff
        LCALL   `??HalLcdWriteStringValue::?relay`; Banked call to: HalLcdWriteStringValue
        MOV     A,#0x1
        LCALL   ?DEALLOC_XSTACK8
          CFI CFA_XSP16 add(XSP16, 24)
        MOV     DPTR,#ping_error_cnt
        LCALL   ?Subroutine22 & 0xFFFF
??CrossCallReturnLabel_23:
        JC      ??GenericApp_ProcessEvent_21
        MOVX    A,@DPTR
        CLR     C
        SUBB    A,#0x5
        JC      ??GenericApp_ProcessEvent_21
        MOV     A,#0x4
        MOVX    @DPTR,A
        MOV     DPTR,#ping_result
        MOV     A,#0x1
        SJMP    ??GenericApp_ProcessEvent_22
??GenericApp_ProcessEvent_20:
        MOV     DPTR,#ping_error_cnt
        CLR     A
        MOVX    @DPTR,A
        MOV     DPTR,#ping_result
??GenericApp_ProcessEvent_22:
        MOVX    @DPTR,A
??GenericApp_ProcessEvent_21:
        ; Setup parameters for call to function HalLcdWriteStringValue
        MOV     ?V2,#0x1
        MOV     R0,#?V2
        LCALL   ?PUSH_XSTACK_I_ONE
          CFI CFA_XSP16 add(XSP16, 25)
        MOV     R1,#0xa
        MOV     DPTR,#ping_result
        MOVX    A,@DPTR
        MOV     R4,A
        MOV     R5,#0x0
        MOV     R2,#`?<Constant "pingresult">` & 0xff
        MOV     R3,#(`?<Constant "pingresult">` >> 8) & 0xff
        LCALL   `??HalLcdWriteStringValue::?relay`; Banked call to: HalLcdWriteStringValue
        MOV     A,#0x1
        LCALL   ?DEALLOC_XSTACK8
          CFI CFA_XSP16 add(XSP16, 24)
        LJMP    ??GenericApp_ProcessEvent_5 & 0xFFFF
??GenericApp_ProcessEvent_7:
        ; Setup parameters for call to function GenericApp_MessageMSGCB
        MOV     R2,?V0
        MOV     R3,?V1
        LCALL   `??GenericApp_MessageMSGCB::?relay`; Banked call to: GenericApp_MessageMSGCB
        LJMP    ??GenericApp_ProcessEvent_5 & 0xFFFF
??GenericApp_ProcessEvent_9:
        INC     DPTR
        MOVX    A,@DPTR
        MOV     DPTR,#GenericApp_NwkState
        MOVX    @DPTR,A
        MOV     DPTR,#_NIB + 33
        CLR     C
        MOVX    A,@DPTR
        SUBB    A,#0x6
        INC     DPTR
        MOVX    A,@DPTR
        SUBB    A,#0x1
        JNC     ??GenericApp_ProcessEvent_23
        MOV     DPTR,#zgConfigPANID
        CLR     C
        MOVX    A,@DPTR
        SUBB    A,#0x6
        INC     DPTR
        MOVX    A,@DPTR
        SUBB    A,#0x1
        JC      ??GenericApp_ProcessEvent_24
??GenericApp_ProcessEvent_23:
        ; Setup parameters for call to function Onboard_soft_reset
        LCALL   Onboard_soft_reset & 0xFFFF
??GenericApp_ProcessEvent_24:
        ; Setup parameters for call to function HalLcdWriteStringValue
        MOV     ?V2,#0x1
        MOV     R0,#?V2
        LCALL   ?PUSH_XSTACK_I_ONE
          CFI CFA_XSP16 add(XSP16, 25)
        MOV     R1,#0x10
        MOV     DPTR,#_NIB + 33
        LCALL   ??Subroutine46_0 & 0xFFFF
??CrossCallReturnLabel_80:
        MOV     R2,#`?<Constant "panid:">` & 0xff
        MOV     R3,#(`?<Constant "panid:">` >> 8) & 0xff
        LCALL   `??HalLcdWriteStringValue::?relay`; Banked call to: HalLcdWriteStringValue
        MOV     A,#0x1
        LCALL   ?DEALLOC_XSTACK8
          CFI CFA_XSP16 add(XSP16, 24)
        ; Setup parameters for call to function HalLcdWriteStringValue
        MOV     ?V2,#0x5
        MOV     R0,#?V2
        LCALL   ?PUSH_XSTACK_I_ONE
          CFI CFA_XSP16 add(XSP16, 25)
        MOV     R1,#0xa
        MOV     DPTR,#devState
        MOVX    A,@DPTR
        MOV     R4,A
        MOV     R5,#0x0
        MOV     R2,#`?<Constant "devState:">` & 0xff
        MOV     R3,#(`?<Constant "devState:">` >> 8) & 0xff
        LCALL   `??HalLcdWriteStringValue::?relay`; Banked call to: HalLcdWriteStringValue
        MOV     A,#0x1
        LCALL   ?DEALLOC_XSTACK8
          CFI CFA_XSP16 add(XSP16, 24)
        MOV     DPTR,#GenericApp_NwkState
        MOVX    A,@DPTR
        XRL     A,#0x7
        JZ      ??GenericApp_ProcessEvent_25
        MOVX    A,@DPTR
        XRL     A,#0x6
        JNZ     ??GenericApp_ProcessEvent_26
??GenericApp_ProcessEvent_25:
        ; Setup parameters for call to function CustomApp_loadstatus_ind
        LCALL   `??CustomApp_loadstatus_ind::?relay`; Banked call to: CustomApp_loadstatus_ind
        ; Setup parameters for call to function CustomApp_ping_request_init
        LCALL   `??CustomApp_ping_request_init::?relay`; Banked call to: CustomApp_ping_request_init
        ; Setup parameters for call to function CustomApp_ping_timeout_check_init
        LCALL   `??CustomApp_ping_timeout_check_init::?relay`; Banked call to: CustomApp_ping_timeout_check_init
        ; Setup parameters for call to function CustomApp_send_ping_req
        LCALL   `??CustomApp_send_ping_req::?relay`; Banked call to: CustomApp_send_ping_req
        ; Setup parameters for call to function osal_start_timerEx
        MOV     DPTR,#__Constant_1388
        LCALL   ?PUSH_XSTACK8_X_FOUR
          CFI CFA_XSP16 add(XSP16, 28)
        MOV     R2,#0x40
        MOV     R3,#0x0
        MOV     DPTR,#GenericApp_TaskID
        MOVX    A,@DPTR
        MOV     R1,A
        LCALL   `??osal_start_timerEx::?relay`; Banked call to: osal_start_timerEx
        MOV     A,#0x4
        LCALL   ?DEALLOC_XSTACK8
          CFI CFA_XSP16 add(XSP16, 24)
??GenericApp_ProcessEvent_26:
        MOV     DPTR,#GenericApp_NwkState
        MOVX    A,@DPTR
        XRL     A,#0x9
        JZ      $+5
        LJMP    ??GenericApp_ProcessEvent_5 & 0xFFFF
        ; Setup parameters for call to function CustomApp_coordinator_online_req
        LCALL   `??CustomApp_coordinator_online_req::?relay`; Banked call to: CustomApp_coordinator_online_req
        ; Setup parameters for call to function osal_start_timerEx
        MOV     DPTR,#__Constant_1388
        LCALL   ?PUSH_XSTACK8_X_FOUR
          CFI CFA_XSP16 add(XSP16, 28)
        MOV     R2,#0x0
        MOV     R3,#0x8
        MOV     DPTR,#GenericApp_TaskID
        MOVX    A,@DPTR
        MOV     R1,A
        LCALL   `??osal_start_timerEx::?relay`; Banked call to: osal_start_timerEx
        MOV     A,#0x4
        LCALL   ?DEALLOC_XSTACK8
          CFI CFA_XSP16 add(XSP16, 24)
        ; Setup parameters for call to function CustomApp_coordinater_broadcast_ping_init
        LCALL   `??CustomApp_coordinater_broadcast_ping_init::?r`; Banked call to: CustomApp_coordinater_broadcast_ping_init
        LJMP    ??GenericApp_ProcessEvent_5 & 0xFFFF
??GenericApp_ProcessEvent_11:
        ; Setup parameters for call to function CustomApp_Send_P2P_Data
        MOV     R2,?V0
        MOV     R3,?V1
        LCALL   `??CustomApp_Send_P2P_Data::?relay`; Banked call to: CustomApp_Send_P2P_Data
        LJMP    ??GenericApp_ProcessEvent_5 & 0xFFFF
??GenericApp_ProcessEvent_12:
        ; Setup parameters for call to function CustomApp_Send_Group_Data
        MOV     R2,?V0
        MOV     R3,?V1
        LCALL   `??CustomApp_Send_Group_Data::?relay`; Banked call to: CustomApp_Send_Group_Data
        LJMP    ??GenericApp_ProcessEvent_5 & 0xFFFF
??GenericApp_ProcessEvent_16:
        ; Setup parameters for call to function CustomApp_Send_BroadCast_Data
        MOV     R2,?V0
        MOV     R3,?V1
        LCALL   `??CustomApp_Send_BroadCast_Data::?relay`; Banked call to: CustomApp_Send_BroadCast_Data
        LJMP    ??GenericApp_ProcessEvent_5 & 0xFFFF
??GenericApp_ProcessEvent_13:
        ; Setup parameters for call to function CustomApp_Get_ExtAddr
        LCALL   `??CustomApp_Get_ExtAddr::?relay`; Banked call to: CustomApp_Get_ExtAddr
        LJMP    ??GenericApp_ProcessEvent_5 & 0xFFFF
??GenericApp_ProcessEvent_18:
        ; Setup parameters for call to function CustomApp_Get_NWKInfo
        LCALL   `??CustomApp_Get_NWKInfo::?relay`; Banked call to: CustomApp_Get_NWKInfo
        LJMP    ??GenericApp_ProcessEvent_5 & 0xFFFF
??GenericApp_ProcessEvent_17:
        ; Setup parameters for call to function CustomApp_Get_Active_Cnt
        LCALL   `??CustomApp_Get_Active_Cnt::?relay`; Banked call to: CustomApp_Get_Active_Cnt
        LJMP    ??GenericApp_ProcessEvent_5 & 0xFFFF
??GenericApp_ProcessEvent_14:
        ; Setup parameters for call to function CustomApp_Get_Version
        LCALL   `??CustomApp_Get_Version::?relay`; Banked call to: CustomApp_Get_Version
        LJMP    ??GenericApp_ProcessEvent_5 & 0xFFFF
??GenericApp_ProcessEvent_15:
        ; Setup parameters for call to function CustomApp_FW_Update
        LCALL   `??CustomApp_FW_Update::?relay`; Banked call to: CustomApp_FW_Update
        LJMP    ??GenericApp_ProcessEvent_5 & 0xFFFF
//  544     }
//  545 
//  546     // return unprocessed events
//  547     return (events ^ SYS_EVENT_MSG);
??GenericApp_ProcessEvent_6:
        MOV     A,R6
        MOV     R2,A
        MOV     A,R7
        XRL     A,#0x80
        LJMP    ??GenericApp_ProcessEvent_1 & 0xFFFF
//  548   }
//  549 
//  550   // Send a message out - This event is generated by a timer
//  551   //  (setup in GenericApp_Init()).
//  552   if ( events & GENERICAPP_SEND_MSG_EVT )
??GenericApp_ProcessEvent_2:
        MOV     A,R6
        MOV     C,0xE0 /* A   */.0
        JNC     ??GenericApp_ProcessEvent_27
//  553   {
//  554     // Send "the" message
//  555     GenericApp_SendTheMessage();  //chaokw
        MOV     DPTR,#`?<Constant "Hello World">`
        MOV     R4,?XSP + 0
        MOV     R5,?XSP + 1
        MOV     A,#0xc
        LCALL   ?MOVE_LONG8_XDATA_XDATA
        ; Setup parameters for call to function osal_strlen
        MOV     R2,?XSP + 0
        MOV     R3,?XSP + 1
        LCALL   `??osal_strlen::?relay`; Banked call to: osal_strlen
        ; Setup parameters for call to function AF_DataRequest
        MOV     ?V0,#0x1e
        MOV     R0,#?V0
        LCALL   ?PUSH_XSTACK_I_ONE
          CFI CFA_XSP16 add(XSP16, 25)
        MOV     ?V0,#GenericApp_TransID & 0xff
        MOV     ?V1,#(GenericApp_TransID >> 8) & 0xff
        MOV     R0,#?V0
        LCALL   ?PUSH_XSTACK_I_TWO
          CFI CFA_XSP16 add(XSP16, 27)
        MOV     A,#0x3
        LCALL   ?XSTACK_DISP100_8
        MOV     ?V0,R0
        MOV     ?V1,R1
        MOV     R0,#?V0
        LCALL   ?PUSH_XSTACK_I_TWO
          CFI CFA_XSP16 add(XSP16, 29)
        MOV     A,R2
        ADD     A,#0x1
        MOV     ?V0,A
        CLR     A
        ADDC    A,#0x0
        MOV     ?V1,A
        MOV     R0,#?V0
        LCALL   ?PUSH_XSTACK_I_TWO
          CFI CFA_XSP16 add(XSP16, 31)
        MOV     ?V0,#0x1
        MOV     ?V1,#0x0
        MOV     R0,#?V0
        LCALL   ?PUSH_XSTACK_I_TWO
          CFI CFA_XSP16 add(XSP16, 33)
        MOV     R1,#0x0
        MOV     R4,#GenericApp_epDesc & 0xff
        MOV     R5,#(GenericApp_epDesc >> 8) & 0xff
        MOV     R2,#GenericApp_DstAddr & 0xff
        MOV     R3,#(GenericApp_DstAddr >> 8) & 0xff
        LCALL   `??AF_DataRequest::?relay`; Banked call to: AF_DataRequest
        MOV     A,#0x9
        LCALL   ?DEALLOC_XSTACK8
          CFI CFA_XSP16 add(XSP16, 24)
//  556 
//  557     // Setup to send message again
//  558     osal_start_timerEx( GenericApp_TaskID,
//  559                         GENERICAPP_SEND_MSG_EVT,
//  560                         txMsgDelay );
        ; Setup parameters for call to function osal_start_timerEx
        MOV     DPTR,#txMsgDelay
        LCALL   ?PUSH_XSTACK8_X_FOUR
          CFI CFA_XSP16 add(XSP16, 28)
        MOV     R2,#0x1
        MOV     R3,#0x0
        MOV     DPTR,#GenericApp_TaskID
        MOVX    A,@DPTR
        MOV     R1,A
        LCALL   `??osal_start_timerEx::?relay`; Banked call to: osal_start_timerEx
        MOV     A,#0x4
        LCALL   ?DEALLOC_XSTACK8
          CFI CFA_XSP16 add(XSP16, 24)
//  561 
//  562     // return unprocessed events
//  563     return (events ^ GENERICAPP_SEND_MSG_EVT);
        MOV     A,R6
        XRL     A,#0x1
        LJMP    ??GenericApp_ProcessEvent_28 & 0xFFFF
//  564   }
//  565 
//  566 #if defined( IAR_ARMCM3_LM )
//  567   // Receive a message from the RTOS queue
//  568   if ( events & GENERICAPP_RTOS_MSG_EVT )
//  569   {
//  570     // Process message from RTOS queue
//  571     GenericApp_ProcessRtosMessage();
//  572 
//  573     // return unprocessed events
//  574     return (events ^ GENERICAPP_RTOS_MSG_EVT);
//  575   }
//  576 #endif
//  577 
//  578 
//  579    if ( events & GENERICAPP_PING_MSG_EVT)
??GenericApp_ProcessEvent_27:
        ANL     A,#0x4
        JZ      ??GenericApp_ProcessEvent_29
//  580    {
//  581 	osal_stop_timerEx( GenericApp_TaskID, GENERICAPP_PING_MSG_EVT );
        ; Setup parameters for call to function osal_stop_timerEx
        MOV     R2,#0x4
        MOV     R3,#0x0
        MOV     DPTR,#GenericApp_TaskID
        MOVX    A,@DPTR
        MOV     R1,A
        LCALL   `??osal_stop_timerEx::?relay`; Banked call to: osal_stop_timerEx
//  582 	CustomApp_send_ping_req();
        ; Setup parameters for call to function CustomApp_send_ping_req
        LCALL   `??CustomApp_send_ping_req::?relay`; Banked call to: CustomApp_send_ping_req
//  583 	osal_start_timerEx( GenericApp_TaskID, GENERICAPP_PING_MSG_EVT, PING_PERIOD);
        ; Setup parameters for call to function osal_start_timerEx
        MOV     DPTR,#__Constant_3a98
        LCALL   ?PUSH_XSTACK8_X_FOUR
          CFI CFA_XSP16 add(XSP16, 28)
        MOV     R2,#0x4
        MOV     R3,#0x0
        MOV     DPTR,#GenericApp_TaskID
        MOVX    A,@DPTR
        MOV     R1,A
        LCALL   `??osal_start_timerEx::?relay`; Banked call to: osal_start_timerEx
        MOV     A,#0x4
        LCALL   ?DEALLOC_XSTACK8
          CFI CFA_XSP16 add(XSP16, 24)
//  584 
//  585 	return (events ^ GENERICAPP_PING_MSG_EVT);	
        MOV     A,R6
        XRL     A,#0x4
        LJMP    ??GenericApp_ProcessEvent_28 & 0xFFFF
//  586    }
//  587 
//  588 
//  589    if ( events & GENERICAPP_LINK_STATUS_EVT)
??GenericApp_ProcessEvent_29:
        MOV     A,R6
        ANL     A,#0x8
        JZ      ??GenericApp_ProcessEvent_30
//  590    {
//  591 	osal_stop_timerEx( GenericApp_TaskID, GENERICAPP_LINK_STATUS_EVT );
        ; Setup parameters for call to function osal_stop_timerEx
        MOV     R2,#0x8
        MOV     R3,#0x0
        MOV     DPTR,#GenericApp_TaskID
        MOVX    A,@DPTR
        MOV     R1,A
        LCALL   `??osal_stop_timerEx::?relay`; Banked call to: osal_stop_timerEx
//  592 	CustomApp_linkstatus_updated();
        ; Setup parameters for call to function CustomApp_linkstatus_updated
        LCALL   `??CustomApp_linkstatus_updated::?relay`; Banked call to: CustomApp_linkstatus_updated
//  593 	osal_start_timerEx( GenericApp_TaskID, GENERICAPP_LINK_STATUS_EVT, LINKSTAT_PRRIOD);
        ; Setup parameters for call to function osal_start_timerEx
        MOV     DPTR,#__Constant_3a98
        LCALL   ?PUSH_XSTACK8_X_FOUR
          CFI CFA_XSP16 add(XSP16, 28)
        MOV     R2,#0x8
        MOV     R3,#0x0
        MOV     DPTR,#GenericApp_TaskID
        MOVX    A,@DPTR
        MOV     R1,A
        LCALL   `??osal_start_timerEx::?relay`; Banked call to: osal_start_timerEx
        MOV     A,#0x4
        LCALL   ?DEALLOC_XSTACK8
          CFI CFA_XSP16 add(XSP16, 24)
//  594 
//  595 	return (events ^ GENERICAPP_LINK_STATUS_EVT);	
        MOV     A,R6
        XRL     A,#0x8
        SJMP    ??GenericApp_ProcessEvent_28
//  596    }
//  597 
//  598 #if( ZSTACK_DEVICE_BUILD != DEVICE_BUILD_COORDINATOR)	
//  599    if ( events & GENERICAPP_PING_TIMEOUT_CHECK_EVT)   //chaokw ping
??GenericApp_ProcessEvent_30:
        MOV     A,R6
        ANL     A,#0x80
        JZ      ??GenericApp_ProcessEvent_31
//  600    {
//  601 	osal_stop_timerEx( GenericApp_TaskID, GENERICAPP_PING_TIMEOUT_CHECK_EVT );
        ; Setup parameters for call to function osal_stop_timerEx
        MOV     R2,#-0x80
        MOV     R3,#0x0
        MOV     DPTR,#GenericApp_TaskID
        MOVX    A,@DPTR
        MOV     R1,A
        LCALL   `??osal_stop_timerEx::?relay`; Banked call to: osal_stop_timerEx
//  602 	CustomApp_ping_timeout_check();
        ; Setup parameters for call to function CustomApp_ping_timeout_check
        LCALL   `??CustomApp_ping_timeout_check::?relay`; Banked call to: CustomApp_ping_timeout_check
//  603 	osal_start_timerEx( GenericApp_TaskID, GENERICAPP_PING_TIMEOUT_CHECK_EVT, PING_TIMEOUT_CHECK);
        ; Setup parameters for call to function osal_start_timerEx
        MOV     DPTR,#__Constant_2710
        LCALL   ?PUSH_XSTACK8_X_FOUR
          CFI CFA_XSP16 add(XSP16, 28)
        MOV     R2,#-0x80
        MOV     R3,#0x0
        MOV     DPTR,#GenericApp_TaskID
        MOVX    A,@DPTR
        MOV     R1,A
        LCALL   `??osal_start_timerEx::?relay`; Banked call to: osal_start_timerEx
        MOV     A,#0x4
        LCALL   ?DEALLOC_XSTACK8
          CFI CFA_XSP16 add(XSP16, 24)
//  604 
//  605 	return (events ^ GENERICAPP_PING_TIMEOUT_CHECK_EVT);	
        MOV     A,R6
        XRL     A,#0x80
        SJMP    ??GenericApp_ProcessEvent_28
//  606    }   
//  607 #endif
//  608 
//  609    if ( events & GENERICAPP_COORDINATER_BROADCAST_PING_EVT)  //chaokw ping
??GenericApp_ProcessEvent_31:
        MOV     A,R7
        ANL     A,#0x1
        JZ      ??GenericApp_ProcessEvent_32
//  610    {
//  611 	osal_stop_timerEx( GenericApp_TaskID, GENERICAPP_COORDINATER_BROADCAST_PING_EVT );
        ; Setup parameters for call to function osal_stop_timerEx
        MOV     R2,#0x0
        MOV     R3,#0x1
        MOV     DPTR,#GenericApp_TaskID
        MOVX    A,@DPTR
        MOV     R1,A
        LCALL   `??osal_stop_timerEx::?relay`; Banked call to: osal_stop_timerEx
//  612 	CustomApp_coordinater_broadcast_ping();
        ; Setup parameters for call to function CustomApp_coordinater_broadcast_ping
        LCALL   `??CustomApp_coordinater_broadcast_ping::?relay`; Banked call to: CustomApp_coordinater_broadcast_ping
//  613 	osal_start_timerEx( GenericApp_TaskID, GENERICAPP_COORDINATER_BROADCAST_PING_EVT, PING_PERIOD);
        ; Setup parameters for call to function osal_start_timerEx
        MOV     DPTR,#__Constant_3a98
        LCALL   ?PUSH_XSTACK8_X_FOUR
          CFI CFA_XSP16 add(XSP16, 28)
        MOV     R2,#0x0
        MOV     R3,#0x1
        MOV     DPTR,#GenericApp_TaskID
        MOVX    A,@DPTR
        MOV     R1,A
        LCALL   `??osal_start_timerEx::?relay`; Banked call to: osal_start_timerEx
        MOV     A,#0x4
        LCALL   ?DEALLOC_XSTACK8
          CFI CFA_XSP16 add(XSP16, 24)
//  614 
//  615 	return (events ^ GENERICAPP_COORDINATER_BROADCAST_PING_EVT);	
        MOV     A,R6
        MOV     R2,A
        MOV     A,R7
        XRL     A,#0x1
        LJMP    ??GenericApp_ProcessEvent_1 & 0xFFFF
//  616    }
//  617 
//  618 
//  619    if ( events & GENERICAPP_RESET_SB_MSG_EVT )
??GenericApp_ProcessEvent_32:
        MOV     A,R6
        ANL     A,#0x20
        JZ      ??GenericApp_ProcessEvent_33
//  620    {
//  621     	Onboard_soft_reset();
        ; Setup parameters for call to function Onboard_soft_reset
        LCALL   Onboard_soft_reset & 0xFFFF
//  622    	return ( events ^ GENERICAPP_RESET_SB_MSG_EVT );
        MOV     A,R6
        XRL     A,#0x20
        SJMP    ??GenericApp_ProcessEvent_28
//  623    }
//  624 
//  625    if ( events & GENERICAPP_LOADSTATUS_MSG_EVT)
??GenericApp_ProcessEvent_33:
        MOV     A,R6
        ANL     A,#0x40
        JZ      ??GenericApp_ProcessEvent_34
//  626    {
//  627        CustomApp_loadstatus_ind();
        ; Setup parameters for call to function CustomApp_loadstatus_ind
        LCALL   `??CustomApp_loadstatus_ind::?relay`; Banked call to: CustomApp_loadstatus_ind
//  628 	return (events ^ GENERICAPP_LOADSTATUS_MSG_EVT);	
        MOV     A,R6
        XRL     A,#0x40
??GenericApp_ProcessEvent_28:
        MOV     R2,A
        MOV     A,R7
        LJMP    ??GenericApp_ProcessEvent_1 & 0xFFFF
//  629    }
//  630 
//  631    if ( events & GENERICAPP_COORDINATOR_ONLINE_EVT)
??GenericApp_ProcessEvent_34:
        MOV     A,R7
        ANL     A,#0x8
        JZ      ??GenericApp_ProcessEvent_35
//  632    { 
//  633        osal_stop_timerEx( GenericApp_TaskID, GENERICAPP_COORDINATOR_ONLINE_EVT );
        ; Setup parameters for call to function osal_stop_timerEx
        MOV     R2,#0x0
        MOV     R3,#0x8
        MOV     DPTR,#GenericApp_TaskID
        MOVX    A,@DPTR
        MOV     R1,A
        LCALL   `??osal_stop_timerEx::?relay`; Banked call to: osal_stop_timerEx
//  634        zc_online_report_cnt ++;
        MOV     DPTR,#zc_online_report_cnt
        LCALL   ?Subroutine22 & 0xFFFF
//  635        if (zc_online_report_cnt <= 3)
??CrossCallReturnLabel_24:
        JNC     ??GenericApp_ProcessEvent_36
//  636        {
//  637            CustomApp_coordinator_online_req();
        ; Setup parameters for call to function CustomApp_coordinator_online_req
        LCALL   `??CustomApp_coordinator_online_req::?relay`; Banked call to: CustomApp_coordinator_online_req
//  638 	    osal_start_timerEx( GenericApp_TaskID, GENERICAPP_COORDINATOR_ONLINE_EVT, 5000);
        ; Setup parameters for call to function osal_start_timerEx
        MOV     DPTR,#__Constant_1388
        LCALL   ?PUSH_XSTACK8_X_FOUR
          CFI CFA_XSP16 add(XSP16, 28)
        MOV     R2,#0x0
        MOV     R3,#0x8
        MOV     DPTR,#GenericApp_TaskID
        MOVX    A,@DPTR
        MOV     R1,A
        LCALL   `??osal_start_timerEx::?relay`; Banked call to: osal_start_timerEx
        MOV     A,#0x4
        LCALL   ?DEALLOC_XSTACK8
          CFI CFA_XSP16 add(XSP16, 24)
//  639        }
//  640 	return (events ^ GENERICAPP_COORDINATOR_ONLINE_EVT);	
??GenericApp_ProcessEvent_36:
        MOV     A,R6
        MOV     R2,A
        MOV     A,R7
        XRL     A,#0x8
        SJMP    ??GenericApp_ProcessEvent_1
//  641    }
//  642 
//  643 #if 0
//  644    if ( events & GENERICAPP_ROUTER_ONLINE_EVT)
//  645    {
//  646        osal_stop_timerEx( GenericApp_TaskID, GENERICAPP_ROUTER_ONLINE_EVT );
//  647        zr_online_report_cnt ++;
//  648        if (zr_online_report_cnt <= 3)
//  649        {
//  650            CustomApp_router_online_req();
//  651 	    osal_start_timerEx( GenericApp_TaskID, GENERICAPP_ROUTER_ONLINE_EVT, 5000);
//  652        }
//  653 	return (events ^ GENERICAPP_ROUTER_ONLINE_EVT);	
//  654    }
//  655 #endif   
//  656 
//  657    if ( events & GENERICAPP_CHANNEL_MSG_EVT )
??GenericApp_ProcessEvent_35:
        MOV     A,R6
        ANL     A,#0x10
        JZ      ??GenericApp_ProcessEvent_37
//  658    {
//  659 #if defined( ZDO_COORDINATOR ) && defined( WIFI_FREQUENCY_SELECT )
//  660        CustomApp_WifiChannelReq();
//  661 #endif
//  662        return ( events ^ GENERICAPP_CHANNEL_MSG_EVT );
        MOV     A,R6
        XRL     A,#0x10
        MOV     R2,A
        SJMP    ??GenericApp_ProcessEvent_38
//  663    }
//  664 
//  665 //-----------------------------------------------------chaokw
//  666 	if (events & GENERICAPP_PERMIT_JOIN_MSG_EVT)
??GenericApp_ProcessEvent_37:
        MOV     A,R7
        ANL     A,#0x20
        JZ      ??GenericApp_ProcessEvent_39
//  667 	{
//  668 #ifndef ZDO_COORDINATOR
//  669 		if (transfer_join_times++ < 3)
        MOV     DPTR,#transfer_join_times
        MOVX    A,@DPTR
        MOV     R0,A
        MOV     A,#0x1
        ADD     A,R0
        MOVX    @DPTR,A
        MOV     A,R0
        CLR     C
        SUBB    A,#0x3
        JNC     ??GenericApp_ProcessEvent_40
//  670 		{
//  671 			GenericApp_Device_JoinReq();
        ; Setup parameters for call to function GenericApp_Device_JoinReq
        LCALL   `??GenericApp_Device_JoinReq::?relay`; Banked call to: GenericApp_Device_JoinReq
//  672 			osal_start_timerEx(GenericApp_TaskID,
//  673 								GENERICAPP_PERMIT_JOIN_MSG_EVT,
//  674 								2000);
        ; Setup parameters for call to function osal_start_timerEx
        MOV     DPTR,#__Constant_7d0
        LCALL   ?PUSH_XSTACK8_X_FOUR
          CFI CFA_XSP16 add(XSP16, 28)
        MOV     R2,#0x0
        MOV     R3,#0x20
        MOV     DPTR,#GenericApp_TaskID
        MOVX    A,@DPTR
        MOV     R1,A
        LCALL   `??osal_start_timerEx::?relay`; Banked call to: osal_start_timerEx
        MOV     A,#0x4
        LCALL   ?DEALLOC_XSTACK8
          CFI CFA_XSP16 add(XSP16, 24)
//  675 		}
//  676 #endif
//  677 		return ( events ^ GENERICAPP_PERMIT_JOIN_MSG_EVT );
??GenericApp_ProcessEvent_40:
        MOV     A,R6
        MOV     R2,A
        MOV     A,R7
        XRL     A,#0x20
        SJMP    ??GenericApp_ProcessEvent_1
//  678 	}
//  679 
//  680        if (events & GENERICAPP_CLEAR_JOIN_DEVICES_EVT)
??GenericApp_ProcessEvent_39:
        MOV     A,R7
        ANL     A,#0x40
        JZ      ??GenericApp_ProcessEvent_41
//  681 	{
//  682 		GenericApp_Free_Join_DeviceInfo(zdo_join_device);
        ; Setup parameters for call to function GenericApp_Free_Join_DeviceInfo
        MOV     DPTR,#zdo_join_device
        LCALL   ??Subroutine49_0 & 0xFFFF
??CrossCallReturnLabel_89:
        LCALL   `??GenericApp_Free_Join_DeviceInfo::?relay`; Banked call to: GenericApp_Free_Join_DeviceInfo
//  683 		return ( events ^ GENERICAPP_CLEAR_JOIN_DEVICES_EVT );
        MOV     A,R6
        MOV     R2,A
        MOV     A,R7
        XRL     A,#0x40
??GenericApp_ProcessEvent_1:
        MOV     R3,A
        SJMP    ??GenericApp_ProcessEvent_38
//  684 	}	
//  685 //-----------------------------------------------------------
//  686 	
//  687   // Discard unknown events
//  688   return 0;
??GenericApp_ProcessEvent_41:
        MOV     R2,#0x0
        MOV     R3,#0x0
??GenericApp_ProcessEvent_38:
        MOV     A,#0xc
        LJMP    ?Subroutine1 & 0xFFFF
//  689 }
          CFI EndBlock cfiBlock10
//  690 
//  691 /*********************************************************************
//  692  * Event Generation Functions
//  693  */
//  694 
//  695 /*********************************************************************
//  696  * @fn      GenericApp_ProcessZDOMsgs()
//  697  *
//  698  * @brief   Process response messages
//  699  *
//  700  * @param   none
//  701  *
//  702  * @return  none
//  703  */

        RSEG BANKED_CODE:CODE:NOROOT(0)
//  704 static void GenericApp_ProcessZDOMsgs( zdoIncomingMsg_t *inMsg )
GenericApp_ProcessZDOMsgs:
          CFI Block cfiBlock11 Using cfiCommon0
          CFI Function GenericApp_ProcessZDOMsgs
        CODE
//  705 {
        FUNCALL GenericApp_ProcessZDOMsgs, osal_mem_alloc
        LOCFRAME ISTACK, 0, STACK
        LOCFRAME PSTACK, 0, STACK
        LOCFRAME XSTACK, 39, STACK
        LOCFRAME IOVERLAY, 0, STATIC
        LOCFRAME DOVERLAY, 0, STATIC
        ARGFRAME ISTACK, 0, STACK
        ARGFRAME PSTACK, 0, STACK
        ARGFRAME XSTACK, 39, STACK
        ARGFRAME IOVERLAY, 0, STATIC
        ARGFRAME DOVERLAY, 0, STATIC
        FUNCALL GenericApp_ProcessZDOMsgs, ZDO_ParseDeviceAnnce
        LOCFRAME ISTACK, 0, STACK
        LOCFRAME PSTACK, 0, STACK
        LOCFRAME XSTACK, 39, STACK
        LOCFRAME IOVERLAY, 0, STATIC
        LOCFRAME DOVERLAY, 0, STATIC
        ARGFRAME ISTACK, 0, STACK
        ARGFRAME PSTACK, 0, STACK
        ARGFRAME XSTACK, 39, STACK
        ARGFRAME IOVERLAY, 0, STATIC
        ARGFRAME DOVERLAY, 0, STATIC
        FUNCALL GenericApp_ProcessZDOMsgs, osal_memcpy
        LOCFRAME ISTACK, 0, STACK
        LOCFRAME PSTACK, 0, STACK
        LOCFRAME XSTACK, 42, STACK
        LOCFRAME IOVERLAY, 0, STATIC
        LOCFRAME DOVERLAY, 0, STATIC
        ARGFRAME ISTACK, 0, STACK
        ARGFRAME PSTACK, 0, STACK
        ARGFRAME XSTACK, 42, STACK
        ARGFRAME IOVERLAY, 0, STATIC
        ARGFRAME DOVERLAY, 0, STATIC
        FUNCALL GenericApp_ProcessZDOMsgs, CustomApp_NodeRegister
        LOCFRAME ISTACK, 0, STACK
        LOCFRAME PSTACK, 0, STACK
        LOCFRAME XSTACK, 63, STACK
        LOCFRAME IOVERLAY, 0, STATIC
        LOCFRAME DOVERLAY, 0, STATIC
        ARGFRAME ISTACK, 0, STACK
        ARGFRAME PSTACK, 0, STACK
        ARGFRAME XSTACK, 63, STACK
        ARGFRAME IOVERLAY, 0, STATIC
        ARGFRAME DOVERLAY, 0, STATIC
        FUNCALL GenericApp_ProcessZDOMsgs, CustomApp_node_register_ind
        LOCFRAME ISTACK, 0, STACK
        LOCFRAME PSTACK, 0, STACK
        LOCFRAME XSTACK, 63, STACK
        LOCFRAME IOVERLAY, 0, STATIC
        LOCFRAME DOVERLAY, 0, STATIC
        ARGFRAME ISTACK, 0, STACK
        ARGFRAME PSTACK, 0, STACK
        ARGFRAME XSTACK, 63, STACK
        ARGFRAME IOVERLAY, 0, STATIC
        ARGFRAME DOVERLAY, 0, STATIC
        FUNCALL GenericApp_ProcessZDOMsgs, HalLcdWriteStringValue
        LOCFRAME ISTACK, 0, STACK
        LOCFRAME PSTACK, 0, STACK
        LOCFRAME XSTACK, 40, STACK
        LOCFRAME IOVERLAY, 0, STATIC
        LOCFRAME DOVERLAY, 0, STATIC
        ARGFRAME ISTACK, 0, STACK
        ARGFRAME PSTACK, 0, STACK
        ARGFRAME XSTACK, 40, STACK
        ARGFRAME IOVERLAY, 0, STATIC
        ARGFRAME DOVERLAY, 0, STATIC
        FUNCALL GenericApp_ProcessZDOMsgs, osal_mem_free
        LOCFRAME ISTACK, 0, STACK
        LOCFRAME PSTACK, 0, STACK
        LOCFRAME XSTACK, 39, STACK
        LOCFRAME IOVERLAY, 0, STATIC
        LOCFRAME DOVERLAY, 0, STATIC
        ARGFRAME ISTACK, 0, STACK
        ARGFRAME PSTACK, 0, STACK
        ARGFRAME XSTACK, 39, STACK
        ARGFRAME IOVERLAY, 0, STATIC
        ARGFRAME DOVERLAY, 0, STATIC
        FUNCALL GenericApp_ProcessZDOMsgs, HalLedSet
        LOCFRAME ISTACK, 0, STACK
        LOCFRAME PSTACK, 0, STACK
        LOCFRAME XSTACK, 39, STACK
        LOCFRAME IOVERLAY, 0, STATIC
        LOCFRAME DOVERLAY, 0, STATIC
        ARGFRAME ISTACK, 0, STACK
        ARGFRAME PSTACK, 0, STACK
        ARGFRAME XSTACK, 39, STACK
        ARGFRAME IOVERLAY, 0, STATIC
        ARGFRAME DOVERLAY, 0, STATIC
        FUNCALL GenericApp_ProcessZDOMsgs, HalLedSet
        LOCFRAME ISTACK, 0, STACK
        LOCFRAME PSTACK, 0, STACK
        LOCFRAME XSTACK, 39, STACK
        LOCFRAME IOVERLAY, 0, STATIC
        LOCFRAME DOVERLAY, 0, STATIC
        ARGFRAME ISTACK, 0, STACK
        ARGFRAME PSTACK, 0, STACK
        ARGFRAME XSTACK, 39, STACK
        ARGFRAME IOVERLAY, 0, STATIC
        ARGFRAME DOVERLAY, 0, STATIC
        FUNCALL GenericApp_ProcessZDOMsgs, ZDO_ParseEPListRsp
        LOCFRAME ISTACK, 0, STACK
        LOCFRAME PSTACK, 0, STACK
        LOCFRAME XSTACK, 39, STACK
        LOCFRAME IOVERLAY, 0, STATIC
        LOCFRAME DOVERLAY, 0, STATIC
        ARGFRAME ISTACK, 0, STACK
        ARGFRAME PSTACK, 0, STACK
        ARGFRAME XSTACK, 39, STACK
        ARGFRAME IOVERLAY, 0, STATIC
        ARGFRAME DOVERLAY, 0, STATIC
        FUNCALL GenericApp_ProcessZDOMsgs, HalLedSet
        LOCFRAME ISTACK, 0, STACK
        LOCFRAME PSTACK, 0, STACK
        LOCFRAME XSTACK, 39, STACK
        LOCFRAME IOVERLAY, 0, STATIC
        LOCFRAME DOVERLAY, 0, STATIC
        ARGFRAME ISTACK, 0, STACK
        ARGFRAME PSTACK, 0, STACK
        ARGFRAME XSTACK, 39, STACK
        ARGFRAME IOVERLAY, 0, STATIC
        ARGFRAME DOVERLAY, 0, STATIC
        FUNCALL GenericApp_ProcessZDOMsgs, osal_mem_free
        LOCFRAME ISTACK, 0, STACK
        LOCFRAME PSTACK, 0, STACK
        LOCFRAME XSTACK, 39, STACK
        LOCFRAME IOVERLAY, 0, STATIC
        LOCFRAME DOVERLAY, 0, STATIC
        ARGFRAME ISTACK, 0, STACK
        ARGFRAME PSTACK, 0, STACK
        ARGFRAME XSTACK, 39, STACK
        ARGFRAME IOVERLAY, 0, STATIC
        ARGFRAME DOVERLAY, 0, STATIC
        REQUIRE ?V0
        REQUIRE ?V1
        REQUIRE ?V2
        REQUIRE ?V3
        REQUIRE ?V4
        REQUIRE ?V5
        REQUIRE ?V6
        MOV     A,#-0xf
        LCALL   ?BANKED_ENTER_XDATA
          CFI DPH0 load(1, XDATA, add(CFA_XSP16, literal(-1)))
          CFI DPL0 load(1, XDATA, add(CFA_XSP16, literal(-2)))
          CFI ?BRET_EXT load(1, XDATA, add(CFA_XSP16, literal(-3)))
          CFI ?RET_HIGH load(1, XDATA, add(CFA_XSP16, literal(-4)))
          CFI ?RET_LOW load(1, XDATA, add(CFA_XSP16, literal(-5)))
          CFI R7 load(1, XDATA, add(CFA_XSP16, literal(-6)))
          CFI V6 load(1, XDATA, add(CFA_XSP16, literal(-7)))
          CFI V5 load(1, XDATA, add(CFA_XSP16, literal(-8)))
          CFI V4 load(1, XDATA, add(CFA_XSP16, literal(-9)))
          CFI V3 load(1, XDATA, add(CFA_XSP16, literal(-10)))
          CFI V2 load(1, XDATA, add(CFA_XSP16, literal(-11)))
          CFI V1 load(1, XDATA, add(CFA_XSP16, literal(-12)))
          CFI V0 load(1, XDATA, add(CFA_XSP16, literal(-13)))
          CFI VB load(1, XDATA, add(CFA_XSP16, literal(-14)))
          CFI R6 load(1, XDATA, add(CFA_XSP16, literal(-15)))
          CFI CFA_SP SP+0
          CFI CFA_XSP16 add(XSP16, 15)
        ; Saved register size: 15
        ; Auto size: 24
        MOV     A,#-0x18
        LCALL   ?ALLOC_XSTACK8
          CFI CFA_XSP16 add(XSP16, 39)
        MOV     A,R2
        MOV     R6,A
        MOV     A,R3
        MOV     R7,A
//  706 	ZDO_DeviceAnnce_t *devAnnce=NULL;
//  707 	nodeList_t *pnode;
//  708 	afAddrType_t addr64;
//  709 	afAddrType_t addr16;
//  710 
//  711 
//  712   switch ( inMsg->clusterID )
        MOV     A,R6
        ADD     A,#0xc
        MOV     DPL,A
        CLR     A
        ADDC    A,R7
        MOV     DPH,A
        LCALL   ?Subroutine23 & 0xFFFF
??CrossCallReturnLabel_26:
        LCALL   ?US_SWITCH_SPARSE
`?<Jumptable for GenericApp_ProcessZDOMsgs>_0`:
        DATA
        DATA16
        DATA
        DATA16
        DATA
        DATA16
        DW        0
        DATA
        DATA16
        DATA
        DATA16
        DATA
        DATA16
        DW        3
        DATA
        DATA16
        DATA
        DATA16
        DATA
        DATA16
        DW        19
        DATA
        DATA16
        DATA
        DATA16
        DATA
        DATA16
        DW        ??GenericApp_ProcessZDOMsgs_0
        DATA
        DATA16
        DATA
        DATA16
        DATA
        DATA16
        DW        32774
        DATA
        DATA16
        DATA
        DATA16
        DATA
        DATA16
        DW        ??GenericApp_ProcessZDOMsgs_1
        DATA
        DATA16
        DATA
        DATA16
        DATA
        DATA16
        DW        32800
        DATA
        DATA16
        DATA
        DATA16
        DATA
        DATA16
        DW        ??GenericApp_ProcessZDOMsgs_2
        DATA
        DATA16
        DATA
        DATA16
        DW        ??GenericApp_ProcessZDOMsgs_3
        CODE
//  713   {
//  714       case Device_annce:    //chaokw
//  715       {
//  716 		  devAnnce = (ZDO_DeviceAnnce_t *)osal_mem_alloc( sizeof(  ZDO_DeviceAnnce_t ));
??GenericApp_ProcessZDOMsgs_0:
        ; Setup parameters for call to function osal_mem_alloc
        MOV     R2,#0xb
        MOV     R3,#0x0
        LCALL   `??osal_mem_alloc::?relay`; Banked call to: osal_mem_alloc
        MOV     ?V0,R2
        MOV     ?V1,R3
//  717                 if ( devAnnce == NULL )
        MOV     A,R2
        ORL     A,?V1
        JNZ     $+5
        LJMP    ??GenericApp_ProcessZDOMsgs_3 & 0xFFFF
//  718                 {
//  719                      return;
//  720                 }
//  721 		  ZDO_ParseDeviceAnnce( inMsg, devAnnce );
        ; Setup parameters for call to function ZDO_ParseDeviceAnnce
        MOV     R4,?V0
        MOV     R5,?V1
        MOV     A,R6
        MOV     R2,A
        MOV     A,R7
        MOV     R3,A
        LCALL   `??ZDO_ParseDeviceAnnce::?relay`; Banked call to: ZDO_ParseDeviceAnnce
//  722 		  if ( devAnnce )
//  723 		  {			  
//  724 			  addr16.addr.shortAddr = devAnnce->nwkAddr ;	 
        MOV     DPL,?V0
        MOV     DPH,?V1
        LCALL   ?Subroutine26 & 0xFFFF
??CrossCallReturnLabel_32:
        MOV     DPL,?XSP + 0
        MOV     DPH,?XSP + 1
        LCALL   ?Subroutine15 & 0xFFFF
//  725 			  osal_memcpy(&addr64.addr.extAddr, &devAnnce->extAddr[0], Z_EXTADDR_LEN);
??CrossCallReturnLabel_13:
        ; Setup parameters for call to function osal_memcpy
        MOV     DPL,?V0
        MOV     DPH,?V1
        INC     DPTR
        INC     DPTR
        MOV     R1,DPL
        MOV     R2,DPH
        MOV     ?V4,R1
        MOV     ?V5,R2
        MOV     ?V6,#0x0
        MOV     R0,#?V4
        LCALL   ?PUSH_XSTACK_I_THREE
          CFI CFA_XSP16 add(XSP16, 42)
        MOV     R4,#0x8
        MOV     R5,#0x0
        MOV     A,#0xf
        LCALL   ?XSTACK_DISP101_8
        LCALL   `??osal_memcpy::?relay`; Banked call to: osal_memcpy
        MOV     A,#0x3
        LCALL   ?DEALLOC_XSTACK8
          CFI CFA_XSP16 add(XSP16, 39)
//  726 				 
//  727 			  pnode=CustomApp_NodeRegister(addr64,addr16);
//  728 			  if(pnode!=NULL)
        ; Setup parameters for call to function CustomApp_NodeRegister
        MOV     DPL,?XSP + 0
        MOV     DPH,?XSP + 1
        MOV     A,#0xc
        LCALL   ?PUSH_XSTACK8_X
          CFI CFA_XSP16 add(XSP16, 51)
        MOV     A,#0x18
        LCALL   ?XSTACK_DISP0_8
        MOV     A,#0xc
        LCALL   ?PUSH_XSTACK8_X
          CFI CFA_XSP16 add(XSP16, 63)
        LCALL   `??CustomApp_NodeRegister::?relay`; Banked call to: CustomApp_NodeRegister
        MOV     A,#0x18
        LCALL   ?DEALLOC_XSTACK8
          CFI CFA_XSP16 add(XSP16, 39)
        MOV     ?V3,R3
        MOV     A,R2
        ORL     A,?V3
        JZ      ??GenericApp_ProcessZDOMsgs_4
//  729 			  {
//  730 			       CustomApp_node_register_ind(addr64, addr16);	//0x18
        ; Setup parameters for call to function CustomApp_node_register_ind
        MOV     DPL,?XSP + 0
        MOV     DPH,?XSP + 1
        MOV     A,#0xc
        LCALL   ?PUSH_XSTACK8_X
          CFI CFA_XSP16 add(XSP16, 51)
        MOV     A,#0x18
        LCALL   ?XSTACK_DISP0_8
        MOV     A,#0xc
        LCALL   ?PUSH_XSTACK8_X
          CFI CFA_XSP16 add(XSP16, 63)
        LCALL   `??CustomApp_node_register_ind::?relay`; Banked call to: CustomApp_node_register_ind
        MOV     A,#0x18
        LCALL   ?DEALLOC_XSTACK8
          CFI CFA_XSP16 add(XSP16, 39)
//  731 #if defined( LCD_SUPPORTED )			       
//  732 				HalLcdWriteStringValue( (char*)"nodregOK:", addr16.addr.shortAddr, 16, HAL_LCD_LINE_2 ); 
        ; Setup parameters for call to function HalLcdWriteStringValue
        MOV     ?V2,#0x3
        MOV     R0,#?V2
        LCALL   ?PUSH_XSTACK_I_ONE
          CFI CFA_XSP16 add(XSP16, 40)
        MOV     R1,#0x10
        MOV     A,#0x1
        LCALL   ?XSTACK_DISP0_8
        LCALL   ?Subroutine20 & 0xFFFF
//  733 #endif
//  734 			  }	  
??CrossCallReturnLabel_21:
        LCALL   `??HalLcdWriteStringValue::?relay`; Banked call to: HalLcdWriteStringValue
        MOV     A,#0x1
        LCALL   ?DEALLOC_XSTACK8
          CFI CFA_XSP16 add(XSP16, 39)
//  735                        osal_mem_free( devAnnce );
??GenericApp_ProcessZDOMsgs_4:
        ; Setup parameters for call to function osal_mem_free
        MOV     R2,?V0
        MOV     R3,?V1
        SJMP    ??GenericApp_ProcessZDOMsgs_5
//  736 		  }
//  737       }
//  738       break;
//  739 
//  740   
//  741     case End_Device_Bind_rsp:
//  742       if ( ZDO_ParseBindRsp( inMsg ) == ZSuccess )
??GenericApp_ProcessZDOMsgs_2:
        MOV     A,R6
        ADD     A,#0x13
        MOV     DPL,A
        CLR     A
        ADDC    A,R7
        MOV     DPH,A
        MOVX    A,@DPTR
        MOV     R0,A
        INC     DPTR
        MOVX    A,@DPTR
        MOV     DPH,A
        MOV     DPL,R0
        MOVX    A,@DPTR
        JNZ     ??GenericApp_ProcessZDOMsgs_6
//  743       {
//  744         // Light LED
//  745         HalLedSet( HAL_LED_4, HAL_LED_MODE_ON );
        ; Setup parameters for call to function HalLedSet
        MOV     R2,#0x1
        SJMP    ??GenericApp_ProcessZDOMsgs_7
//  746       }
//  747 #if defined( BLINK_LEDS )
//  748       else
//  749       {
//  750         // Flash LED to show failure
//  751         HalLedSet ( HAL_LED_4, HAL_LED_MODE_FLASH );
??GenericApp_ProcessZDOMsgs_6:
        ; Setup parameters for call to function HalLedSet
        MOV     R2,#0x4
??GenericApp_ProcessZDOMsgs_7:
        MOV     R1,#0x8
        LCALL   `??HalLedSet::?relay`; Banked call to: HalLedSet
        SJMP    ??GenericApp_ProcessZDOMsgs_3
//  752       }
//  753 #endif
//  754       break;
//  755 
//  756     case Match_Desc_rsp:
//  757       {
//  758         ZDO_ActiveEndpointRsp_t *pRsp = ZDO_ParseEPListRsp( inMsg );
??GenericApp_ProcessZDOMsgs_1:
        ; Setup parameters for call to function ZDO_ParseEPListRsp
        LCALL   `??ZDO_ParseEPListRsp::?relay`; Banked call to: ZDO_ParseEPListRsp
        MOV     ?V0,R2
        MOV     ?V1,R3
        MOV     R6,?V0
        MOV     R7,?V1
//  759         if ( pRsp )
        MOV     A,R6
        ORL     A,R7
        JZ      ??GenericApp_ProcessZDOMsgs_3
//  760         {
//  761           if ( pRsp->status == ZSuccess && pRsp->cnt )
        MOV     DPL,R6
        MOV     DPH,R7
        MOVX    A,@DPTR
        JNZ     ??GenericApp_ProcessZDOMsgs_8
        INC     DPTR
        INC     DPTR
        INC     DPTR
        MOVX    A,@DPTR
        JZ      ??GenericApp_ProcessZDOMsgs_8
//  762           {
//  763             GenericApp_DstAddr.addrMode = (afAddrMode_t)Addr16Bit;
        MOV     DPTR,#GenericApp_DstAddr + 8
        MOV     A,#0x2
        LCALL   ?Subroutine44 & 0xFFFF
//  764             GenericApp_DstAddr.addr.shortAddr = pRsp->nwkAddr;
??CrossCallReturnLabel_73:
        LCALL   ?Subroutine26 & 0xFFFF
??CrossCallReturnLabel_33:
        MOV     DPTR,#GenericApp_DstAddr
        MOV     A,R0
        MOVX    @DPTR,A
        LCALL   ?Subroutine12 & 0xFFFF
//  765             // Take the first endpoint, Can be changed to search through endpoints
//  766             GenericApp_DstAddr.endPoint = pRsp->epList[0];
??CrossCallReturnLabel_9:
        MOV     DPTR,#GenericApp_DstAddr + 9
        MOVX    @DPTR,A
//  767 
//  768             // Light LED
//  769             HalLedSet( HAL_LED_4, HAL_LED_MODE_ON );
        ; Setup parameters for call to function HalLedSet
        MOV     R2,#0x1
        MOV     R1,#0x8
        LCALL   `??HalLedSet::?relay`; Banked call to: HalLedSet
//  770           }
//  771           osal_mem_free( pRsp );
??GenericApp_ProcessZDOMsgs_8:
        ; Setup parameters for call to function osal_mem_free
        MOV     A,R6
        MOV     R2,A
        MOV     A,R7
        MOV     R3,A
??GenericApp_ProcessZDOMsgs_5:
        LCALL   `??osal_mem_free::?relay`; Banked call to: osal_mem_free
//  772         }
//  773       }
//  774       break;
//  775   }
//  776 }
??GenericApp_ProcessZDOMsgs_3:
        MOV     A,#0x18
          CFI EndBlock cfiBlock11
        REQUIRE ?Subroutine2
        ; // Fall through to label ?Subroutine2

        RSEG BANKED_CODE:CODE:NOROOT(0)
?Subroutine2:
          CFI Block cfiBlock12 Using cfiCommon0
          CFI NoFunction
          CFI CFA_SP SP+0
          CFI CFA_XSP16 add(XSP16, 39)
          CFI VB load(1, XDATA, add(CFA_XSP16, literal(-14)))
          CFI DPL0 load(1, XDATA, add(CFA_XSP16, literal(-2)))
          CFI DPH0 load(1, XDATA, add(CFA_XSP16, literal(-1)))
          CFI R6 load(1, XDATA, add(CFA_XSP16, literal(-15)))
          CFI R7 load(1, XDATA, add(CFA_XSP16, literal(-6)))
          CFI V0 load(1, XDATA, add(CFA_XSP16, literal(-13)))
          CFI V1 load(1, XDATA, add(CFA_XSP16, literal(-12)))
          CFI V2 load(1, XDATA, add(CFA_XSP16, literal(-11)))
          CFI V3 load(1, XDATA, add(CFA_XSP16, literal(-10)))
          CFI V4 load(1, XDATA, add(CFA_XSP16, literal(-9)))
          CFI V5 load(1, XDATA, add(CFA_XSP16, literal(-8)))
          CFI V6 load(1, XDATA, add(CFA_XSP16, literal(-7)))
          CFI ?BRET_EXT load(1, XDATA, add(CFA_XSP16, literal(-3)))
          CFI ?RET_HIGH load(1, XDATA, add(CFA_XSP16, literal(-4)))
          CFI ?RET_LOW load(1, XDATA, add(CFA_XSP16, literal(-5)))
          CFI Invalid
        LCALL   ?DEALLOC_XSTACK8
          CFI CFA_XSP16 add(XSP16, 15)
          CFI Valid
        MOV     R7,#0x7
        LJMP    ?BANKED_LEAVE_XDATA
          CFI EndBlock cfiBlock12
//  777 
//  778 /*********************************************************************
//  779  * @fn      GenericApp_HandleKeys
//  780  *
//  781  * @brief   Handles all key events for this device.
//  782  *
//  783  * @param   shift - true if in shift/alt.
//  784  * @param   keys - bit field for key events. Valid entries:
//  785  *                 HAL_KEY_SW_4
//  786  *                 HAL_KEY_SW_3
//  787  *                 HAL_KEY_SW_2
//  788  *                 HAL_KEY_SW_1
//  789  *
//  790  * @return  none
//  791  */

        RSEG BANKED_CODE:CODE:NOROOT(0)
//  792 static void GenericApp_HandleKeys( uint8 shift, uint8 keys )
GenericApp_HandleKeys:
          CFI Block cfiBlock13 Using cfiCommon0
          CFI Function GenericApp_HandleKeys
        CODE
//  793 {
        FUNCALL GenericApp_HandleKeys, HalLedSet
        LOCFRAME ISTACK, 0, STACK
        LOCFRAME PSTACK, 0, STACK
        LOCFRAME XSTACK, 21, STACK
        LOCFRAME IOVERLAY, 0, STATIC
        LOCFRAME DOVERLAY, 0, STATIC
        ARGFRAME ISTACK, 0, STACK
        ARGFRAME PSTACK, 0, STACK
        ARGFRAME XSTACK, 21, STACK
        ARGFRAME IOVERLAY, 0, STATIC
        ARGFRAME DOVERLAY, 0, STATIC
        FUNCALL GenericApp_HandleKeys, NLME_GetShortAddr
        LOCFRAME ISTACK, 0, STACK
        LOCFRAME PSTACK, 0, STACK
        LOCFRAME XSTACK, 21, STACK
        LOCFRAME IOVERLAY, 0, STATIC
        LOCFRAME DOVERLAY, 0, STATIC
        ARGFRAME ISTACK, 0, STACK
        ARGFRAME PSTACK, 0, STACK
        ARGFRAME XSTACK, 21, STACK
        ARGFRAME IOVERLAY, 0, STATIC
        ARGFRAME DOVERLAY, 0, STATIC
        FUNCALL GenericApp_HandleKeys, ZDP_EndDeviceBindReq
        LOCFRAME ISTACK, 0, STACK
        LOCFRAME PSTACK, 0, STACK
        LOCFRAME XSTACK, 30, STACK
        LOCFRAME IOVERLAY, 0, STATIC
        LOCFRAME DOVERLAY, 0, STATIC
        ARGFRAME ISTACK, 0, STACK
        ARGFRAME PSTACK, 0, STACK
        ARGFRAME XSTACK, 30, STACK
        ARGFRAME IOVERLAY, 0, STATIC
        ARGFRAME DOVERLAY, 0, STATIC
        FUNCALL GenericApp_HandleKeys, HalLedSet
        LOCFRAME ISTACK, 0, STACK
        LOCFRAME PSTACK, 0, STACK
        LOCFRAME XSTACK, 21, STACK
        LOCFRAME IOVERLAY, 0, STATIC
        LOCFRAME DOVERLAY, 0, STATIC
        ARGFRAME ISTACK, 0, STACK
        ARGFRAME PSTACK, 0, STACK
        ARGFRAME XSTACK, 21, STACK
        ARGFRAME IOVERLAY, 0, STATIC
        ARGFRAME DOVERLAY, 0, STATIC
        FUNCALL GenericApp_HandleKeys, ZDP_MatchDescReq
        LOCFRAME ISTACK, 0, STACK
        LOCFRAME PSTACK, 0, STACK
        LOCFRAME XSTACK, 29, STACK
        LOCFRAME IOVERLAY, 0, STATIC
        LOCFRAME DOVERLAY, 0, STATIC
        ARGFRAME ISTACK, 0, STACK
        ARGFRAME PSTACK, 0, STACK
        ARGFRAME XSTACK, 29, STACK
        ARGFRAME IOVERLAY, 0, STATIC
        ARGFRAME DOVERLAY, 0, STATIC
        REQUIRE ?V0
        REQUIRE ?V1
        REQUIRE ?V2
        REQUIRE ?V3
        MOV     A,#-0xc
        LCALL   ?BANKED_ENTER_XDATA
          CFI DPH0 load(1, XDATA, add(CFA_XSP16, literal(-1)))
          CFI DPL0 load(1, XDATA, add(CFA_XSP16, literal(-2)))
          CFI ?BRET_EXT load(1, XDATA, add(CFA_XSP16, literal(-3)))
          CFI ?RET_HIGH load(1, XDATA, add(CFA_XSP16, literal(-4)))
          CFI ?RET_LOW load(1, XDATA, add(CFA_XSP16, literal(-5)))
          CFI R7 load(1, XDATA, add(CFA_XSP16, literal(-6)))
          CFI V3 load(1, XDATA, add(CFA_XSP16, literal(-7)))
          CFI V2 load(1, XDATA, add(CFA_XSP16, literal(-8)))
          CFI V1 load(1, XDATA, add(CFA_XSP16, literal(-9)))
          CFI V0 load(1, XDATA, add(CFA_XSP16, literal(-10)))
          CFI VB load(1, XDATA, add(CFA_XSP16, literal(-11)))
          CFI R6 load(1, XDATA, add(CFA_XSP16, literal(-12)))
          CFI CFA_SP SP+0
          CFI CFA_XSP16 add(XSP16, 12)
        ; Saved register size: 12
        ; Auto size: 9
        MOV     A,#-0x9
        LCALL   ?ALLOC_XSTACK8
          CFI CFA_XSP16 add(XSP16, 21)
        MOV     A,R2
        MOV     R6,A
//  794   zAddrType_t dstAddr;
//  795 
//  796   // Shift is used to make each button/switch dual purpose.
//  797   if( 0 ) // ( shift )
//  798   {
//  799     if ( keys & HAL_KEY_SW_1 )
//  800     {
//  801     }
//  802     if ( keys & HAL_KEY_SW_2 )
//  803     {
//  804     }
//  805     if ( keys & HAL_KEY_SW_3 )
//  806     {
//  807     }
//  808     if ( keys & HAL_KEY_SW_4 )
//  809     {
//  810     }
//  811   }
//  812   else
//  813   {
//  814     if ( keys & HAL_KEY_SW_1 )
        MOV     C,0xE0 /* A   */.0
        JNC     ??GenericApp_HandleKeys_0
//  815     {
//  816 #if defined( SWITCH1_BIND )
//  817       // We can use SW1 to simulate SW2 for devices that only have one switch,
//  818       keys |= HAL_KEY_SW_2;
//  819 #elif defined( SWITCH1_MATCH )
//  820       // or use SW1 to simulate SW4 for devices that only have one switch
//  821       keys |= HAL_KEY_SW_4;
//  822 #else
//  823       // Normally, SW1 changes the rate that messages are sent
//  824       if ( txMsgDelay > 100 )
        MOV     DPTR,#__Constant_65
        MOV     R0,#?V0
        LCALL   ?L_MOV_X
        MOV     DPTR,#txMsgDelay
        MOV     R0,#?V0
        LCALL   ?UL_GT_X
        MOV     DPTR,#txMsgDelay
        JC      ??GenericApp_HandleKeys_1
//  825       {
//  826         // Cut the message TX delay in half
//  827         txMsgDelay /= 2;
        MOV     R0,#?V0
        LCALL   ?L_MOV_X
        MOV     A,#0x1
        MOV     R0,#?V0
        LCALL   ?UL_SHR
        MOV     DPTR,#txMsgDelay
        MOV     R0,#?V0
        LCALL   ?L_MOV_TO_X
        SJMP    ??GenericApp_HandleKeys_0
//  828       }
//  829       else
//  830       {
//  831         // Reset to the default
//  832         txMsgDelay = GENERICAPP_SEND_MSG_TIMEOUT;
??GenericApp_HandleKeys_1:
        MOV     A,#-0x78
        MOVX    @DPTR,A
        INC     DPTR
        MOV     A,#0x13
        MOVX    @DPTR,A
        INC     DPTR
        CLR     A
        MOVX    @DPTR,A
        INC     DPTR
        MOVX    @DPTR,A
//  833       }
//  834 #endif
//  835     }
//  836 
//  837     if ( keys & HAL_KEY_SW_2 )
??GenericApp_HandleKeys_0:
        MOV     A,R6
        MOV     C,0xE0 /* A   */.1
        JNC     ??GenericApp_HandleKeys_2
//  838     {
//  839       HalLedSet ( HAL_LED_4, HAL_LED_MODE_OFF );
        ; Setup parameters for call to function HalLedSet
        MOV     R2,#0x0
        MOV     R1,#0x8
        LCALL   `??HalLedSet::?relay`; Banked call to: HalLedSet
//  840 
//  841       // Initiate an End Device Bind Request for the mandatory endpoint
//  842       dstAddr.addrMode = Addr16Bit;
        MOV     A,#0x8
        LCALL   ?XSTACK_DISP0_8
        MOV     A,#0x2
        MOVX    @DPTR,A
//  843       dstAddr.addr.shortAddr = 0x0000; // Coordinator
        MOV     DPL,?XSP + 0
        MOV     DPH,?XSP + 1
        CLR     A
        MOVX    @DPTR,A
        INC     DPTR
        MOVX    @DPTR,A
//  844       ZDP_EndDeviceBindReq( &dstAddr, NLME_GetShortAddr(),
//  845                             GenericApp_epDesc.endPoint,
//  846                             GENERICAPP_PROFID,
//  847                             GENERICAPP_MAX_CLUSTERS, (cId_t *)GenericApp_ClusterList,
//  848                             GENERICAPP_MAX_CLUSTERS, (cId_t *)GenericApp_ClusterList,
//  849                             FALSE );
        ; Setup parameters for call to function NLME_GetShortAddr
        LCALL   `??NLME_GetShortAddr::?relay`; Banked call to: NLME_GetShortAddr
        MOV     ?V0,R2
        MOV     ?V1,R3
        MOV     R4,?V0
        MOV     R5,?V1
        MOV     ?V0,#GenericApp_ClusterList & 0xff
        MOV     ?V1,#(GenericApp_ClusterList >> 8) & 0xff
        ; Setup parameters for call to function ZDP_EndDeviceBindReq
        MOV     ?V2,#0x0
        MOV     R0,#?V2
        LCALL   ?PUSH_XSTACK_I_ONE
          CFI CFA_XSP16 add(XSP16, 22)
        MOV     R0,#?V0
        LCALL   ?PUSH_XSTACK_I_TWO
          CFI CFA_XSP16 add(XSP16, 24)
        MOV     ?V2,#0x7
        MOV     R0,#?V2
        LCALL   ?PUSH_XSTACK_I_ONE
          CFI CFA_XSP16 add(XSP16, 25)
        MOV     R0,#?V0
        LCALL   ?PUSH_XSTACK_I_TWO
          CFI CFA_XSP16 add(XSP16, 27)
        MOV     ?V0,#0x7
        MOV     R0,#?V0
        LCALL   ?PUSH_XSTACK_I_ONE
          CFI CFA_XSP16 add(XSP16, 28)
        MOV     ?V0,#0x4
        MOV     ?V1,#0xf
        MOV     R0,#?V0
        LCALL   ?PUSH_XSTACK_I_TWO
          CFI CFA_XSP16 add(XSP16, 30)
        MOV     DPTR,#GenericApp_epDesc
        MOVX    A,@DPTR
        MOV     R1,A
        MOV     A,#0x9
        LCALL   ?XSTACK_DISP101_8
        LCALL   `??ZDP_EndDeviceBindReq::?relay`; Banked call to: ZDP_EndDeviceBindReq
        MOV     A,#0x9
        LCALL   ?DEALLOC_XSTACK8
          CFI CFA_XSP16 add(XSP16, 21)
//  850     }
//  851 
//  852     if ( keys & HAL_KEY_SW_3 )
//  853     {
//  854     }
//  855 
//  856     if ( keys & HAL_KEY_SW_4 )
??GenericApp_HandleKeys_2:
        MOV     A,R6
        MOV     C,0xE0 /* A   */.3
        JNC     ??GenericApp_HandleKeys_3
//  857     {
//  858       HalLedSet ( HAL_LED_4, HAL_LED_MODE_OFF );
        ; Setup parameters for call to function HalLedSet
        MOV     R2,#0x0
        MOV     R1,#0x8
        LCALL   `??HalLedSet::?relay`; Banked call to: HalLedSet
//  859       // Initiate a Match Description Request (Service Discovery)
//  860       dstAddr.addrMode = AddrBroadcast;
        MOV     A,#0x8
        LCALL   ?XSTACK_DISP0_8
        MOV     A,#0xf
        MOVX    @DPTR,A
//  861       dstAddr.addr.shortAddr = NWK_BROADCAST_SHORTADDR;
        MOV     DPL,?XSP + 0
        MOV     DPH,?XSP + 1
        MOV     A,#-0x1
        MOVX    @DPTR,A
        INC     DPTR
        MOVX    @DPTR,A
//  862       ZDP_MatchDescReq( &dstAddr, NWK_BROADCAST_SHORTADDR,
//  863                         GENERICAPP_PROFID,
//  864                         GENERICAPP_MAX_CLUSTERS, (cId_t *)GenericApp_ClusterList,
//  865                         GENERICAPP_MAX_CLUSTERS, (cId_t *)GenericApp_ClusterList,
//  866                         FALSE );
        MOV     ?V0,#GenericApp_ClusterList & 0xff
        MOV     ?V1,#(GenericApp_ClusterList >> 8) & 0xff
        ; Setup parameters for call to function ZDP_MatchDescReq
        MOV     ?V2,#0x0
        MOV     R0,#?V2
        LCALL   ?PUSH_XSTACK_I_ONE
          CFI CFA_XSP16 add(XSP16, 22)
        MOV     R0,#?V0
        LCALL   ?PUSH_XSTACK_I_TWO
          CFI CFA_XSP16 add(XSP16, 24)
        MOV     ?V2,#0x7
        MOV     R0,#?V2
        LCALL   ?PUSH_XSTACK_I_ONE
          CFI CFA_XSP16 add(XSP16, 25)
        MOV     R0,#?V0
        LCALL   ?PUSH_XSTACK_I_TWO
          CFI CFA_XSP16 add(XSP16, 27)
        MOV     ?V0,#0x4
        MOV     ?V1,#0xf
        MOV     R0,#?V0
        LCALL   ?PUSH_XSTACK_I_TWO
          CFI CFA_XSP16 add(XSP16, 29)
        MOV     R1,#0x7
        MOV     R4,#-0x1
        MOV     R5,#-0x1
        MOV     A,#0x8
        LCALL   ?XSTACK_DISP101_8
        LCALL   `??ZDP_MatchDescReq::?relay`; Banked call to: ZDP_MatchDescReq
        MOV     A,#0x8
        LCALL   ?DEALLOC_XSTACK8
          CFI CFA_XSP16 add(XSP16, 21)
//  867     }
//  868   }
//  869 }
??GenericApp_HandleKeys_3:
        MOV     A,#0x9
        LJMP    ?Subroutine1 & 0xFFFF
          CFI EndBlock cfiBlock13
//  870 
//  871 /*********************************************************************
//  872  * LOCAL FUNCTIONS
//  873  */
//  874 
//  875 /*********************************************************************
//  876  * @fn      GenericApp_MessageMSGCB
//  877  *
//  878  * @brief   Data message processor callback.  This function processes
//  879  *          any incoming data - probably from other devices.  So, based
//  880  *          on cluster ID, perform the intended action.
//  881  *
//  882  * @param   none
//  883  *
//  884  * @return  none
//  885  */

        RSEG BANKED_CODE:CODE:NOROOT(0)
//  886 static void GenericApp_MessageMSGCB( afIncomingMSGPacket_t *pkt )
GenericApp_MessageMSGCB:
          CFI Block cfiBlock14 Using cfiCommon0
          CFI Function GenericApp_MessageMSGCB
        CODE
//  887 {
        FUNCALL GenericApp_MessageMSGCB, osal_getClock
        LOCFRAME ISTACK, 0, STACK
        LOCFRAME PSTACK, 0, STACK
        LOCFRAME XSTACK, 12, STACK
        LOCFRAME IOVERLAY, 0, STATIC
        LOCFRAME DOVERLAY, 0, STATIC
        ARGFRAME ISTACK, 0, STACK
        ARGFRAME PSTACK, 0, STACK
        ARGFRAME XSTACK, 12, STACK
        ARGFRAME IOVERLAY, 0, STATIC
        ARGFRAME DOVERLAY, 0, STATIC
        FUNCALL GenericApp_MessageMSGCB, HalLedSet
        LOCFRAME ISTACK, 0, STACK
        LOCFRAME PSTACK, 0, STACK
        LOCFRAME XSTACK, 12, STACK
        LOCFRAME IOVERLAY, 0, STATIC
        LOCFRAME DOVERLAY, 0, STATIC
        ARGFRAME ISTACK, 0, STACK
        ARGFRAME PSTACK, 0, STACK
        ARGFRAME XSTACK, 12, STACK
        ARGFRAME IOVERLAY, 0, STATIC
        ARGFRAME DOVERLAY, 0, STATIC
        FUNCALL GenericApp_MessageMSGCB, HalLcdWriteString
        LOCFRAME ISTACK, 0, STACK
        LOCFRAME PSTACK, 0, STACK
        LOCFRAME XSTACK, 12, STACK
        LOCFRAME IOVERLAY, 0, STATIC
        LOCFRAME DOVERLAY, 0, STATIC
        ARGFRAME ISTACK, 0, STACK
        ARGFRAME PSTACK, 0, STACK
        ARGFRAME XSTACK, 12, STACK
        ARGFRAME IOVERLAY, 0, STATIC
        ARGFRAME DOVERLAY, 0, STATIC
        FUNCALL GenericApp_MessageMSGCB, HalLcdWriteStringValue
        LOCFRAME ISTACK, 0, STACK
        LOCFRAME PSTACK, 0, STACK
        LOCFRAME XSTACK, 13, STACK
        LOCFRAME IOVERLAY, 0, STATIC
        LOCFRAME DOVERLAY, 0, STATIC
        ARGFRAME ISTACK, 0, STACK
        ARGFRAME PSTACK, 0, STACK
        ARGFRAME XSTACK, 13, STACK
        ARGFRAME IOVERLAY, 0, STATIC
        ARGFRAME DOVERLAY, 0, STATIC
        FUNCALL GenericApp_MessageMSGCB, CustomApp_AF_P2P_Data_Process
        LOCFRAME ISTACK, 0, STACK
        LOCFRAME PSTACK, 0, STACK
        LOCFRAME XSTACK, 12, STACK
        LOCFRAME IOVERLAY, 0, STATIC
        LOCFRAME DOVERLAY, 0, STATIC
        ARGFRAME ISTACK, 0, STACK
        ARGFRAME PSTACK, 0, STACK
        ARGFRAME XSTACK, 12, STACK
        ARGFRAME IOVERLAY, 0, STATIC
        ARGFRAME DOVERLAY, 0, STATIC
        FUNCALL GenericApp_MessageMSGCB, CustomApp_AF_Group_Data_Process
        LOCFRAME ISTACK, 0, STACK
        LOCFRAME PSTACK, 0, STACK
        LOCFRAME XSTACK, 12, STACK
        LOCFRAME IOVERLAY, 0, STATIC
        LOCFRAME DOVERLAY, 0, STATIC
        ARGFRAME ISTACK, 0, STACK
        ARGFRAME PSTACK, 0, STACK
        ARGFRAME XSTACK, 12, STACK
        ARGFRAME IOVERLAY, 0, STATIC
        ARGFRAME DOVERLAY, 0, STATIC
        FUNCALL GenericApp_MessageMSGCB, CustomApp_Coordinator_Online
        LOCFRAME ISTACK, 0, STACK
        LOCFRAME PSTACK, 0, STACK
        LOCFRAME XSTACK, 12, STACK
        LOCFRAME IOVERLAY, 0, STATIC
        LOCFRAME DOVERLAY, 0, STATIC
        ARGFRAME ISTACK, 0, STACK
        ARGFRAME PSTACK, 0, STACK
        ARGFRAME XSTACK, 12, STACK
        ARGFRAME IOVERLAY, 0, STATIC
        ARGFRAME DOVERLAY, 0, STATIC
        FUNCALL GenericApp_MessageMSGCB, CustomApp_AF_Broadcast_Data_Process
        LOCFRAME ISTACK, 0, STACK
        LOCFRAME PSTACK, 0, STACK
        LOCFRAME XSTACK, 12, STACK
        LOCFRAME IOVERLAY, 0, STATIC
        LOCFRAME DOVERLAY, 0, STATIC
        ARGFRAME ISTACK, 0, STACK
        ARGFRAME PSTACK, 0, STACK
        ARGFRAME XSTACK, 12, STACK
        ARGFRAME IOVERLAY, 0, STATIC
        ARGFRAME DOVERLAY, 0, STATIC
        FUNCALL GenericApp_MessageMSGCB, HalLcdWriteStringValue
        LOCFRAME ISTACK, 0, STACK
        LOCFRAME PSTACK, 0, STACK
        LOCFRAME XSTACK, 13, STACK
        LOCFRAME IOVERLAY, 0, STATIC
        LOCFRAME DOVERLAY, 0, STATIC
        ARGFRAME ISTACK, 0, STACK
        ARGFRAME PSTACK, 0, STACK
        ARGFRAME XSTACK, 13, STACK
        ARGFRAME IOVERLAY, 0, STATIC
        ARGFRAME DOVERLAY, 0, STATIC
        FUNCALL GenericApp_MessageMSGCB, CustomApp_process_ping
        LOCFRAME ISTACK, 0, STACK
        LOCFRAME PSTACK, 0, STACK
        LOCFRAME XSTACK, 12, STACK
        LOCFRAME IOVERLAY, 0, STATIC
        LOCFRAME DOVERLAY, 0, STATIC
        ARGFRAME ISTACK, 0, STACK
        ARGFRAME PSTACK, 0, STACK
        ARGFRAME XSTACK, 12, STACK
        ARGFRAME IOVERLAY, 0, STATIC
        ARGFRAME DOVERLAY, 0, STATIC
        FUNCALL GenericApp_MessageMSGCB, CustomApp_Get_Flex_Devinfo
        LOCFRAME ISTACK, 0, STACK
        LOCFRAME PSTACK, 0, STACK
        LOCFRAME XSTACK, 12, STACK
        LOCFRAME IOVERLAY, 0, STATIC
        LOCFRAME DOVERLAY, 0, STATIC
        ARGFRAME ISTACK, 0, STACK
        ARGFRAME PSTACK, 0, STACK
        ARGFRAME XSTACK, 12, STACK
        ARGFRAME IOVERLAY, 0, STATIC
        ARGFRAME DOVERLAY, 0, STATIC
        FUNCALL GenericApp_MessageMSGCB, Onboard_soft_reset
        LOCFRAME ISTACK, 0, STACK
        LOCFRAME PSTACK, 0, STACK
        LOCFRAME XSTACK, 12, STACK
        LOCFRAME IOVERLAY, 0, STATIC
        LOCFRAME DOVERLAY, 0, STATIC
        ARGFRAME ISTACK, 0, STACK
        ARGFRAME PSTACK, 0, STACK
        ARGFRAME XSTACK, 12, STACK
        ARGFRAME IOVERLAY, 0, STATIC
        ARGFRAME DOVERLAY, 0, STATIC
        FUNCALL GenericApp_MessageMSGCB, osal_getClock
        LOCFRAME ISTACK, 0, STACK
        LOCFRAME PSTACK, 0, STACK
        LOCFRAME XSTACK, 12, STACK
        LOCFRAME IOVERLAY, 0, STATIC
        LOCFRAME DOVERLAY, 0, STATIC
        ARGFRAME ISTACK, 0, STACK
        ARGFRAME PSTACK, 0, STACK
        ARGFRAME XSTACK, 12, STACK
        ARGFRAME IOVERLAY, 0, STATIC
        ARGFRAME DOVERLAY, 0, STATIC
        FUNCALL GenericApp_MessageMSGCB, HalLcdWriteStringValue
        LOCFRAME ISTACK, 0, STACK
        LOCFRAME PSTACK, 0, STACK
        LOCFRAME XSTACK, 13, STACK
        LOCFRAME IOVERLAY, 0, STATIC
        LOCFRAME DOVERLAY, 0, STATIC
        ARGFRAME ISTACK, 0, STACK
        ARGFRAME PSTACK, 0, STACK
        ARGFRAME XSTACK, 13, STACK
        ARGFRAME IOVERLAY, 0, STATIC
        ARGFRAME DOVERLAY, 0, STATIC
        FUNCALL GenericApp_MessageMSGCB, HalLcdWriteStringValue
        LOCFRAME ISTACK, 0, STACK
        LOCFRAME PSTACK, 0, STACK
        LOCFRAME XSTACK, 13, STACK
        LOCFRAME IOVERLAY, 0, STATIC
        LOCFRAME DOVERLAY, 0, STATIC
        ARGFRAME ISTACK, 0, STACK
        ARGFRAME PSTACK, 0, STACK
        ARGFRAME XSTACK, 13, STACK
        ARGFRAME IOVERLAY, 0, STATIC
        ARGFRAME DOVERLAY, 0, STATIC
        FUNCALL GenericApp_MessageMSGCB, GenericApp_Device_JoinRsp
        LOCFRAME ISTACK, 0, STACK
        LOCFRAME PSTACK, 0, STACK
        LOCFRAME XSTACK, 12, STACK
        LOCFRAME IOVERLAY, 0, STATIC
        LOCFRAME DOVERLAY, 0, STATIC
        ARGFRAME ISTACK, 0, STACK
        ARGFRAME PSTACK, 0, STACK
        ARGFRAME XSTACK, 12, STACK
        ARGFRAME IOVERLAY, 0, STATIC
        ARGFRAME DOVERLAY, 0, STATIC
        FUNCALL GenericApp_MessageMSGCB, GenericApp_Get_PermitJoin
        LOCFRAME ISTACK, 0, STACK
        LOCFRAME PSTACK, 0, STACK
        LOCFRAME XSTACK, 12, STACK
        LOCFRAME IOVERLAY, 0, STATIC
        LOCFRAME DOVERLAY, 0, STATIC
        ARGFRAME ISTACK, 0, STACK
        ARGFRAME PSTACK, 0, STACK
        ARGFRAME XSTACK, 12, STACK
        ARGFRAME IOVERLAY, 0, STATIC
        ARGFRAME DOVERLAY, 0, STATIC
        REQUIRE ?V0
        REQUIRE ?V1
        REQUIRE ?V2
        REQUIRE ?V3
        MOV     A,#-0xc
        LCALL   ?BANKED_ENTER_XDATA
          CFI DPH0 load(1, XDATA, add(CFA_XSP16, literal(-1)))
          CFI DPL0 load(1, XDATA, add(CFA_XSP16, literal(-2)))
          CFI ?BRET_EXT load(1, XDATA, add(CFA_XSP16, literal(-3)))
          CFI ?RET_HIGH load(1, XDATA, add(CFA_XSP16, literal(-4)))
          CFI ?RET_LOW load(1, XDATA, add(CFA_XSP16, literal(-5)))
          CFI R7 load(1, XDATA, add(CFA_XSP16, literal(-6)))
          CFI V3 load(1, XDATA, add(CFA_XSP16, literal(-7)))
          CFI V2 load(1, XDATA, add(CFA_XSP16, literal(-8)))
          CFI V1 load(1, XDATA, add(CFA_XSP16, literal(-9)))
          CFI V0 load(1, XDATA, add(CFA_XSP16, literal(-10)))
          CFI VB load(1, XDATA, add(CFA_XSP16, literal(-11)))
          CFI R6 load(1, XDATA, add(CFA_XSP16, literal(-12)))
          CFI CFA_SP SP+0
          CFI CFA_XSP16 add(XSP16, 12)
        ; Saved register size: 12
        ; Auto size: 0
        MOV     A,R2
        MOV     R6,A
        MOV     A,R3
        MOV     R7,A
//  888   uint16 msgid;
//  889 
//  890 #if( ZSTACK_DEVICE_BUILD == DEVICE_BUILD_COORDINATOR)		
//  891   nodeList_t *nodeSearch;
//  892   pingpkt_t * pinbgpkt;
//  893   if(pkt->srcAddr.addr.shortAddr != 0x0000)  //chaokw ping
//  894   {
//  895     pinbgpkt = (pingpkt_t *)(pkt->cmd.Data);
//  896     nodeSearch = CustomApp_NodeFindNwkAddrList(pinbgpkt->devAddr16.addr.shortAddr);
//  897     if (nodeSearch!=NULL)
//  898     {	
//  899         nodeSearch->oldtimestamp = nodeSearch->timestamp; 
//  900     }
//  901   }
//  902 #endif    
//  903 
//  904 #if( ZSTACK_DEVICE_BUILD != DEVICE_BUILD_COORDINATOR)		
//  905   if(pkt->srcAddr.addr.shortAddr == 0x0000)  //chaokw ping
        MOV     DPL,R6
        MOV     DPH,R7
        LCALL   ?Subroutine17 & 0xFFFF
??CrossCallReturnLabel_87:
        JNZ     ??GenericApp_MessageMSGCB_0
//  906   {
//  907        pingRspTime = osal_getClock();
        ; Setup parameters for call to function osal_getClock
        LCALL   `??osal_getClock::?relay`; Banked call to: osal_getClock
        MOV     A,R2
        MOV     R0,A
        MOV     A,R3
        MOV     R1,A
        MOV     A,R4
        MOV     R2,A
        MOV     A,R5
        MOV     R3,A
        MOV     DPTR,#pingRspTime
        LCALL   ?XSTORE_R0123
//  908   }
//  909 #endif
//  910 
//  911 
//  912   switch ( pkt->clusterId )
??GenericApp_MessageMSGCB_0:
        MOV     DPL,R6
        MOV     DPH,R7
        INC     DPTR
        INC     DPTR
        INC     DPTR
        INC     DPTR
        LCALL   ?Subroutine23 & 0xFFFF
??CrossCallReturnLabel_27:
        LCALL   ?US_SWITCH_DENSE
`?<Jumptable for GenericApp_MessageMSGCB>_0`:
        DATA
        DATA16
        DATA
        DATA16
        DW        1
        DATA
        DATA8
        DATA
        DATA8
        DB        6
        DATA
        DATA16
        DATA
        DATA16
        DW        ??GenericApp_MessageMSGCB_1
        DATA
        DATA16
        DATA
        DATA16
        DW        ??GenericApp_MessageMSGCB_2
        DATA
        DATA16
        DATA
        DATA16
        DW        ??GenericApp_MessageMSGCB_3
        DATA
        DATA16
        DATA
        DATA16
        DW        ??GenericApp_MessageMSGCB_4
        DATA
        DATA16
        DATA
        DATA16
        DW        ??GenericApp_MessageMSGCB_5
        DATA
        DATA16
        DATA
        DATA16
        DW        ??GenericApp_MessageMSGCB_6
        DATA
        DATA16
        DATA
        DATA16
        DW        ??GenericApp_MessageMSGCB_7
        DATA
        DATA16
        DATA
        DATA16
        DW        ??GenericApp_MessageMSGCB_8
        CODE
//  913   {
//  914     case GENERICAPP_CLUSTERID:
//  915       rxMsgCount += 1;  // Count this message
??GenericApp_MessageMSGCB_2:
        MOV     DPTR,#rxMsgCount
        LCALL   ?Subroutine41 & 0xFFFF
//  916       HalLedSet ( HAL_LED_4, HAL_LED_MODE_BLINK );  // Blink an LED
??CrossCallReturnLabel_69:
        ; Setup parameters for call to function HalLedSet
        MOV     R2,#0x2
        MOV     R1,#0x8
        LCALL   `??HalLedSet::?relay`; Banked call to: HalLedSet
//  917 #if defined( LCD_SUPPORTED )
//  918       HalLcdWriteString( (char*)pkt->cmd.Data, HAL_LCD_LINE_1 );
        ; Setup parameters for call to function HalLcdWriteString
        MOV     R1,#0x1
        MOV     A,R6
        ADD     A,#0x22
        LCALL   ??Subroutine48_0 & 0xFFFF
??CrossCallReturnLabel_93:
        LCALL   `??HalLcdWriteString::?relay`; Banked call to: HalLcdWriteString
//  919       HalLcdWriteStringValue( "Rcvd:", rxMsgCount, 10, HAL_LCD_LINE_2 );
        ; Setup parameters for call to function HalLcdWriteStringValue
        MOV     ?V0,#0x3
        MOV     R0,#?V0
        LCALL   ?PUSH_XSTACK_I_ONE
          CFI CFA_XSP16 add(XSP16, 13)
        LCALL   ?Subroutine21 & 0xFFFF
??CrossCallReturnLabel_82:
        MOV     R2,#`?<Constant "Rcvd:">` & 0xff
        MOV     R3,#(`?<Constant "Rcvd:">` >> 8) & 0xff
        LJMP    ??GenericApp_MessageMSGCB_9 & 0xFFFF
          CFI CFA_XSP16 add(XSP16, 12)
//  920 #elif defined( WIN32 )
//  921       WPRINTSTR( pkt->cmd.Data );
//  922 #endif
//  923       break;
//  924 
//  925     case GENERICAPP_DATA_P2P_CLUSTERID:
//  926        CustomApp_AF_P2P_Data_Process(pkt);
??GenericApp_MessageMSGCB_3:
        ; Setup parameters for call to function CustomApp_AF_P2P_Data_Process
        MOV     A,R6
        MOV     R2,A
        MOV     A,R7
        MOV     R3,A
        LCALL   `??CustomApp_AF_P2P_Data_Process::?relay`; Banked call to: CustomApp_AF_P2P_Data_Process
//  927 	break;
        LJMP    ??GenericApp_MessageMSGCB_1 & 0xFFFF
//  928 
//  929     case GENERICAPP_GROUP_CLUSTERID:
//  930        CustomApp_AF_Group_Data_Process(pkt);	 
??GenericApp_MessageMSGCB_4:
        ; Setup parameters for call to function CustomApp_AF_Group_Data_Process
        MOV     A,R6
        MOV     R2,A
        MOV     A,R7
        MOV     R3,A
        LCALL   `??CustomApp_AF_Group_Data_Process::?relay`; Banked call to: CustomApp_AF_Group_Data_Process
//  931 	break;
        LJMP    ??GenericApp_MessageMSGCB_1 & 0xFFFF
//  932 
//  933     case GENERICAPP_BROADCAST_CLUSTERID:
//  934         msgid = pkt->cmd.Data[4] | pkt->cmd.Data[5] << 8;
//  935         switch ( msgid )	
??GenericApp_MessageMSGCB_6:
        LCALL   ?Subroutine35 & 0xFFFF
??CrossCallReturnLabel_57:
        MOVX    A,@DPTR
        MOV     R0,A
        LCALL   ?Subroutine19 & 0xFFFF
??CrossCallReturnLabel_19:
        MOVX    A,@DPTR
        MOV     R2,A
        MOV     DPL,R0
        MOV     DPH,R1
        INC     DPTR
        INC     DPTR
        INC     DPTR
        INC     DPTR
        INC     DPTR
        MOVX    A,@DPTR
        MOV     R1,A
        MOV     A,R2
        MOV     R0,A
        MOV     A,#0x1a
        XRL     A,R0
        JNZ     ??GenericApp_MessageMSGCB_10
        MOV     A,#0x21
        XRL     A,R1
??GenericApp_MessageMSGCB_10:
        JNZ     ??GenericApp_MessageMSGCB_11
//  936         {
//  937           case COORDINATOR_ONLINE_REQ:
//  938              CustomApp_Coordinator_Online();		  	
        ; Setup parameters for call to function CustomApp_Coordinator_Online
        LCALL   `??CustomApp_Coordinator_Online::?relay`; Banked call to: CustomApp_Coordinator_Online
//  939 	      break;
        LJMP    ??GenericApp_MessageMSGCB_1 & 0xFFFF
//  940 		 
//  941 	   default:
//  942              CustomApp_AF_Broadcast_Data_Process(pkt);	   	
??GenericApp_MessageMSGCB_11:
        ; Setup parameters for call to function CustomApp_AF_Broadcast_Data_Process
        MOV     A,R6
        MOV     R2,A
        MOV     A,R7
        MOV     R3,A
        LCALL   `??CustomApp_AF_Broadcast_Data_Process::?relay`; Banked call to: CustomApp_AF_Broadcast_Data_Process
//  943              break;
        LJMP    ??GenericApp_MessageMSGCB_1 & 0xFFFF
//  944         }
//  945 	break;		
//  946 
//  947     case GENERICAPP_CMD_P2P_CLUSTERID:
//  948 #if defined( LCD_SUPPORTED )		
//  949         rxMsgCount += 1;	
??GenericApp_MessageMSGCB_5:
        MOV     DPTR,#rxMsgCount
        LCALL   ?Subroutine9 & 0xFFFF
//  950         HalLcdWriteStringValue( "cmd Rcvd:", rxMsgCount, 10, HAL_LCD_LINE_2 );
??CrossCallReturnLabel_5:
        LCALL   ?PUSH_XSTACK_I_ONE
          CFI CFA_XSP16 add(XSP16, 13)
        LCALL   ?Subroutine21 & 0xFFFF
??CrossCallReturnLabel_83:
        MOV     R2,#`?<Constant "cmd Rcvd:">` & 0xff
        MOV     R3,#(`?<Constant "cmd Rcvd:">` >> 8) & 0xff
        LCALL   `??HalLcdWriteStringValue::?relay`; Banked call to: HalLcdWriteStringValue
        MOV     A,#0x1
        LCALL   ?DEALLOC_XSTACK8
          CFI CFA_XSP16 add(XSP16, 12)
//  951 #endif
//  952 
//  953         msgid = pkt->cmd.Data[0] | pkt->cmd.Data[1] << 8;
//  954         switch ( msgid )
        LCALL   ?Subroutine35 & 0xFFFF
??CrossCallReturnLabel_58:
        LCALL   ?Subroutine26 & 0xFFFF
??CrossCallReturnLabel_34:
        MOV     DPL,R0
        MOV     DPH,R1
        MOVX    A,@DPTR
        MOV     R2,A
        INC     DPTR
        MOVX    A,@DPTR
        MOV     R1,A
        MOV     A,R2
        MOV     ?V0,A
        MOV     A,R1
        MOV     ?V1,A
        MOV     R0,#?V0
        LCALL   ?US_SWITCH_SPARSE
`?<Jumptable for GenericApp_MessageMSGCB>_1`:
        DATA
        DATA16
        DATA
        DATA16
        DATA
        DATA16
        DW        0
        DATA
        DATA16
        DATA
        DATA16
        DATA
        DATA16
        DW        4
        DATA
        DATA16
        DATA
        DATA16
        DATA
        DATA16
        DW        4154
        DATA
        DATA16
        DATA
        DATA16
        DATA
        DATA16
        DW        ??GenericApp_MessageMSGCB_12
        DATA
        DATA16
        DATA
        DATA16
        DATA
        DATA16
        DW        4155
        DATA
        DATA16
        DATA
        DATA16
        DATA
        DATA16
        DW        ??GenericApp_MessageMSGCB_13
        DATA
        DATA16
        DATA
        DATA16
        DATA
        DATA16
        DW        8474
        DATA
        DATA16
        DATA
        DATA16
        DATA
        DATA16
        DW        ??GenericApp_MessageMSGCB_14
        DATA
        DATA16
        DATA
        DATA16
        DATA
        DATA16
        DW        8479
        DATA
        DATA16
        DATA
        DATA16
        DATA
        DATA16
        DW        ??GenericApp_MessageMSGCB_15
        DATA
        DATA16
        DATA
        DATA16
        DW        ??GenericApp_MessageMSGCB_1
        CODE
//  955         {
//  956           case PING_REQ_MSG:
//  957              CustomApp_process_ping((pingpkt_t *)(pkt->cmd.Data)); // update node timestamp
??GenericApp_MessageMSGCB_12:
        ; Setup parameters for call to function CustomApp_process_ping
        MOV     A,R6
        ADD     A,#0x22
        LCALL   ??Subroutine48_0 & 0xFFFF
??CrossCallReturnLabel_94:
        LCALL   `??CustomApp_process_ping::?relay`; Banked call to: CustomApp_process_ping
//  958 	      break;
        SJMP    ??GenericApp_MessageMSGCB_1
//  959 
//  960 #if( ZSTACK_DEVICE_BUILD != DEVICE_BUILD_COORDINATOR)		
//  961           case ROUTER_ONLINE_REQ:
//  962              CustomApp_Get_Flex_Devinfo();
??GenericApp_MessageMSGCB_14:
        ; Setup parameters for call to function CustomApp_Get_Flex_Devinfo
        LCALL   `??CustomApp_Get_Flex_Devinfo::?relay`; Banked call to: CustomApp_Get_Flex_Devinfo
//  963              break;
        SJMP    ??GenericApp_MessageMSGCB_1
//  964 
//  965           case ROUTER_ONFFLINE_REQ:
//  966              Onboard_soft_reset();
??GenericApp_MessageMSGCB_15:
        ; Setup parameters for call to function Onboard_soft_reset
        LCALL   Onboard_soft_reset & 0xFFFF
//  967              break;
        SJMP    ??GenericApp_MessageMSGCB_1
//  968 
//  969           case PING_RSP_MSG:   //chaokw ping
//  970              pingRspTime = osal_getClock();
??GenericApp_MessageMSGCB_13:
        ; Setup parameters for call to function osal_getClock
        LCALL   `??osal_getClock::?relay`; Banked call to: osal_getClock
        MOV     DPTR,#pingRspTime
        LCALL   ?XSTORE_R2345
//  971 #if defined( LCD_SUPPORTED )		
//  972              HalLcdWriteStringValue( "ping rsp:", pingRspTime, 16, HAL_LCD_LINE_2 );
        ; Setup parameters for call to function HalLcdWriteStringValue
        MOV     ?V0,#0x3
        MOV     R0,#?V0
        LCALL   ?PUSH_XSTACK_I_ONE
          CFI CFA_XSP16 add(XSP16, 13)
        MOV     R1,#0x10
        MOV     DPTR,#pingRspTime
        MOV     R0,#?V0
        LCALL   ?L_MOV_X
        MOV     R4,?V0
        MOV     R5,?V1
        MOV     R2,#`?<Constant "ping rsp:">` & 0xff
        MOV     R3,#(`?<Constant "ping rsp:">` >> 8) & 0xff
??GenericApp_MessageMSGCB_9:
        LCALL   `??HalLcdWriteStringValue::?relay`; Banked call to: HalLcdWriteStringValue
        MOV     A,#0x1
        LCALL   ?DEALLOC_XSTACK8
          CFI CFA_XSP16 add(XSP16, 12)
//  973 #endif			 
//  974 	      break;
        SJMP    ??GenericApp_MessageMSGCB_1
//  975 #endif			 
//  976 	
//  977 	   default:
//  978              break;
//  979          }	
//  980 	break;		
//  981 
//  982 
//  983 	case GENERICAPP_P2P_PERMIT_JOIN_REQ_CLUSTERID:
//  984 	  	// gateway coordinator process flex router join from flex request
//  985 
//  986 #if defined( LCD_SUPPORTED )		
//  987         askWhiteListCount += 1;	
??GenericApp_MessageMSGCB_7:
        MOV     DPTR,#askWhiteListCount
        LCALL   ?Subroutine9 & 0xFFFF
//  988         HalLcdWriteStringValue( "ask WL:", askWhiteListCount, 10, HAL_LCD_LINE_2 );
??CrossCallReturnLabel_6:
        LCALL   ?PUSH_XSTACK_I_ONE
          CFI CFA_XSP16 add(XSP16, 13)
        MOV     R1,#0xa
        MOV     DPTR,#askWhiteListCount
        LCALL   ??Subroutine46_0 & 0xFFFF
??CrossCallReturnLabel_81:
        MOV     R2,#`?<Constant "ask WL:">` & 0xff
        MOV     R3,#(`?<Constant "ask WL:">` >> 8) & 0xff
        LCALL   `??HalLcdWriteStringValue::?relay`; Banked call to: HalLcdWriteStringValue
        MOV     A,#0x1
        LCALL   ?DEALLOC_XSTACK8
          CFI CFA_XSP16 add(XSP16, 12)
//  989 #endif	  	
//  990 		GenericApp_Device_JoinRsp(pkt);
        ; Setup parameters for call to function GenericApp_Device_JoinRsp
        MOV     A,R6
        MOV     R2,A
        MOV     A,R7
        MOV     R3,A
        LCALL   `??GenericApp_Device_JoinRsp::?relay`; Banked call to: GenericApp_Device_JoinRsp
//  991 		break;
        SJMP    ??GenericApp_MessageMSGCB_1
//  992 
//  993 	case GENERICAPP_P2P_PERMIT_JOIN_RSP_CLUSTERID:
//  994 	  	// flex router received join permit info from gateway coordinator
//  995 		GenericApp_Get_PermitJoin(pkt);
??GenericApp_MessageMSGCB_8:
        ; Setup parameters for call to function GenericApp_Get_PermitJoin
        MOV     A,R6
        MOV     R2,A
        MOV     A,R7
        MOV     R3,A
        LCALL   `??GenericApp_Get_PermitJoin::?relay`; Banked call to: GenericApp_Get_PermitJoin
//  996 		break;
//  997 
//  998 		
//  999     default:
// 1000         break;
// 1001 
// 1002   }
// 1003 }
??GenericApp_MessageMSGCB_1:
        LJMP    ??Subroutine53_0 & 0xFFFF
          CFI EndBlock cfiBlock14

        RSEG BANKED_CODE:CODE:NOROOT(0)
?Subroutine35:
          CFI Block cfiCond15 Using cfiCommon0
          CFI Function GenericApp_MessageMSGCB
          CFI Conditional ??CrossCallReturnLabel_57
          CFI R6 load(1, XDATA, add(CFA_XSP16, literal(-12)))
          CFI VB load(1, XDATA, add(CFA_XSP16, literal(-11)))
          CFI V0 load(1, XDATA, add(CFA_XSP16, literal(-10)))
          CFI V1 load(1, XDATA, add(CFA_XSP16, literal(-9)))
          CFI V2 load(1, XDATA, add(CFA_XSP16, literal(-8)))
          CFI V3 load(1, XDATA, add(CFA_XSP16, literal(-7)))
          CFI R7 load(1, XDATA, add(CFA_XSP16, literal(-6)))
          CFI ?RET_LOW load(1, XDATA, add(CFA_XSP16, literal(-5)))
          CFI ?RET_HIGH load(1, XDATA, add(CFA_XSP16, literal(-4)))
          CFI ?BRET_EXT load(1, XDATA, add(CFA_XSP16, literal(-3)))
          CFI DPL0 load(1, XDATA, add(CFA_XSP16, literal(-2)))
          CFI DPH0 load(1, XDATA, add(CFA_XSP16, literal(-1)))
          CFI CFA_SP SP+-2
          CFI CFA_XSP16 add(XSP16, 12)
          CFI Block cfiCond16 Using cfiCommon0
          CFI (cfiCond16) Function GenericApp_MessageMSGCB
          CFI (cfiCond16) Conditional ??CrossCallReturnLabel_58
          CFI (cfiCond16) R6 load(1, XDATA, add(CFA_XSP16, literal(-12)))
          CFI (cfiCond16) VB load(1, XDATA, add(CFA_XSP16, literal(-11)))
          CFI (cfiCond16) V0 load(1, XDATA, add(CFA_XSP16, literal(-10)))
          CFI (cfiCond16) V1 load(1, XDATA, add(CFA_XSP16, literal(-9)))
          CFI (cfiCond16) V2 load(1, XDATA, add(CFA_XSP16, literal(-8)))
          CFI (cfiCond16) V3 load(1, XDATA, add(CFA_XSP16, literal(-7)))
          CFI (cfiCond16) R7 load(1, XDATA, add(CFA_XSP16, literal(-6)))
          CFI (cfiCond16) ?RET_LOW load(1, XDATA, add(CFA_XSP16, literal(-5)))
          CFI (cfiCond16) ?RET_HIGH load(1, XDATA, add(CFA_XSP16, literal(-4)))
          CFI (cfiCond16) ?BRET_EXT load(1, XDATA, add(CFA_XSP16, literal(-3)))
          CFI (cfiCond16) DPL0 load(1, XDATA, add(CFA_XSP16, literal(-2)))
          CFI (cfiCond16) DPH0 load(1, XDATA, add(CFA_XSP16, literal(-1)))
          CFI (cfiCond16) CFA_SP SP+-2
          CFI (cfiCond16) CFA_XSP16 add(XSP16, 12)
          CFI Block cfiPicker17 Using cfiCommon1
          CFI (cfiPicker17) NoFunction
          CFI (cfiPicker17) Picker
        MOV     A,R6
        ADD     A,#0x22
        MOV     DPL,A
        CLR     A
        ADDC    A,R7
        MOV     DPH,A
        RET
          CFI EndBlock cfiCond15
          CFI EndBlock cfiCond16
          CFI EndBlock cfiPicker17

        RSEG BANKED_CODE:CODE:NOROOT(0)
?Subroutine23:
          CFI Block cfiCond18 Using cfiCommon0
          CFI Function GenericApp_ProcessZDOMsgs
          CFI Conditional ??CrossCallReturnLabel_26
          CFI R6 load(1, XDATA, add(CFA_XSP16, literal(-15)))
          CFI VB load(1, XDATA, add(CFA_XSP16, literal(-14)))
          CFI V0 load(1, XDATA, add(CFA_XSP16, literal(-13)))
          CFI V1 load(1, XDATA, add(CFA_XSP16, literal(-12)))
          CFI V2 load(1, XDATA, add(CFA_XSP16, literal(-11)))
          CFI V3 load(1, XDATA, add(CFA_XSP16, literal(-10)))
          CFI V4 load(1, XDATA, add(CFA_XSP16, literal(-9)))
          CFI V5 load(1, XDATA, add(CFA_XSP16, literal(-8)))
          CFI V6 load(1, XDATA, add(CFA_XSP16, literal(-7)))
          CFI R7 load(1, XDATA, add(CFA_XSP16, literal(-6)))
          CFI ?RET_LOW load(1, XDATA, add(CFA_XSP16, literal(-5)))
          CFI ?RET_HIGH load(1, XDATA, add(CFA_XSP16, literal(-4)))
          CFI ?BRET_EXT load(1, XDATA, add(CFA_XSP16, literal(-3)))
          CFI DPL0 load(1, XDATA, add(CFA_XSP16, literal(-2)))
          CFI DPH0 load(1, XDATA, add(CFA_XSP16, literal(-1)))
          CFI CFA_SP SP+-2
          CFI CFA_XSP16 add(XSP16, 39)
          CFI Block cfiCond19 Using cfiCommon0
          CFI (cfiCond19) Function GenericApp_MessageMSGCB
          CFI (cfiCond19) Conditional ??CrossCallReturnLabel_27
          CFI (cfiCond19) R6 load(1, XDATA, add(CFA_XSP16, literal(-12)))
          CFI (cfiCond19) VB load(1, XDATA, add(CFA_XSP16, literal(-11)))
          CFI (cfiCond19) V0 load(1, XDATA, add(CFA_XSP16, literal(-10)))
          CFI (cfiCond19) V1 load(1, XDATA, add(CFA_XSP16, literal(-9)))
          CFI (cfiCond19) V2 load(1, XDATA, add(CFA_XSP16, literal(-8)))
          CFI (cfiCond19) V3 load(1, XDATA, add(CFA_XSP16, literal(-7)))
          CFI (cfiCond19) R7 load(1, XDATA, add(CFA_XSP16, literal(-6)))
          CFI (cfiCond19) ?RET_LOW load(1, XDATA, add(CFA_XSP16, literal(-5)))
          CFI (cfiCond19) ?RET_HIGH load(1, XDATA, add(CFA_XSP16, literal(-4)))
          CFI (cfiCond19) ?BRET_EXT load(1, XDATA, add(CFA_XSP16, literal(-3)))
          CFI (cfiCond19) DPL0 load(1, XDATA, add(CFA_XSP16, literal(-2)))
          CFI (cfiCond19) DPH0 load(1, XDATA, add(CFA_XSP16, literal(-1)))
          CFI (cfiCond19) CFA_SP SP+-2
          CFI (cfiCond19) CFA_XSP16 add(XSP16, 12)
          CFI Block cfiPicker20 Using cfiCommon1
          CFI (cfiPicker20) NoFunction
          CFI (cfiPicker20) Picker
        MOVX    A,@DPTR
        MOV     ?V0,A
        INC     DPTR
        MOVX    A,@DPTR
        MOV     ?V1,A
        MOV     R0,#?V0
        RET
          CFI EndBlock cfiCond18
          CFI EndBlock cfiCond19
          CFI EndBlock cfiPicker20

        RSEG BANKED_CODE:CODE:NOROOT(0)
?Subroutine21:
          CFI Block cfiCond21 Using cfiCommon0
          CFI Function GenericApp_MessageMSGCB
          CFI Conditional ??CrossCallReturnLabel_82
          CFI R6 load(1, XDATA, add(CFA_XSP16, literal(-12)))
          CFI VB load(1, XDATA, add(CFA_XSP16, literal(-11)))
          CFI V0 load(1, XDATA, add(CFA_XSP16, literal(-10)))
          CFI V1 load(1, XDATA, add(CFA_XSP16, literal(-9)))
          CFI V2 load(1, XDATA, add(CFA_XSP16, literal(-8)))
          CFI V3 load(1, XDATA, add(CFA_XSP16, literal(-7)))
          CFI R7 load(1, XDATA, add(CFA_XSP16, literal(-6)))
          CFI ?RET_LOW load(1, XDATA, add(CFA_XSP16, literal(-5)))
          CFI ?RET_HIGH load(1, XDATA, add(CFA_XSP16, literal(-4)))
          CFI ?BRET_EXT load(1, XDATA, add(CFA_XSP16, literal(-3)))
          CFI DPL0 load(1, XDATA, add(CFA_XSP16, literal(-2)))
          CFI DPH0 load(1, XDATA, add(CFA_XSP16, literal(-1)))
          CFI CFA_SP SP+-2
          CFI CFA_XSP16 add(XSP16, 13)
          CFI Block cfiCond22 Using cfiCommon0
          CFI (cfiCond22) Function GenericApp_MessageMSGCB
          CFI (cfiCond22) Conditional ??CrossCallReturnLabel_83
          CFI (cfiCond22) R6 load(1, XDATA, add(CFA_XSP16, literal(-12)))
          CFI (cfiCond22) VB load(1, XDATA, add(CFA_XSP16, literal(-11)))
          CFI (cfiCond22) V0 load(1, XDATA, add(CFA_XSP16, literal(-10)))
          CFI (cfiCond22) V1 load(1, XDATA, add(CFA_XSP16, literal(-9)))
          CFI (cfiCond22) V2 load(1, XDATA, add(CFA_XSP16, literal(-8)))
          CFI (cfiCond22) V3 load(1, XDATA, add(CFA_XSP16, literal(-7)))
          CFI (cfiCond22) R7 load(1, XDATA, add(CFA_XSP16, literal(-6)))
          CFI (cfiCond22) ?RET_LOW load(1, XDATA, add(CFA_XSP16, literal(-5)))
          CFI (cfiCond22) ?RET_HIGH load(1, XDATA, add(CFA_XSP16, literal(-4)))
          CFI (cfiCond22) ?BRET_EXT load(1, XDATA, add(CFA_XSP16, literal(-3)))
          CFI (cfiCond22) DPL0 load(1, XDATA, add(CFA_XSP16, literal(-2)))
          CFI (cfiCond22) DPH0 load(1, XDATA, add(CFA_XSP16, literal(-1)))
          CFI (cfiCond22) CFA_SP SP+-2
          CFI (cfiCond22) CFA_XSP16 add(XSP16, 13)
          CFI Block cfiPicker23 Using cfiCommon1
          CFI (cfiPicker23) NoFunction
          CFI (cfiPicker23) Picker
        MOV     R1,#0xa
        MOV     DPTR,#rxMsgCount
          CFI EndBlock cfiCond21
          CFI EndBlock cfiCond22
          CFI EndBlock cfiPicker23
        REQUIRE ??Subroutine46_0
        ; // Fall through to label ??Subroutine46_0

        RSEG BANKED_CODE:CODE:NOROOT(0)
??Subroutine46_0:
          CFI Block cfiCond24 Using cfiCommon0
          CFI Function GenericApp_ProcessEvent
          CFI Conditional ??CrossCallReturnLabel_80
          CFI R6 load(1, XDATA, add(CFA_XSP16, literal(-12)))
          CFI VB load(1, XDATA, add(CFA_XSP16, literal(-11)))
          CFI V0 load(1, XDATA, add(CFA_XSP16, literal(-10)))
          CFI V1 load(1, XDATA, add(CFA_XSP16, literal(-9)))
          CFI V2 load(1, XDATA, add(CFA_XSP16, literal(-8)))
          CFI V3 load(1, XDATA, add(CFA_XSP16, literal(-7)))
          CFI R7 load(1, XDATA, add(CFA_XSP16, literal(-6)))
          CFI ?RET_LOW load(1, XDATA, add(CFA_XSP16, literal(-5)))
          CFI ?RET_HIGH load(1, XDATA, add(CFA_XSP16, literal(-4)))
          CFI ?BRET_EXT load(1, XDATA, add(CFA_XSP16, literal(-3)))
          CFI DPL0 load(1, XDATA, add(CFA_XSP16, literal(-2)))
          CFI DPH0 load(1, XDATA, add(CFA_XSP16, literal(-1)))
          CFI CFA_SP SP+-2
          CFI CFA_XSP16 add(XSP16, 25)
          CFI Block cfiCond25 Using cfiCommon0
          CFI (cfiCond25) Function GenericApp_MessageMSGCB
          CFI (cfiCond25) Conditional ??CrossCallReturnLabel_81
          CFI (cfiCond25) R6 load(1, XDATA, add(CFA_XSP16, literal(-12)))
          CFI (cfiCond25) VB load(1, XDATA, add(CFA_XSP16, literal(-11)))
          CFI (cfiCond25) V0 load(1, XDATA, add(CFA_XSP16, literal(-10)))
          CFI (cfiCond25) V1 load(1, XDATA, add(CFA_XSP16, literal(-9)))
          CFI (cfiCond25) V2 load(1, XDATA, add(CFA_XSP16, literal(-8)))
          CFI (cfiCond25) V3 load(1, XDATA, add(CFA_XSP16, literal(-7)))
          CFI (cfiCond25) R7 load(1, XDATA, add(CFA_XSP16, literal(-6)))
          CFI (cfiCond25) ?RET_LOW load(1, XDATA, add(CFA_XSP16, literal(-5)))
          CFI (cfiCond25) ?RET_HIGH load(1, XDATA, add(CFA_XSP16, literal(-4)))
          CFI (cfiCond25) ?BRET_EXT load(1, XDATA, add(CFA_XSP16, literal(-3)))
          CFI (cfiCond25) DPL0 load(1, XDATA, add(CFA_XSP16, literal(-2)))
          CFI (cfiCond25) DPH0 load(1, XDATA, add(CFA_XSP16, literal(-1)))
          CFI (cfiCond25) CFA_SP SP+-2
          CFI (cfiCond25) CFA_XSP16 add(XSP16, 13)
          CFI Block cfiCond26 Using cfiCommon0
          CFI (cfiCond26) Function GenericApp_MessageMSGCB
          CFI (cfiCond26) Conditional ??CrossCallReturnLabel_82
          CFI (cfiCond26) R6 load(1, XDATA, add(CFA_XSP16, literal(-12)))
          CFI (cfiCond26) VB load(1, XDATA, add(CFA_XSP16, literal(-11)))
          CFI (cfiCond26) V0 load(1, XDATA, add(CFA_XSP16, literal(-10)))
          CFI (cfiCond26) V1 load(1, XDATA, add(CFA_XSP16, literal(-9)))
          CFI (cfiCond26) V2 load(1, XDATA, add(CFA_XSP16, literal(-8)))
          CFI (cfiCond26) V3 load(1, XDATA, add(CFA_XSP16, literal(-7)))
          CFI (cfiCond26) R7 load(1, XDATA, add(CFA_XSP16, literal(-6)))
          CFI (cfiCond26) ?RET_LOW load(1, XDATA, add(CFA_XSP16, literal(-5)))
          CFI (cfiCond26) ?RET_HIGH load(1, XDATA, add(CFA_XSP16, literal(-4)))
          CFI (cfiCond26) ?BRET_EXT load(1, XDATA, add(CFA_XSP16, literal(-3)))
          CFI (cfiCond26) DPL0 load(1, XDATA, add(CFA_XSP16, literal(-2)))
          CFI (cfiCond26) DPH0 load(1, XDATA, add(CFA_XSP16, literal(-1)))
          CFI (cfiCond26) CFA_SP SP+-2
          CFI (cfiCond26) CFA_XSP16 add(XSP16, 13)
          CFI Block cfiCond27 Using cfiCommon0
          CFI (cfiCond27) Function GenericApp_MessageMSGCB
          CFI (cfiCond27) Conditional ??CrossCallReturnLabel_83
          CFI (cfiCond27) R6 load(1, XDATA, add(CFA_XSP16, literal(-12)))
          CFI (cfiCond27) VB load(1, XDATA, add(CFA_XSP16, literal(-11)))
          CFI (cfiCond27) V0 load(1, XDATA, add(CFA_XSP16, literal(-10)))
          CFI (cfiCond27) V1 load(1, XDATA, add(CFA_XSP16, literal(-9)))
          CFI (cfiCond27) V2 load(1, XDATA, add(CFA_XSP16, literal(-8)))
          CFI (cfiCond27) V3 load(1, XDATA, add(CFA_XSP16, literal(-7)))
          CFI (cfiCond27) R7 load(1, XDATA, add(CFA_XSP16, literal(-6)))
          CFI (cfiCond27) ?RET_LOW load(1, XDATA, add(CFA_XSP16, literal(-5)))
          CFI (cfiCond27) ?RET_HIGH load(1, XDATA, add(CFA_XSP16, literal(-4)))
          CFI (cfiCond27) ?BRET_EXT load(1, XDATA, add(CFA_XSP16, literal(-3)))
          CFI (cfiCond27) DPL0 load(1, XDATA, add(CFA_XSP16, literal(-2)))
          CFI (cfiCond27) DPH0 load(1, XDATA, add(CFA_XSP16, literal(-1)))
          CFI (cfiCond27) CFA_SP SP+-2
          CFI (cfiCond27) CFA_XSP16 add(XSP16, 13)
          CFI Block cfiPicker28 Using cfiCommon1
          CFI (cfiPicker28) NoFunction
          CFI (cfiPicker28) Picker
        MOVX    A,@DPTR
        MOV     R4,A
        INC     DPTR
        MOVX    A,@DPTR
        MOV     R5,A
        RET
          CFI EndBlock cfiCond24
          CFI EndBlock cfiCond25
          CFI EndBlock cfiCond26
          CFI EndBlock cfiCond27
          CFI EndBlock cfiPicker28

        RSEG BANKED_CODE:CODE:NOROOT(0)
?Subroutine17:
          CFI Block cfiCond29 Using cfiCommon0
          CFI Function GenericApp_MessageMSGCB
          CFI Conditional ??CrossCallReturnLabel_87
          CFI R6 load(1, XDATA, add(CFA_XSP16, literal(-12)))
          CFI VB load(1, XDATA, add(CFA_XSP16, literal(-11)))
          CFI V0 load(1, XDATA, add(CFA_XSP16, literal(-10)))
          CFI V1 load(1, XDATA, add(CFA_XSP16, literal(-9)))
          CFI V2 load(1, XDATA, add(CFA_XSP16, literal(-8)))
          CFI V3 load(1, XDATA, add(CFA_XSP16, literal(-7)))
          CFI R7 load(1, XDATA, add(CFA_XSP16, literal(-6)))
          CFI ?RET_LOW load(1, XDATA, add(CFA_XSP16, literal(-5)))
          CFI ?RET_HIGH load(1, XDATA, add(CFA_XSP16, literal(-4)))
          CFI ?BRET_EXT load(1, XDATA, add(CFA_XSP16, literal(-3)))
          CFI DPL0 load(1, XDATA, add(CFA_XSP16, literal(-2)))
          CFI DPH0 load(1, XDATA, add(CFA_XSP16, literal(-1)))
          CFI CFA_SP SP+-2
          CFI CFA_XSP16 add(XSP16, 12)
          CFI Block cfiCond30 Using cfiCommon0
          CFI (cfiCond30) Function GenericApp_Get_PermitJoin
          CFI (cfiCond30) Conditional ??CrossCallReturnLabel_88
          CFI (cfiCond30) R6 load(1, XDATA, add(CFA_XSP16, literal(-15)))
          CFI (cfiCond30) VB load(1, XDATA, add(CFA_XSP16, literal(-14)))
          CFI (cfiCond30) V0 load(1, XDATA, add(CFA_XSP16, literal(-13)))
          CFI (cfiCond30) V1 load(1, XDATA, add(CFA_XSP16, literal(-12)))
          CFI (cfiCond30) V2 load(1, XDATA, add(CFA_XSP16, literal(-11)))
          CFI (cfiCond30) V3 load(1, XDATA, add(CFA_XSP16, literal(-10)))
          CFI (cfiCond30) V4 load(1, XDATA, add(CFA_XSP16, literal(-9)))
          CFI (cfiCond30) V5 load(1, XDATA, add(CFA_XSP16, literal(-8)))
          CFI (cfiCond30) V6 load(1, XDATA, add(CFA_XSP16, literal(-7)))
          CFI (cfiCond30) R7 load(1, XDATA, add(CFA_XSP16, literal(-6)))
          CFI (cfiCond30) ?RET_LOW load(1, XDATA, add(CFA_XSP16, literal(-5)))
          CFI (cfiCond30) ?RET_HIGH load(1, XDATA, add(CFA_XSP16, literal(-4)))
          CFI (cfiCond30) ?BRET_EXT load(1, XDATA, add(CFA_XSP16, literal(-3)))
          CFI (cfiCond30) DPL0 load(1, XDATA, add(CFA_XSP16, literal(-2)))
          CFI (cfiCond30) DPH0 load(1, XDATA, add(CFA_XSP16, literal(-1)))
          CFI (cfiCond30) CFA_SP SP+-2
          CFI (cfiCond30) CFA_XSP16 add(XSP16, 23)
          CFI Block cfiPicker31 Using cfiCommon1
          CFI (cfiPicker31) NoFunction
          CFI (cfiPicker31) Picker
        INC     DPTR
        INC     DPTR
        INC     DPTR
        INC     DPTR
        INC     DPTR
        INC     DPTR
          CFI EndBlock cfiCond29
          CFI EndBlock cfiCond30
          CFI EndBlock cfiPicker31
        REQUIRE ??Subroutine47_0
        ; // Fall through to label ??Subroutine47_0

        RSEG BANKED_CODE:CODE:NOROOT(0)
??Subroutine47_0:
          CFI Block cfiCond32 Using cfiCommon0
          CFI Function CustomApp_NodeDelete
          CFI Conditional ??CrossCallReturnLabel_86
          CFI R6 load(1, XDATA, add(CFA_XSP16, literal(-9)))
          CFI VB load(1, XDATA, add(CFA_XSP16, literal(-8)))
          CFI V0 load(1, XDATA, add(CFA_XSP16, literal(-7)))
          CFI R7 load(1, XDATA, add(CFA_XSP16, literal(-6)))
          CFI ?RET_LOW load(1, XDATA, add(CFA_XSP16, literal(-5)))
          CFI ?RET_HIGH load(1, XDATA, add(CFA_XSP16, literal(-4)))
          CFI ?BRET_EXT load(1, XDATA, add(CFA_XSP16, literal(-3)))
          CFI DPL0 load(1, XDATA, add(CFA_XSP16, literal(-2)))
          CFI DPH0 load(1, XDATA, add(CFA_XSP16, literal(-1)))
          CFI CFA_SP SP+-2
          CFI CFA_XSP16 add(XSP16, 9)
          CFI Block cfiCond33 Using cfiCommon0
          CFI (cfiCond33) Function CustomApp_NodeDelete
          CFI (cfiCond33) Conditional ??CrossCallReturnLabel_84
          CFI (cfiCond33) R6 load(1, XDATA, add(CFA_XSP16, literal(-9)))
          CFI (cfiCond33) VB load(1, XDATA, add(CFA_XSP16, literal(-8)))
          CFI (cfiCond33) V0 load(1, XDATA, add(CFA_XSP16, literal(-7)))
          CFI (cfiCond33) R7 load(1, XDATA, add(CFA_XSP16, literal(-6)))
          CFI (cfiCond33) ?RET_LOW load(1, XDATA, add(CFA_XSP16, literal(-5)))
          CFI (cfiCond33) ?RET_HIGH load(1, XDATA, add(CFA_XSP16, literal(-4)))
          CFI (cfiCond33) ?BRET_EXT load(1, XDATA, add(CFA_XSP16, literal(-3)))
          CFI (cfiCond33) DPL0 load(1, XDATA, add(CFA_XSP16, literal(-2)))
          CFI (cfiCond33) DPH0 load(1, XDATA, add(CFA_XSP16, literal(-1)))
          CFI (cfiCond33) CFA_SP SP+-2
          CFI (cfiCond33) CFA_XSP16 add(XSP16, 9)
          CFI Block cfiCond34 Using cfiCommon0
          CFI (cfiCond34) Function CustomApp_NodeFindNwkAddrList
          CFI (cfiCond34) Conditional ??CrossCallReturnLabel_85
          CFI (cfiCond34) DPL0 Frame(CFA_SP, 4)
          CFI (cfiCond34) DPH0 Frame(CFA_SP, 5)
          CFI (cfiCond34) CFA_SP SP+-7
          CFI Block cfiCond35 Using cfiCommon0
          CFI (cfiCond35) Function GenericApp_MessageMSGCB
          CFI (cfiCond35) Conditional ??CrossCallReturnLabel_87
          CFI (cfiCond35) R6 load(1, XDATA, add(CFA_XSP16, literal(-12)))
          CFI (cfiCond35) VB load(1, XDATA, add(CFA_XSP16, literal(-11)))
          CFI (cfiCond35) V0 load(1, XDATA, add(CFA_XSP16, literal(-10)))
          CFI (cfiCond35) V1 load(1, XDATA, add(CFA_XSP16, literal(-9)))
          CFI (cfiCond35) V2 load(1, XDATA, add(CFA_XSP16, literal(-8)))
          CFI (cfiCond35) V3 load(1, XDATA, add(CFA_XSP16, literal(-7)))
          CFI (cfiCond35) R7 load(1, XDATA, add(CFA_XSP16, literal(-6)))
          CFI (cfiCond35) ?RET_LOW load(1, XDATA, add(CFA_XSP16, literal(-5)))
          CFI (cfiCond35) ?RET_HIGH load(1, XDATA, add(CFA_XSP16, literal(-4)))
          CFI (cfiCond35) ?BRET_EXT load(1, XDATA, add(CFA_XSP16, literal(-3)))
          CFI (cfiCond35) DPL0 load(1, XDATA, add(CFA_XSP16, literal(-2)))
          CFI (cfiCond35) DPH0 load(1, XDATA, add(CFA_XSP16, literal(-1)))
          CFI (cfiCond35) CFA_SP SP+-2
          CFI (cfiCond35) CFA_XSP16 add(XSP16, 12)
          CFI Block cfiCond36 Using cfiCommon0
          CFI (cfiCond36) Function GenericApp_Get_PermitJoin
          CFI (cfiCond36) Conditional ??CrossCallReturnLabel_88
          CFI (cfiCond36) R6 load(1, XDATA, add(CFA_XSP16, literal(-15)))
          CFI (cfiCond36) VB load(1, XDATA, add(CFA_XSP16, literal(-14)))
          CFI (cfiCond36) V0 load(1, XDATA, add(CFA_XSP16, literal(-13)))
          CFI (cfiCond36) V1 load(1, XDATA, add(CFA_XSP16, literal(-12)))
          CFI (cfiCond36) V2 load(1, XDATA, add(CFA_XSP16, literal(-11)))
          CFI (cfiCond36) V3 load(1, XDATA, add(CFA_XSP16, literal(-10)))
          CFI (cfiCond36) V4 load(1, XDATA, add(CFA_XSP16, literal(-9)))
          CFI (cfiCond36) V5 load(1, XDATA, add(CFA_XSP16, literal(-8)))
          CFI (cfiCond36) V6 load(1, XDATA, add(CFA_XSP16, literal(-7)))
          CFI (cfiCond36) R7 load(1, XDATA, add(CFA_XSP16, literal(-6)))
          CFI (cfiCond36) ?RET_LOW load(1, XDATA, add(CFA_XSP16, literal(-5)))
          CFI (cfiCond36) ?RET_HIGH load(1, XDATA, add(CFA_XSP16, literal(-4)))
          CFI (cfiCond36) ?BRET_EXT load(1, XDATA, add(CFA_XSP16, literal(-3)))
          CFI (cfiCond36) DPL0 load(1, XDATA, add(CFA_XSP16, literal(-2)))
          CFI (cfiCond36) DPH0 load(1, XDATA, add(CFA_XSP16, literal(-1)))
          CFI (cfiCond36) CFA_SP SP+-2
          CFI (cfiCond36) CFA_XSP16 add(XSP16, 23)
          CFI Block cfiPicker37 Using cfiCommon1
          CFI (cfiPicker37) NoFunction
          CFI (cfiPicker37) Picker
        MOVX    A,@DPTR
        MOV     R0,A
        INC     DPTR
        MOVX    A,@DPTR
        MOV     R1,A
        MOV     A,R0
        ORL     A,R1
        RET
          CFI EndBlock cfiCond32
          CFI EndBlock cfiCond33
          CFI EndBlock cfiCond34
          CFI EndBlock cfiCond35
          CFI EndBlock cfiCond36
          CFI EndBlock cfiPicker37

        RSEG XDATA_Z:XDATA:NOROOT(0)
        DATA8
cnt:
        DS 1
        REQUIRE __INIT_XDATA_Z

        RSEG BANKED_CODE:CODE:NOROOT(0)
?Subroutine16:
          CFI Block cfiCond38 Using cfiCommon0
          CFI Function CustomApp_linkstatus_updated
          CFI Conditional ??CrossCallReturnLabel_95
          CFI R6 load(1, XDATA, add(CFA_XSP16, literal(-12)))
          CFI VB load(1, XDATA, add(CFA_XSP16, literal(-11)))
          CFI V0 load(1, XDATA, add(CFA_XSP16, literal(-10)))
          CFI V1 load(1, XDATA, add(CFA_XSP16, literal(-9)))
          CFI V2 load(1, XDATA, add(CFA_XSP16, literal(-8)))
          CFI V3 load(1, XDATA, add(CFA_XSP16, literal(-7)))
          CFI R7 load(1, XDATA, add(CFA_XSP16, literal(-6)))
          CFI ?RET_LOW load(1, XDATA, add(CFA_XSP16, literal(-5)))
          CFI ?RET_HIGH load(1, XDATA, add(CFA_XSP16, literal(-4)))
          CFI ?BRET_EXT load(1, XDATA, add(CFA_XSP16, literal(-3)))
          CFI DPL0 load(1, XDATA, add(CFA_XSP16, literal(-2)))
          CFI DPH0 load(1, XDATA, add(CFA_XSP16, literal(-1)))
          CFI CFA_SP SP+-2
          CFI CFA_XSP16 add(XSP16, 12)
          CFI Block cfiCond39 Using cfiCommon0
          CFI (cfiCond39) Function CustomApp_process_ping
          CFI (cfiCond39) Conditional ??CrossCallReturnLabel_96
          CFI (cfiCond39) R6 load(1, XDATA, add(CFA_XSP16, literal(-13)))
          CFI (cfiCond39) VB load(1, XDATA, add(CFA_XSP16, literal(-12)))
          CFI (cfiCond39) V0 load(1, XDATA, add(CFA_XSP16, literal(-11)))
          CFI (cfiCond39) V1 load(1, XDATA, add(CFA_XSP16, literal(-10)))
          CFI (cfiCond39) V2 load(1, XDATA, add(CFA_XSP16, literal(-9)))
          CFI (cfiCond39) V3 load(1, XDATA, add(CFA_XSP16, literal(-8)))
          CFI (cfiCond39) V4 load(1, XDATA, add(CFA_XSP16, literal(-7)))
          CFI (cfiCond39) R7 load(1, XDATA, add(CFA_XSP16, literal(-6)))
          CFI (cfiCond39) ?RET_LOW load(1, XDATA, add(CFA_XSP16, literal(-5)))
          CFI (cfiCond39) ?RET_HIGH load(1, XDATA, add(CFA_XSP16, literal(-4)))
          CFI (cfiCond39) ?BRET_EXT load(1, XDATA, add(CFA_XSP16, literal(-3)))
          CFI (cfiCond39) DPL0 load(1, XDATA, add(CFA_XSP16, literal(-2)))
          CFI (cfiCond39) DPH0 load(1, XDATA, add(CFA_XSP16, literal(-1)))
          CFI (cfiCond39) CFA_SP SP+-2
          CFI (cfiCond39) CFA_XSP16 add(XSP16, 13)
          CFI Block cfiCond40 Using cfiCommon0
          CFI (cfiCond40) Function CustomApp_process_ping
          CFI (cfiCond40) Conditional ??CrossCallReturnLabel_97
          CFI (cfiCond40) R6 load(1, XDATA, add(CFA_XSP16, literal(-13)))
          CFI (cfiCond40) VB load(1, XDATA, add(CFA_XSP16, literal(-12)))
          CFI (cfiCond40) V0 load(1, XDATA, add(CFA_XSP16, literal(-11)))
          CFI (cfiCond40) V1 load(1, XDATA, add(CFA_XSP16, literal(-10)))
          CFI (cfiCond40) V2 load(1, XDATA, add(CFA_XSP16, literal(-9)))
          CFI (cfiCond40) V3 load(1, XDATA, add(CFA_XSP16, literal(-8)))
          CFI (cfiCond40) V4 load(1, XDATA, add(CFA_XSP16, literal(-7)))
          CFI (cfiCond40) R7 load(1, XDATA, add(CFA_XSP16, literal(-6)))
          CFI (cfiCond40) ?RET_LOW load(1, XDATA, add(CFA_XSP16, literal(-5)))
          CFI (cfiCond40) ?RET_HIGH load(1, XDATA, add(CFA_XSP16, literal(-4)))
          CFI (cfiCond40) ?BRET_EXT load(1, XDATA, add(CFA_XSP16, literal(-3)))
          CFI (cfiCond40) DPL0 load(1, XDATA, add(CFA_XSP16, literal(-2)))
          CFI (cfiCond40) DPH0 load(1, XDATA, add(CFA_XSP16, literal(-1)))
          CFI (cfiCond40) CFA_SP SP+-2
          CFI (cfiCond40) CFA_XSP16 add(XSP16, 13)
          CFI Block cfiPicker41 Using cfiCommon1
          CFI (cfiPicker41) NoFunction
          CFI (cfiPicker41) Picker
        MOV     A,R6
        ADD     A,#0xe
          CFI EndBlock cfiCond38
          CFI EndBlock cfiCond39
          CFI EndBlock cfiCond40
          CFI EndBlock cfiPicker41
        REQUIRE ??Subroutine48_0
        ; // Fall through to label ??Subroutine48_0

        RSEG BANKED_CODE:CODE:NOROOT(0)
??Subroutine48_0:
          CFI Block cfiCond42 Using cfiCommon0
          CFI Function GenericApp_MessageMSGCB
          CFI Conditional ??CrossCallReturnLabel_93
          CFI R6 load(1, XDATA, add(CFA_XSP16, literal(-12)))
          CFI VB load(1, XDATA, add(CFA_XSP16, literal(-11)))
          CFI V0 load(1, XDATA, add(CFA_XSP16, literal(-10)))
          CFI V1 load(1, XDATA, add(CFA_XSP16, literal(-9)))
          CFI V2 load(1, XDATA, add(CFA_XSP16, literal(-8)))
          CFI V3 load(1, XDATA, add(CFA_XSP16, literal(-7)))
          CFI R7 load(1, XDATA, add(CFA_XSP16, literal(-6)))
          CFI ?RET_LOW load(1, XDATA, add(CFA_XSP16, literal(-5)))
          CFI ?RET_HIGH load(1, XDATA, add(CFA_XSP16, literal(-4)))
          CFI ?BRET_EXT load(1, XDATA, add(CFA_XSP16, literal(-3)))
          CFI DPL0 load(1, XDATA, add(CFA_XSP16, literal(-2)))
          CFI DPH0 load(1, XDATA, add(CFA_XSP16, literal(-1)))
          CFI CFA_SP SP+-2
          CFI CFA_XSP16 add(XSP16, 12)
          CFI Block cfiCond43 Using cfiCommon0
          CFI (cfiCond43) Function GenericApp_MessageMSGCB
          CFI (cfiCond43) Conditional ??CrossCallReturnLabel_94
          CFI (cfiCond43) R6 load(1, XDATA, add(CFA_XSP16, literal(-12)))
          CFI (cfiCond43) VB load(1, XDATA, add(CFA_XSP16, literal(-11)))
          CFI (cfiCond43) V0 load(1, XDATA, add(CFA_XSP16, literal(-10)))
          CFI (cfiCond43) V1 load(1, XDATA, add(CFA_XSP16, literal(-9)))
          CFI (cfiCond43) V2 load(1, XDATA, add(CFA_XSP16, literal(-8)))
          CFI (cfiCond43) V3 load(1, XDATA, add(CFA_XSP16, literal(-7)))
          CFI (cfiCond43) R7 load(1, XDATA, add(CFA_XSP16, literal(-6)))
          CFI (cfiCond43) ?RET_LOW load(1, XDATA, add(CFA_XSP16, literal(-5)))
          CFI (cfiCond43) ?RET_HIGH load(1, XDATA, add(CFA_XSP16, literal(-4)))
          CFI (cfiCond43) ?BRET_EXT load(1, XDATA, add(CFA_XSP16, literal(-3)))
          CFI (cfiCond43) DPL0 load(1, XDATA, add(CFA_XSP16, literal(-2)))
          CFI (cfiCond43) DPH0 load(1, XDATA, add(CFA_XSP16, literal(-1)))
          CFI (cfiCond43) CFA_SP SP+-2
          CFI (cfiCond43) CFA_XSP16 add(XSP16, 12)
          CFI Block cfiCond44 Using cfiCommon0
          CFI (cfiCond44) Function CustomApp_linkstatus_updated
          CFI (cfiCond44) Conditional ??CrossCallReturnLabel_95
          CFI (cfiCond44) R6 load(1, XDATA, add(CFA_XSP16, literal(-12)))
          CFI (cfiCond44) VB load(1, XDATA, add(CFA_XSP16, literal(-11)))
          CFI (cfiCond44) V0 load(1, XDATA, add(CFA_XSP16, literal(-10)))
          CFI (cfiCond44) V1 load(1, XDATA, add(CFA_XSP16, literal(-9)))
          CFI (cfiCond44) V2 load(1, XDATA, add(CFA_XSP16, literal(-8)))
          CFI (cfiCond44) V3 load(1, XDATA, add(CFA_XSP16, literal(-7)))
          CFI (cfiCond44) R7 load(1, XDATA, add(CFA_XSP16, literal(-6)))
          CFI (cfiCond44) ?RET_LOW load(1, XDATA, add(CFA_XSP16, literal(-5)))
          CFI (cfiCond44) ?RET_HIGH load(1, XDATA, add(CFA_XSP16, literal(-4)))
          CFI (cfiCond44) ?BRET_EXT load(1, XDATA, add(CFA_XSP16, literal(-3)))
          CFI (cfiCond44) DPL0 load(1, XDATA, add(CFA_XSP16, literal(-2)))
          CFI (cfiCond44) DPH0 load(1, XDATA, add(CFA_XSP16, literal(-1)))
          CFI (cfiCond44) CFA_SP SP+-2
          CFI (cfiCond44) CFA_XSP16 add(XSP16, 12)
          CFI Block cfiCond45 Using cfiCommon0
          CFI (cfiCond45) Function CustomApp_process_ping
          CFI (cfiCond45) Conditional ??CrossCallReturnLabel_96
          CFI (cfiCond45) R6 load(1, XDATA, add(CFA_XSP16, literal(-13)))
          CFI (cfiCond45) VB load(1, XDATA, add(CFA_XSP16, literal(-12)))
          CFI (cfiCond45) V0 load(1, XDATA, add(CFA_XSP16, literal(-11)))
          CFI (cfiCond45) V1 load(1, XDATA, add(CFA_XSP16, literal(-10)))
          CFI (cfiCond45) V2 load(1, XDATA, add(CFA_XSP16, literal(-9)))
          CFI (cfiCond45) V3 load(1, XDATA, add(CFA_XSP16, literal(-8)))
          CFI (cfiCond45) V4 load(1, XDATA, add(CFA_XSP16, literal(-7)))
          CFI (cfiCond45) R7 load(1, XDATA, add(CFA_XSP16, literal(-6)))
          CFI (cfiCond45) ?RET_LOW load(1, XDATA, add(CFA_XSP16, literal(-5)))
          CFI (cfiCond45) ?RET_HIGH load(1, XDATA, add(CFA_XSP16, literal(-4)))
          CFI (cfiCond45) ?BRET_EXT load(1, XDATA, add(CFA_XSP16, literal(-3)))
          CFI (cfiCond45) DPL0 load(1, XDATA, add(CFA_XSP16, literal(-2)))
          CFI (cfiCond45) DPH0 load(1, XDATA, add(CFA_XSP16, literal(-1)))
          CFI (cfiCond45) CFA_SP SP+-2
          CFI (cfiCond45) CFA_XSP16 add(XSP16, 13)
          CFI Block cfiCond46 Using cfiCommon0
          CFI (cfiCond46) Function CustomApp_process_ping
          CFI (cfiCond46) Conditional ??CrossCallReturnLabel_97
          CFI (cfiCond46) R6 load(1, XDATA, add(CFA_XSP16, literal(-13)))
          CFI (cfiCond46) VB load(1, XDATA, add(CFA_XSP16, literal(-12)))
          CFI (cfiCond46) V0 load(1, XDATA, add(CFA_XSP16, literal(-11)))
          CFI (cfiCond46) V1 load(1, XDATA, add(CFA_XSP16, literal(-10)))
          CFI (cfiCond46) V2 load(1, XDATA, add(CFA_XSP16, literal(-9)))
          CFI (cfiCond46) V3 load(1, XDATA, add(CFA_XSP16, literal(-8)))
          CFI (cfiCond46) V4 load(1, XDATA, add(CFA_XSP16, literal(-7)))
          CFI (cfiCond46) R7 load(1, XDATA, add(CFA_XSP16, literal(-6)))
          CFI (cfiCond46) ?RET_LOW load(1, XDATA, add(CFA_XSP16, literal(-5)))
          CFI (cfiCond46) ?RET_HIGH load(1, XDATA, add(CFA_XSP16, literal(-4)))
          CFI (cfiCond46) ?BRET_EXT load(1, XDATA, add(CFA_XSP16, literal(-3)))
          CFI (cfiCond46) DPL0 load(1, XDATA, add(CFA_XSP16, literal(-2)))
          CFI (cfiCond46) DPH0 load(1, XDATA, add(CFA_XSP16, literal(-1)))
          CFI (cfiCond46) CFA_SP SP+-2
          CFI (cfiCond46) CFA_XSP16 add(XSP16, 13)
          CFI Block cfiPicker47 Using cfiCommon1
          CFI (cfiPicker47) NoFunction
          CFI (cfiPicker47) Picker
        MOV     DPL,A
        CLR     A
        ADDC    A,R7
        MOV     DPH,A
          CFI EndBlock cfiCond42
          CFI EndBlock cfiCond43
          CFI EndBlock cfiCond44
          CFI EndBlock cfiCond45
          CFI EndBlock cfiCond46
          CFI EndBlock cfiPicker47
        REQUIRE ??Subroutine49_0
        ; // Fall through to label ??Subroutine49_0

        RSEG BANKED_CODE:CODE:NOROOT(0)
??Subroutine49_0:
          CFI Block cfiCond48 Using cfiCommon0
          CFI Function GenericApp_ProcessEvent
          CFI Conditional ??CrossCallReturnLabel_89
          CFI R6 load(1, XDATA, add(CFA_XSP16, literal(-12)))
          CFI VB load(1, XDATA, add(CFA_XSP16, literal(-11)))
          CFI V0 load(1, XDATA, add(CFA_XSP16, literal(-10)))
          CFI V1 load(1, XDATA, add(CFA_XSP16, literal(-9)))
          CFI V2 load(1, XDATA, add(CFA_XSP16, literal(-8)))
          CFI V3 load(1, XDATA, add(CFA_XSP16, literal(-7)))
          CFI R7 load(1, XDATA, add(CFA_XSP16, literal(-6)))
          CFI ?RET_LOW load(1, XDATA, add(CFA_XSP16, literal(-5)))
          CFI ?RET_HIGH load(1, XDATA, add(CFA_XSP16, literal(-4)))
          CFI ?BRET_EXT load(1, XDATA, add(CFA_XSP16, literal(-3)))
          CFI DPL0 load(1, XDATA, add(CFA_XSP16, literal(-2)))
          CFI DPH0 load(1, XDATA, add(CFA_XSP16, literal(-1)))
          CFI CFA_SP SP+-2
          CFI CFA_XSP16 add(XSP16, 24)
          CFI Block cfiCond49 Using cfiCommon0
          CFI (cfiCond49) Function CustomApp_NodeDelete
          CFI (cfiCond49) Conditional ??CrossCallReturnLabel_90
          CFI (cfiCond49) R6 load(1, XDATA, add(CFA_XSP16, literal(-9)))
          CFI (cfiCond49) VB load(1, XDATA, add(CFA_XSP16, literal(-8)))
          CFI (cfiCond49) V0 load(1, XDATA, add(CFA_XSP16, literal(-7)))
          CFI (cfiCond49) R7 load(1, XDATA, add(CFA_XSP16, literal(-6)))
          CFI (cfiCond49) ?RET_LOW load(1, XDATA, add(CFA_XSP16, literal(-5)))
          CFI (cfiCond49) ?RET_HIGH load(1, XDATA, add(CFA_XSP16, literal(-4)))
          CFI (cfiCond49) ?BRET_EXT load(1, XDATA, add(CFA_XSP16, literal(-3)))
          CFI (cfiCond49) DPL0 load(1, XDATA, add(CFA_XSP16, literal(-2)))
          CFI (cfiCond49) DPH0 load(1, XDATA, add(CFA_XSP16, literal(-1)))
          CFI (cfiCond49) CFA_SP SP+-2
          CFI (cfiCond49) CFA_XSP16 add(XSP16, 9)
          CFI Block cfiCond50 Using cfiCommon0
          CFI (cfiCond50) Function CustomApp_NodeDelete
          CFI (cfiCond50) Conditional ??CrossCallReturnLabel_91
          CFI (cfiCond50) R6 load(1, XDATA, add(CFA_XSP16, literal(-9)))
          CFI (cfiCond50) VB load(1, XDATA, add(CFA_XSP16, literal(-8)))
          CFI (cfiCond50) V0 load(1, XDATA, add(CFA_XSP16, literal(-7)))
          CFI (cfiCond50) R7 load(1, XDATA, add(CFA_XSP16, literal(-6)))
          CFI (cfiCond50) ?RET_LOW load(1, XDATA, add(CFA_XSP16, literal(-5)))
          CFI (cfiCond50) ?RET_HIGH load(1, XDATA, add(CFA_XSP16, literal(-4)))
          CFI (cfiCond50) ?BRET_EXT load(1, XDATA, add(CFA_XSP16, literal(-3)))
          CFI (cfiCond50) DPL0 load(1, XDATA, add(CFA_XSP16, literal(-2)))
          CFI (cfiCond50) DPH0 load(1, XDATA, add(CFA_XSP16, literal(-1)))
          CFI (cfiCond50) CFA_SP SP+-2
          CFI (cfiCond50) CFA_XSP16 add(XSP16, 9)
          CFI Block cfiCond51 Using cfiCommon0
          CFI (cfiCond51) Function CustomApp_get_connected_node_count
          CFI (cfiCond51) Conditional ??CrossCallReturnLabel_92
          CFI (cfiCond51) DPL0 Frame(CFA_SP, 4)
          CFI (cfiCond51) DPH0 Frame(CFA_SP, 5)
          CFI (cfiCond51) CFA_SP SP+-7
          CFI Block cfiCond52 Using cfiCommon0
          CFI (cfiCond52) Function GenericApp_MessageMSGCB
          CFI (cfiCond52) Conditional ??CrossCallReturnLabel_93
          CFI (cfiCond52) R6 load(1, XDATA, add(CFA_XSP16, literal(-12)))
          CFI (cfiCond52) VB load(1, XDATA, add(CFA_XSP16, literal(-11)))
          CFI (cfiCond52) V0 load(1, XDATA, add(CFA_XSP16, literal(-10)))
          CFI (cfiCond52) V1 load(1, XDATA, add(CFA_XSP16, literal(-9)))
          CFI (cfiCond52) V2 load(1, XDATA, add(CFA_XSP16, literal(-8)))
          CFI (cfiCond52) V3 load(1, XDATA, add(CFA_XSP16, literal(-7)))
          CFI (cfiCond52) R7 load(1, XDATA, add(CFA_XSP16, literal(-6)))
          CFI (cfiCond52) ?RET_LOW load(1, XDATA, add(CFA_XSP16, literal(-5)))
          CFI (cfiCond52) ?RET_HIGH load(1, XDATA, add(CFA_XSP16, literal(-4)))
          CFI (cfiCond52) ?BRET_EXT load(1, XDATA, add(CFA_XSP16, literal(-3)))
          CFI (cfiCond52) DPL0 load(1, XDATA, add(CFA_XSP16, literal(-2)))
          CFI (cfiCond52) DPH0 load(1, XDATA, add(CFA_XSP16, literal(-1)))
          CFI (cfiCond52) CFA_SP SP+-2
          CFI (cfiCond52) CFA_XSP16 add(XSP16, 12)
          CFI Block cfiCond53 Using cfiCommon0
          CFI (cfiCond53) Function GenericApp_MessageMSGCB
          CFI (cfiCond53) Conditional ??CrossCallReturnLabel_94
          CFI (cfiCond53) R6 load(1, XDATA, add(CFA_XSP16, literal(-12)))
          CFI (cfiCond53) VB load(1, XDATA, add(CFA_XSP16, literal(-11)))
          CFI (cfiCond53) V0 load(1, XDATA, add(CFA_XSP16, literal(-10)))
          CFI (cfiCond53) V1 load(1, XDATA, add(CFA_XSP16, literal(-9)))
          CFI (cfiCond53) V2 load(1, XDATA, add(CFA_XSP16, literal(-8)))
          CFI (cfiCond53) V3 load(1, XDATA, add(CFA_XSP16, literal(-7)))
          CFI (cfiCond53) R7 load(1, XDATA, add(CFA_XSP16, literal(-6)))
          CFI (cfiCond53) ?RET_LOW load(1, XDATA, add(CFA_XSP16, literal(-5)))
          CFI (cfiCond53) ?RET_HIGH load(1, XDATA, add(CFA_XSP16, literal(-4)))
          CFI (cfiCond53) ?BRET_EXT load(1, XDATA, add(CFA_XSP16, literal(-3)))
          CFI (cfiCond53) DPL0 load(1, XDATA, add(CFA_XSP16, literal(-2)))
          CFI (cfiCond53) DPH0 load(1, XDATA, add(CFA_XSP16, literal(-1)))
          CFI (cfiCond53) CFA_SP SP+-2
          CFI (cfiCond53) CFA_XSP16 add(XSP16, 12)
          CFI Block cfiCond54 Using cfiCommon0
          CFI (cfiCond54) Function CustomApp_linkstatus_updated
          CFI (cfiCond54) Conditional ??CrossCallReturnLabel_95
          CFI (cfiCond54) R6 load(1, XDATA, add(CFA_XSP16, literal(-12)))
          CFI (cfiCond54) VB load(1, XDATA, add(CFA_XSP16, literal(-11)))
          CFI (cfiCond54) V0 load(1, XDATA, add(CFA_XSP16, literal(-10)))
          CFI (cfiCond54) V1 load(1, XDATA, add(CFA_XSP16, literal(-9)))
          CFI (cfiCond54) V2 load(1, XDATA, add(CFA_XSP16, literal(-8)))
          CFI (cfiCond54) V3 load(1, XDATA, add(CFA_XSP16, literal(-7)))
          CFI (cfiCond54) R7 load(1, XDATA, add(CFA_XSP16, literal(-6)))
          CFI (cfiCond54) ?RET_LOW load(1, XDATA, add(CFA_XSP16, literal(-5)))
          CFI (cfiCond54) ?RET_HIGH load(1, XDATA, add(CFA_XSP16, literal(-4)))
          CFI (cfiCond54) ?BRET_EXT load(1, XDATA, add(CFA_XSP16, literal(-3)))
          CFI (cfiCond54) DPL0 load(1, XDATA, add(CFA_XSP16, literal(-2)))
          CFI (cfiCond54) DPH0 load(1, XDATA, add(CFA_XSP16, literal(-1)))
          CFI (cfiCond54) CFA_SP SP+-2
          CFI (cfiCond54) CFA_XSP16 add(XSP16, 12)
          CFI Block cfiCond55 Using cfiCommon0
          CFI (cfiCond55) Function CustomApp_process_ping
          CFI (cfiCond55) Conditional ??CrossCallReturnLabel_96
          CFI (cfiCond55) R6 load(1, XDATA, add(CFA_XSP16, literal(-13)))
          CFI (cfiCond55) VB load(1, XDATA, add(CFA_XSP16, literal(-12)))
          CFI (cfiCond55) V0 load(1, XDATA, add(CFA_XSP16, literal(-11)))
          CFI (cfiCond55) V1 load(1, XDATA, add(CFA_XSP16, literal(-10)))
          CFI (cfiCond55) V2 load(1, XDATA, add(CFA_XSP16, literal(-9)))
          CFI (cfiCond55) V3 load(1, XDATA, add(CFA_XSP16, literal(-8)))
          CFI (cfiCond55) V4 load(1, XDATA, add(CFA_XSP16, literal(-7)))
          CFI (cfiCond55) R7 load(1, XDATA, add(CFA_XSP16, literal(-6)))
          CFI (cfiCond55) ?RET_LOW load(1, XDATA, add(CFA_XSP16, literal(-5)))
          CFI (cfiCond55) ?RET_HIGH load(1, XDATA, add(CFA_XSP16, literal(-4)))
          CFI (cfiCond55) ?BRET_EXT load(1, XDATA, add(CFA_XSP16, literal(-3)))
          CFI (cfiCond55) DPL0 load(1, XDATA, add(CFA_XSP16, literal(-2)))
          CFI (cfiCond55) DPH0 load(1, XDATA, add(CFA_XSP16, literal(-1)))
          CFI (cfiCond55) CFA_SP SP+-2
          CFI (cfiCond55) CFA_XSP16 add(XSP16, 13)
          CFI Block cfiCond56 Using cfiCommon0
          CFI (cfiCond56) Function CustomApp_process_ping
          CFI (cfiCond56) Conditional ??CrossCallReturnLabel_97
          CFI (cfiCond56) R6 load(1, XDATA, add(CFA_XSP16, literal(-13)))
          CFI (cfiCond56) VB load(1, XDATA, add(CFA_XSP16, literal(-12)))
          CFI (cfiCond56) V0 load(1, XDATA, add(CFA_XSP16, literal(-11)))
          CFI (cfiCond56) V1 load(1, XDATA, add(CFA_XSP16, literal(-10)))
          CFI (cfiCond56) V2 load(1, XDATA, add(CFA_XSP16, literal(-9)))
          CFI (cfiCond56) V3 load(1, XDATA, add(CFA_XSP16, literal(-8)))
          CFI (cfiCond56) V4 load(1, XDATA, add(CFA_XSP16, literal(-7)))
          CFI (cfiCond56) R7 load(1, XDATA, add(CFA_XSP16, literal(-6)))
          CFI (cfiCond56) ?RET_LOW load(1, XDATA, add(CFA_XSP16, literal(-5)))
          CFI (cfiCond56) ?RET_HIGH load(1, XDATA, add(CFA_XSP16, literal(-4)))
          CFI (cfiCond56) ?BRET_EXT load(1, XDATA, add(CFA_XSP16, literal(-3)))
          CFI (cfiCond56) DPL0 load(1, XDATA, add(CFA_XSP16, literal(-2)))
          CFI (cfiCond56) DPH0 load(1, XDATA, add(CFA_XSP16, literal(-1)))
          CFI (cfiCond56) CFA_SP SP+-2
          CFI (cfiCond56) CFA_XSP16 add(XSP16, 13)
          CFI Block cfiPicker57 Using cfiCommon1
          CFI (cfiPicker57) NoFunction
          CFI (cfiPicker57) Picker
        MOVX    A,@DPTR
        MOV     R2,A
        INC     DPTR
        MOVX    A,@DPTR
        MOV     R3,A
        RET
          CFI EndBlock cfiCond48
          CFI EndBlock cfiCond49
          CFI EndBlock cfiCond50
          CFI EndBlock cfiCond51
          CFI EndBlock cfiCond52
          CFI EndBlock cfiCond53
          CFI EndBlock cfiCond54
          CFI EndBlock cfiCond55
          CFI EndBlock cfiCond56
          CFI EndBlock cfiPicker57

        RSEG BANKED_CODE:CODE:NOROOT(0)
?Subroutine9:
          CFI Block cfiCond58 Using cfiCommon0
          CFI Function GenericApp_MessageMSGCB
          CFI Conditional ??CrossCallReturnLabel_5
          CFI R6 load(1, XDATA, add(CFA_XSP16, literal(-12)))
          CFI VB load(1, XDATA, add(CFA_XSP16, literal(-11)))
          CFI V0 load(1, XDATA, add(CFA_XSP16, literal(-10)))
          CFI V1 load(1, XDATA, add(CFA_XSP16, literal(-9)))
          CFI V2 load(1, XDATA, add(CFA_XSP16, literal(-8)))
          CFI V3 load(1, XDATA, add(CFA_XSP16, literal(-7)))
          CFI R7 load(1, XDATA, add(CFA_XSP16, literal(-6)))
          CFI ?RET_LOW load(1, XDATA, add(CFA_XSP16, literal(-5)))
          CFI ?RET_HIGH load(1, XDATA, add(CFA_XSP16, literal(-4)))
          CFI ?BRET_EXT load(1, XDATA, add(CFA_XSP16, literal(-3)))
          CFI DPL0 load(1, XDATA, add(CFA_XSP16, literal(-2)))
          CFI DPH0 load(1, XDATA, add(CFA_XSP16, literal(-1)))
          CFI CFA_SP SP+-2
          CFI CFA_XSP16 add(XSP16, 12)
          CFI Block cfiCond59 Using cfiCommon0
          CFI (cfiCond59) Function GenericApp_MessageMSGCB
          CFI (cfiCond59) Conditional ??CrossCallReturnLabel_6
          CFI (cfiCond59) R6 load(1, XDATA, add(CFA_XSP16, literal(-12)))
          CFI (cfiCond59) VB load(1, XDATA, add(CFA_XSP16, literal(-11)))
          CFI (cfiCond59) V0 load(1, XDATA, add(CFA_XSP16, literal(-10)))
          CFI (cfiCond59) V1 load(1, XDATA, add(CFA_XSP16, literal(-9)))
          CFI (cfiCond59) V2 load(1, XDATA, add(CFA_XSP16, literal(-8)))
          CFI (cfiCond59) V3 load(1, XDATA, add(CFA_XSP16, literal(-7)))
          CFI (cfiCond59) R7 load(1, XDATA, add(CFA_XSP16, literal(-6)))
          CFI (cfiCond59) ?RET_LOW load(1, XDATA, add(CFA_XSP16, literal(-5)))
          CFI (cfiCond59) ?RET_HIGH load(1, XDATA, add(CFA_XSP16, literal(-4)))
          CFI (cfiCond59) ?BRET_EXT load(1, XDATA, add(CFA_XSP16, literal(-3)))
          CFI (cfiCond59) DPL0 load(1, XDATA, add(CFA_XSP16, literal(-2)))
          CFI (cfiCond59) DPH0 load(1, XDATA, add(CFA_XSP16, literal(-1)))
          CFI (cfiCond59) CFA_SP SP+-2
          CFI (cfiCond59) CFA_XSP16 add(XSP16, 12)
          CFI Block cfiPicker60 Using cfiCommon1
          CFI (cfiPicker60) NoFunction
          CFI (cfiPicker60) Picker
        LCALL   ?Subroutine41 & 0xFFFF
??CrossCallReturnLabel_70:
        ; Setup parameters for call to function HalLcdWriteStringValue
        ; Setup parameters for call to function HalLcdWriteStringValue
        MOV     ?V0,#0x3
        MOV     R0,#?V0
        RET
          CFI EndBlock cfiCond58
          CFI EndBlock cfiCond59
          CFI EndBlock cfiPicker60

        RSEG BANKED_CODE:CODE:NOROOT(0)
?Subroutine41:
          CFI Block cfiCond61 Using cfiCommon0
          CFI Function GenericApp_MessageMSGCB
          CFI Conditional ??CrossCallReturnLabel_69
          CFI R6 load(1, XDATA, add(CFA_XSP16, literal(-12)))
          CFI VB load(1, XDATA, add(CFA_XSP16, literal(-11)))
          CFI V0 load(1, XDATA, add(CFA_XSP16, literal(-10)))
          CFI V1 load(1, XDATA, add(CFA_XSP16, literal(-9)))
          CFI V2 load(1, XDATA, add(CFA_XSP16, literal(-8)))
          CFI V3 load(1, XDATA, add(CFA_XSP16, literal(-7)))
          CFI R7 load(1, XDATA, add(CFA_XSP16, literal(-6)))
          CFI ?RET_LOW load(1, XDATA, add(CFA_XSP16, literal(-5)))
          CFI ?RET_HIGH load(1, XDATA, add(CFA_XSP16, literal(-4)))
          CFI ?BRET_EXT load(1, XDATA, add(CFA_XSP16, literal(-3)))
          CFI DPL0 load(1, XDATA, add(CFA_XSP16, literal(-2)))
          CFI DPH0 load(1, XDATA, add(CFA_XSP16, literal(-1)))
          CFI CFA_SP SP+-2
          CFI CFA_XSP16 add(XSP16, 12)
          CFI Block cfiCond62 Using cfiCommon0
          CFI (cfiCond62) Function GenericApp_MessageMSGCB
          CFI (cfiCond62) Conditional ??CrossCallReturnLabel_70, ??CrossCallReturnLabel_5
          CFI (cfiCond62) R6 load(1, XDATA, add(CFA_XSP16, literal(-12)))
          CFI (cfiCond62) VB load(1, XDATA, add(CFA_XSP16, literal(-11)))
          CFI (cfiCond62) V0 load(1, XDATA, add(CFA_XSP16, literal(-10)))
          CFI (cfiCond62) V1 load(1, XDATA, add(CFA_XSP16, literal(-9)))
          CFI (cfiCond62) V2 load(1, XDATA, add(CFA_XSP16, literal(-8)))
          CFI (cfiCond62) V3 load(1, XDATA, add(CFA_XSP16, literal(-7)))
          CFI (cfiCond62) R7 load(1, XDATA, add(CFA_XSP16, literal(-6)))
          CFI (cfiCond62) ?RET_LOW load(1, XDATA, add(CFA_XSP16, literal(-5)))
          CFI (cfiCond62) ?RET_HIGH load(1, XDATA, add(CFA_XSP16, literal(-4)))
          CFI (cfiCond62) ?BRET_EXT load(1, XDATA, add(CFA_XSP16, literal(-3)))
          CFI (cfiCond62) DPL0 load(1, XDATA, add(CFA_XSP16, literal(-2)))
          CFI (cfiCond62) DPH0 load(1, XDATA, add(CFA_XSP16, literal(-1)))
          CFI (cfiCond62) CFA_SP SP+-4
          CFI (cfiCond62) CFA_XSP16 add(XSP16, 12)
          CFI Block cfiCond63 Using cfiCommon0
          CFI (cfiCond63) Function GenericApp_MessageMSGCB
          CFI (cfiCond63) Conditional ??CrossCallReturnLabel_70, ??CrossCallReturnLabel_6
          CFI (cfiCond63) R6 load(1, XDATA, add(CFA_XSP16, literal(-12)))
          CFI (cfiCond63) VB load(1, XDATA, add(CFA_XSP16, literal(-11)))
          CFI (cfiCond63) V0 load(1, XDATA, add(CFA_XSP16, literal(-10)))
          CFI (cfiCond63) V1 load(1, XDATA, add(CFA_XSP16, literal(-9)))
          CFI (cfiCond63) V2 load(1, XDATA, add(CFA_XSP16, literal(-8)))
          CFI (cfiCond63) V3 load(1, XDATA, add(CFA_XSP16, literal(-7)))
          CFI (cfiCond63) R7 load(1, XDATA, add(CFA_XSP16, literal(-6)))
          CFI (cfiCond63) ?RET_LOW load(1, XDATA, add(CFA_XSP16, literal(-5)))
          CFI (cfiCond63) ?RET_HIGH load(1, XDATA, add(CFA_XSP16, literal(-4)))
          CFI (cfiCond63) ?BRET_EXT load(1, XDATA, add(CFA_XSP16, literal(-3)))
          CFI (cfiCond63) DPL0 load(1, XDATA, add(CFA_XSP16, literal(-2)))
          CFI (cfiCond63) DPH0 load(1, XDATA, add(CFA_XSP16, literal(-1)))
          CFI (cfiCond63) CFA_SP SP+-4
          CFI (cfiCond63) CFA_XSP16 add(XSP16, 12)
          CFI Block cfiPicker64 Using cfiCommon1
          CFI (cfiPicker64) NoFunction
          CFI (cfiPicker64) Picker
        MOVX    A,@DPTR
        ADD     A,#0x1
        MOVX    @DPTR,A
        INC     DPTR
        MOVX    A,@DPTR
        ADDC    A,#0x0
        MOVX    @DPTR,A
        RET
          CFI EndBlock cfiCond61
          CFI EndBlock cfiCond62
          CFI EndBlock cfiCond63
          CFI EndBlock cfiPicker64
// 1004 
// 1005 /*********************************************************************
// 1006  * @fn      GenericApp_SendTheMessage
// 1007  *
// 1008  * @brief   Send "the" message.
// 1009  *
// 1010  * @param   none
// 1011  *
// 1012  * @return  none
// 1013  */
// 1014 static void GenericApp_SendTheMessage( void )
// 1015 {
// 1016   char theMessageData[] = "Hello World";
// 1017 
// 1018   if ( AF_DataRequest( &GenericApp_DstAddr, &GenericApp_epDesc,
// 1019                        GENERICAPP_CLUSTERID,
// 1020                        (byte)osal_strlen( theMessageData ) + 1,
// 1021                        (byte *)&theMessageData,
// 1022                        &GenericApp_TransID,
// 1023                        AF_DISCV_ROUTE, AF_DEFAULT_RADIUS ) == afStatus_SUCCESS )
// 1024   {
// 1025     // Successfully requested to be sent.
// 1026   }
// 1027   else
// 1028   {
// 1029     // Error occurred in request to send.
// 1030   }
// 1031 }
// 1032 
// 1033 #if defined( IAR_ARMCM3_LM )
// 1034 /*********************************************************************
// 1035  * @fn      GenericApp_ProcessRtosMessage
// 1036  *
// 1037  * @brief   Receive message from RTOS queue, send response back.
// 1038  *
// 1039  * @param   none
// 1040  *
// 1041  * @return  none
// 1042  */
// 1043 static void GenericApp_ProcessRtosMessage( void )
// 1044 {
// 1045   osalQueue_t inMsg;
// 1046 
// 1047   if ( osal_queue_receive( OsalQueue, &inMsg, 0 ) == pdPASS )
// 1048   {
// 1049     uint8 cmndId = inMsg.cmnd;
// 1050     uint32 counter = osal_build_uint32( inMsg.cbuf, 4 );
// 1051 
// 1052     switch ( cmndId )
// 1053     {
// 1054       case CMD_INCR:
// 1055         counter += 1;  /* Increment the incoming counter */
// 1056                        /* Intentionally fall through next case */
// 1057 
// 1058       case CMD_ECHO:
// 1059       {
// 1060         userQueue_t outMsg;
// 1061 
// 1062         outMsg.resp = RSP_CODE | cmndId;  /* Response ID */
// 1063         osal_buffer_uint32( outMsg.rbuf, counter );    /* Increment counter */
// 1064         osal_queue_send( UserQueue1, &outMsg, 0 );  /* Send back to UserTask */
// 1065         break;
// 1066       }
// 1067 
// 1068       default:
// 1069         break;  /* Ignore unknown command */
// 1070     }
// 1071   }
// 1072 }
// 1073 #endif
// 1074 
// 1075 
// 1076 
// 1077 /*********************************************************************
// 1078  */
// 1079 

        RSEG BANKED_CODE:CODE:NOROOT(0)
// 1080 nodeList_t *CustomApp_NodeRegister (afAddrType_t addr64, afAddrType_t addr16)
CustomApp_NodeRegister:
          CFI Block cfiBlock65 Using cfiCommon0
          CFI Function CustomApp_NodeRegister
        CODE
// 1081 {
        FUNCALL CustomApp_NodeRegister, CustomApp_NodeFindMacAddrList
        LOCFRAME ISTACK, 0, STACK
        LOCFRAME PSTACK, 0, STACK
        LOCFRAME XSTACK, 10, STACK
        LOCFRAME IOVERLAY, 0, STATIC
        LOCFRAME DOVERLAY, 0, STATIC
        ARGFRAME ISTACK, 0, STACK
        ARGFRAME PSTACK, 0, STACK
        ARGFRAME XSTACK, 10, STACK
        ARGFRAME IOVERLAY, 0, STATIC
        ARGFRAME DOVERLAY, 0, STATIC
        FUNCALL CustomApp_NodeRegister, osal_mem_alloc
        LOCFRAME ISTACK, 0, STACK
        LOCFRAME PSTACK, 0, STACK
        LOCFRAME XSTACK, 10, STACK
        LOCFRAME IOVERLAY, 0, STATIC
        LOCFRAME DOVERLAY, 0, STATIC
        ARGFRAME ISTACK, 0, STACK
        ARGFRAME PSTACK, 0, STACK
        ARGFRAME XSTACK, 10, STACK
        ARGFRAME IOVERLAY, 0, STATIC
        ARGFRAME DOVERLAY, 0, STATIC
        REQUIRE ?V0
        REQUIRE ?V1
        MOV     A,#-0xa
        LCALL   ?BANKED_ENTER_XDATA
          CFI DPH0 load(1, XDATA, add(CFA_XSP16, literal(-1)))
          CFI DPL0 load(1, XDATA, add(CFA_XSP16, literal(-2)))
          CFI ?BRET_EXT load(1, XDATA, add(CFA_XSP16, literal(-3)))
          CFI ?RET_HIGH load(1, XDATA, add(CFA_XSP16, literal(-4)))
          CFI ?RET_LOW load(1, XDATA, add(CFA_XSP16, literal(-5)))
          CFI R7 load(1, XDATA, add(CFA_XSP16, literal(-6)))
          CFI V1 load(1, XDATA, add(CFA_XSP16, literal(-7)))
          CFI V0 load(1, XDATA, add(CFA_XSP16, literal(-8)))
          CFI VB load(1, XDATA, add(CFA_XSP16, literal(-9)))
          CFI R6 load(1, XDATA, add(CFA_XSP16, literal(-10)))
          CFI CFA_SP SP+0
          CFI CFA_XSP16 add(XSP16, 10)
        ; Saved register size: 10
        ; Auto size: 0
// 1082     nodeList_t *nodeSearch;
// 1083 
// 1084     nodeSearch = CustomApp_NodeFindMacAddrList(addr64.addr.extAddr);  //chaokw issue
// 1085 
// 1086     if (nodeSearch == NULL)
        ; Setup parameters for call to function CustomApp_NodeFindMacAddrList
        MOV     A,#0xa
        LCALL   ?XSTACK_DISP101_8
        LCALL   `??CustomApp_NodeFindMacAddrList::?relay`; Banked call to: CustomApp_NodeFindMacAddrList
        MOV     ?V1,R3
        MOV     A,R2
        ORL     A,?V1
