///////////////////////////////////////////////////////////////////////////////
//
// IAR C/C++ Compiler V9.30.1.3056 for 8051               21/Apr/2017  13:45:59
// Copyright 2004-2015 IAR Systems AB.
//
//    Core               =  plain
//    Code model         =  banked
//    Data model         =  large
//    Calling convention =  xdata reentrant
//    Constant location  =  data_rom
//    Dptr setup         =  1,16
//                          
//    Source file        =  
//        C:\Texas Instruments\Z-Stack Mesh 1.0.0_chaokw_20160317\Z-Stack Mesh
//        1.0.0_chaokw_20160316\Z-Stack Mesh 1.0.0_LCDOK\Z-Stack Mesh
//        1.0.0\Components\hal\target\CC2530EB\hal_lcd.c
//    Command line       =  
//        -f "C:\Texas Instruments\Z-Stack Mesh 1.0.0_chaokw_20160317\Z-Stack
//        Mesh 1.0.0_chaokw_20160316\Z-Stack Mesh 1.0.0_LCDOK\Z-Stack Mesh
//        1.0.0\Projects\zstack\Samples\GenericApp\CC2530DB\..\..\..\Tools\CC2530DB\f8wRouter.cfg"
//        (-DCPU32MHZ -DROOT=__near_func -DMAC_CFG_APP_PENDING_QUEUE=TRUE
//        -DMAC_CFG_TX_DATA_MAX=5 -DMAC_CFG_TX_MAX=8 -DMAC_CFG_RX_MAX=5
//        -DRTR_NWK) -f "C:\Texas Instruments\Z-Stack Mesh
//        1.0.0_chaokw_20160317\Z-Stack Mesh 1.0.0_chaokw_20160316\Z-Stack Mesh
//        1.0.0_LCDOK\Z-Stack Mesh
//        1.0.0\Projects\zstack\Samples\GenericApp\CC2530DB\..\..\..\Tools\CC2530DB\f8wConfig.cfg"
//        (-DZIGBEEPRO -DSECURE=1 -DZG_SECURE_DYNAMIC=0 -DREFLECTOR
//        -DDEFAULT_CHANLIST=0x04000000 -DZDAPP_CONFIG_PAN_ID=0x0100
//        -DNWK_START_DELAY=100 -DEXTENDED_JOINING_RANDOM_MASK=0x007F
//        -DBEACON_REQUEST_DELAY=100 -DBEACON_REQ_DELAY_MASK=0x00FF
//        -DLINK_STATUS_JITTER_MASK=0x007F -DROUTE_EXPIRY_TIME=30
//        -DAPSC_ACK_WAIT_DURATION_POLLED=3000 -DNWK_INDIRECT_MSG_TIMEOUT=7
//        -DMAX_RREQ_ENTRIES=8 -DAPSC_MAX_FRAME_RETRIES=5
//        -DNWK_MAX_DATA_RETRIES=2 -DMAX_POLL_FAILURE_RETRIES=2 -DMAX_BCAST=9
//        -DAPS_MAX_GROUPS=16 -DMAX_RTG_ENTRIES=40 -DNWK_MAX_BINDING_ENTRIES=4
//        -DMAX_BINDING_CLUSTER_IDS=4 "-DDEFAULT_KEY={0x01, 0x03, 0x05, 0x07,
//        0x09, 0x0B, 0x0D, 0x0F, 0x00, 0x02, 0x04, 0x06, 0x08, 0x0A, 0x0C,
//        0x0D}" -DMAC_MAX_FRAME_SIZE=116 -DZDNWKMGR_MIN_TRANSMISSIONS=20
//        "-DCONST=const __code" -DGENERIC=__generic -DRFD_RCVC_ALWAYS_ON=FALSE
//        -DPOLL_RATE=1000 -DQUEUED_POLL_RATE=100 -DRESPONSE_POLL_RATE=100
//        -DREJOIN_POLL_RATE=440) -DCHANNEL_CNT=0x01 "C:\Texas
//        Instruments\Z-Stack Mesh 1.0.0_chaokw_20160317\Z-Stack Mesh
//        1.0.0_chaokw_20160316\Z-Stack Mesh 1.0.0_LCDOK\Z-Stack Mesh
//        1.0.0\Components\hal\target\CC2530EB\hal_lcd.c" -D ZTOOL_P1 -D
//        MT_TASK -D MT_SYS_FUNC -D MT_ZDO_FUNC -D LCD_SUPPORTED=DEBUG -D
//        xNV_RESTORE -D NV_INIT -D OPEN_FCS -D PANID_INCREASE -D MAKE_CRC_SHDW
//        -lC "C:\Texas Instruments\Z-Stack Mesh 1.0.0_chaokw_20160317\Z-Stack
//        Mesh 1.0.0_chaokw_20160316\Z-Stack Mesh 1.0.0_LCDOK\Z-Stack Mesh
//        1.0.0\Projects\zstack\Samples\GenericApp\CC2530DB\RouterEB-SBL\List"
//        -lA "C:\Texas Instruments\Z-Stack Mesh 1.0.0_chaokw_20160317\Z-Stack
//        Mesh 1.0.0_chaokw_20160316\Z-Stack Mesh 1.0.0_LCDOK\Z-Stack Mesh
//        1.0.0\Projects\zstack\Samples\GenericApp\CC2530DB\RouterEB-SBL\List"
//        --diag_suppress Pe001,Pa010 -o "C:\Texas Instruments\Z-Stack Mesh
//        1.0.0_chaokw_20160317\Z-Stack Mesh 1.0.0_chaokw_20160316\Z-Stack Mesh
//        1.0.0_LCDOK\Z-Stack Mesh
//        1.0.0\Projects\zstack\Samples\GenericApp\CC2530DB\RouterEB-SBL\Obj"
//        -e --no_code_motion --debug --core=plain --dptr=16,1
//        --data_model=large --code_model=banked
//        --calling_convention=xdata_reentrant --place_constants=data_rom
//        --nr_virtual_regs 16 -I "C:\Texas Instruments\Z-Stack Mesh
//        1.0.0_chaokw_20160317\Z-Stack Mesh 1.0.0_chaokw_20160316\Z-Stack Mesh
//        1.0.0_LCDOK\Z-Stack Mesh
//        1.0.0\Projects\zstack\Samples\GenericApp\CC2530DB\" -I "C:\Texas
//        Instruments\Z-Stack Mesh 1.0.0_chaokw_20160317\Z-Stack Mesh
//        1.0.0_chaokw_20160316\Z-Stack Mesh 1.0.0_LCDOK\Z-Stack Mesh
//        1.0.0\Projects\zstack\Samples\GenericApp\CC2530DB\..\Source\" -I
//        "C:\Texas Instruments\Z-Stack Mesh 1.0.0_chaokw_20160317\Z-Stack Mesh
//        1.0.0_chaokw_20160316\Z-Stack Mesh 1.0.0_LCDOK\Z-Stack Mesh
//        1.0.0\Projects\zstack\Samples\GenericApp\CC2530DB\..\..\..\Application\"
//        -I "C:\Texas Instruments\Z-Stack Mesh 1.0.0_chaokw_20160317\Z-Stack
//        Mesh 1.0.0_chaokw_20160316\Z-Stack Mesh 1.0.0_LCDOK\Z-Stack Mesh
//        1.0.0\Projects\zstack\Samples\GenericApp\CC2530DB\..\..\..\ZMain\TI2530DB\"
//        -I "C:\Texas Instruments\Z-Stack Mesh 1.0.0_chaokw_20160317\Z-Stack
//        Mesh 1.0.0_chaokw_20160316\Z-Stack Mesh 1.0.0_LCDOK\Z-Stack Mesh
//        1.0.0\Projects\zstack\Samples\GenericApp\CC2530DB\..\..\..\..\..\Components\hal\include\"
//        -I "C:\Texas Instruments\Z-Stack Mesh 1.0.0_chaokw_20160317\Z-Stack
//        Mesh 1.0.0_chaokw_20160316\Z-Stack Mesh 1.0.0_LCDOK\Z-Stack Mesh
//        1.0.0\Projects\zstack\Samples\GenericApp\CC2530DB\..\..\..\..\..\Components\hal\target\CC2530EB\"
//        -I "C:\Texas Instruments\Z-Stack Mesh 1.0.0_chaokw_20160317\Z-Stack
//        Mesh 1.0.0_chaokw_20160316\Z-Stack Mesh 1.0.0_LCDOK\Z-Stack Mesh
//        1.0.0\Projects\zstack\Samples\GenericApp\CC2530DB\..\..\..\..\..\Components\mac\include\"
//        -I "C:\Texas Instruments\Z-Stack Mesh 1.0.0_chaokw_20160317\Z-Stack
//        Mesh 1.0.0_chaokw_20160316\Z-Stack Mesh 1.0.0_LCDOK\Z-Stack Mesh
//        1.0.0\Projects\zstack\Samples\GenericApp\CC2530DB\..\..\..\..\..\Components\mac\high_level\"
//        -I "C:\Texas Instruments\Z-Stack Mesh 1.0.0_chaokw_20160317\Z-Stack
//        Mesh 1.0.0_chaokw_20160316\Z-Stack Mesh 1.0.0_LCDOK\Z-Stack Mesh
//        1.0.0\Projects\zstack\Samples\GenericApp\CC2530DB\..\..\..\..\..\Components\mac\low_level\srf04\"
//        -I "C:\Texas Instruments\Z-Stack Mesh 1.0.0_chaokw_20160317\Z-Stack
//        Mesh 1.0.0_chaokw_20160316\Z-Stack Mesh 1.0.0_LCDOK\Z-Stack Mesh
//        1.0.0\Projects\zstack\Samples\GenericApp\CC2530DB\..\..\..\..\..\Components\mac\low_level\srf04\single_chip\"
//        -I "C:\Texas Instruments\Z-Stack Mesh 1.0.0_chaokw_20160317\Z-Stack
//        Mesh 1.0.0_chaokw_20160316\Z-Stack Mesh 1.0.0_LCDOK\Z-Stack Mesh
//        1.0.0\Projects\zstack\Samples\GenericApp\CC2530DB\..\..\..\..\..\Components\mt\"
//        -I "C:\Texas Instruments\Z-Stack Mesh 1.0.0_chaokw_20160317\Z-Stack
//        Mesh 1.0.0_chaokw_20160316\Z-Stack Mesh 1.0.0_LCDOK\Z-Stack Mesh
//        1.0.0\Projects\zstack\Samples\GenericApp\CC2530DB\..\..\..\..\..\Components\osal\include\"
//        -I "C:\Texas Instruments\Z-Stack Mesh 1.0.0_chaokw_20160317\Z-Stack
//        Mesh 1.0.0_chaokw_20160316\Z-Stack Mesh 1.0.0_LCDOK\Z-Stack Mesh
//        1.0.0\Projects\zstack\Samples\GenericApp\CC2530DB\..\..\..\..\..\Components\services\saddr\"
//        -I "C:\Texas Instruments\Z-Stack Mesh 1.0.0_chaokw_20160317\Z-Stack
//        Mesh 1.0.0_chaokw_20160316\Z-Stack Mesh 1.0.0_LCDOK\Z-Stack Mesh
//        1.0.0\Projects\zstack\Samples\GenericApp\CC2530DB\..\..\..\..\..\Components\services\sdata\"
//        -I "C:\Texas Instruments\Z-Stack Mesh 1.0.0_chaokw_20160317\Z-Stack
//        Mesh 1.0.0_chaokw_20160316\Z-Stack Mesh 1.0.0_LCDOK\Z-Stack Mesh
//        1.0.0\Projects\zstack\Samples\GenericApp\CC2530DB\..\..\..\..\..\Components\stack\af\"
//        -I "C:\Texas Instruments\Z-Stack Mesh 1.0.0_chaokw_20160317\Z-Stack
//        Mesh 1.0.0_chaokw_20160316\Z-Stack Mesh 1.0.0_LCDOK\Z-Stack Mesh
//        1.0.0\Projects\zstack\Samples\GenericApp\CC2530DB\..\..\..\..\..\Components\stack\nwk\"
//        -I "C:\Texas Instruments\Z-Stack Mesh 1.0.0_chaokw_20160317\Z-Stack
//        Mesh 1.0.0_chaokw_20160316\Z-Stack Mesh 1.0.0_LCDOK\Z-Stack Mesh
//        1.0.0\Projects\zstack\Samples\GenericApp\CC2530DB\..\..\..\..\..\Components\stack\sapi\"
//        -I "C:\Texas Instruments\Z-Stack Mesh 1.0.0_chaokw_20160317\Z-Stack
//        Mesh 1.0.0_chaokw_20160316\Z-Stack Mesh 1.0.0_LCDOK\Z-Stack Mesh
//        1.0.0\Projects\zstack\Samples\GenericApp\CC2530DB\..\..\..\..\..\Components\stack\sec\"
//        -I "C:\Texas Instruments\Z-Stack Mesh 1.0.0_chaokw_20160317\Z-Stack
//        Mesh 1.0.0_chaokw_20160316\Z-Stack Mesh 1.0.0_LCDOK\Z-Stack Mesh
//        1.0.0\Projects\zstack\Samples\GenericApp\CC2530DB\..\..\..\..\..\Components\stack\sys\"
//        -I "C:\Texas Instruments\Z-Stack Mesh 1.0.0_chaokw_20160317\Z-Stack
//        Mesh 1.0.0_chaokw_20160316\Z-Stack Mesh 1.0.0_LCDOK\Z-Stack Mesh
//        1.0.0\Projects\zstack\Samples\GenericApp\CC2530DB\..\..\..\..\..\Components\stack\zdo\"
//        -I "C:\Texas Instruments\Z-Stack Mesh 1.0.0_chaokw_20160317\Z-Stack
//        Mesh 1.0.0_chaokw_20160316\Z-Stack Mesh 1.0.0_LCDOK\Z-Stack Mesh
//        1.0.0\Projects\zstack\Samples\GenericApp\CC2530DB\..\..\..\..\..\Components\zmac\"
//        -I "C:\Texas Instruments\Z-Stack Mesh 1.0.0_chaokw_20160317\Z-Stack
//        Mesh 1.0.0_chaokw_20160316\Z-Stack Mesh 1.0.0_LCDOK\Z-Stack Mesh
//        1.0.0\Projects\zstack\Samples\GenericApp\CC2530DB\..\..\..\..\..\Components\zmac\f8w\"
//        -Ohz --require_prototypes
//    List file          =  
//        C:\Texas Instruments\Z-Stack Mesh 1.0.0_chaokw_20160317\Z-Stack Mesh
//        1.0.0_chaokw_20160316\Z-Stack Mesh 1.0.0_LCDOK\Z-Stack Mesh
//        1.0.0\Projects\zstack\Samples\GenericApp\CC2530DB\RouterEB-SBL\List\hal_lcd.s51
//
///////////////////////////////////////////////////////////////////////////////

        NAME hal_lcd

        RTMODEL "__SystemLibrary", "CLib"
        RTMODEL "__calling_convention", "xdata_reentrant"
        RTMODEL "__code_model", "banked"
        RTMODEL "__core", "plain"
        RTMODEL "__data_model", "large"
        RTMODEL "__dptr_size", "16"
        RTMODEL "__extended_stack", "disabled"
        RTMODEL "__location_for_constants", "data"
        RTMODEL "__number_of_dptrs", "1"
        RTMODEL "__rt_version", "1"

        RSEG DOVERLAY:DATA:NOROOT(0)
        RSEG IOVERLAY:IDATA:NOROOT(0)
        RSEG ISTACK:IDATA:NOROOT(0)
        RSEG PSTACK:XDATA:NOROOT(0)
        RSEG XSTACK:XDATA:NOROOT(0)

        EXTERN ?V0
        EXTERN ?V1
        EXTERN ?V2
        EXTERN ?V3
        EXTERN ?V4
        EXTERN ?V5
        EXTERN ?V6
        EXTERN ?V7
        EXTERN ?V8
        EXTERN ?V9
        EXTERN ?V10
        EXTERN ?V11
        EXTERN ?V12
        EXTERN ?V13
        EXTERN ?V14
        EXTERN ?ALLOC_XSTACK8
        EXTERN ?BANKED_ENTER_XDATA
        EXTERN ?BANKED_LEAVE_XDATA
        EXTERN ?BDISPATCH
        EXTERN ?BRET
        EXTERN ?DEALLOC_XSTACK8
        EXTERN ?L_MOV_X
        EXTERN ?L_SUB
        EXTERN ?PUSH_XSTACK_I_FOUR
        EXTERN ?PUSH_XSTACK_I_THREE
        EXTERN ?PUSH_XSTACK_I_TWO
        EXTERN ?S_SHL
        EXTERN ?UL_DIV_MOD
        EXTERN ?UL_GE_X
        EXTERN ?US_SHR
        EXTERN ?XSP
        EXTERN ?XSTACK_DISP0_8
        EXTERN ?XSTACK_DISP100_8
        EXTERN ?XSTACK_DISP101_8
        EXTERN __INIT_XDATA_I

        PUBLIC `??ClearScreen::?relay`
        FUNCTION `??ClearScreen::?relay`,0203H
        PUBLIC `??HalLcdClearLine::?relay`
        FUNCTION `??HalLcdClearLine::?relay`,0203H
        PUBLIC `??HalLcdInit::?relay`
        FUNCTION `??HalLcdInit::?relay`,0203H
        PUBLIC `??HalLcdWriteAddr::?relay`
        FUNCTION `??HalLcdWriteAddr::?relay`,0203H
        PUBLIC `??HalLcdWriteLoc::?relay`
        FUNCTION `??HalLcdWriteLoc::?relay`,0203H
        PUBLIC `??HalLcdWriteScreen::?relay`
        FUNCTION `??HalLcdWriteScreen::?relay`,0203H
        PUBLIC `??HalLcdWriteString::?relay`
        FUNCTION `??HalLcdWriteString::?relay`,0203H
        PUBLIC `??HalLcdWriteStringValue::?relay`
        FUNCTION `??HalLcdWriteStringValue::?relay`,0203H
        PUBLIC `??HalLcdWriteStringValueValue::?relay`
        FUNCTION `??HalLcdWriteStringValueValue::?relay`,0203H
        PUBLIC `??HalLcdWriteValue::?relay`
        FUNCTION `??HalLcdWriteValue::?relay`,0203H
        PUBLIC `??InitDisplay::?relay`
        FUNCTION `??InitDisplay::?relay`,0203H
        PUBLIC `??Print6::?relay`
        FUNCTION `??Print6::?relay`,0203H
        PUBLIC `??Print8::?relay`
        FUNCTION `??Print8::?relay`,0203H
        PUBLIC `??Print::?relay`
        FUNCTION `??Print::?relay`,0203H
        PUBLIC `??PrintCh8::?relay`
        FUNCTION `??PrintCh8::?relay`,0203H
        PUBLIC `??PrintS16::?relay`
        FUNCTION `??PrintS16::?relay`,0203H
        PUBLIC `??PrintS8::?relay`
        FUNCTION `??PrintS8::?relay`,0203H
        PUBLIC `??Printn8::?relay`
        FUNCTION `??Printn8::?relay`,0203H
        PUBLIC `??SetContrast::?relay`
        FUNCTION `??SetContrast::?relay`,0203H
        PUBLIC `??SetRamAddr::?relay`
        FUNCTION `??SetRamAddr::?relay`,0203H
        PUBLIC `??Write595::?relay`
        FUNCTION `??Write595::?relay`,0203H
        PUBLIC `??WriteLCD::?relay`
        FUNCTION `??WriteLCD::?relay`,0203H
        PUBLIC `??contrastctrl::?relay`
        FUNCTION `??contrastctrl::?relay`,0203H
        PUBLIC `??delay1::?relay`
        FUNCTION `??delay1::?relay`,0203H
        PUBLIC `??delay_us::?relay`
        FUNCTION `??delay_us::?relay`,0203H
        PUBLIC `??upLcd::?relay`
        FUNCTION `??upLcd::?relay`,0203H
        PUBLIC ClearScreen
        FUNCTION ClearScreen,021203H
        ARGFRAME XSTACK, 0, STACK
        ARGFRAME IOVERLAY, 0, STATIC
        ARGFRAME DOVERLAY, 0, STATIC
        LOCFRAME XSTACK, 9, STACK
        PUBLIC ContrastValue
        PUBLIC HalLcdClearLine
        FUNCTION HalLcdClearLine,0a1203H
        ARGFRAME XSTACK, 32, STACK
        ARGFRAME IOVERLAY, 0, STATIC
        ARGFRAME DOVERLAY, 0, STATIC
        LOCFRAME XSTACK, 14, STACK
        PUBLIC HalLcdInit
        FUNCTION HalLcdInit,021203H
        ARGFRAME XSTACK, 0, STACK
        LOCFRAME ISTACK, 2, STACK
        PUBLIC HalLcdWriteAddr
        FUNCTION HalLcdWriteAddr,0a1203H
        ARGFRAME XSTACK, 0, STACK
        LOCFRAME ISTACK, 1, STACK
        LOCFRAME XSTACK, 24, STACK
        PUBLIC HalLcdWriteLoc
        FUNCTION HalLcdWriteLoc,0a1203H
        ARGFRAME XSTACK, 0, STACK
        LOCFRAME XSTACK, 20, STACK
        PUBLIC HalLcdWriteScreen
        FUNCTION HalLcdWriteScreen,021203H
        ARGFRAME XSTACK, 0, STACK
        LOCFRAME XSTACK, 9, STACK
        PUBLIC HalLcdWriteString
        FUNCTION HalLcdWriteString,0a1203H
        ARGFRAME XSTACK, 35, STACK
        ARGFRAME IOVERLAY, 0, STATIC
        ARGFRAME DOVERLAY, 0, STATIC
        LOCFRAME XSTACK, 36, STACK
        PUBLIC HalLcdWriteStringValue
        FUNCTION HalLcdWriteStringValue,0a1203H
        ARGFRAME XSTACK, 1, STACK
        LOCFRAME XSTACK, 38, STACK
        PUBLIC HalLcdWriteStringValueValue
        FUNCTION HalLcdWriteStringValueValue,0203H
        ARGFRAME XSTACK, 4, STACK
        PUBLIC HalLcdWriteValue
        FUNCTION HalLcdWriteValue,0a1203H
        ARGFRAME XSTACK, 1, STACK
        LOCFRAME XSTACK, 16, STACK
        PUBLIC InitDisplay
        FUNCTION InitDisplay,021203H
        ARGFRAME XSTACK, 0, STACK
        LOCFRAME ISTACK, 2, STACK
        PUBWEAK P0DIR
        PUBWEAK P1DIR
        PUBWEAK P2DIR
        PUBLIC Print
        FUNCTION Print,0a1203H
        ARGFRAME XSTACK, 2, STACK
        LOCFRAME ISTACK, 1, STACK
        LOCFRAME XSTACK, 23, STACK
        PUBLIC Print6
        FUNCTION Print6,0a1203H
        ARGFRAME XSTACK, 0, STACK
        LOCFRAME XSTACK, 15, STACK
        PUBLIC Print8
        FUNCTION Print8,0a1203H
        ARGFRAME XSTACK, 36, STACK
        ARGFRAME IOVERLAY, 0, STATIC
        ARGFRAME DOVERLAY, 0, STATIC
        LOCFRAME XSTACK, 20, STACK
        PUBLIC PrintCh8
        FUNCTION PrintCh8,0a1203H
        ARGFRAME XSTACK, 2, STACK
        LOCFRAME XSTACK, 16, STACK
        PUBLIC PrintS16
        FUNCTION PrintS16,0a1203H
        ARGFRAME XSTACK, 20, STACK
        ARGFRAME IOVERLAY, 0, STATIC
        ARGFRAME DOVERLAY, 0, STATIC
        LOCFRAME ISTACK, 1, STACK
        LOCFRAME XSTACK, 36, STACK
        PUBLIC PrintS8
        FUNCTION PrintS8,0a1203H
        ARGFRAME XSTACK, 16, STACK
        ARGFRAME IOVERLAY, 0, STATIC
        ARGFRAME DOVERLAY, 0, STATIC
        LOCFRAME ISTACK, 1, STACK
        LOCFRAME XSTACK, 32, STACK
        PUBLIC Printn8
        FUNCTION Printn8,0a1203H
        ARGFRAME XSTACK, 4, STACK
        LOCFRAME ISTACK, 1, STACK
        LOCFRAME XSTACK, 32, STACK
        PUBLIC SetContrast
        FUNCTION SetContrast,021203H
        ARGFRAME XSTACK, 9, STACK
        ARGFRAME IOVERLAY, 0, STATIC
        ARGFRAME DOVERLAY, 0, STATIC
        LOCFRAME XSTACK, 9, STACK
        PUBLIC SetRamAddr
        FUNCTION SetRamAddr,021203H
        ARGFRAME XSTACK, 20, STACK
        ARGFRAME IOVERLAY, 0, STATIC
        ARGFRAME DOVERLAY, 0, STATIC
        LOCFRAME XSTACK, 9, STACK
        PUBLIC Write595
        FUNCTION Write595,0203H
        ARGFRAME XSTACK, 9, STACK
        ARGFRAME IOVERLAY, 0, STATIC
        ARGFRAME DOVERLAY, 0, STATIC
        PUBLIC WriteLCD
        FUNCTION WriteLCD,021203H
        ARGFRAME XSTACK, 20, STACK
        ARGFRAME IOVERLAY, 0, STATIC
        ARGFRAME DOVERLAY, 0, STATIC
        LOCFRAME XSTACK, 9, STACK
        PUBWEAK _A_P0
        PUBWEAK _A_P1
        PUBWEAK _A_P2
        PUBWEAK __Constant_7f
        PUBWEAK __Constant_7fff
        PUBWEAK __Constant_a
        PUBLIC contrastctrl
        FUNCTION contrastctrl,0a1203H
        ARGFRAME XSTACK, 0, STACK
        LOCFRAME XSTACK, 9, STACK
        PUBLIC delay1
        FUNCTION delay1,0203H
        ARGFRAME XSTACK, 9, STACK
        ARGFRAME IOVERLAY, 0, STATIC
        ARGFRAME DOVERLAY, 0, STATIC
        PUBLIC delay_us
        FUNCTION delay_us,0203H
        ARGFRAME XSTACK, 9, STACK
        ARGFRAME IOVERLAY, 0, STATIC
        ARGFRAME DOVERLAY, 0, STATIC
        PUBLIC upLcd
        FUNCTION upLcd,021203H
        ARGFRAME XSTACK, 0, STACK
        LOCFRAME XSTACK, 9, STACK
        
          CFI Names cfiNames0
          CFI StackFrame CFA_SP SP IDATA
          CFI StackFrame CFA_PSP16 PSP16 XDATA
          CFI StackFrame CFA_XSP16 XSP16 XDATA
          CFI StaticOverlayFrame CFA_IOVERLAY IOVERLAY
          CFI StaticOverlayFrame CFA_DOVERLAY DOVERLAY
          CFI Resource `PSW.CY`:1, `B.BR0`:1, `B.BR1`:1, `B.BR2`:1, `B.BR3`:1
          CFI Resource `B.BR4`:1, `B.BR5`:1, `B.BR6`:1, `B.BR7`:1, `VB.BR8`:1
          CFI Resource `VB.BR9`:1, `VB.BR10`:1, `VB.BR11`:1, `VB.BR12`:1
          CFI Resource `VB.BR13`:1, `VB.BR14`:1, `VB.BR15`:1, VB:8, B:8, A:8
          CFI Resource PSW:8, DPL0:8, DPH0:8, R0:8, R1:8, R2:8, R3:8, R4:8, R5:8
          CFI Resource R6:8, R7:8, V0:8, V1:8, V2:8, V3:8, V4:8, V5:8, V6:8, V7:8
          CFI Resource V8:8, V9:8, V10:8, V11:8, V12:8, V13:8, V14:8, V15:8, SP:8
          CFI Resource PSPH:8, PSPL:8, PSP16:16, XSPH:8, XSPL:8, XSP16:16
          CFI VirtualResource ?RET:24
          CFI Resource ?BRET_EXT:8
          CFI VirtualResource ?RET_HIGH:8, ?RET_LOW:8
          CFI ResourceParts PSP16 PSPH, PSPL
          CFI ResourceParts XSP16 XSPH, XSPL
          CFI ResourceParts ?RET ?BRET_EXT, ?RET_HIGH, ?RET_LOW
          CFI EndNames cfiNames0
        
          CFI Common cfiCommon0 Using cfiNames0
          CFI CodeAlign 1
          CFI DataAlign -1
          CFI ReturnAddress ?RET CODE
          CFI CFA_DOVERLAY Used
          CFI CFA_IOVERLAY Used
          CFI CFA_SP SP+-3
          CFI CFA_PSP16 PSP16+0
          CFI CFA_XSP16 XSP16+0
          CFI `PSW.CY` SameValue
          CFI `B.BR0` SameValue
          CFI `B.BR1` SameValue
          CFI `B.BR2` SameValue
          CFI `B.BR3` SameValue
          CFI `B.BR4` SameValue
          CFI `B.BR5` SameValue
          CFI `B.BR6` SameValue
          CFI `B.BR7` SameValue
          CFI `VB.BR8` SameValue
          CFI `VB.BR9` SameValue
          CFI `VB.BR10` SameValue
          CFI `VB.BR11` SameValue
          CFI `VB.BR12` SameValue
          CFI `VB.BR13` SameValue
          CFI `VB.BR14` SameValue
          CFI `VB.BR15` SameValue
          CFI VB SameValue
          CFI B Undefined
          CFI A Undefined
          CFI PSW SameValue
          CFI DPL0 SameValue
          CFI DPH0 SameValue
          CFI R0 Undefined
          CFI R1 Undefined
          CFI R2 Undefined
          CFI R3 Undefined
          CFI R4 Undefined
          CFI R5 Undefined
          CFI R6 SameValue
          CFI R7 SameValue
          CFI V0 SameValue
          CFI V1 SameValue
          CFI V2 SameValue
          CFI V3 SameValue
          CFI V4 SameValue
          CFI V5 SameValue
          CFI V6 SameValue
          CFI V7 SameValue
          CFI V8 SameValue
          CFI V9 SameValue
          CFI V10 SameValue
          CFI V11 SameValue
          CFI V12 SameValue
          CFI V13 SameValue
          CFI V14 SameValue
          CFI V15 SameValue
          CFI PSPH Undefined
          CFI PSPL Undefined
          CFI XSPH Undefined
          CFI XSPL Undefined
          CFI ?RET Concat
          CFI ?BRET_EXT Frame(CFA_SP, 3)
          CFI ?RET_HIGH Frame(CFA_SP, 2)
          CFI ?RET_LOW Frame(CFA_SP, 1)
          CFI EndCommon cfiCommon0
        
        
          CFI Common cfiCommon1 Using cfiNames0
          CFI CodeAlign 1
          CFI DataAlign -1
          CFI ReturnAddress ?RET CODE
          CFI CFA_DOVERLAY Used
          CFI CFA_IOVERLAY Used
          CFI CFA_SP SP+-2
          CFI CFA_PSP16 PSP16+0
          CFI CFA_XSP16 XSP16+0
          CFI `PSW.CY` SameValue
          CFI `B.BR0` SameValue
          CFI `B.BR1` SameValue
          CFI `B.BR2` SameValue
          CFI `B.BR3` SameValue
          CFI `B.BR4` SameValue
          CFI `B.BR5` SameValue
          CFI `B.BR6` SameValue
          CFI `B.BR7` SameValue
          CFI `VB.BR8` SameValue
          CFI `VB.BR9` SameValue
          CFI `VB.BR10` SameValue
          CFI `VB.BR11` SameValue
          CFI `VB.BR12` SameValue
          CFI `VB.BR13` SameValue
          CFI `VB.BR14` SameValue
          CFI `VB.BR15` SameValue
          CFI VB SameValue
          CFI B SameValue
          CFI A SameValue
          CFI PSW SameValue
          CFI DPL0 SameValue
          CFI DPH0 SameValue
          CFI R0 SameValue
          CFI R1 SameValue
          CFI R2 SameValue
          CFI R3 SameValue
          CFI R4 SameValue
          CFI R5 SameValue
          CFI R6 SameValue
          CFI R7 SameValue
          CFI V0 SameValue
          CFI V1 SameValue
          CFI V2 SameValue
          CFI V3 SameValue
          CFI V4 SameValue
          CFI V5 SameValue
          CFI V6 SameValue
          CFI V7 SameValue
          CFI V8 SameValue
          CFI V9 SameValue
          CFI V10 SameValue
          CFI V11 SameValue
          CFI V12 SameValue
          CFI V13 SameValue
          CFI V14 SameValue
          CFI V15 SameValue
          CFI PSPH Undefined
          CFI PSPL Undefined
          CFI XSPH Undefined
          CFI XSPL Undefined
          CFI ?RET Concat
          CFI ?BRET_EXT SameValue
          CFI ?RET_HIGH Frame(CFA_SP, 2)
          CFI ?RET_LOW Frame(CFA_SP, 1)
          CFI EndCommon cfiCommon1
        
_ltoa               SYMBOL "_ltoa"
`??_ltoa::?relay`   SYMBOL "?relay", _ltoa
osal_memcpy         SYMBOL "osal_memcpy"
`??osal_memcpy::?relay` SYMBOL "?relay", osal_memcpy
osal_strlen         SYMBOL "osal_strlen"
`??osal_strlen::?relay` SYMBOL "?relay", osal_strlen
strlen              SYMBOL "strlen"
`??strlen::?relay`  SYMBOL "?relay", strlen
ClearScreen         SYMBOL "ClearScreen"
`??ClearScreen::?relay` SYMBOL "?relay", ClearScreen
HalLcdClearLine     SYMBOL "HalLcdClearLine"
`??HalLcdClearLine::?relay` SYMBOL "?relay", HalLcdClearLine
HalLcdInit          SYMBOL "HalLcdInit"
`??HalLcdInit::?relay` SYMBOL "?relay", HalLcdInit
HalLcdWriteAddr     SYMBOL "HalLcdWriteAddr"
`??HalLcdWriteAddr::?relay` SYMBOL "?relay", HalLcdWriteAddr
HalLcdWriteLoc      SYMBOL "HalLcdWriteLoc"
`??HalLcdWriteLoc::?relay` SYMBOL "?relay", HalLcdWriteLoc
HalLcdWriteScreen   SYMBOL "HalLcdWriteScreen"
`??HalLcdWriteScreen::?relay` SYMBOL "?relay", HalLcdWriteScreen
HalLcdWriteString   SYMBOL "HalLcdWriteString"
`??HalLcdWriteString::?relay` SYMBOL "?relay", HalLcdWriteString
HalLcdWriteStringValue SYMBOL "HalLcdWriteStringValue"
`??HalLcdWriteStringValue::?relay` SYMBOL "?relay", HalLcdWriteStringValue
HalLcdWriteStringValueValue SYMBOL "HalLcdWriteStringValueValue"
`??HalLcdWriteStringValueValue::?relay` SYMBOL "?relay", HalLcdWriteStringValueValue
HalLcdWriteValue    SYMBOL "HalLcdWriteValue"
`??HalLcdWriteValue::?relay` SYMBOL "?relay", HalLcdWriteValue
InitDisplay         SYMBOL "InitDisplay"
`??InitDisplay::?relay` SYMBOL "?relay", InitDisplay
Print6              SYMBOL "Print6"
`??Print6::?relay`  SYMBOL "?relay", Print6
Print8              SYMBOL "Print8"
`??Print8::?relay`  SYMBOL "?relay", Print8
Print               SYMBOL "Print"
`??Print::?relay`   SYMBOL "?relay", Print
PrintCh8            SYMBOL "PrintCh8"
`??PrintCh8::?relay` SYMBOL "?relay", PrintCh8
PrintS16            SYMBOL "PrintS16"
`??PrintS16::?relay` SYMBOL "?relay", PrintS16
PrintS8             SYMBOL "PrintS8"
`??PrintS8::?relay` SYMBOL "?relay", PrintS8
Printn8             SYMBOL "Printn8"
`??Printn8::?relay` SYMBOL "?relay", Printn8
SetContrast         SYMBOL "SetContrast"
`??SetContrast::?relay` SYMBOL "?relay", SetContrast
SetRamAddr          SYMBOL "SetRamAddr"
`??SetRamAddr::?relay` SYMBOL "?relay", SetRamAddr
Write595            SYMBOL "Write595"
`??Write595::?relay` SYMBOL "?relay", Write595
WriteLCD            SYMBOL "WriteLCD"
`??WriteLCD::?relay` SYMBOL "?relay", WriteLCD
contrastctrl        SYMBOL "contrastctrl"
`??contrastctrl::?relay` SYMBOL "?relay", contrastctrl
delay1              SYMBOL "delay1"
`??delay1::?relay`  SYMBOL "?relay", delay1
delay_us            SYMBOL "delay_us"
`??delay_us::?relay` SYMBOL "?relay", delay_us
upLcd               SYMBOL "upLcd"
`??upLcd::?relay`   SYMBOL "?relay", upLcd

        EXTERN `??_ltoa::?relay`
        FUNCTION `??_ltoa::?relay`,00H
        EXTERN `??osal_memcpy::?relay`
        FUNCTION `??osal_memcpy::?relay`,00H
        EXTERN `??osal_strlen::?relay`
        FUNCTION `??osal_strlen::?relay`,00H
        EXTERN `??strlen::?relay`
        FUNCTION `??strlen::?relay`,00H
        EXTERN Font8X8
        EXTERN FontSystem6x8
        EXTERN _ltoa
        FUNCTION _ltoa,0202H
        ARGFRAME ISTACK, 0, STACK
        ARGFRAME PSTACK, 0, STACK
        ARGFRAME XSTACK, 37, STACK
        ARGFRAME IOVERLAY, 0, STATIC
        ARGFRAME DOVERLAY, 0, STATIC
        EXTERN osal_memcpy
        FUNCTION osal_memcpy,0202H
        ARGFRAME ISTACK, 0, STACK
        ARGFRAME PSTACK, 0, STACK
        ARGFRAME XSTACK, 38, STACK
        ARGFRAME IOVERLAY, 0, STATIC
        ARGFRAME DOVERLAY, 0, STATIC
        EXTERN osal_strlen
        FUNCTION osal_strlen,0202H
        ARGFRAME ISTACK, 0, STACK
        ARGFRAME PSTACK, 0, STACK
        ARGFRAME XSTACK, 35, STACK
        ARGFRAME IOVERLAY, 0, STATIC
        ARGFRAME DOVERLAY, 0, STATIC
        EXTERN strlen
        FUNCTION strlen,010202H
        ARGFRAME ISTACK, 0, STACK
        ARGFRAME PSTACK, 0, STACK
        ARGFRAME XSTACK, 32, STACK
        ARGFRAME IOVERLAY, 0, STATIC
        ARGFRAME DOVERLAY, 0, STATIC

// C:\Texas Instruments\Z-Stack Mesh 1.0.0_chaokw_20160317\Z-Stack Mesh 1.0.0_chaokw_20160316\Z-Stack Mesh 1.0.0_LCDOK\Z-Stack Mesh 1.0.0\Components\hal\target\CC2530EB\hal_lcd.c
//    1 #include "LCD128_64.h"

        ASEGN SFR_AN:DATA:NOROOT,080H
// union <unnamed> volatile __sfr _A_P0
_A_P0:
        DATA8
        DS 1

        ASEGN SFR_AN:DATA:NOROOT,090H
// union <unnamed> volatile __sfr _A_P1
_A_P1:
        DATA8
        DS 1

        ASEGN SFR_AN:DATA:NOROOT,0a0H
// union <unnamed> volatile __sfr _A_P2
_A_P2:
        DATA8
        DS 1

        ASEGN SFR_AN:DATA:NOROOT,0fdH
// unsigned char volatile __sfr P0DIR
P0DIR:
        DATA8
        DS 1

        ASEGN SFR_AN:DATA:NOROOT,0feH
// unsigned char volatile __sfr P1DIR
P1DIR:
        DATA8
        DS 1

        ASEGN SFR_AN:DATA:NOROOT,0ffH
// unsigned char volatile __sfr P2DIR
P2DIR:
        DATA8
        DS 1
//    2 #include "Font.h"
//    3 #include "hal_lcd.h"
//    4 #include "OSAL.h"
//    5 #include "string.h"
//    6 
//    7 /****************************************************
//    8 * B) Command Table per device *
//    9 ****************************************************/
//   10 #define 	DisplayOff 	0xAE
//   11 #define 	DisplayOn 	0xAF
//   12 #define 	DisplayStart 	0x40
//   13 #define 	PageAddr 	0xB0
//   14 #define 	ColAddrHi 	0x10
//   15 #define 	ColAddrLo 	0x00
//   16 #define 	SegRemapOff 	0xA0
//   17 #define 	SegRemapOn 	0xA1
//   18 #define 	NormalDisp 	0xA6
//   19 #define 	ReverseDisp 	0xA7
//   20 #define 	ExitEntireD 	0xA4
//   21 #define 	EntEntireD 	0xA5
//   22 #define 	EnterRMW 	0xE0
//   23 #define 	ExitRMW 	0xEE
//   24 #define 	SWRest 		0xE2
//   25 #define 	ComRemapOff 	0xC0
//   26 #define 	ComRemapOn 	0xC8
//   27 #define 	PwrCtrlReg 	0x28
//   28 #define 	OPampBuffer 	0x01
//   29 #define 	IntReg 		0x02
//   30 #define 	IntVolBstr 	0x04
//   31 #define 	IntRegRatio 	0x20
//   32 #define 	ContCtrlReg 	0x81
//   33 #define 	CmdMuxRatio 	0x48
//   34 #define 	CmdBiasRatio 	0x50
//   35 #define 	DispOffset 	0x44
//   36 #define 	IconModeOn 	0xA3
//   37 #define 	IconModeOff 	0xA2
//   38 #define 	NlineInver 	0x4C
//   39 #define 	DCDCconver 	0x64
//   40 #define 	PowersavStandby 0xA8
//   41 #define 	PowersavSleep 	0xA9
//   42 #define 	PowersavOff 	0xE1
//   43 #define 	InterOsc 	0xAB
//   44 #define 	Device SSD1821 			/* device under demo */
//   45 #define 	ColNo 		132 		/* number of Column/Seg on LCD glass*/
//   46 #define 	RowNo 		64		/* number of Row/Com/Mux */
//   47 #define 	PS 		1 		/* fixed to Parallel mode */
//   48 #define 	PageNo 		10 		/* Total no of RAM pages */
//   49 #define 	IconPage 	10 		/* Icon Page number */
//   50 #define 	All0 		6 		/* 3 for all 0, 4 for all 1 */
//   51 #define 	All1 		4
//   52 #define 	iIntRegValue 	1 		/*Internal Regulator Resistor Ratio Value */
//   53 #define 	iContCtrlRegValue 16 		/* Contrast Control Register Value */
//   54 #define 	iIntRegValuea 	20 		/*Internal Regulator Resistor Ratio Value */
//   55 #define 	iContCtrlRegValuea 16 		/* Contrast Control Register Value */
//   56 #define 	iIntRegValueb 	1 		/*Internal Regulator Resistor Ratio Value */
//   57 #define 	iContCtrlRegValueb 16 		/* Contrast Control Register Value */
//   58 #define 	MSGNo 		16
//   59 #define 	MSGLength 	22
//   60 #define 	SSLNameNo 	4
//   61 #define 	DevicePg 	0 		//RAM page for showing device name
//   62 #define 	FeaturePg 	1 		//RAM page for showing feature
//   63 #define 	GRAPHICNo 	13
//   64 #define 	xlogo 		38
//   65 #define 	ylogo 		5
//   66 #define 	xsolomon 	91
//   67 #define 	ysolomon 	2
//   68 #define 	xsystech 	81
//   69 #define 	ysystech 	2
//   70 #define 	xlimited 	70
//   71 #define 	ylimited 	2
//   72 #define 	xcc 		16
//   73 #define 	ycc 		2
//   74 #define 	xpageq 		128
//   75 #define 	ypageq 		4
//   76 #define 	horizonal 	0
//   77 #define 	d_time 		60
//   78 ////////////////////////////////////////////////////////////////////////////////////////////
//   79 
//   80 void Print8(uint16 y,uint16 x, uint8 ch[],uint16 yn);
//   81 void PrintS8(uint8 xx ,uint8 yy , uint32 no,uint8 yn,uint8 le);
//   82 
//   83 
//   84 

        RSEG XDATA_I:XDATA:NOROOT(0)
//   85 uint8 ContrastValue =90;
ContrastValue:
        DATA8
        DS 1
        REQUIRE `?<Initializer for ContrastValue>`
        REQUIRE __INIT_XDATA_I
//   86 void WriteLCD(uint8 fs, uint8 da);
//   87 void Write595(uint8 dat);
//   88 void delay_us(uint16 s);
//   89 void delay1(uint8 jj);
//   90 void contrastctrl(uint8 start, uint8 stop);
//   91 void HalLcdInit(void);
//   92 void PrintCh8(uint16 y,uint16 x, uint8 ch,uint16 yn);
//   93 void upLcd( char *ptr,uint8 op );
//   94 void HalLcdClearLine( uint8 line );
//   95 void HalLcdWriteLoc ( uint16 valueX, uint16 valueY, uint8 option);
//   96 void PrintS16(uint8 xx ,uint8 yy , uint32 no,uint8 yn,uint8 le, uint8 FloatPoint);
//   97 
//   98 
//   99 
//  100 
//  101 

        RSEG BANKED_CODE:CODE:NOROOT(0)
//  102 void delay1(uint8 jj)
delay1:
          CFI Block cfiBlock0 Using cfiCommon0
          CFI Function delay1
        CODE
//  103 {
        ; Saved register size: 0
        ; Auto size: 0
//  104 	uint8 i;
//  105 	for(i=0; i<jj; i++);
        MOV     R0,#0x0
        SJMP    ??delay1_0
??delay1_1:
        INC     R0
??delay1_0:
        MOV     A,R0
        CLR     C
        SUBB    A,R1
        JC      ??delay1_1
//  106 }
        LJMP    ?BRET
          CFI EndBlock cfiBlock0
//  107 
//  108 
//  109 
//  110 
//  111 

        RSEG BANKED_CODE:CODE:NOROOT(0)
//  112 void delay_us(uint16 s)
delay_us:
          CFI Block cfiBlock1 Using cfiCommon0
          CFI Function delay_us
        CODE
//  113 {
        ; Saved register size: 0
        ; Auto size: 0
//  114 	uint16 i;
//  115 	for(i=0; i<s; i++);
        MOV     R0,#0x0
        MOV     R1,#0x0
        SJMP    ??delay_us_0
??delay_us_1:
        INC     R0
        MOV     A,R0
        JNZ     ??delay_us_0
        INC     R1
??delay_us_0:
        CLR     C
        MOV     A,R0
        SUBB    A,R2
        MOV     A,R1
        SUBB    A,R3
        JC      ??delay_us_1
//  116 	for(i=0; i<s; i++);
        MOV     R0,#0x0
        MOV     R1,#0x0
        SJMP    ??delay_us_2
??delay_us_3:
        INC     R0
        MOV     A,R0
        JNZ     ??delay_us_2
        INC     R1
??delay_us_2:
        CLR     C
        MOV     A,R0
        SUBB    A,R2
        MOV     A,R1
        SUBB    A,R3
        JC      ??delay_us_3
//  117         for(i=0; i<s; i++);
        MOV     R0,#0x0
        MOV     R1,#0x0
        SJMP    ??delay_us_4
??delay_us_5:
        INC     R0
        MOV     A,R0
        JNZ     ??delay_us_4
        INC     R1
??delay_us_4:
        CLR     C
        MOV     A,R0
        SUBB    A,R2
        MOV     A,R1
        SUBB    A,R3
        JC      ??delay_us_5
//  118 	for(i=0; i<s; i++);
        MOV     R0,#0x0
        MOV     R1,#0x0
        SJMP    ??delay_us_6
??delay_us_7:
        INC     R0
        MOV     A,R0
        JNZ     ??delay_us_6
        INC     R1
??delay_us_6:
        CLR     C
        MOV     A,R0
        SUBB    A,R2
        MOV     A,R1
        SUBB    A,R3
        JC      ??delay_us_7
//  119 }
        LJMP    ?BRET
          CFI EndBlock cfiBlock1
//  120 
//  121 
//  122 //******************************************************************************
//  123 //???:void Write595(uint8 dat)
//  124 //??:??
//  125 //??:?
//  126 //????:595???,????8?
//  127 //******************************************************************************

        RSEG BANKED_CODE:CODE:NOROOT(0)
//  128 void Write595(uint8 dat)
Write595:
          CFI Block cfiBlock2 Using cfiCommon0
          CFI Function Write595
        CODE
//  129 {
        ; Saved register size: 0
        ; Auto size: 0
//  130 	
//  131 	uint8 ii;		
//  132 			
//  133 	for(ii = 0 ; ii < 8; ii++)
        MOV     R0,#0x8
//  134 	{
//  135 		if(dat & 0x80) 	LCD_595_DAT = 1;
??Write595_0:
        MOV     A,R1
        MOV     C,0xE0 /* A   */.7
        JNC     ??Write595_1
        SETB    0xa0.0
        SJMP    ??Write595_2
//  136 		else		LCD_595_DAT = 0;
??Write595_1:
        CLR     0xa0.0
//  137 		
//  138 		dat <<= 1;
??Write595_2:
        CLR     C
        RLC     A
        MOV     R1,A
//  139 		LCD_595_CK = 1;	
        SETB    0x90.5
//  140 		LCD_595_CK = 0;
        CLR     0x90.5
//  141 	}
        DEC     R0
        MOV     A,R0
        JNZ     ??Write595_0
//  142 
//  143 #ifndef PLUG_P1_3 	
//  144 		LCD_595_LD = 1; 
        SETB    0x90.3
//  145 		LCD_595_LD = 0; 
        CLR     0x90.3
//  146 #endif
//  147 
//  148 }
        LJMP    ?BRET
          CFI EndBlock cfiBlock2
        REQUIRE _A_P2
        REQUIRE _A_P1
//  149 
//  150 
//  151 
//  152 
//  153 //*****************************************************************************
//  154 //*****************************************************************************
//  155 //???:void delay(unsigned int n)
//  156 //????:??????
//  157 //*****************************************************************************

        RSEG BANKED_CODE:CODE:NOROOT(0)
//  158 void WriteLCD(uint8 fs, uint8 da)
WriteLCD:
          CFI Block cfiBlock3 Using cfiCommon0
          CFI Function WriteLCD
        CODE
//  159 {
        FUNCALL WriteLCD, delay1
        LOCFRAME ISTACK, 0, STACK
        LOCFRAME PSTACK, 0, STACK
        LOCFRAME XSTACK, 9, STACK
        LOCFRAME IOVERLAY, 0, STATIC
        LOCFRAME DOVERLAY, 0, STATIC
        ARGFRAME ISTACK, 0, STACK
        ARGFRAME PSTACK, 0, STACK
        ARGFRAME XSTACK, 9, STACK
        ARGFRAME IOVERLAY, 0, STATIC
        ARGFRAME DOVERLAY, 0, STATIC
        FUNCALL WriteLCD, Write595
        LOCFRAME ISTACK, 0, STACK
        LOCFRAME PSTACK, 0, STACK
        LOCFRAME XSTACK, 9, STACK
        LOCFRAME IOVERLAY, 0, STATIC
        LOCFRAME DOVERLAY, 0, STATIC
        ARGFRAME ISTACK, 0, STACK
        ARGFRAME PSTACK, 0, STACK
        ARGFRAME XSTACK, 9, STACK
        ARGFRAME IOVERLAY, 0, STATIC
        ARGFRAME DOVERLAY, 0, STATIC
        FUNCALL WriteLCD, delay1
        LOCFRAME ISTACK, 0, STACK
        LOCFRAME PSTACK, 0, STACK
        LOCFRAME XSTACK, 9, STACK
        LOCFRAME IOVERLAY, 0, STATIC
        LOCFRAME DOVERLAY, 0, STATIC
        ARGFRAME ISTACK, 0, STACK
        ARGFRAME PSTACK, 0, STACK
        ARGFRAME XSTACK, 9, STACK
        ARGFRAME IOVERLAY, 0, STATIC
        ARGFRAME DOVERLAY, 0, STATIC
        MOV     A,#-0x9
        LCALL   ?BANKED_ENTER_XDATA
          CFI DPH0 load(1, XDATA, add(CFA_XSP16, literal(-1)))
          CFI DPL0 load(1, XDATA, add(CFA_XSP16, literal(-2)))
          CFI ?BRET_EXT load(1, XDATA, add(CFA_XSP16, literal(-3)))
          CFI ?RET_HIGH load(1, XDATA, add(CFA_XSP16, literal(-4)))
          CFI ?RET_LOW load(1, XDATA, add(CFA_XSP16, literal(-5)))
          CFI R7 load(1, XDATA, add(CFA_XSP16, literal(-6)))
          CFI V0 load(1, XDATA, add(CFA_XSP16, literal(-7)))
          CFI VB load(1, XDATA, add(CFA_XSP16, literal(-8)))
          CFI R6 load(1, XDATA, add(CFA_XSP16, literal(-9)))
          CFI CFA_SP SP+0
          CFI CFA_XSP16 add(XSP16, 9)
        ; Saved register size: 9
        ; Auto size: 0
        MOV     A,R1
        MOV     R7,A
        MOV     A,R2
        MOV     R6,A
//  160 	delay1(2);
        ; Setup parameters for call to function delay1
        MOV     R1,#0x2
        LCALL   `??delay1::?relay`   ; Banked call to: delay1
//  161 	LCD_CS1 = 0;
        CLR     0x90.4
//  162 	LCD_RW = 0;			//???
        CLR     0x80.1
//  163 	//delay1(0);	
//  164 
//  165 	if(fs){
        MOV     A,R7
        JZ      ??WriteLCD_0
//  166 		LCD_RS = 1;	
        SETB    0x90.7
        SJMP    ??WriteLCD_1
//  167 	}
//  168 	else{
//  169 		LCD_RS = 0;
??WriteLCD_0:
        CLR     0x90.7
//  170 	}
//  171        // delay1(0);
//  172 
//  173         Write595(da);
??WriteLCD_1:
        ; Setup parameters for call to function Write595
        MOV     A,R6
        MOV     R1,A
        LCALL   `??Write595::?relay` ; Banked call to: Write595
//  174 	LCD_E = 1;// = 1;
        SETB    0x90.6
//  175         delay1(2);
        ; Setup parameters for call to function delay1
        MOV     R1,#0x2
        LCALL   `??delay1::?relay`   ; Banked call to: delay1
//  176 	LCD_E = 0;// = 0;					
        CLR     0x90.6
//  177 	//delay1(0);
//  178 	LCD_CS1 = 1;
        SETB    0x90.4
//  179 }
        LJMP    ??Subroutine21_0 & 0xFFFF
          CFI EndBlock cfiBlock3
        REQUIRE _A_P1
        REQUIRE _A_P0
//  180 /*
//  181 
//  182 uint8 ReadLCD(uint8 fs)
//  183 {
//  184 	uint8 temp = 0;
//  185 	LCD_CS1 = 0;
//  186 	NOP;
//  187 	NOP;
//  188 	NOP;
//  189 	NOP;
//  190 	do{						
//  191 		LCD_RW = 1;
//  192 		LCD_RS = 0;
//  193 		LCD_E = 1;
//  194 		NOP;
//  195 		NOP;							
//  196 		temp = P1 & 0x80;			
//  197 		LCD_E = 0;			
//  198 
//  199 	}while(temp != 0);	
//  200 
//  201 	if(fs){
//  202 		LCD_RS = 1;	
//  203 	}
//  204 	else{
//  205 		LCD_RS = 0;
//  206 	}
//  207 	
//  208 	LCD_E = 1;
//  209 	NOP;	
//  210 	NOP;
//  211 	NOP;
//  212 	NOP;	
//  213 	temp = P1;	
//  214 	LCD_E = 0;	
//  215 	LCD_CS1 = 1;
//  216 	return(temp);
//  217 }
//  218 
//  219 
//  220 */

        RSEG BANKED_CODE:CODE:NOROOT(0)
//  221 void SetRamAddr(uint8 x ,uint8 y)
SetRamAddr:
          CFI Block cfiBlock4 Using cfiCommon0
          CFI Function SetRamAddr
        CODE
//  222 {
        FUNCALL SetRamAddr, WriteLCD
        LOCFRAME ISTACK, 0, STACK
        LOCFRAME PSTACK, 0, STACK
        LOCFRAME XSTACK, 9, STACK
        LOCFRAME IOVERLAY, 0, STATIC
        LOCFRAME DOVERLAY, 0, STATIC
        ARGFRAME ISTACK, 0, STACK
        ARGFRAME PSTACK, 0, STACK
        ARGFRAME XSTACK, 9, STACK
        ARGFRAME IOVERLAY, 0, STATIC
        ARGFRAME DOVERLAY, 0, STATIC
        FUNCALL SetRamAddr, WriteLCD
        LOCFRAME ISTACK, 0, STACK
        LOCFRAME PSTACK, 0, STACK
        LOCFRAME XSTACK, 9, STACK
        LOCFRAME IOVERLAY, 0, STATIC
        LOCFRAME DOVERLAY, 0, STATIC
        ARGFRAME ISTACK, 0, STACK
        ARGFRAME PSTACK, 0, STACK
        ARGFRAME XSTACK, 9, STACK
        ARGFRAME IOVERLAY, 0, STATIC
        ARGFRAME DOVERLAY, 0, STATIC
        FUNCALL SetRamAddr, WriteLCD
        LOCFRAME ISTACK, 0, STACK
        LOCFRAME PSTACK, 0, STACK
        LOCFRAME XSTACK, 9, STACK
        LOCFRAME IOVERLAY, 0, STATIC
        LOCFRAME DOVERLAY, 0, STATIC
        ARGFRAME ISTACK, 0, STACK
        ARGFRAME PSTACK, 0, STACK
        ARGFRAME XSTACK, 9, STACK
        ARGFRAME IOVERLAY, 0, STATIC
        ARGFRAME DOVERLAY, 0, STATIC
        MOV     A,#-0x9
        LCALL   ?BANKED_ENTER_XDATA
          CFI DPH0 load(1, XDATA, add(CFA_XSP16, literal(-1)))
          CFI DPL0 load(1, XDATA, add(CFA_XSP16, literal(-2)))
          CFI ?BRET_EXT load(1, XDATA, add(CFA_XSP16, literal(-3)))
          CFI ?RET_HIGH load(1, XDATA, add(CFA_XSP16, literal(-4)))
          CFI ?RET_LOW load(1, XDATA, add(CFA_XSP16, literal(-5)))
          CFI R7 load(1, XDATA, add(CFA_XSP16, literal(-6)))
          CFI V0 load(1, XDATA, add(CFA_XSP16, literal(-7)))
          CFI VB load(1, XDATA, add(CFA_XSP16, literal(-8)))
          CFI R6 load(1, XDATA, add(CFA_XSP16, literal(-9)))
          CFI CFA_SP SP+0
          CFI CFA_XSP16 add(XSP16, 9)
        ; Saved register size: 9
        ; Auto size: 0
        MOV     A,R1
        MOV     R6,A
        MOV     A,R2
        MOV     R7,A
//  223 	uint8 temp;
//  224 	
//  225 	temp = 0x0f & x;
//  226 	WriteLCD(COMMAND , PageAddr|temp);
        ; Setup parameters for call to function WriteLCD
        MOV     A,#0xf
        ANL     A,R6
        ORL     A,#0xb0
        MOV     R2,A
        MOV     R1,#0x0
        LCALL   `??WriteLCD::?relay` ; Banked call to: WriteLCD
//  227 
//  228 	temp = 0x0f & (y >> 4);
//  229 	WriteLCD(COMMAND , ColAddrHi|temp);
        ; Setup parameters for call to function WriteLCD
        MOV     A,R7
        SWAP    A
        ANL     A,#0xf
        ORL     A,#0x10
        MOV     R2,A
        MOV     R1,#0x0
        LCALL   `??WriteLCD::?relay` ; Banked call to: WriteLCD
//  230 	temp = 0x0f & y;
//  231 	WriteLCD(COMMAND , ColAddrLo|temp);
        ; Setup parameters for call to function WriteLCD
        MOV     A,#0xf
        LJMP    ?Subroutine1 & 0xFFFF
//  232 }
          CFI EndBlock cfiBlock4
//  233 
//  234 
//  235 /*******************************************************************************
//  236 //???:void SetContrast(uint8 Gain, uint8 Step)
//  237 //??:lcd?????
//  238 //??:Page-?,Col-?
//  239 //??:?
//  240 ********************************************************************************/

        RSEG BANKED_CODE:CODE:NOROOT(0)
//  241 void SetContrast(uint8 Gain, uint8 Step)
SetContrast:
          CFI Block cfiBlock5 Using cfiCommon0
          CFI Function SetContrast
        CODE
//  242 {
        FUNCALL SetContrast, WriteLCD
        LOCFRAME ISTACK, 0, STACK
        LOCFRAME PSTACK, 0, STACK
        LOCFRAME XSTACK, 9, STACK
        LOCFRAME IOVERLAY, 0, STATIC
        LOCFRAME DOVERLAY, 0, STATIC
        ARGFRAME ISTACK, 0, STACK
        ARGFRAME PSTACK, 0, STACK
        ARGFRAME XSTACK, 9, STACK
        ARGFRAME IOVERLAY, 0, STATIC
        ARGFRAME DOVERLAY, 0, STATIC
        FUNCALL SetContrast, WriteLCD
        LOCFRAME ISTACK, 0, STACK
        LOCFRAME PSTACK, 0, STACK
        LOCFRAME XSTACK, 9, STACK
        LOCFRAME IOVERLAY, 0, STATIC
        LOCFRAME DOVERLAY, 0, STATIC
        ARGFRAME ISTACK, 0, STACK
        ARGFRAME PSTACK, 0, STACK
        ARGFRAME XSTACK, 9, STACK
        ARGFRAME IOVERLAY, 0, STATIC
        ARGFRAME DOVERLAY, 0, STATIC
        FUNCALL SetContrast, WriteLCD
        LOCFRAME ISTACK, 0, STACK
        LOCFRAME PSTACK, 0, STACK
        LOCFRAME XSTACK, 9, STACK
        LOCFRAME IOVERLAY, 0, STATIC
        LOCFRAME DOVERLAY, 0, STATIC
        ARGFRAME ISTACK, 0, STACK
        ARGFRAME PSTACK, 0, STACK
        ARGFRAME XSTACK, 9, STACK
        ARGFRAME IOVERLAY, 0, STATIC
        ARGFRAME DOVERLAY, 0, STATIC
        MOV     A,#-0x9
        LCALL   ?BANKED_ENTER_XDATA
          CFI DPH0 load(1, XDATA, add(CFA_XSP16, literal(-1)))
          CFI DPL0 load(1, XDATA, add(CFA_XSP16, literal(-2)))
          CFI ?BRET_EXT load(1, XDATA, add(CFA_XSP16, literal(-3)))
          CFI ?RET_HIGH load(1, XDATA, add(CFA_XSP16, literal(-4)))
          CFI ?RET_LOW load(1, XDATA, add(CFA_XSP16, literal(-5)))
          CFI R7 load(1, XDATA, add(CFA_XSP16, literal(-6)))
          CFI V0 load(1, XDATA, add(CFA_XSP16, literal(-7)))
          CFI VB load(1, XDATA, add(CFA_XSP16, literal(-8)))
          CFI R6 load(1, XDATA, add(CFA_XSP16, literal(-9)))
          CFI CFA_SP SP+0
          CFI CFA_XSP16 add(XSP16, 9)
        ; Saved register size: 9
        ; Auto size: 0
        MOV     A,R1
        MOV     R6,A
        MOV     A,R2
        MOV     R7,A
//  243 	WriteLCD(COMMAND , IntRegRatio | (0x0f & Gain)); 	//??????
        ; Setup parameters for call to function WriteLCD
        MOV     A,#0xf
        ANL     A,R6
        ORL     A,#0x20
        MOV     R2,A
        MOV     R1,#0x0
        LCALL   `??WriteLCD::?relay` ; Banked call to: WriteLCD
//  244 	WriteLCD(COMMAND , ContCtrlReg); 			//?????????
        ; Setup parameters for call to function WriteLCD
        MOV     R2,#-0x7f
        MOV     R1,#0x0
        LCALL   `??WriteLCD::?relay` ; Banked call to: WriteLCD
//  245 	WriteLCD(COMMAND , 0x3f & Step);
        ; Setup parameters for call to function WriteLCD
        MOV     A,#0x3f
        SJMP    ?Subroutine1
//  246 }
          CFI EndBlock cfiBlock5
//  247 
//  248 
//  249 
//  250 /*******************************************************************************
//  251 //???:void InitDisplay(void)
//  252 //??:lcd?????????
//  253 //??:?
//  254 //??:?
//  255 ********************************************************************************/

        RSEG BANKED_CODE:CODE:NOROOT(0)
//  256 void InitDisplay(void)
InitDisplay:
          CFI Block cfiBlock6 Using cfiCommon0
          CFI Function InitDisplay
        CODE
//  257 {
        FUNCALL InitDisplay, WriteLCD
        LOCFRAME ISTACK, 2, STACK
        LOCFRAME PSTACK, 0, STACK
        LOCFRAME XSTACK, 0, STACK
        LOCFRAME IOVERLAY, 0, STATIC
        LOCFRAME DOVERLAY, 0, STATIC
        ARGFRAME ISTACK, 2, STACK
        ARGFRAME PSTACK, 0, STACK
        ARGFRAME XSTACK, 0, STACK
        ARGFRAME IOVERLAY, 0, STATIC
        ARGFRAME DOVERLAY, 0, STATIC
        FUNCALL InitDisplay, WriteLCD
        LOCFRAME ISTACK, 2, STACK
        LOCFRAME PSTACK, 0, STACK
        LOCFRAME XSTACK, 0, STACK
        LOCFRAME IOVERLAY, 0, STATIC
        LOCFRAME DOVERLAY, 0, STATIC
        ARGFRAME ISTACK, 2, STACK
        ARGFRAME PSTACK, 0, STACK
        ARGFRAME XSTACK, 0, STACK
        ARGFRAME IOVERLAY, 0, STATIC
        ARGFRAME DOVERLAY, 0, STATIC
        FUNCALL InitDisplay, WriteLCD
        LOCFRAME ISTACK, 2, STACK
        LOCFRAME PSTACK, 0, STACK
        LOCFRAME XSTACK, 0, STACK
        LOCFRAME IOVERLAY, 0, STATIC
        LOCFRAME DOVERLAY, 0, STATIC
        ARGFRAME ISTACK, 2, STACK
        ARGFRAME PSTACK, 0, STACK
        ARGFRAME XSTACK, 0, STACK
        ARGFRAME IOVERLAY, 0, STATIC
        ARGFRAME DOVERLAY, 0, STATIC
        FUNCALL InitDisplay, SetContrast
        LOCFRAME ISTACK, 2, STACK
        LOCFRAME PSTACK, 0, STACK
        LOCFRAME XSTACK, 0, STACK
        LOCFRAME IOVERLAY, 0, STATIC
        LOCFRAME DOVERLAY, 0, STATIC
        ARGFRAME ISTACK, 2, STACK
        ARGFRAME PSTACK, 0, STACK
        ARGFRAME XSTACK, 0, STACK
        ARGFRAME IOVERLAY, 0, STATIC
        ARGFRAME DOVERLAY, 0, STATIC
        FUNCALL InitDisplay, WriteLCD
        LOCFRAME ISTACK, 2, STACK
        LOCFRAME PSTACK, 0, STACK
        LOCFRAME XSTACK, 0, STACK
        LOCFRAME IOVERLAY, 0, STATIC
        LOCFRAME DOVERLAY, 0, STATIC
        ARGFRAME ISTACK, 2, STACK
        ARGFRAME PSTACK, 0, STACK
        ARGFRAME XSTACK, 0, STACK
        ARGFRAME IOVERLAY, 0, STATIC
        ARGFRAME DOVERLAY, 0, STATIC
        FUNCALL InitDisplay, WriteLCD
        LOCFRAME ISTACK, 2, STACK
        LOCFRAME PSTACK, 0, STACK
        LOCFRAME XSTACK, 0, STACK
        LOCFRAME IOVERLAY, 0, STATIC
        LOCFRAME DOVERLAY, 0, STATIC
        ARGFRAME ISTACK, 2, STACK
        ARGFRAME PSTACK, 0, STACK
        ARGFRAME XSTACK, 0, STACK
        ARGFRAME IOVERLAY, 0, STATIC
        ARGFRAME DOVERLAY, 0, STATIC
        PUSH    DPL
          CFI DPL0 Frame(CFA_SP, 4)
          CFI CFA_SP SP+-4
        PUSH    DPH
          CFI DPH0 Frame(CFA_SP, 5)
          CFI CFA_SP SP+-5
        ; Saved register size: 2
        ; Auto size: 0
//  258 	WriteLCD(COMMAND , DisplayOff);			//???
        ; Setup parameters for call to function WriteLCD
        MOV     R2,#-0x52
        MOV     R1,#0x0
        LCALL   `??WriteLCD::?relay` ; Banked call to: WriteLCD
//  259 	WriteLCD(COMMAND , SegRemapOn);    			//ks0713/ssd1815
        ; Setup parameters for call to function WriteLCD
        MOV     R2,#-0x5f
        MOV     R1,#0x0
        LCALL   `??WriteLCD::?relay` ; Banked call to: WriteLCD
//  260 	WriteLCD(COMMAND , ComRemapOn);    			//ssd1815
        ; Setup parameters for call to function WriteLCD
        MOV     R2,#-0x38
        MOV     R1,#0x0
        LCALL   `??WriteLCD::?relay` ; Banked call to: WriteLCD
//  261 	SetContrast(iIntRegValue, iContCtrlRegValue); 	//???????
        ; Setup parameters for call to function SetContrast
        MOV     R2,#0x10
        MOV     R1,#0x1
        LCALL   `??SetContrast::?relay`; Banked call to: SetContrast
//  262 	WriteLCD(COMMAND , PwrCtrlReg | IntVolBstr | IntReg | OPampBuffer); //turn on booster, regulator & divider
        ; Setup parameters for call to function WriteLCD
        MOV     R2,#0x2f
        MOV     R1,#0x0
        LCALL   `??WriteLCD::?relay` ; Banked call to: WriteLCD
//  263 	WriteLCD(COMMAND , DisplayOn);				//???
        ; Setup parameters for call to function WriteLCD
        MOV     R2,#-0x51
        MOV     R1,#0x0
        LCALL   `??WriteLCD::?relay` ; Banked call to: WriteLCD
//  264 }
          CFI EndBlock cfiBlock6
        REQUIRE ?Subroutine0
        ; // Fall through to label ?Subroutine0

        RSEG BANKED_CODE:CODE:NOROOT(0)
?Subroutine0:
          CFI Block cfiBlock7 Using cfiCommon0
          CFI NoFunction
          CFI CFA_SP SP+-5
          CFI DPL0 Frame(CFA_SP, 4)
          CFI DPH0 Frame(CFA_SP, 5)
        POP     DPH
          CFI CFA_SP SP+-4
          CFI DPH0 SameValue
        POP     DPL
          CFI CFA_SP SP+-3
          CFI DPL0 SameValue
        LJMP    ?BRET
          CFI EndBlock cfiBlock7
//  265 
//  266 
//  267 /*******************************************************************************
//  268 //???:void contrastctrl(uint8 start,stop)
//  269 //??:lcd?????
//  270 //??:?
//  271 //??:?
//  272 ********************************************************************************/
//  273 

        RSEG BANKED_CODE:CODE:NOROOT(0)
//  274 void contrastctrl(uint8 start, uint8 stop)
contrastctrl:
          CFI Block cfiBlock8 Using cfiCommon0
          CFI Function contrastctrl
        CODE
//  275 {
        FUNCALL contrastctrl, SetContrast
        LOCFRAME ISTACK, 0, STACK
        LOCFRAME PSTACK, 0, STACK
        LOCFRAME XSTACK, 9, STACK
        LOCFRAME IOVERLAY, 0, STATIC
        LOCFRAME DOVERLAY, 0, STATIC
        ARGFRAME ISTACK, 0, STACK
        ARGFRAME PSTACK, 0, STACK
        ARGFRAME XSTACK, 9, STACK
        ARGFRAME IOVERLAY, 0, STATIC
        ARGFRAME DOVERLAY, 0, STATIC
        FUNCALL contrastctrl, delay_us
        LOCFRAME ISTACK, 0, STACK
        LOCFRAME PSTACK, 0, STACK
        LOCFRAME XSTACK, 9, STACK
        LOCFRAME IOVERLAY, 0, STATIC
        LOCFRAME DOVERLAY, 0, STATIC
        ARGFRAME ISTACK, 0, STACK
        ARGFRAME PSTACK, 0, STACK
        ARGFRAME XSTACK, 9, STACK
        ARGFRAME IOVERLAY, 0, STATIC
        ARGFRAME DOVERLAY, 0, STATIC
        FUNCALL contrastctrl, SetContrast
        LOCFRAME ISTACK, 0, STACK
        LOCFRAME PSTACK, 0, STACK
        LOCFRAME XSTACK, 9, STACK
        LOCFRAME IOVERLAY, 0, STATIC
        LOCFRAME DOVERLAY, 0, STATIC
        ARGFRAME ISTACK, 0, STACK
        ARGFRAME PSTACK, 0, STACK
        ARGFRAME XSTACK, 9, STACK
        ARGFRAME IOVERLAY, 0, STATIC
        ARGFRAME DOVERLAY, 0, STATIC
        FUNCALL contrastctrl, delay_us
        LOCFRAME ISTACK, 0, STACK
        LOCFRAME PSTACK, 0, STACK
        LOCFRAME XSTACK, 9, STACK
        LOCFRAME IOVERLAY, 0, STATIC
        LOCFRAME DOVERLAY, 0, STATIC
        ARGFRAME ISTACK, 0, STACK
        ARGFRAME PSTACK, 0, STACK
        ARGFRAME XSTACK, 9, STACK
        ARGFRAME IOVERLAY, 0, STATIC
        ARGFRAME DOVERLAY, 0, STATIC
        REQUIRE ?V0
        MOV     A,#-0x9
        LCALL   ?BANKED_ENTER_XDATA
          CFI DPH0 load(1, XDATA, add(CFA_XSP16, literal(-1)))
          CFI DPL0 load(1, XDATA, add(CFA_XSP16, literal(-2)))
          CFI ?BRET_EXT load(1, XDATA, add(CFA_XSP16, literal(-3)))
          CFI ?RET_HIGH load(1, XDATA, add(CFA_XSP16, literal(-4)))
          CFI ?RET_LOW load(1, XDATA, add(CFA_XSP16, literal(-5)))
          CFI R7 load(1, XDATA, add(CFA_XSP16, literal(-6)))
          CFI V0 load(1, XDATA, add(CFA_XSP16, literal(-7)))
          CFI VB load(1, XDATA, add(CFA_XSP16, literal(-8)))
          CFI R6 load(1, XDATA, add(CFA_XSP16, literal(-9)))
          CFI CFA_SP SP+0
          CFI CFA_XSP16 add(XSP16, 9)
        ; Saved register size: 9
        ; Auto size: 0
        MOV     A,R1
        MOV     R7,A
        MOV     ?V0,R2
//  276 	uint8 i;
//  277 	if (start < stop)
        CLR     C
        SUBB    A,?V0
        MOV     A,R7
        MOV     R6,A
        JNC     ??contrastctrl_0
//  278 	{
//  279 		for (i=start; i<stop; i+=1)
//  280 		{
//  281 			SetContrast(iIntRegValue, i); //slowly turn on display
??contrastctrl_1:
        ; Setup parameters for call to function SetContrast
        MOV     A,R6
        MOV     R2,A
        MOV     R1,#0x1
        LCALL   `??SetContrast::?relay`; Banked call to: SetContrast
//  282 			delay_us(80);
        ; Setup parameters for call to function delay_us
        MOV     R2,#0x50
        MOV     R3,#0x0
        LCALL   `??delay_us::?relay` ; Banked call to: delay_us
//  283 		}
        INC     R6
        MOV     A,R6
        CLR     C
        SUBB    A,?V0
        JNC     ??contrastctrl_2
        SJMP    ??contrastctrl_1
//  284 	}
//  285 	else
//  286 	{
//  287 		for (i=start; i>stop; i-=1)
//  288 		{
//  289 			SetContrast(iIntRegValue, i); //slowly turn off display
??contrastctrl_3:
        ; Setup parameters for call to function SetContrast
        MOV     A,R6
        MOV     R2,A
        MOV     R1,#0x1
        LCALL   `??SetContrast::?relay`; Banked call to: SetContrast
//  290 			delay_us(120);
        ; Setup parameters for call to function delay_us
        MOV     R2,#0x78
        MOV     R3,#0x0
        LCALL   `??delay_us::?relay` ; Banked call to: delay_us
//  291 		}
        DEC     R6
??contrastctrl_0:
        MOV     A,?V0
        CLR     C
        SUBB    A,R6
        JC      ??contrastctrl_3
//  292 	}
//  293 }
??contrastctrl_2:
        SJMP    ??Subroutine21_0
          CFI EndBlock cfiBlock8

        RSEG BANKED_CODE:CODE:NOROOT(0)
?Subroutine1:
          CFI Block cfiBlock9 Using cfiCommon0
          CFI NoFunction
          CFI CFA_SP SP+0
          CFI CFA_XSP16 add(XSP16, 9)
          CFI VB load(1, XDATA, add(CFA_XSP16, literal(-8)))
          CFI DPL0 load(1, XDATA, add(CFA_XSP16, literal(-2)))
          CFI DPH0 load(1, XDATA, add(CFA_XSP16, literal(-1)))
          CFI R6 load(1, XDATA, add(CFA_XSP16, literal(-9)))
          CFI R7 load(1, XDATA, add(CFA_XSP16, literal(-6)))
          CFI V0 load(1, XDATA, add(CFA_XSP16, literal(-7)))
          CFI ?BRET_EXT load(1, XDATA, add(CFA_XSP16, literal(-3)))
          CFI ?RET_HIGH load(1, XDATA, add(CFA_XSP16, literal(-4)))
          CFI ?RET_LOW load(1, XDATA, add(CFA_XSP16, literal(-5)))
        ANL     A,R7
        MOV     R2,A
        MOV     R1,#0x0
        LCALL   `??WriteLCD::?relay` ; Banked call to: WriteLCD
          CFI EndBlock cfiBlock9
        REQUIRE ??Subroutine21_0
        ; // Fall through to label ??Subroutine21_0

        RSEG BANKED_CODE:CODE:NOROOT(0)
??Subroutine21_0:
          CFI Block cfiBlock10 Using cfiCommon0
          CFI NoFunction
          CFI CFA_SP SP+0
          CFI CFA_XSP16 add(XSP16, 9)
          CFI VB load(1, XDATA, add(CFA_XSP16, literal(-8)))
          CFI DPL0 load(1, XDATA, add(CFA_XSP16, literal(-2)))
          CFI DPH0 load(1, XDATA, add(CFA_XSP16, literal(-1)))
          CFI R6 load(1, XDATA, add(CFA_XSP16, literal(-9)))
          CFI R7 load(1, XDATA, add(CFA_XSP16, literal(-6)))
          CFI V0 load(1, XDATA, add(CFA_XSP16, literal(-7)))
          CFI ?BRET_EXT load(1, XDATA, add(CFA_XSP16, literal(-3)))
          CFI ?RET_HIGH load(1, XDATA, add(CFA_XSP16, literal(-4)))
          CFI ?RET_LOW load(1, XDATA, add(CFA_XSP16, literal(-5)))
        MOV     R7,#0x1
        LJMP    ?BANKED_LEAVE_XDATA
          CFI EndBlock cfiBlock10
//  294 
//  295 
//  296 
//  297 

        RSEG BANKED_CODE:CODE:NOROOT(0)
//  298 void ClearScreen(void)
ClearScreen:
          CFI Block cfiBlock11 Using cfiCommon0
          CFI Function ClearScreen
        CODE
//  299 {
        FUNCALL ClearScreen, SetRamAddr
        LOCFRAME ISTACK, 0, STACK
        LOCFRAME PSTACK, 0, STACK
        LOCFRAME XSTACK, 9, STACK
        LOCFRAME IOVERLAY, 0, STATIC
        LOCFRAME DOVERLAY, 0, STATIC
        ARGFRAME ISTACK, 0, STACK
        ARGFRAME PSTACK, 0, STACK
        ARGFRAME XSTACK, 9, STACK
        ARGFRAME IOVERLAY, 0, STATIC
        ARGFRAME DOVERLAY, 0, STATIC
        FUNCALL ClearScreen, WriteLCD
        LOCFRAME ISTACK, 0, STACK
        LOCFRAME PSTACK, 0, STACK
        LOCFRAME XSTACK, 9, STACK
        LOCFRAME IOVERLAY, 0, STATIC
        LOCFRAME DOVERLAY, 0, STATIC
        ARGFRAME ISTACK, 0, STACK
        ARGFRAME PSTACK, 0, STACK
        ARGFRAME XSTACK, 9, STACK
        ARGFRAME IOVERLAY, 0, STATIC
        ARGFRAME DOVERLAY, 0, STATIC
        MOV     A,#-0x9
        LCALL   ?BANKED_ENTER_XDATA
          CFI DPH0 load(1, XDATA, add(CFA_XSP16, literal(-1)))
          CFI DPL0 load(1, XDATA, add(CFA_XSP16, literal(-2)))
          CFI ?BRET_EXT load(1, XDATA, add(CFA_XSP16, literal(-3)))
          CFI ?RET_HIGH load(1, XDATA, add(CFA_XSP16, literal(-4)))
          CFI ?RET_LOW load(1, XDATA, add(CFA_XSP16, literal(-5)))
          CFI R7 load(1, XDATA, add(CFA_XSP16, literal(-6)))
          CFI V0 load(1, XDATA, add(CFA_XSP16, literal(-7)))
          CFI VB load(1, XDATA, add(CFA_XSP16, literal(-8)))
          CFI R6 load(1, XDATA, add(CFA_XSP16, literal(-9)))
          CFI CFA_SP SP+0
          CFI CFA_XSP16 add(XSP16, 9)
        ; Saved register size: 9
        ; Auto size: 0
//  300  	uint8 x,y;
//  301 	for(x = 0;x < 8 ;x++){
        MOV     R6,#0x0
//  302           SetRamAddr(x , 0);
??ClearScreen_0:
        ; Setup parameters for call to function SetRamAddr
        MOV     R2,#0x0
        MOV     A,R6
        MOV     R1,A
        LCALL   `??SetRamAddr::?relay`; Banked call to: SetRamAddr
//  303 	  	for(y = 0 ; y < 128 ; y++){	  		
        MOV     R7,#-0x80
//  304 	  					
//  305 			WriteLCD(DATA , 0x00);
??ClearScreen_1:
        ; Setup parameters for call to function WriteLCD
        MOV     R2,#0x0
        MOV     R1,#0x1
        LCALL   `??WriteLCD::?relay` ; Banked call to: WriteLCD
//  306 		}		
        DJNZ    R7,??ClearScreen_1
//  307 	}
        INC     R6
        MOV     A,R6
        CLR     C
        SUBB    A,#0x8
        JC      ??ClearScreen_0
//  308 }
        SJMP    ??Subroutine21_0
          CFI EndBlock cfiBlock11
//  309 
//  310 
//  311 
//  312 

        RSEG BANKED_CODE:CODE:NOROOT(0)
//  313 void HalLcdInit(void)
HalLcdInit:
          CFI Block cfiBlock12 Using cfiCommon0
          CFI Function HalLcdInit
        CODE
//  314 {	
        FUNCALL HalLcdInit, delay_us
        LOCFRAME ISTACK, 2, STACK
        LOCFRAME PSTACK, 0, STACK
        LOCFRAME XSTACK, 0, STACK
        LOCFRAME IOVERLAY, 0, STATIC
        LOCFRAME DOVERLAY, 0, STATIC
        ARGFRAME ISTACK, 2, STACK
        ARGFRAME PSTACK, 0, STACK
        ARGFRAME XSTACK, 0, STACK
        ARGFRAME IOVERLAY, 0, STATIC
        ARGFRAME DOVERLAY, 0, STATIC
        FUNCALL HalLcdInit, delay_us
        LOCFRAME ISTACK, 2, STACK
        LOCFRAME PSTACK, 0, STACK
        LOCFRAME XSTACK, 0, STACK
        LOCFRAME IOVERLAY, 0, STATIC
        LOCFRAME DOVERLAY, 0, STATIC
        ARGFRAME ISTACK, 2, STACK
        ARGFRAME PSTACK, 0, STACK
        ARGFRAME XSTACK, 0, STACK
        ARGFRAME IOVERLAY, 0, STATIC
        ARGFRAME DOVERLAY, 0, STATIC
        FUNCALL HalLcdInit, WriteLCD
        LOCFRAME ISTACK, 2, STACK
        LOCFRAME PSTACK, 0, STACK
        LOCFRAME XSTACK, 0, STACK
        LOCFRAME IOVERLAY, 0, STATIC
        LOCFRAME DOVERLAY, 0, STATIC
        ARGFRAME ISTACK, 2, STACK
        ARGFRAME PSTACK, 0, STACK
        ARGFRAME XSTACK, 0, STACK
        ARGFRAME IOVERLAY, 0, STATIC
        ARGFRAME DOVERLAY, 0, STATIC
        FUNCALL HalLcdInit, delay_us
        LOCFRAME ISTACK, 2, STACK
        LOCFRAME PSTACK, 0, STACK
        LOCFRAME XSTACK, 0, STACK
        LOCFRAME IOVERLAY, 0, STATIC
        LOCFRAME DOVERLAY, 0, STATIC
        ARGFRAME ISTACK, 2, STACK
        ARGFRAME PSTACK, 0, STACK
        ARGFRAME XSTACK, 0, STACK
        ARGFRAME IOVERLAY, 0, STATIC
        ARGFRAME DOVERLAY, 0, STATIC
        FUNCALL HalLcdInit, WriteLCD
        LOCFRAME ISTACK, 2, STACK
        LOCFRAME PSTACK, 0, STACK
        LOCFRAME XSTACK, 0, STACK
        LOCFRAME IOVERLAY, 0, STATIC
        LOCFRAME DOVERLAY, 0, STATIC
        ARGFRAME ISTACK, 2, STACK
        ARGFRAME PSTACK, 0, STACK
        ARGFRAME XSTACK, 0, STACK
        ARGFRAME IOVERLAY, 0, STATIC
        ARGFRAME DOVERLAY, 0, STATIC
        FUNCALL HalLcdInit, delay_us
        LOCFRAME ISTACK, 2, STACK
        LOCFRAME PSTACK, 0, STACK
        LOCFRAME XSTACK, 0, STACK
        LOCFRAME IOVERLAY, 0, STATIC
        LOCFRAME DOVERLAY, 0, STATIC
        ARGFRAME ISTACK, 2, STACK
        ARGFRAME PSTACK, 0, STACK
        ARGFRAME XSTACK, 0, STACK
        ARGFRAME IOVERLAY, 0, STATIC
        ARGFRAME DOVERLAY, 0, STATIC
        FUNCALL HalLcdInit, WriteLCD
        LOCFRAME ISTACK, 2, STACK
        LOCFRAME PSTACK, 0, STACK
        LOCFRAME XSTACK, 0, STACK
        LOCFRAME IOVERLAY, 0, STATIC
        LOCFRAME DOVERLAY, 0, STATIC
        ARGFRAME ISTACK, 2, STACK
        ARGFRAME PSTACK, 0, STACK
        ARGFRAME XSTACK, 0, STACK
        ARGFRAME IOVERLAY, 0, STATIC
        ARGFRAME DOVERLAY, 0, STATIC
        FUNCALL HalLcdInit, delay_us
        LOCFRAME ISTACK, 2, STACK
        LOCFRAME PSTACK, 0, STACK
        LOCFRAME XSTACK, 0, STACK
        LOCFRAME IOVERLAY, 0, STATIC
        LOCFRAME DOVERLAY, 0, STATIC
        ARGFRAME ISTACK, 2, STACK
        ARGFRAME PSTACK, 0, STACK
        ARGFRAME XSTACK, 0, STACK
        ARGFRAME IOVERLAY, 0, STATIC
        ARGFRAME DOVERLAY, 0, STATIC
        FUNCALL HalLcdInit, WriteLCD
        LOCFRAME ISTACK, 2, STACK
        LOCFRAME PSTACK, 0, STACK
        LOCFRAME XSTACK, 0, STACK
        LOCFRAME IOVERLAY, 0, STATIC
        LOCFRAME DOVERLAY, 0, STATIC
        ARGFRAME ISTACK, 2, STACK
        ARGFRAME PSTACK, 0, STACK
        ARGFRAME XSTACK, 0, STACK
        ARGFRAME IOVERLAY, 0, STATIC
        ARGFRAME DOVERLAY, 0, STATIC
        FUNCALL HalLcdInit, delay_us
        LOCFRAME ISTACK, 2, STACK
        LOCFRAME PSTACK, 0, STACK
        LOCFRAME XSTACK, 0, STACK
        LOCFRAME IOVERLAY, 0, STATIC
        LOCFRAME DOVERLAY, 0, STATIC
        ARGFRAME ISTACK, 2, STACK
        ARGFRAME PSTACK, 0, STACK
        ARGFRAME XSTACK, 0, STACK
        ARGFRAME IOVERLAY, 0, STATIC
        ARGFRAME DOVERLAY, 0, STATIC
        FUNCALL HalLcdInit, WriteLCD
        LOCFRAME ISTACK, 2, STACK
        LOCFRAME PSTACK, 0, STACK
        LOCFRAME XSTACK, 0, STACK
        LOCFRAME IOVERLAY, 0, STATIC
        LOCFRAME DOVERLAY, 0, STATIC
        ARGFRAME ISTACK, 2, STACK
        ARGFRAME PSTACK, 0, STACK
        ARGFRAME XSTACK, 0, STACK
        ARGFRAME IOVERLAY, 0, STATIC
        ARGFRAME DOVERLAY, 0, STATIC
        FUNCALL HalLcdInit, delay_us
        LOCFRAME ISTACK, 2, STACK
        LOCFRAME PSTACK, 0, STACK
        LOCFRAME XSTACK, 0, STACK
        LOCFRAME IOVERLAY, 0, STATIC
        LOCFRAME DOVERLAY, 0, STATIC
        ARGFRAME ISTACK, 2, STACK
        ARGFRAME PSTACK, 0, STACK
        ARGFRAME XSTACK, 0, STACK
        ARGFRAME IOVERLAY, 0, STATIC
        ARGFRAME DOVERLAY, 0, STATIC
        FUNCALL HalLcdInit, WriteLCD
        LOCFRAME ISTACK, 2, STACK
        LOCFRAME PSTACK, 0, STACK
        LOCFRAME XSTACK, 0, STACK
        LOCFRAME IOVERLAY, 0, STATIC
        LOCFRAME DOVERLAY, 0, STATIC
        ARGFRAME ISTACK, 2, STACK
        ARGFRAME PSTACK, 0, STACK
        ARGFRAME XSTACK, 0, STACK
        ARGFRAME IOVERLAY, 0, STATIC
        ARGFRAME DOVERLAY, 0, STATIC
        FUNCALL HalLcdInit, delay_us
        LOCFRAME ISTACK, 2, STACK
        LOCFRAME PSTACK, 0, STACK
        LOCFRAME XSTACK, 0, STACK
        LOCFRAME IOVERLAY, 0, STATIC
        LOCFRAME DOVERLAY, 0, STATIC
        ARGFRAME ISTACK, 2, STACK
        ARGFRAME PSTACK, 0, STACK
        ARGFRAME XSTACK, 0, STACK
        ARGFRAME IOVERLAY, 0, STATIC
        ARGFRAME DOVERLAY, 0, STATIC
        FUNCALL HalLcdInit, WriteLCD
        LOCFRAME ISTACK, 2, STACK
        LOCFRAME PSTACK, 0, STACK
        LOCFRAME XSTACK, 0, STACK
        LOCFRAME IOVERLAY, 0, STATIC
        LOCFRAME DOVERLAY, 0, STATIC
        ARGFRAME ISTACK, 2, STACK
        ARGFRAME PSTACK, 0, STACK
        ARGFRAME XSTACK, 0, STACK
        ARGFRAME IOVERLAY, 0, STATIC
        ARGFRAME DOVERLAY, 0, STATIC
        FUNCALL HalLcdInit, delay_us
        LOCFRAME ISTACK, 2, STACK
        LOCFRAME PSTACK, 0, STACK
        LOCFRAME XSTACK, 0, STACK
        LOCFRAME IOVERLAY, 0, STATIC
        LOCFRAME DOVERLAY, 0, STATIC
        ARGFRAME ISTACK, 2, STACK
        ARGFRAME PSTACK, 0, STACK
        ARGFRAME XSTACK, 0, STACK
        ARGFRAME IOVERLAY, 0, STATIC
        ARGFRAME DOVERLAY, 0, STATIC
        FUNCALL HalLcdInit, WriteLCD
        LOCFRAME ISTACK, 2, STACK
        LOCFRAME PSTACK, 0, STACK
        LOCFRAME XSTACK, 0, STACK
        LOCFRAME IOVERLAY, 0, STATIC
        LOCFRAME DOVERLAY, 0, STATIC
        ARGFRAME ISTACK, 2, STACK
        ARGFRAME PSTACK, 0, STACK
        ARGFRAME XSTACK, 0, STACK
        ARGFRAME IOVERLAY, 0, STATIC
        ARGFRAME DOVERLAY, 0, STATIC
        FUNCALL HalLcdInit, delay_us
        LOCFRAME ISTACK, 2, STACK
        LOCFRAME PSTACK, 0, STACK
        LOCFRAME XSTACK, 0, STACK
        LOCFRAME IOVERLAY, 0, STATIC
        LOCFRAME DOVERLAY, 0, STATIC
        ARGFRAME ISTACK, 2, STACK
        ARGFRAME PSTACK, 0, STACK
        ARGFRAME XSTACK, 0, STACK
        ARGFRAME IOVERLAY, 0, STATIC
        ARGFRAME DOVERLAY, 0, STATIC
        FUNCALL HalLcdInit, WriteLCD
        LOCFRAME ISTACK, 2, STACK
        LOCFRAME PSTACK, 0, STACK
        LOCFRAME XSTACK, 0, STACK
        LOCFRAME IOVERLAY, 0, STATIC
        LOCFRAME DOVERLAY, 0, STATIC
        ARGFRAME ISTACK, 2, STACK
        ARGFRAME PSTACK, 0, STACK
        ARGFRAME XSTACK, 0, STACK
        ARGFRAME IOVERLAY, 0, STATIC
        ARGFRAME DOVERLAY, 0, STATIC
        FUNCALL HalLcdInit, delay_us
        LOCFRAME ISTACK, 2, STACK
        LOCFRAME PSTACK, 0, STACK
        LOCFRAME XSTACK, 0, STACK
        LOCFRAME IOVERLAY, 0, STATIC
        LOCFRAME DOVERLAY, 0, STATIC
        ARGFRAME ISTACK, 2, STACK
        ARGFRAME PSTACK, 0, STACK
        ARGFRAME XSTACK, 0, STACK
        ARGFRAME IOVERLAY, 0, STATIC
        ARGFRAME DOVERLAY, 0, STATIC
        FUNCALL HalLcdInit, WriteLCD
        LOCFRAME ISTACK, 2, STACK
        LOCFRAME PSTACK, 0, STACK
        LOCFRAME XSTACK, 0, STACK
        LOCFRAME IOVERLAY, 0, STATIC
        LOCFRAME DOVERLAY, 0, STATIC
        ARGFRAME ISTACK, 2, STACK
        ARGFRAME PSTACK, 0, STACK
        ARGFRAME XSTACK, 0, STACK
        ARGFRAME IOVERLAY, 0, STATIC
        ARGFRAME DOVERLAY, 0, STATIC
        FUNCALL HalLcdInit, delay_us
        LOCFRAME ISTACK, 2, STACK
        LOCFRAME PSTACK, 0, STACK
        LOCFRAME XSTACK, 0, STACK
        LOCFRAME IOVERLAY, 0, STATIC
        LOCFRAME DOVERLAY, 0, STATIC
        ARGFRAME ISTACK, 2, STACK
        ARGFRAME PSTACK, 0, STACK
        ARGFRAME XSTACK, 0, STACK
        ARGFRAME IOVERLAY, 0, STATIC
        ARGFRAME DOVERLAY, 0, STATIC
        FUNCALL HalLcdInit, WriteLCD
        LOCFRAME ISTACK, 2, STACK
        LOCFRAME PSTACK, 0, STACK
        LOCFRAME XSTACK, 0, STACK
        LOCFRAME IOVERLAY, 0, STATIC
        LOCFRAME DOVERLAY, 0, STATIC
        ARGFRAME ISTACK, 2, STACK
        ARGFRAME PSTACK, 0, STACK
        ARGFRAME XSTACK, 0, STACK
        ARGFRAME IOVERLAY, 0, STATIC
        ARGFRAME DOVERLAY, 0, STATIC
        FUNCALL HalLcdInit, delay_us
        LOCFRAME ISTACK, 2, STACK
        LOCFRAME PSTACK, 0, STACK
        LOCFRAME XSTACK, 0, STACK
        LOCFRAME IOVERLAY, 0, STATIC
        LOCFRAME DOVERLAY, 0, STATIC
        ARGFRAME ISTACK, 2, STACK
        ARGFRAME PSTACK, 0, STACK
        ARGFRAME XSTACK, 0, STACK
        ARGFRAME IOVERLAY, 0, STATIC
        ARGFRAME DOVERLAY, 0, STATIC
        FUNCALL HalLcdInit, WriteLCD
        LOCFRAME ISTACK, 2, STACK
        LOCFRAME PSTACK, 0, STACK
        LOCFRAME XSTACK, 0, STACK
        LOCFRAME IOVERLAY, 0, STATIC
        LOCFRAME DOVERLAY, 0, STATIC
        ARGFRAME ISTACK, 2, STACK
        ARGFRAME PSTACK, 0, STACK
        ARGFRAME XSTACK, 0, STACK
        ARGFRAME IOVERLAY, 0, STATIC
        ARGFRAME DOVERLAY, 0, STATIC
        FUNCALL HalLcdInit, delay_us
        LOCFRAME ISTACK, 2, STACK
        LOCFRAME PSTACK, 0, STACK
        LOCFRAME XSTACK, 0, STACK
        LOCFRAME IOVERLAY, 0, STATIC
        LOCFRAME DOVERLAY, 0, STATIC
        ARGFRAME ISTACK, 2, STACK
        ARGFRAME PSTACK, 0, STACK
        ARGFRAME XSTACK, 0, STACK
        ARGFRAME IOVERLAY, 0, STATIC
        ARGFRAME DOVERLAY, 0, STATIC
        FUNCALL HalLcdInit, WriteLCD
        LOCFRAME ISTACK, 2, STACK
        LOCFRAME PSTACK, 0, STACK
        LOCFRAME XSTACK, 0, STACK
        LOCFRAME IOVERLAY, 0, STATIC
        LOCFRAME DOVERLAY, 0, STATIC
        ARGFRAME ISTACK, 2, STACK
        ARGFRAME PSTACK, 0, STACK
        ARGFRAME XSTACK, 0, STACK
        ARGFRAME IOVERLAY, 0, STATIC
        ARGFRAME DOVERLAY, 0, STATIC
        FUNCALL HalLcdInit, WriteLCD
        LOCFRAME ISTACK, 2, STACK
        LOCFRAME PSTACK, 0, STACK
        LOCFRAME XSTACK, 0, STACK
        LOCFRAME IOVERLAY, 0, STATIC
        LOCFRAME DOVERLAY, 0, STATIC
        ARGFRAME ISTACK, 2, STACK
        ARGFRAME PSTACK, 0, STACK
        ARGFRAME XSTACK, 0, STACK
        ARGFRAME IOVERLAY, 0, STATIC
        ARGFRAME DOVERLAY, 0, STATIC
        FUNCALL HalLcdInit, WriteLCD
        LOCFRAME ISTACK, 2, STACK
        LOCFRAME PSTACK, 0, STACK
        LOCFRAME XSTACK, 0, STACK
        LOCFRAME IOVERLAY, 0, STATIC
        LOCFRAME DOVERLAY, 0, STATIC
        ARGFRAME ISTACK, 2, STACK
        ARGFRAME PSTACK, 0, STACK
        ARGFRAME XSTACK, 0, STACK
        ARGFRAME IOVERLAY, 0, STATIC
        ARGFRAME DOVERLAY, 0, STATIC
        FUNCALL HalLcdInit, delay_us
        LOCFRAME ISTACK, 2, STACK
        LOCFRAME PSTACK, 0, STACK
        LOCFRAME XSTACK, 0, STACK
        LOCFRAME IOVERLAY, 0, STATIC
        LOCFRAME DOVERLAY, 0, STATIC
        ARGFRAME ISTACK, 2, STACK
        ARGFRAME PSTACK, 0, STACK
        ARGFRAME XSTACK, 0, STACK
        ARGFRAME IOVERLAY, 0, STATIC
        ARGFRAME DOVERLAY, 0, STATIC
        FUNCALL HalLcdInit, SetContrast
        LOCFRAME ISTACK, 2, STACK
        LOCFRAME PSTACK, 0, STACK
        LOCFRAME XSTACK, 0, STACK
        LOCFRAME IOVERLAY, 0, STATIC
        LOCFRAME DOVERLAY, 0, STATIC
        ARGFRAME ISTACK, 2, STACK
        ARGFRAME PSTACK, 0, STACK
        ARGFRAME XSTACK, 0, STACK
        ARGFRAME IOVERLAY, 0, STATIC
        ARGFRAME DOVERLAY, 0, STATIC
        FUNCALL HalLcdInit, ClearScreen
        LOCFRAME ISTACK, 2, STACK
        LOCFRAME PSTACK, 0, STACK
        LOCFRAME XSTACK, 0, STACK
        LOCFRAME IOVERLAY, 0, STATIC
        LOCFRAME DOVERLAY, 0, STATIC
        ARGFRAME ISTACK, 2, STACK
        ARGFRAME PSTACK, 0, STACK
        ARGFRAME XSTACK, 0, STACK
        ARGFRAME IOVERLAY, 0, STATIC
        ARGFRAME DOVERLAY, 0, STATIC
        FUNCALL HalLcdInit, HalLcdWriteString
        LOCFRAME ISTACK, 2, STACK
        LOCFRAME PSTACK, 0, STACK
        LOCFRAME XSTACK, 0, STACK
        LOCFRAME IOVERLAY, 0, STATIC
        LOCFRAME DOVERLAY, 0, STATIC
        ARGFRAME ISTACK, 2, STACK
        ARGFRAME PSTACK, 0, STACK
        ARGFRAME XSTACK, 0, STACK
        ARGFRAME IOVERLAY, 0, STATIC
        ARGFRAME DOVERLAY, 0, STATIC
        FUNCALL HalLcdInit, HalLcdWriteString
        LOCFRAME ISTACK, 2, STACK
        LOCFRAME PSTACK, 0, STACK
        LOCFRAME XSTACK, 0, STACK
        LOCFRAME IOVERLAY, 0, STATIC
        LOCFRAME DOVERLAY, 0, STATIC
        ARGFRAME ISTACK, 2, STACK
        ARGFRAME PSTACK, 0, STACK
        ARGFRAME XSTACK, 0, STACK
        ARGFRAME IOVERLAY, 0, STATIC
        ARGFRAME DOVERLAY, 0, STATIC
        PUSH    DPL
          CFI DPL0 Frame(CFA_SP, 4)
          CFI CFA_SP SP+-4
        PUSH    DPH
          CFI DPH0 Frame(CFA_SP, 5)
          CFI CFA_SP SP+-5
        ; Saved register size: 2
        ; Auto size: 0
//  315         delay_us(10000);
        ; Setup parameters for call to function delay_us
        MOV     R2,#0x10
        MOV     R3,#0x27
        LCALL   `??delay_us::?relay` ; Banked call to: delay_us
//  316         P1DIR |= 0xFC;
        ORL     0xfe,#0xfc
//  317         P2DIR |= 0x01;
        ORL     0xff,#0x1
//  318         P0DIR |= 0x02;
        ORL     0xfd,#0x2
//  319         P1_2 = 0;
        CLR     0x90.2
//  320 	delay_us(100);	
        ; Setup parameters for call to function delay_us
        MOV     R2,#0x64
        MOV     R3,#0x0
        LCALL   `??delay_us::?relay` ; Banked call to: delay_us
//  321 	WriteLCD(COMMAND , 0xE2);//??
        ; Setup parameters for call to function WriteLCD
        MOV     R2,#-0x1e
        MOV     R1,#0x0
        LCALL   `??WriteLCD::?relay` ; Banked call to: WriteLCD
//  322 
//  323 	delay_us(100);
        ; Setup parameters for call to function delay_us
        MOV     R2,#0x64
        MOV     R3,#0x0
        LCALL   `??delay_us::?relay` ; Banked call to: delay_us
//  324 	WriteLCD(COMMAND , 0xA3);
        ; Setup parameters for call to function WriteLCD
        MOV     R2,#-0x5d
        MOV     R1,#0x0
        LCALL   `??WriteLCD::?relay` ; Banked call to: WriteLCD
//  325 
//  326 	delay_us(100);	
        ; Setup parameters for call to function delay_us
        MOV     R2,#0x64
        MOV     R3,#0x0
        LCALL   `??delay_us::?relay` ; Banked call to: delay_us
//  327 	WriteLCD(COMMAND , 0xA0);
        ; Setup parameters for call to function WriteLCD
        MOV     R2,#-0x60
        MOV     R1,#0x0
        LCALL   `??WriteLCD::?relay` ; Banked call to: WriteLCD
//  328 	
//  329 	delay_us(100);
        ; Setup parameters for call to function delay_us
        MOV     R2,#0x64
        MOV     R3,#0x0
        LCALL   `??delay_us::?relay` ; Banked call to: delay_us
//  330 	WriteLCD(COMMAND , 0xC8);
        ; Setup parameters for call to function WriteLCD
        MOV     R2,#-0x38
        MOV     R1,#0x0
        LCALL   `??WriteLCD::?relay` ; Banked call to: WriteLCD
//  331 
//  332 	delay_us(100);	
        ; Setup parameters for call to function delay_us
        MOV     R2,#0x64
        MOV     R3,#0x0
        LCALL   `??delay_us::?relay` ; Banked call to: delay_us
//  333 	WriteLCD(COMMAND , 0x24);
        ; Setup parameters for call to function WriteLCD
        MOV     R2,#0x24
        MOV     R1,#0x0
        LCALL   `??WriteLCD::?relay` ; Banked call to: WriteLCD
//  334 	
//  335 	delay_us(100);
        ; Setup parameters for call to function delay_us
        MOV     R2,#0x64
        MOV     R3,#0x0
        LCALL   `??delay_us::?relay` ; Banked call to: delay_us
//  336 	WriteLCD(COMMAND , 0x81);
        ; Setup parameters for call to function WriteLCD
        MOV     R2,#-0x7f
        MOV     R1,#0x0
        LCALL   `??WriteLCD::?relay` ; Banked call to: WriteLCD
//  337 
//  338 	delay_us(100);	
        ; Setup parameters for call to function delay_us
        MOV     R2,#0x64
        MOV     R3,#0x0
        LCALL   `??delay_us::?relay` ; Banked call to: delay_us
//  339 	WriteLCD(COMMAND , 0x14);
        ; Setup parameters for call to function WriteLCD
        MOV     R2,#0x14
        MOV     R1,#0x0
        LCALL   `??WriteLCD::?relay` ; Banked call to: WriteLCD
//  340 	
//  341 	delay_us(100);
        ; Setup parameters for call to function delay_us
        MOV     R2,#0x64
        MOV     R3,#0x0
        LCALL   `??delay_us::?relay` ; Banked call to: delay_us
//  342 	WriteLCD(COMMAND , 0x2F);
        ; Setup parameters for call to function WriteLCD
        MOV     R2,#0x2f
        MOV     R1,#0x0
        LCALL   `??WriteLCD::?relay` ; Banked call to: WriteLCD
//  343 
//  344 	delay_us(100);	
        ; Setup parameters for call to function delay_us
        MOV     R2,#0x64
        MOV     R3,#0x0
        LCALL   `??delay_us::?relay` ; Banked call to: delay_us
//  345 	WriteLCD(COMMAND , 0x40);//????????
        ; Setup parameters for call to function WriteLCD
        MOV     R2,#0x40
        MOV     R1,#0x0
        LCALL   `??WriteLCD::?relay` ; Banked call to: WriteLCD
//  346 	
//  347 	delay_us(100);
        ; Setup parameters for call to function delay_us
        MOV     R2,#0x64
        MOV     R3,#0x0
        LCALL   `??delay_us::?relay` ; Banked call to: delay_us
//  348 	WriteLCD(COMMAND , 0xB0);
        ; Setup parameters for call to function WriteLCD
        MOV     R2,#-0x50
        MOV     R1,#0x0
        LCALL   `??WriteLCD::?relay` ; Banked call to: WriteLCD
//  349 
//  350 	delay_us(100);	
        ; Setup parameters for call to function delay_us
        MOV     R2,#0x64
        MOV     R3,#0x0
        LCALL   `??delay_us::?relay` ; Banked call to: delay_us
//  351 	WriteLCD(COMMAND , 0x10);
        ; Setup parameters for call to function WriteLCD
        MOV     R2,#0x10
        MOV     R1,#0x0
        LCALL   `??WriteLCD::?relay` ; Banked call to: WriteLCD
//  352 	
//  353 	delay_us(100);
        ; Setup parameters for call to function delay_us
        MOV     R2,#0x64
        MOV     R3,#0x0
        LCALL   `??delay_us::?relay` ; Banked call to: delay_us
//  354 	WriteLCD(COMMAND , 0x00);
        ; Setup parameters for call to function WriteLCD
        MOV     R2,#0x0
        MOV     R1,#0x0
        LCALL   `??WriteLCD::?relay` ; Banked call to: WriteLCD
//  355 
//  356 	delay_us(100);	
        ; Setup parameters for call to function delay_us
        MOV     R2,#0x64
        MOV     R3,#0x0
        LCALL   `??delay_us::?relay` ; Banked call to: delay_us
//  357 	WriteLCD(COMMAND , 0xAF);
        ; Setup parameters for call to function WriteLCD
        MOV     R2,#-0x51
        MOV     R1,#0x0
        LCALL   `??WriteLCD::?relay` ; Banked call to: WriteLCD
//  358 
//  359 	WriteLCD(COMMAND , 0x81);
        ; Setup parameters for call to function WriteLCD
        MOV     R2,#-0x7f
        MOV     R1,#0x0
        LCALL   `??WriteLCD::?relay` ; Banked call to: WriteLCD
//  360 	WriteLCD(COMMAND , 0x1b);
        ; Setup parameters for call to function WriteLCD
        MOV     R2,#0x1b
        MOV     R1,#0x0
        LCALL   `??WriteLCD::?relay` ; Banked call to: WriteLCD
//  361     delay_us(100);	
        ; Setup parameters for call to function delay_us
        MOV     R2,#0x64
        MOV     R3,#0x0
        LCALL   `??delay_us::?relay` ; Banked call to: delay_us
//  362     SetContrast(iIntRegValuea,ContrastValue);
        ; Setup parameters for call to function SetContrast
        MOV     DPTR,#ContrastValue
        MOVX    A,@DPTR
        MOV     R2,A
        MOV     R1,#0x14
        LCALL   `??SetContrast::?relay`; Banked call to: SetContrast
//  363 	ClearScreen();
        ; Setup parameters for call to function ClearScreen
        LCALL   `??ClearScreen::?relay`; Banked call to: ClearScreen
//  364     HalLcdWriteString("IEEE:",1);
        ; Setup parameters for call to function HalLcdWriteString
        MOV     R1,#0x1
        MOV     R2,#`?<Constant "IEEE:">` & 0xff
        MOV     R3,#(`?<Constant "IEEE:">` >> 8) & 0xff
        LCALL   `??HalLcdWriteString::?relay`; Banked call to: HalLcdWriteString
//  365  //     HalLcdWriteString("Init lcd1",2);
//  366     HalLcdWriteString("Init lcd2",3);
        ; Setup parameters for call to function HalLcdWriteString
        MOV     R1,#0x3
        MOV     R2,#`?<Constant "Init lcd2">` & 0xff
        MOV     R3,#(`?<Constant "Init lcd2">` >> 8) & 0xff
        LCALL   `??HalLcdWriteString::?relay`; Banked call to: HalLcdWriteString
//  367  //     HalLcdWriteString("Init lcd3",4);
//  368 
//  369  //      PrintCh8(30,30,'O',1);
//  370  //       delay_us(100);	
//  371         
//  372 }
        LJMP    ?Subroutine0 & 0xFFFF
          CFI EndBlock cfiBlock12
        REQUIRE P1DIR
        REQUIRE P2DIR
        REQUIRE P0DIR
        REQUIRE _A_P1
//  373 
//  374 
//  375 
//  376 /*******************************************************************************
//  377 //???:void Print6(uint8 xx, uint8 yy, uint8 ch1[], uint8 yn)
//  378 //??:??6*8???
//  379 //??:xx ,yy ??,ch1???????,yn????
//  380 //??:?
//  381 ********************************************************************************/

        RSEG BANKED_CODE:CODE:NOROOT(0)
//  382 void Print6(uint8 xx, uint8 yy, uint8 ch1[], uint8 yn)		
Print6:
          CFI Block cfiBlock13 Using cfiCommon0
          CFI Function Print6
        CODE
//  383 {
        FUNCALL Print6, WriteLCD
        LOCFRAME ISTACK, 0, STACK
        LOCFRAME PSTACK, 0, STACK
        LOCFRAME XSTACK, 15, STACK
        LOCFRAME IOVERLAY, 0, STATIC
        LOCFRAME DOVERLAY, 0, STATIC
        ARGFRAME ISTACK, 0, STACK
        ARGFRAME PSTACK, 0, STACK
        ARGFRAME XSTACK, 15, STACK
        ARGFRAME IOVERLAY, 0, STATIC
        ARGFRAME DOVERLAY, 0, STATIC
        FUNCALL Print6, SetRamAddr
        LOCFRAME ISTACK, 0, STACK
        LOCFRAME PSTACK, 0, STACK
        LOCFRAME XSTACK, 15, STACK
        LOCFRAME IOVERLAY, 0, STATIC
        LOCFRAME DOVERLAY, 0, STATIC
        ARGFRAME ISTACK, 0, STACK
        ARGFRAME PSTACK, 0, STACK
        ARGFRAME XSTACK, 15, STACK
        ARGFRAME IOVERLAY, 0, STATIC
        ARGFRAME DOVERLAY, 0, STATIC
        FUNCALL Print6, WriteLCD
        LOCFRAME ISTACK, 0, STACK
        LOCFRAME PSTACK, 0, STACK
        LOCFRAME XSTACK, 15, STACK
        LOCFRAME IOVERLAY, 0, STATIC
        LOCFRAME DOVERLAY, 0, STATIC
        ARGFRAME ISTACK, 0, STACK
        ARGFRAME PSTACK, 0, STACK
        ARGFRAME XSTACK, 15, STACK
        ARGFRAME IOVERLAY, 0, STATIC
        ARGFRAME DOVERLAY, 0, STATIC
        REQUIRE ?V0
        REQUIRE ?V1
        REQUIRE ?V2
        REQUIRE ?V3
        REQUIRE ?V4
        REQUIRE ?V5
        REQUIRE ?V6
        MOV     A,#-0xf
        LCALL   ?BANKED_ENTER_XDATA
          CFI DPH0 load(1, XDATA, add(CFA_XSP16, literal(-1)))
          CFI DPL0 load(1, XDATA, add(CFA_XSP16, literal(-2)))
          CFI ?BRET_EXT load(1, XDATA, add(CFA_XSP16, literal(-3)))
          CFI ?RET_HIGH load(1, XDATA, add(CFA_XSP16, literal(-4)))
          CFI ?RET_LOW load(1, XDATA, add(CFA_XSP16, literal(-5)))
          CFI R7 load(1, XDATA, add(CFA_XSP16, literal(-6)))
          CFI V6 load(1, XDATA, add(CFA_XSP16, literal(-7)))
          CFI V5 load(1, XDATA, add(CFA_XSP16, literal(-8)))
          CFI V4 load(1, XDATA, add(CFA_XSP16, literal(-9)))
          CFI V3 load(1, XDATA, add(CFA_XSP16, literal(-10)))
          CFI V2 load(1, XDATA, add(CFA_XSP16, literal(-11)))
          CFI V1 load(1, XDATA, add(CFA_XSP16, literal(-12)))
          CFI V0 load(1, XDATA, add(CFA_XSP16, literal(-13)))
          CFI VB load(1, XDATA, add(CFA_XSP16, literal(-14)))
          CFI R6 load(1, XDATA, add(CFA_XSP16, literal(-15)))
          CFI CFA_SP SP+0
          CFI CFA_XSP16 add(XSP16, 15)
        ; Saved register size: 15
        ; Auto size: 0
        MOV     ?V4,R1
        MOV     ?V3,R2
        MOV     A,R4
        MOV     R6,A
        MOV     A,R5
        MOV     R7,A
        MOV     ?V5,R3
//  384 	uint8 ii = 0;
//  385 	uint8 bb = 0;
        MOV     ?V2,#0x0
//  386 	unsigned int index = 0 ;	
        SJMP    ??Print6_0
//  387 			
//  388 	while(ch1[bb] != '\0')
//  389 	{
//  390                 index = (unsigned int)(ch1[bb] - 0x20);
//  391 		index = (unsigned int)index*6;		
//  392 		for(ii=0;ii<6;ii++)
//  393 		{
//  394 			SetRamAddr(xx , yy);
//  395 			if(yn == 0)
//  396 			{
//  397 				WriteLCD(DATA, ~FontSystem6x8[index]);
//  398 				
//  399 			}
//  400 			else
//  401 			{
//  402 				WriteLCD(DATA, FontSystem6x8[index]);
??Print6_1:
        ; Setup parameters for call to function WriteLCD
        LCALL   ?Subroutine10 & 0xFFFF
//  403 			}		
??CrossCallReturnLabel_2:
        MOV     R2,A
        MOV     R1,#0x1
        LCALL   `??WriteLCD::?relay` ; Banked call to: WriteLCD
//  404 			index += 1;
        INC     ?V0
        MOV     A,?V0
        JNZ     ??Print6_2
        INC     ?V1
//  405 			yy += 1;
??Print6_2:
        INC     ?V3
        DEC     ?V6
        MOV     A,?V6
        JNZ     ??Print6_3
//  406 		}		
//  407 		bb += 1;
        INC     ?V2
??Print6_0:
        MOV     R0,?V2
        LCALL   ?Subroutine14 & 0xFFFF
??CrossCallReturnLabel_12:
        JZ      ??Print6_4
        ADD     A,#-0x20
        MOV     ?V0,A
        CLR     A
        ADDC    A,#-0x1
        MOV     ?V1,A
        MOV     A,?V0
        MOV     B,#0x6
        MUL     AB
        MOV     ?V0,A
        MOV     R0,B
        MOV     B,#0x6
        MOV     A,?V1
        MUL     AB
        ADD     A,R0
        MOV     ?V1,A
        MOV     ?V6,#0x6
??Print6_3:
        ; Setup parameters for call to function SetRamAddr
        MOV     R2,?V3
        MOV     R1,?V4
        LCALL   `??SetRamAddr::?relay`; Banked call to: SetRamAddr
        MOV     A,?V5
        JNZ     ??Print6_1
        ; Setup parameters for call to function WriteLCD
        LCALL   ?Subroutine10 & 0xFFFF
//  408 	}
??CrossCallReturnLabel_3:
        CPL     A
        SJMP    ??CrossCallReturnLabel_2
//  409 }
??Print6_4:
          CFI EndBlock cfiBlock13
        REQUIRE ?Subroutine2
        ; // Fall through to label ?Subroutine2

        RSEG BANKED_CODE:CODE:NOROOT(0)
?Subroutine2:
          CFI Block cfiBlock14 Using cfiCommon0
          CFI NoFunction
          CFI CFA_SP SP+0
          CFI CFA_XSP16 add(XSP16, 15)
          CFI VB load(1, XDATA, add(CFA_XSP16, literal(-14)))
          CFI DPL0 load(1, XDATA, add(CFA_XSP16, literal(-2)))
          CFI DPH0 load(1, XDATA, add(CFA_XSP16, literal(-1)))
          CFI R6 load(1, XDATA, add(CFA_XSP16, literal(-15)))
          CFI R7 load(1, XDATA, add(CFA_XSP16, literal(-6)))
          CFI V0 load(1, XDATA, add(CFA_XSP16, literal(-13)))
          CFI V1 load(1, XDATA, add(CFA_XSP16, literal(-12)))
          CFI V2 load(1, XDATA, add(CFA_XSP16, literal(-11)))
          CFI V3 load(1, XDATA, add(CFA_XSP16, literal(-10)))
          CFI V4 load(1, XDATA, add(CFA_XSP16, literal(-9)))
          CFI V5 load(1, XDATA, add(CFA_XSP16, literal(-8)))
          CFI V6 load(1, XDATA, add(CFA_XSP16, literal(-7)))
          CFI ?BRET_EXT load(1, XDATA, add(CFA_XSP16, literal(-3)))
          CFI ?RET_HIGH load(1, XDATA, add(CFA_XSP16, literal(-4)))
          CFI ?RET_LOW load(1, XDATA, add(CFA_XSP16, literal(-5)))
        MOV     R7,#0x7
        LJMP    ?BANKED_LEAVE_XDATA
          CFI EndBlock cfiBlock14

        RSEG BANKED_CODE:CODE:NOROOT(0)
?Subroutine10:
          CFI Block cfiCond15 Using cfiCommon0
          CFI Function Print6
          CFI Conditional ??CrossCallReturnLabel_2
          CFI R6 load(1, XDATA, add(CFA_XSP16, literal(-15)))
          CFI VB load(1, XDATA, add(CFA_XSP16, literal(-14)))
          CFI V0 load(1, XDATA, add(CFA_XSP16, literal(-13)))
          CFI V1 load(1, XDATA, add(CFA_XSP16, literal(-12)))
          CFI V2 load(1, XDATA, add(CFA_XSP16, literal(-11)))
          CFI V3 load(1, XDATA, add(CFA_XSP16, literal(-10)))
          CFI V4 load(1, XDATA, add(CFA_XSP16, literal(-9)))
          CFI V5 load(1, XDATA, add(CFA_XSP16, literal(-8)))
          CFI V6 load(1, XDATA, add(CFA_XSP16, literal(-7)))
          CFI R7 load(1, XDATA, add(CFA_XSP16, literal(-6)))
          CFI ?RET_LOW load(1, XDATA, add(CFA_XSP16, literal(-5)))
          CFI ?RET_HIGH load(1, XDATA, add(CFA_XSP16, literal(-4)))
          CFI ?BRET_EXT load(1, XDATA, add(CFA_XSP16, literal(-3)))
          CFI DPL0 load(1, XDATA, add(CFA_XSP16, literal(-2)))
          CFI DPH0 load(1, XDATA, add(CFA_XSP16, literal(-1)))
          CFI CFA_SP SP+-2
          CFI CFA_XSP16 add(XSP16, 15)
          CFI Block cfiCond16 Using cfiCommon0
          CFI (cfiCond16) Function Print6
          CFI (cfiCond16) Conditional ??CrossCallReturnLabel_3
          CFI (cfiCond16) R6 load(1, XDATA, add(CFA_XSP16, literal(-15)))
          CFI (cfiCond16) VB load(1, XDATA, add(CFA_XSP16, literal(-14)))
          CFI (cfiCond16) V0 load(1, XDATA, add(CFA_XSP16, literal(-13)))
          CFI (cfiCond16) V1 load(1, XDATA, add(CFA_XSP16, literal(-12)))
          CFI (cfiCond16) V2 load(1, XDATA, add(CFA_XSP16, literal(-11)))
          CFI (cfiCond16) V3 load(1, XDATA, add(CFA_XSP16, literal(-10)))
          CFI (cfiCond16) V4 load(1, XDATA, add(CFA_XSP16, literal(-9)))
          CFI (cfiCond16) V5 load(1, XDATA, add(CFA_XSP16, literal(-8)))
          CFI (cfiCond16) V6 load(1, XDATA, add(CFA_XSP16, literal(-7)))
          CFI (cfiCond16) R7 load(1, XDATA, add(CFA_XSP16, literal(-6)))
          CFI (cfiCond16) ?RET_LOW load(1, XDATA, add(CFA_XSP16, literal(-5)))
          CFI (cfiCond16) ?RET_HIGH load(1, XDATA, add(CFA_XSP16, literal(-4)))
          CFI (cfiCond16) ?BRET_EXT load(1, XDATA, add(CFA_XSP16, literal(-3)))
          CFI (cfiCond16) DPL0 load(1, XDATA, add(CFA_XSP16, literal(-2)))
          CFI (cfiCond16) DPH0 load(1, XDATA, add(CFA_XSP16, literal(-1)))
          CFI (cfiCond16) CFA_SP SP+-2
          CFI (cfiCond16) CFA_XSP16 add(XSP16, 15)
          CFI Block cfiPicker17 Using cfiCommon1
          CFI (cfiPicker17) NoFunction
          CFI (cfiPicker17) Picker
        MOV     A,#FontSystem6x8 & 0xff
        ADD     A,?V0
        MOV     DPL,A
        MOV     A,#(FontSystem6x8 >> 8) & 0xff
        ADDC    A,?V1
        MOV     DPH,A
        CLR     A
        MOVC    A,@A+DPTR
        RET
          CFI EndBlock cfiCond15
          CFI EndBlock cfiCond16
          CFI EndBlock cfiPicker17
//  410 
//  411 
//  412 //*******************************************************************************
//  413 //???:void Printn8(uint8 xx ,uint8 yy , uint32 no,uint8 yn,uint8 le)
//  414 //??:??8*8???????
//  415 //??:xx , yy??????,no????? yn=0???? yn=1????  le???
//  416 //??:?
//  417 //*******************************************************************************

        RSEG BANKED_CODE:CODE:NOROOT(0)
//  418 void Printn8(uint8 xx ,uint8 yy , uint32 no,uint8 yn,uint8 le)
Printn8:
          CFI Block cfiBlock18 Using cfiCommon0
          CFI Function Printn8
        CODE
//  419 {
        FUNCALL Printn8, Print8
        LOCFRAME ISTACK, 0, STACK
        LOCFRAME PSTACK, 0, STACK
        LOCFRAME XSTACK, 32, STACK
        LOCFRAME IOVERLAY, 0, STATIC
        LOCFRAME DOVERLAY, 0, STATIC
        ARGFRAME ISTACK, 0, STACK
        ARGFRAME PSTACK, 0, STACK
        ARGFRAME XSTACK, 32, STACK
        ARGFRAME IOVERLAY, 0, STATIC
        ARGFRAME DOVERLAY, 0, STATIC
        REQUIRE ?V0
        REQUIRE ?V1
        REQUIRE ?V2
        REQUIRE ?V3
        REQUIRE ?V4
        REQUIRE ?V5
        REQUIRE ?V6
        REQUIRE ?V7
        REQUIRE ?V8
        REQUIRE ?V9
        REQUIRE ?V10
        REQUIRE ?V11
        REQUIRE ?V12
        REQUIRE ?V13
        MOV     A,#-0x16
        LCALL   ?BANKED_ENTER_XDATA
          CFI DPH0 load(1, XDATA, add(CFA_XSP16, literal(-1)))
          CFI DPL0 load(1, XDATA, add(CFA_XSP16, literal(-2)))
          CFI ?BRET_EXT load(1, XDATA, add(CFA_XSP16, literal(-3)))
          CFI ?RET_HIGH load(1, XDATA, add(CFA_XSP16, literal(-4)))
          CFI ?RET_LOW load(1, XDATA, add(CFA_XSP16, literal(-5)))
          CFI R7 load(1, XDATA, add(CFA_XSP16, literal(-6)))
          CFI V13 load(1, XDATA, add(CFA_XSP16, literal(-7)))
          CFI V12 load(1, XDATA, add(CFA_XSP16, literal(-8)))
          CFI V11 load(1, XDATA, add(CFA_XSP16, literal(-9)))
          CFI V10 load(1, XDATA, add(CFA_XSP16, literal(-10)))
          CFI V9 load(1, XDATA, add(CFA_XSP16, literal(-11)))
          CFI V8 load(1, XDATA, add(CFA_XSP16, literal(-12)))
          CFI V7 load(1, XDATA, add(CFA_XSP16, literal(-13)))
          CFI V6 load(1, XDATA, add(CFA_XSP16, literal(-14)))
          CFI V5 load(1, XDATA, add(CFA_XSP16, literal(-15)))
          CFI V4 load(1, XDATA, add(CFA_XSP16, literal(-16)))
          CFI V3 load(1, XDATA, add(CFA_XSP16, literal(-17)))
          CFI V2 load(1, XDATA, add(CFA_XSP16, literal(-18)))
          CFI V1 load(1, XDATA, add(CFA_XSP16, literal(-19)))
          CFI V0 load(1, XDATA, add(CFA_XSP16, literal(-20)))
          CFI VB load(1, XDATA, add(CFA_XSP16, literal(-21)))
          CFI R6 load(1, XDATA, add(CFA_XSP16, literal(-22)))
          CFI CFA_SP SP+0
          CFI CFA_XSP16 add(XSP16, 22)
        ; Saved register size: 22
        ; Auto size: 6
        MOV     A,#-0x6
        LCALL   ?ALLOC_XSTACK8
          CFI CFA_XSP16 add(XSP16, 28)
        MOV     ?V13,R1
        MOV     ?V12,R2
        MOV     A,R3
        MOV     R7,A
        MOV     A,R4
        MOV     R6,A
//  420 	uint8 ch2[6];
//  421 	uint8 ii;
//  422 
//  423 	for(ii = 1 ; ii <= le ;){
        MOV     R2,#0x1
        MOV     A,#0x1c
        LCALL   ?XSTACK_DISP0_8
        MOV     R0,#?V0
        LCALL   ?L_MOV_X
        SJMP    ??Printn8_0
//  424 		ch2[le - ii] = no % 10 + 0x30;
??Printn8_1:
        MOV     ?V4,?V0
        MOV     ?V5,?V1
        MOV     ?V6,?V2
        MOV     ?V7,?V3
        MOV     DPTR,#__Constant_a
        MOV     R0,#?V8
        LCALL   ?L_MOV_X
        MOV     R0,#?V4
        MOV     R1,#?V8
        LCALL   ?UL_DIV_MOD
        MOV     A,?V8
        ADD     A,#0x30
        PUSH    A
          CFI CFA_SP SP+-1
        LCALL   ??Subroutine22_0 & 0xFFFF
??CrossCallReturnLabel_28:
        POP     A
          CFI CFA_SP SP+0
        MOVX    @DPTR,A
//  425 		no /= 10;
        MOV     DPTR,#__Constant_a
        MOV     R0,#?V4
        LCALL   ?L_MOV_X
        MOV     R0,#?V0
        MOV     R1,#?V4
        LCALL   ?UL_DIV_MOD
//  426 		ii += 1;
        INC     R2
//  427 	}
??Printn8_0:
        MOV     A,R6
        CLR     C
        SUBB    A,R2
        JNC     ??Printn8_1
//  428 	ch2[le] = '\0';
        MOV     DPL,?XSP + 0
        MOV     DPH,?XSP + 1
          CFI EndBlock cfiBlock18
        REQUIRE ?Subroutine3
        ; // Fall through to label ?Subroutine3
//  429 	Print8(xx ,yy ,ch2 ,yn);
//  430 }

        RSEG BANKED_CODE:CODE:NOROOT(0)
?Subroutine3:
          CFI Block cfiBlock19 Using cfiCommon0
          CFI NoFunction
          CFI CFA_SP SP+0
          CFI CFA_XSP16 add(XSP16, 28)
          CFI VB load(1, XDATA, add(CFA_XSP16, literal(-21)))
          CFI DPL0 load(1, XDATA, add(CFA_XSP16, literal(-2)))
          CFI DPH0 load(1, XDATA, add(CFA_XSP16, literal(-1)))
          CFI R6 load(1, XDATA, add(CFA_XSP16, literal(-22)))
          CFI R7 load(1, XDATA, add(CFA_XSP16, literal(-6)))
          CFI V0 load(1, XDATA, add(CFA_XSP16, literal(-20)))
          CFI V1 load(1, XDATA, add(CFA_XSP16, literal(-19)))
          CFI V2 load(1, XDATA, add(CFA_XSP16, literal(-18)))
          CFI V3 load(1, XDATA, add(CFA_XSP16, literal(-17)))
          CFI V4 load(1, XDATA, add(CFA_XSP16, literal(-16)))
          CFI V5 load(1, XDATA, add(CFA_XSP16, literal(-15)))
          CFI V6 load(1, XDATA, add(CFA_XSP16, literal(-14)))
          CFI V7 load(1, XDATA, add(CFA_XSP16, literal(-13)))
          CFI V8 load(1, XDATA, add(CFA_XSP16, literal(-12)))
          CFI V9 load(1, XDATA, add(CFA_XSP16, literal(-11)))
          CFI V10 load(1, XDATA, add(CFA_XSP16, literal(-10)))
          CFI V11 load(1, XDATA, add(CFA_XSP16, literal(-9)))
          CFI V12 load(1, XDATA, add(CFA_XSP16, literal(-8)))
          CFI V13 load(1, XDATA, add(CFA_XSP16, literal(-7)))
          CFI ?BRET_EXT load(1, XDATA, add(CFA_XSP16, literal(-3)))
          CFI ?RET_HIGH load(1, XDATA, add(CFA_XSP16, literal(-4)))
          CFI ?RET_LOW load(1, XDATA, add(CFA_XSP16, literal(-5)))
        MOV     A,DPL
        ADD     A,R4
        LCALL   ??Subroutine23_0 & 0xFFFF
??CrossCallReturnLabel_36:
        ; Setup parameters for call to function Print8
        ; Setup parameters for call to function Print8
        MOV     ?V0,R7
        MOV     ?V1,A
        MOV     R0,#?V0
        LCALL   ?PUSH_XSTACK_I_TWO
          CFI CFA_XSP16 add(XSP16, 30)
        MOV     A,#0x2
        LCALL   ?XSTACK_DISP100_8
        MOV     ?V0,R0
        MOV     ?V1,R1
        MOV     R0,#?V0
        LCALL   ?PUSH_XSTACK_I_TWO
          CFI CFA_XSP16 add(XSP16, 32)
        MOV     R4,?V12
        MOV     R5,#0x0
        MOV     R2,?V13
        MOV     R3,#0x0
        LCALL   `??Print8::?relay`   ; Banked call to: Print8
        MOV     A,#0x4
        LCALL   ?DEALLOC_XSTACK8
          CFI CFA_XSP16 add(XSP16, 28)
        MOV     A,#0x6
        LCALL   ?DEALLOC_XSTACK8
          CFI CFA_XSP16 add(XSP16, 22)
        MOV     R7,#0xe
        LJMP    ?BANKED_LEAVE_XDATA
          CFI EndBlock cfiBlock19
//  431 
//  432 //*******************************************************************************
//  433 //???:void PrintS8(uint8 xx ,uint8 yy , uint32 no,uint8 yn,uint8 le)
//  434 //??:??8*8???????
//  435 //??:xx , yy??????,no????? yn=0???? yn=1????  le???
//  436 //??:?
//  437 //*******************************************************************************

        RSEG BANKED_CODE:CODE:NOROOT(0)
//  438 void PrintS8(uint8 xx ,uint8 yy , uint32 no,uint8 yn,uint8 le)
PrintS8:
          CFI Block cfiBlock20 Using cfiCommon0
          CFI Function PrintS8
        CODE
//  439 {
        FUNCALL PrintS8, Print8
        LOCFRAME ISTACK, 0, STACK
        LOCFRAME PSTACK, 0, STACK
        LOCFRAME XSTACK, 32, STACK
        LOCFRAME IOVERLAY, 0, STATIC
        LOCFRAME DOVERLAY, 0, STATIC
        ARGFRAME ISTACK, 0, STACK
        ARGFRAME PSTACK, 0, STACK
        ARGFRAME XSTACK, 32, STACK
        ARGFRAME IOVERLAY, 0, STATIC
        ARGFRAME DOVERLAY, 0, STATIC
        FUNCALL PrintS8, Print8
        LOCFRAME ISTACK, 0, STACK
        LOCFRAME PSTACK, 0, STACK
        LOCFRAME XSTACK, 32, STACK
        LOCFRAME IOVERLAY, 0, STATIC
        LOCFRAME DOVERLAY, 0, STATIC
        ARGFRAME ISTACK, 0, STACK
        ARGFRAME PSTACK, 0, STACK
        ARGFRAME XSTACK, 32, STACK
        ARGFRAME IOVERLAY, 0, STATIC
        ARGFRAME DOVERLAY, 0, STATIC
        REQUIRE ?V0
        REQUIRE ?V1
        REQUIRE ?V2
        REQUIRE ?V3
        REQUIRE ?V4
        REQUIRE ?V5
        REQUIRE ?V6
        REQUIRE ?V7
        REQUIRE ?V8
        REQUIRE ?V9
        REQUIRE ?V10
        REQUIRE ?V11
        REQUIRE ?V12
        REQUIRE ?V13
        MOV     A,#-0x16
        LCALL   ?BANKED_ENTER_XDATA
          CFI DPH0 load(1, XDATA, add(CFA_XSP16, literal(-1)))
          CFI DPL0 load(1, XDATA, add(CFA_XSP16, literal(-2)))
          CFI ?BRET_EXT load(1, XDATA, add(CFA_XSP16, literal(-3)))
          CFI ?RET_HIGH load(1, XDATA, add(CFA_XSP16, literal(-4)))
          CFI ?RET_LOW load(1, XDATA, add(CFA_XSP16, literal(-5)))
          CFI R7 load(1, XDATA, add(CFA_XSP16, literal(-6)))
          CFI V13 load(1, XDATA, add(CFA_XSP16, literal(-7)))
          CFI V12 load(1, XDATA, add(CFA_XSP16, literal(-8)))
          CFI V11 load(1, XDATA, add(CFA_XSP16, literal(-9)))
          CFI V10 load(1, XDATA, add(CFA_XSP16, literal(-10)))
          CFI V9 load(1, XDATA, add(CFA_XSP16, literal(-11)))
          CFI V8 load(1, XDATA, add(CFA_XSP16, literal(-12)))
          CFI V7 load(1, XDATA, add(CFA_XSP16, literal(-13)))
          CFI V6 load(1, XDATA, add(CFA_XSP16, literal(-14)))
          CFI V5 load(1, XDATA, add(CFA_XSP16, literal(-15)))
          CFI V4 load(1, XDATA, add(CFA_XSP16, literal(-16)))
          CFI V3 load(1, XDATA, add(CFA_XSP16, literal(-17)))
          CFI V2 load(1, XDATA, add(CFA_XSP16, literal(-18)))
          CFI V1 load(1, XDATA, add(CFA_XSP16, literal(-19)))
          CFI V0 load(1, XDATA, add(CFA_XSP16, literal(-20)))
          CFI VB load(1, XDATA, add(CFA_XSP16, literal(-21)))
          CFI R6 load(1, XDATA, add(CFA_XSP16, literal(-22)))
          CFI CFA_SP SP+0
          CFI CFA_XSP16 add(XSP16, 22)
        ; Saved register size: 22
        ; Auto size: 6
        MOV     A,#-0x6
        LCALL   ?ALLOC_XSTACK8
          CFI CFA_XSP16 add(XSP16, 28)
        MOV     ?V13,R1
        MOV     ?V12,R2
        MOV     A,R3
        MOV     R7,A
        MOV     A,R4
        MOV     R6,A
        MOV     A,#0x1c
        LCALL   ?XSTACK_DISP0_8
        MOV     R0,#?V4
        LCALL   ?L_MOV_X
//  440 	uint8 ch2[6];
//  441 	uint8 ii;
//  442 
//  443         if (no < 127)
        MOV     DPTR,#__Constant_7f
        MOV     R0,#?V4
        LCALL   ?UL_GE_X
        JC      ??PrintS8_0
//  444         {
//  445           for(ii = 1 ; ii <= le ;){
        MOV     R2,#0x1
        SJMP    ??PrintS8_1
//  446                   ch2[le - ii] = no % 10 + 0x30;
??PrintS8_2:
        MOV     ?V0,?V4
        MOV     ?V1,?V5
        MOV     ?V2,?V6
        MOV     ?V3,?V7
        MOV     DPTR,#__Constant_a
        MOV     R0,#?V8
        LCALL   ?L_MOV_X
        MOV     R0,#?V0
        MOV     R1,#?V8
        LCALL   ?UL_DIV_MOD
        MOV     A,?V8
        ADD     A,#0x30
        PUSH    A
          CFI CFA_SP SP+-1
        LCALL   ??Subroutine22_0 & 0xFFFF
??CrossCallReturnLabel_29:
        POP     A
          CFI CFA_SP SP+0
        LCALL   ?Subroutine17 & 0xFFFF
//  447                   no /= 10;
??CrossCallReturnLabel_22:
        LCALL   ?L_MOV_X
        MOV     R0,#?V4
        MOV     R1,#?V0
        LCALL   ?UL_DIV_MOD
//  448                   ii += 1;
        INC     R2
//  449           }
??PrintS8_1:
        MOV     A,R6
        CLR     C
        SUBB    A,R2
        JNC     ??PrintS8_2
//  450           ch2[le] = '\0';
        MOV     DPL,?XSP + 0
        MOV     DPH,?XSP + 1
        SJMP    ??PrintS8_3
//  451           Print8(xx ,yy ,ch2 ,yn);
//  452         }
//  453         else
//  454         {
//  455           no = 256 - no;
??PrintS8_0:
        MOV     ?V0,#0x0
        MOV     ?V1,#0x1
        MOV     ?V2,#0x0
        MOV     ?V3,#0x0
        MOV     R0,#?V0
        MOV     R1,#?V4
        LCALL   ?L_SUB
        MOV     ?V4,?V0
        MOV     ?V5,?V1
        MOV     ?V6,?V2
        MOV     ?V7,?V3
//  456           for(ii = 1 ; ii <= le ;){
        MOV     R2,#0x1
        SJMP    ??PrintS8_4
//  457                   ch2[le - ii] = no % 10 + 0x30;
??PrintS8_5:
        MOV     ?V0,?V4
        MOV     ?V1,?V5
        MOV     ?V2,?V6
        MOV     ?V3,?V7
        MOV     DPTR,#__Constant_a
        MOV     R0,#?V8
        LCALL   ?L_MOV_X
        MOV     R0,#?V0
        MOV     R1,#?V8
        LCALL   ?UL_DIV_MOD
        MOV     A,?V8
        ADD     A,#0x30
        PUSH    A
          CFI CFA_SP SP+-1
        LCALL   ??Subroutine22_0 & 0xFFFF
??CrossCallReturnLabel_30:
        POP     A
          CFI CFA_SP SP+0
        LCALL   ?Subroutine17 & 0xFFFF
//  458                   no /= 10;
??CrossCallReturnLabel_23:
        LCALL   ?L_MOV_X
        MOV     R0,#?V4
        MOV     R1,#?V0
        LCALL   ?UL_DIV_MOD
//  459                   ii += 1;
        INC     R2
//  460           }
??PrintS8_4:
        MOV     A,R6
        CLR     C
        SUBB    A,R2
        JNC     ??PrintS8_5
//  461           ch2[0] = '-';
        MOV     DPL,?XSP + 0
        MOV     DPH,?XSP + 1
        MOV     A,#0x2d
        MOVX    @DPTR,A
//  462           ch2[le] = '\0';
//  463           Print8(xx ,yy ,ch2 ,yn);
//  464         } 
??PrintS8_3:
        LJMP    ?Subroutine3 & 0xFFFF
//  465 }
          CFI EndBlock cfiBlock20
//  466 
//  467 //*******************************************************************************
//  468 //???:void PrintS8(uint8 xx ,uint8 yy , uint32 no,uint8 yn,uint8 le)
//  469 //??:??8*8???????
//  470 //??:xx , yy??????,no????? yn=0???? yn=1????  le???
//  471 //??:?
//  472 //*******************************************************************************
//  473 
//  474 

        RSEG BANKED_CODE:CODE:NOROOT(0)
?Subroutine9:
          CFI Block cfiCond21 Using cfiCommon0
          CFI Function PrintS16
          CFI Conditional ??CrossCallReturnLabel_31
          CFI R6 load(1, XDATA, add(CFA_XSP16, literal(-23)))
          CFI VB load(1, XDATA, add(CFA_XSP16, literal(-22)))
          CFI V0 load(1, XDATA, add(CFA_XSP16, literal(-21)))
          CFI V1 load(1, XDATA, add(CFA_XSP16, literal(-20)))
          CFI V2 load(1, XDATA, add(CFA_XSP16, literal(-19)))
          CFI V3 load(1, XDATA, add(CFA_XSP16, literal(-18)))
          CFI V4 load(1, XDATA, add(CFA_XSP16, literal(-17)))
          CFI V5 load(1, XDATA, add(CFA_XSP16, literal(-16)))
          CFI V6 load(1, XDATA, add(CFA_XSP16, literal(-15)))
          CFI V7 load(1, XDATA, add(CFA_XSP16, literal(-14)))
          CFI V8 load(1, XDATA, add(CFA_XSP16, literal(-13)))
          CFI V9 load(1, XDATA, add(CFA_XSP16, literal(-12)))
          CFI V10 load(1, XDATA, add(CFA_XSP16, literal(-11)))
          CFI V11 load(1, XDATA, add(CFA_XSP16, literal(-10)))
          CFI V12 load(1, XDATA, add(CFA_XSP16, literal(-9)))
          CFI V13 load(1, XDATA, add(CFA_XSP16, literal(-8)))
          CFI V14 load(1, XDATA, add(CFA_XSP16, literal(-7)))
          CFI R7 load(1, XDATA, add(CFA_XSP16, literal(-6)))
          CFI ?RET_LOW load(1, XDATA, add(CFA_XSP16, literal(-5)))
          CFI ?RET_HIGH load(1, XDATA, add(CFA_XSP16, literal(-4)))
          CFI ?BRET_EXT load(1, XDATA, add(CFA_XSP16, literal(-3)))
          CFI DPL0 load(1, XDATA, add(CFA_XSP16, literal(-2)))
          CFI DPH0 load(1, XDATA, add(CFA_XSP16, literal(-1)))
          CFI CFA_XSP16 add(XSP16, 32)
          CFI Block cfiCond22 Using cfiCommon0
          CFI (cfiCond22) Function PrintS16
          CFI (cfiCond22) Conditional ??CrossCallReturnLabel_32
          CFI (cfiCond22) R6 load(1, XDATA, add(CFA_XSP16, literal(-23)))
          CFI (cfiCond22) VB load(1, XDATA, add(CFA_XSP16, literal(-22)))
          CFI (cfiCond22) V0 load(1, XDATA, add(CFA_XSP16, literal(-21)))
          CFI (cfiCond22) V1 load(1, XDATA, add(CFA_XSP16, literal(-20)))
          CFI (cfiCond22) V2 load(1, XDATA, add(CFA_XSP16, literal(-19)))
          CFI (cfiCond22) V3 load(1, XDATA, add(CFA_XSP16, literal(-18)))
          CFI (cfiCond22) V4 load(1, XDATA, add(CFA_XSP16, literal(-17)))
          CFI (cfiCond22) V5 load(1, XDATA, add(CFA_XSP16, literal(-16)))
          CFI (cfiCond22) V6 load(1, XDATA, add(CFA_XSP16, literal(-15)))
          CFI (cfiCond22) V7 load(1, XDATA, add(CFA_XSP16, literal(-14)))
          CFI (cfiCond22) V8 load(1, XDATA, add(CFA_XSP16, literal(-13)))
          CFI (cfiCond22) V9 load(1, XDATA, add(CFA_XSP16, literal(-12)))
          CFI (cfiCond22) V10 load(1, XDATA, add(CFA_XSP16, literal(-11)))
          CFI (cfiCond22) V11 load(1, XDATA, add(CFA_XSP16, literal(-10)))
          CFI (cfiCond22) V12 load(1, XDATA, add(CFA_XSP16, literal(-9)))
          CFI (cfiCond22) V13 load(1, XDATA, add(CFA_XSP16, literal(-8)))
          CFI (cfiCond22) V14 load(1, XDATA, add(CFA_XSP16, literal(-7)))
          CFI (cfiCond22) R7 load(1, XDATA, add(CFA_XSP16, literal(-6)))
          CFI (cfiCond22) ?RET_LOW load(1, XDATA, add(CFA_XSP16, literal(-5)))
          CFI (cfiCond22) ?RET_HIGH load(1, XDATA, add(CFA_XSP16, literal(-4)))
          CFI (cfiCond22) ?BRET_EXT load(1, XDATA, add(CFA_XSP16, literal(-3)))
          CFI (cfiCond22) DPL0 load(1, XDATA, add(CFA_XSP16, literal(-2)))
          CFI (cfiCond22) DPH0 load(1, XDATA, add(CFA_XSP16, literal(-1)))
          CFI (cfiCond22) CFA_XSP16 add(XSP16, 32)
          CFI Block cfiPicker23 Using cfiCommon1
          CFI (cfiPicker23) NoFunction
          CFI (cfiPicker23) Picker
        MOV     A,R6
        MOV     R4,A
          CFI EndBlock cfiCond21
          CFI EndBlock cfiCond22
          CFI EndBlock cfiPicker23
        REQUIRE ??Subroutine22_0
        ; // Fall through to label ??Subroutine22_0

        RSEG BANKED_CODE:CODE:NOROOT(0)
??Subroutine22_0:
          CFI Block cfiCond24 Using cfiCommon0
          CFI Function Printn8
          CFI Conditional ??CrossCallReturnLabel_28
          CFI R6 load(1, XDATA, add(CFA_XSP16, literal(-22)))
          CFI VB load(1, XDATA, add(CFA_XSP16, literal(-21)))
          CFI V0 load(1, XDATA, add(CFA_XSP16, literal(-20)))
          CFI V1 load(1, XDATA, add(CFA_XSP16, literal(-19)))
          CFI V2 load(1, XDATA, add(CFA_XSP16, literal(-18)))
          CFI V3 load(1, XDATA, add(CFA_XSP16, literal(-17)))
          CFI V4 load(1, XDATA, add(CFA_XSP16, literal(-16)))
          CFI V5 load(1, XDATA, add(CFA_XSP16, literal(-15)))
          CFI V6 load(1, XDATA, add(CFA_XSP16, literal(-14)))
          CFI V7 load(1, XDATA, add(CFA_XSP16, literal(-13)))
          CFI V8 load(1, XDATA, add(CFA_XSP16, literal(-12)))
          CFI V9 load(1, XDATA, add(CFA_XSP16, literal(-11)))
          CFI V10 load(1, XDATA, add(CFA_XSP16, literal(-10)))
          CFI V11 load(1, XDATA, add(CFA_XSP16, literal(-9)))
          CFI V12 load(1, XDATA, add(CFA_XSP16, literal(-8)))
          CFI V13 load(1, XDATA, add(CFA_XSP16, literal(-7)))
          CFI R7 load(1, XDATA, add(CFA_XSP16, literal(-6)))
          CFI ?RET_LOW load(1, XDATA, add(CFA_XSP16, literal(-5)))
          CFI ?RET_HIGH load(1, XDATA, add(CFA_XSP16, literal(-4)))
          CFI ?BRET_EXT load(1, XDATA, add(CFA_XSP16, literal(-3)))
          CFI DPL0 load(1, XDATA, add(CFA_XSP16, literal(-2)))
          CFI DPH0 load(1, XDATA, add(CFA_XSP16, literal(-1)))
          CFI CFA_XSP16 add(XSP16, 28)
          CFI Block cfiCond25 Using cfiCommon0
          CFI (cfiCond25) Function PrintS8
          CFI (cfiCond25) Conditional ??CrossCallReturnLabel_29
          CFI (cfiCond25) R6 load(1, XDATA, add(CFA_XSP16, literal(-22)))
          CFI (cfiCond25) VB load(1, XDATA, add(CFA_XSP16, literal(-21)))
          CFI (cfiCond25) V0 load(1, XDATA, add(CFA_XSP16, literal(-20)))
          CFI (cfiCond25) V1 load(1, XDATA, add(CFA_XSP16, literal(-19)))
          CFI (cfiCond25) V2 load(1, XDATA, add(CFA_XSP16, literal(-18)))
          CFI (cfiCond25) V3 load(1, XDATA, add(CFA_XSP16, literal(-17)))
          CFI (cfiCond25) V4 load(1, XDATA, add(CFA_XSP16, literal(-16)))
          CFI (cfiCond25) V5 load(1, XDATA, add(CFA_XSP16, literal(-15)))
          CFI (cfiCond25) V6 load(1, XDATA, add(CFA_XSP16, literal(-14)))
          CFI (cfiCond25) V7 load(1, XDATA, add(CFA_XSP16, literal(-13)))
          CFI (cfiCond25) V8 load(1, XDATA, add(CFA_XSP16, literal(-12)))
          CFI (cfiCond25) V9 load(1, XDATA, add(CFA_XSP16, literal(-11)))
          CFI (cfiCond25) V10 load(1, XDATA, add(CFA_XSP16, literal(-10)))
          CFI (cfiCond25) V11 load(1, XDATA, add(CFA_XSP16, literal(-9)))
          CFI (cfiCond25) V12 load(1, XDATA, add(CFA_XSP16, literal(-8)))
          CFI (cfiCond25) V13 load(1, XDATA, add(CFA_XSP16, literal(-7)))
          CFI (cfiCond25) R7 load(1, XDATA, add(CFA_XSP16, literal(-6)))
          CFI (cfiCond25) ?RET_LOW load(1, XDATA, add(CFA_XSP16, literal(-5)))
          CFI (cfiCond25) ?RET_HIGH load(1, XDATA, add(CFA_XSP16, literal(-4)))
          CFI (cfiCond25) ?BRET_EXT load(1, XDATA, add(CFA_XSP16, literal(-3)))
          CFI (cfiCond25) DPL0 load(1, XDATA, add(CFA_XSP16, literal(-2)))
          CFI (cfiCond25) DPH0 load(1, XDATA, add(CFA_XSP16, literal(-1)))
          CFI (cfiCond25) CFA_XSP16 add(XSP16, 28)
          CFI Block cfiCond26 Using cfiCommon0
          CFI (cfiCond26) Function PrintS8
          CFI (cfiCond26) Conditional ??CrossCallReturnLabel_30
          CFI (cfiCond26) R6 load(1, XDATA, add(CFA_XSP16, literal(-22)))
          CFI (cfiCond26) VB load(1, XDATA, add(CFA_XSP16, literal(-21)))
          CFI (cfiCond26) V0 load(1, XDATA, add(CFA_XSP16, literal(-20)))
          CFI (cfiCond26) V1 load(1, XDATA, add(CFA_XSP16, literal(-19)))
          CFI (cfiCond26) V2 load(1, XDATA, add(CFA_XSP16, literal(-18)))
          CFI (cfiCond26) V3 load(1, XDATA, add(CFA_XSP16, literal(-17)))
          CFI (cfiCond26) V4 load(1, XDATA, add(CFA_XSP16, literal(-16)))
          CFI (cfiCond26) V5 load(1, XDATA, add(CFA_XSP16, literal(-15)))
          CFI (cfiCond26) V6 load(1, XDATA, add(CFA_XSP16, literal(-14)))
          CFI (cfiCond26) V7 load(1, XDATA, add(CFA_XSP16, literal(-13)))
          CFI (cfiCond26) V8 load(1, XDATA, add(CFA_XSP16, literal(-12)))
          CFI (cfiCond26) V9 load(1, XDATA, add(CFA_XSP16, literal(-11)))
          CFI (cfiCond26) V10 load(1, XDATA, add(CFA_XSP16, literal(-10)))
          CFI (cfiCond26) V11 load(1, XDATA, add(CFA_XSP16, literal(-9)))
          CFI (cfiCond26) V12 load(1, XDATA, add(CFA_XSP16, literal(-8)))
          CFI (cfiCond26) V13 load(1, XDATA, add(CFA_XSP16, literal(-7)))
          CFI (cfiCond26) R7 load(1, XDATA, add(CFA_XSP16, literal(-6)))
          CFI (cfiCond26) ?RET_LOW load(1, XDATA, add(CFA_XSP16, literal(-5)))
          CFI (cfiCond26) ?RET_HIGH load(1, XDATA, add(CFA_XSP16, literal(-4)))
          CFI (cfiCond26) ?BRET_EXT load(1, XDATA, add(CFA_XSP16, literal(-3)))
          CFI (cfiCond26) DPL0 load(1, XDATA, add(CFA_XSP16, literal(-2)))
          CFI (cfiCond26) DPH0 load(1, XDATA, add(CFA_XSP16, literal(-1)))
          CFI (cfiCond26) CFA_XSP16 add(XSP16, 28)
          CFI Block cfiCond27 Using cfiCommon0
          CFI (cfiCond27) Function PrintS16
          CFI (cfiCond27) Conditional ??CrossCallReturnLabel_31
          CFI (cfiCond27) R6 load(1, XDATA, add(CFA_XSP16, literal(-23)))
          CFI (cfiCond27) VB load(1, XDATA, add(CFA_XSP16, literal(-22)))
          CFI (cfiCond27) V0 load(1, XDATA, add(CFA_XSP16, literal(-21)))
          CFI (cfiCond27) V1 load(1, XDATA, add(CFA_XSP16, literal(-20)))
          CFI (cfiCond27) V2 load(1, XDATA, add(CFA_XSP16, literal(-19)))
          CFI (cfiCond27) V3 load(1, XDATA, add(CFA_XSP16, literal(-18)))
          CFI (cfiCond27) V4 load(1, XDATA, add(CFA_XSP16, literal(-17)))
          CFI (cfiCond27) V5 load(1, XDATA, add(CFA_XSP16, literal(-16)))
          CFI (cfiCond27) V6 load(1, XDATA, add(CFA_XSP16, literal(-15)))
          CFI (cfiCond27) V7 load(1, XDATA, add(CFA_XSP16, literal(-14)))
          CFI (cfiCond27) V8 load(1, XDATA, add(CFA_XSP16, literal(-13)))
          CFI (cfiCond27) V9 load(1, XDATA, add(CFA_XSP16, literal(-12)))
          CFI (cfiCond27) V10 load(1, XDATA, add(CFA_XSP16, literal(-11)))
          CFI (cfiCond27) V11 load(1, XDATA, add(CFA_XSP16, literal(-10)))
          CFI (cfiCond27) V12 load(1, XDATA, add(CFA_XSP16, literal(-9)))
          CFI (cfiCond27) V13 load(1, XDATA, add(CFA_XSP16, literal(-8)))
          CFI (cfiCond27) V14 load(1, XDATA, add(CFA_XSP16, literal(-7)))
          CFI (cfiCond27) R7 load(1, XDATA, add(CFA_XSP16, literal(-6)))
          CFI (cfiCond27) ?RET_LOW load(1, XDATA, add(CFA_XSP16, literal(-5)))
          CFI (cfiCond27) ?RET_HIGH load(1, XDATA, add(CFA_XSP16, literal(-4)))
          CFI (cfiCond27) ?BRET_EXT load(1, XDATA, add(CFA_XSP16, literal(-3)))
          CFI (cfiCond27) DPL0 load(1, XDATA, add(CFA_XSP16, literal(-2)))
          CFI (cfiCond27) DPH0 load(1, XDATA, add(CFA_XSP16, literal(-1)))
          CFI (cfiCond27) CFA_XSP16 add(XSP16, 32)
          CFI Block cfiCond28 Using cfiCommon0
          CFI (cfiCond28) Function PrintS16
          CFI (cfiCond28) Conditional ??CrossCallReturnLabel_32
          CFI (cfiCond28) R6 load(1, XDATA, add(CFA_XSP16, literal(-23)))
          CFI (cfiCond28) VB load(1, XDATA, add(CFA_XSP16, literal(-22)))
          CFI (cfiCond28) V0 load(1, XDATA, add(CFA_XSP16, literal(-21)))
          CFI (cfiCond28) V1 load(1, XDATA, add(CFA_XSP16, literal(-20)))
          CFI (cfiCond28) V2 load(1, XDATA, add(CFA_XSP16, literal(-19)))
          CFI (cfiCond28) V3 load(1, XDATA, add(CFA_XSP16, literal(-18)))
          CFI (cfiCond28) V4 load(1, XDATA, add(CFA_XSP16, literal(-17)))
          CFI (cfiCond28) V5 load(1, XDATA, add(CFA_XSP16, literal(-16)))
          CFI (cfiCond28) V6 load(1, XDATA, add(CFA_XSP16, literal(-15)))
          CFI (cfiCond28) V7 load(1, XDATA, add(CFA_XSP16, literal(-14)))
          CFI (cfiCond28) V8 load(1, XDATA, add(CFA_XSP16, literal(-13)))
          CFI (cfiCond28) V9 load(1, XDATA, add(CFA_XSP16, literal(-12)))
          CFI (cfiCond28) V10 load(1, XDATA, add(CFA_XSP16, literal(-11)))
          CFI (cfiCond28) V11 load(1, XDATA, add(CFA_XSP16, literal(-10)))
          CFI (cfiCond28) V12 load(1, XDATA, add(CFA_XSP16, literal(-9)))
          CFI (cfiCond28) V13 load(1, XDATA, add(CFA_XSP16, literal(-8)))
          CFI (cfiCond28) V14 load(1, XDATA, add(CFA_XSP16, literal(-7)))
          CFI (cfiCond28) R7 load(1, XDATA, add(CFA_XSP16, literal(-6)))
          CFI (cfiCond28) ?RET_LOW load(1, XDATA, add(CFA_XSP16, literal(-5)))
          CFI (cfiCond28) ?RET_HIGH load(1, XDATA, add(CFA_XSP16, literal(-4)))
          CFI (cfiCond28) ?BRET_EXT load(1, XDATA, add(CFA_XSP16, literal(-3)))
          CFI (cfiCond28) DPL0 load(1, XDATA, add(CFA_XSP16, literal(-2)))
          CFI (cfiCond28) DPH0 load(1, XDATA, add(CFA_XSP16, literal(-1)))
          CFI (cfiCond28) CFA_XSP16 add(XSP16, 32)
          CFI Block cfiPicker29 Using cfiCommon1
          CFI (cfiPicker29) NoFunction
          CFI (cfiPicker29) Picker
        LCALL   ?Subroutine19 & 0xFFFF
??CrossCallReturnLabel_34:
        RET
          CFI EndBlock cfiCond24
          CFI EndBlock cfiCond25
          CFI EndBlock cfiCond26
          CFI EndBlock cfiCond27
          CFI EndBlock cfiCond28
          CFI EndBlock cfiPicker29

        RSEG BANKED_CODE:CODE:NOROOT(0)
?Subroutine19:
          CFI Block cfiCond30 Using cfiCommon0
          CFI Function PrintS16
          CFI Conditional ??CrossCallReturnLabel_34, ??CrossCallReturnLabel_31
          CFI R6 load(1, XDATA, add(CFA_XSP16, literal(-23)))
          CFI VB load(1, XDATA, add(CFA_XSP16, literal(-22)))
          CFI V0 load(1, XDATA, add(CFA_XSP16, literal(-21)))
          CFI V1 load(1, XDATA, add(CFA_XSP16, literal(-20)))
          CFI V2 load(1, XDATA, add(CFA_XSP16, literal(-19)))
          CFI V3 load(1, XDATA, add(CFA_XSP16, literal(-18)))
          CFI V4 load(1, XDATA, add(CFA_XSP16, literal(-17)))
          CFI V5 load(1, XDATA, add(CFA_XSP16, literal(-16)))
          CFI V6 load(1, XDATA, add(CFA_XSP16, literal(-15)))
          CFI V7 load(1, XDATA, add(CFA_XSP16, literal(-14)))
          CFI V8 load(1, XDATA, add(CFA_XSP16, literal(-13)))
          CFI V9 load(1, XDATA, add(CFA_XSP16, literal(-12)))
          CFI V10 load(1, XDATA, add(CFA_XSP16, literal(-11)))
          CFI V11 load(1, XDATA, add(CFA_XSP16, literal(-10)))
          CFI V12 load(1, XDATA, add(CFA_XSP16, literal(-9)))
          CFI V13 load(1, XDATA, add(CFA_XSP16, literal(-8)))
          CFI V14 load(1, XDATA, add(CFA_XSP16, literal(-7)))
          CFI R7 load(1, XDATA, add(CFA_XSP16, literal(-6)))
          CFI ?RET_LOW load(1, XDATA, add(CFA_XSP16, literal(-5)))
          CFI ?RET_HIGH load(1, XDATA, add(CFA_XSP16, literal(-4)))
          CFI ?BRET_EXT load(1, XDATA, add(CFA_XSP16, literal(-3)))
          CFI DPL0 load(1, XDATA, add(CFA_XSP16, literal(-2)))
          CFI DPH0 load(1, XDATA, add(CFA_XSP16, literal(-1)))
          CFI CFA_SP SP+-5
          CFI CFA_XSP16 add(XSP16, 32)
          CFI Block cfiCond31 Using cfiCommon0
          CFI (cfiCond31) Function PrintS16
          CFI (cfiCond31) Conditional ??CrossCallReturnLabel_34, ??CrossCallReturnLabel_32
          CFI (cfiCond31) R6 load(1, XDATA, add(CFA_XSP16, literal(-23)))
          CFI (cfiCond31) VB load(1, XDATA, add(CFA_XSP16, literal(-22)))
          CFI (cfiCond31) V0 load(1, XDATA, add(CFA_XSP16, literal(-21)))
          CFI (cfiCond31) V1 load(1, XDATA, add(CFA_XSP16, literal(-20)))
          CFI (cfiCond31) V2 load(1, XDATA, add(CFA_XSP16, literal(-19)))
          CFI (cfiCond31) V3 load(1, XDATA, add(CFA_XSP16, literal(-18)))
          CFI (cfiCond31) V4 load(1, XDATA, add(CFA_XSP16, literal(-17)))
          CFI (cfiCond31) V5 load(1, XDATA, add(CFA_XSP16, literal(-16)))
          CFI (cfiCond31) V6 load(1, XDATA, add(CFA_XSP16, literal(-15)))
          CFI (cfiCond31) V7 load(1, XDATA, add(CFA_XSP16, literal(-14)))
          CFI (cfiCond31) V8 load(1, XDATA, add(CFA_XSP16, literal(-13)))
          CFI (cfiCond31) V9 load(1, XDATA, add(CFA_XSP16, literal(-12)))
          CFI (cfiCond31) V10 load(1, XDATA, add(CFA_XSP16, literal(-11)))
          CFI (cfiCond31) V11 load(1, XDATA, add(CFA_XSP16, literal(-10)))
          CFI (cfiCond31) V12 load(1, XDATA, add(CFA_XSP16, literal(-9)))
          CFI (cfiCond31) V13 load(1, XDATA, add(CFA_XSP16, literal(-8)))
          CFI (cfiCond31) V14 load(1, XDATA, add(CFA_XSP16, literal(-7)))
          CFI (cfiCond31) R7 load(1, XDATA, add(CFA_XSP16, literal(-6)))
          CFI (cfiCond31) ?RET_LOW load(1, XDATA, add(CFA_XSP16, literal(-5)))
          CFI (cfiCond31) ?RET_HIGH load(1, XDATA, add(CFA_XSP16, literal(-4)))
          CFI (cfiCond31) ?BRET_EXT load(1, XDATA, add(CFA_XSP16, literal(-3)))
          CFI (cfiCond31) DPL0 load(1, XDATA, add(CFA_XSP16, literal(-2)))
          CFI (cfiCond31) DPH0 load(1, XDATA, add(CFA_XSP16, literal(-1)))
          CFI (cfiCond31) CFA_SP SP+-5
          CFI (cfiCond31) CFA_XSP16 add(XSP16, 32)
          CFI Block cfiCond32 Using cfiCommon0
          CFI (cfiCond32) Function Printn8
          CFI (cfiCond32) Conditional ??CrossCallReturnLabel_34, ??CrossCallReturnLabel_28
          CFI (cfiCond32) R6 load(1, XDATA, add(CFA_XSP16, literal(-22)))
          CFI (cfiCond32) VB load(1, XDATA, add(CFA_XSP16, literal(-21)))
          CFI (cfiCond32) V0 load(1, XDATA, add(CFA_XSP16, literal(-20)))
          CFI (cfiCond32) V1 load(1, XDATA, add(CFA_XSP16, literal(-19)))
          CFI (cfiCond32) V2 load(1, XDATA, add(CFA_XSP16, literal(-18)))
          CFI (cfiCond32) V3 load(1, XDATA, add(CFA_XSP16, literal(-17)))
          CFI (cfiCond32) V4 load(1, XDATA, add(CFA_XSP16, literal(-16)))
          CFI (cfiCond32) V5 load(1, XDATA, add(CFA_XSP16, literal(-15)))
          CFI (cfiCond32) V6 load(1, XDATA, add(CFA_XSP16, literal(-14)))
          CFI (cfiCond32) V7 load(1, XDATA, add(CFA_XSP16, literal(-13)))
          CFI (cfiCond32) V8 load(1, XDATA, add(CFA_XSP16, literal(-12)))
          CFI (cfiCond32) V9 load(1, XDATA, add(CFA_XSP16, literal(-11)))
          CFI (cfiCond32) V10 load(1, XDATA, add(CFA_XSP16, literal(-10)))
          CFI (cfiCond32) V11 load(1, XDATA, add(CFA_XSP16, literal(-9)))
          CFI (cfiCond32) V12 load(1, XDATA, add(CFA_XSP16, literal(-8)))
          CFI (cfiCond32) V13 load(1, XDATA, add(CFA_XSP16, literal(-7)))
          CFI (cfiCond32) R7 load(1, XDATA, add(CFA_XSP16, literal(-6)))
          CFI (cfiCond32) ?RET_LOW load(1, XDATA, add(CFA_XSP16, literal(-5)))
          CFI (cfiCond32) ?RET_HIGH load(1, XDATA, add(CFA_XSP16, literal(-4)))
          CFI (cfiCond32) ?BRET_EXT load(1, XDATA, add(CFA_XSP16, literal(-3)))
          CFI (cfiCond32) DPL0 load(1, XDATA, add(CFA_XSP16, literal(-2)))
          CFI (cfiCond32) DPH0 load(1, XDATA, add(CFA_XSP16, literal(-1)))
          CFI (cfiCond32) CFA_SP SP+-5
          CFI (cfiCond32) CFA_XSP16 add(XSP16, 28)
          CFI Block cfiCond33 Using cfiCommon0
          CFI (cfiCond33) Function PrintS8
          CFI (cfiCond33) Conditional ??CrossCallReturnLabel_34, ??CrossCallReturnLabel_29
          CFI (cfiCond33) R6 load(1, XDATA, add(CFA_XSP16, literal(-22)))
          CFI (cfiCond33) VB load(1, XDATA, add(CFA_XSP16, literal(-21)))
          CFI (cfiCond33) V0 load(1, XDATA, add(CFA_XSP16, literal(-20)))
          CFI (cfiCond33) V1 load(1, XDATA, add(CFA_XSP16, literal(-19)))
          CFI (cfiCond33) V2 load(1, XDATA, add(CFA_XSP16, literal(-18)))
          CFI (cfiCond33) V3 load(1, XDATA, add(CFA_XSP16, literal(-17)))
          CFI (cfiCond33) V4 load(1, XDATA, add(CFA_XSP16, literal(-16)))
          CFI (cfiCond33) V5 load(1, XDATA, add(CFA_XSP16, literal(-15)))
          CFI (cfiCond33) V6 load(1, XDATA, add(CFA_XSP16, literal(-14)))
          CFI (cfiCond33) V7 load(1, XDATA, add(CFA_XSP16, literal(-13)))
          CFI (cfiCond33) V8 load(1, XDATA, add(CFA_XSP16, literal(-12)))
          CFI (cfiCond33) V9 load(1, XDATA, add(CFA_XSP16, literal(-11)))
          CFI (cfiCond33) V10 load(1, XDATA, add(CFA_XSP16, literal(-10)))
          CFI (cfiCond33) V11 load(1, XDATA, add(CFA_XSP16, literal(-9)))
          CFI (cfiCond33) V12 load(1, XDATA, add(CFA_XSP16, literal(-8)))
          CFI (cfiCond33) V13 load(1, XDATA, add(CFA_XSP16, literal(-7)))
          CFI (cfiCond33) R7 load(1, XDATA, add(CFA_XSP16, literal(-6)))
          CFI (cfiCond33) ?RET_LOW load(1, XDATA, add(CFA_XSP16, literal(-5)))
          CFI (cfiCond33) ?RET_HIGH load(1, XDATA, add(CFA_XSP16, literal(-4)))
          CFI (cfiCond33) ?BRET_EXT load(1, XDATA, add(CFA_XSP16, literal(-3)))
          CFI (cfiCond33) DPL0 load(1, XDATA, add(CFA_XSP16, literal(-2)))
          CFI (cfiCond33) DPH0 load(1, XDATA, add(CFA_XSP16, literal(-1)))
          CFI (cfiCond33) CFA_SP SP+-5
          CFI (cfiCond33) CFA_XSP16 add(XSP16, 28)
          CFI Block cfiCond34 Using cfiCommon0
          CFI (cfiCond34) Function PrintS8
          CFI (cfiCond34) Conditional ??CrossCallReturnLabel_34, ??CrossCallReturnLabel_30
          CFI (cfiCond34) R6 load(1, XDATA, add(CFA_XSP16, literal(-22)))
          CFI (cfiCond34) VB load(1, XDATA, add(CFA_XSP16, literal(-21)))
          CFI (cfiCond34) V0 load(1, XDATA, add(CFA_XSP16, literal(-20)))
          CFI (cfiCond34) V1 load(1, XDATA, add(CFA_XSP16, literal(-19)))
          CFI (cfiCond34) V2 load(1, XDATA, add(CFA_XSP16, literal(-18)))
          CFI (cfiCond34) V3 load(1, XDATA, add(CFA_XSP16, literal(-17)))
          CFI (cfiCond34) V4 load(1, XDATA, add(CFA_XSP16, literal(-16)))
          CFI (cfiCond34) V5 load(1, XDATA, add(CFA_XSP16, literal(-15)))
          CFI (cfiCond34) V6 load(1, XDATA, add(CFA_XSP16, literal(-14)))
          CFI (cfiCond34) V7 load(1, XDATA, add(CFA_XSP16, literal(-13)))
          CFI (cfiCond34) V8 load(1, XDATA, add(CFA_XSP16, literal(-12)))
          CFI (cfiCond34) V9 load(1, XDATA, add(CFA_XSP16, literal(-11)))
          CFI (cfiCond34) V10 load(1, XDATA, add(CFA_XSP16, literal(-10)))
          CFI (cfiCond34) V11 load(1, XDATA, add(CFA_XSP16, literal(-9)))
          CFI (cfiCond34) V12 load(1, XDATA, add(CFA_XSP16, literal(-8)))
          CFI (cfiCond34) V13 load(1, XDATA, add(CFA_XSP16, literal(-7)))
          CFI (cfiCond34) R7 load(1, XDATA, add(CFA_XSP16, literal(-6)))
          CFI (cfiCond34) ?RET_LOW load(1, XDATA, add(CFA_XSP16, literal(-5)))
          CFI (cfiCond34) ?RET_HIGH load(1, XDATA, add(CFA_XSP16, literal(-4)))
          CFI (cfiCond34) ?BRET_EXT load(1, XDATA, add(CFA_XSP16, literal(-3)))
          CFI (cfiCond34) DPL0 load(1, XDATA, add(CFA_XSP16, literal(-2)))
          CFI (cfiCond34) DPH0 load(1, XDATA, add(CFA_XSP16, literal(-1)))
          CFI (cfiCond34) CFA_SP SP+-5
          CFI (cfiCond34) CFA_XSP16 add(XSP16, 28)
          CFI Block cfiCond35 Using cfiCommon0
          CFI (cfiCond35) Function PrintS16
          CFI (cfiCond35) Conditional ??CrossCallReturnLabel_33, ??CrossCallReturnLabel_0
          CFI (cfiCond35) R6 load(1, XDATA, add(CFA_XSP16, literal(-23)))
          CFI (cfiCond35) VB load(1, XDATA, add(CFA_XSP16, literal(-22)))
          CFI (cfiCond35) V0 load(1, XDATA, add(CFA_XSP16, literal(-21)))
          CFI (cfiCond35) V1 load(1, XDATA, add(CFA_XSP16, literal(-20)))
          CFI (cfiCond35) V2 load(1, XDATA, add(CFA_XSP16, literal(-19)))
          CFI (cfiCond35) V3 load(1, XDATA, add(CFA_XSP16, literal(-18)))
          CFI (cfiCond35) V4 load(1, XDATA, add(CFA_XSP16, literal(-17)))
          CFI (cfiCond35) V5 load(1, XDATA, add(CFA_XSP16, literal(-16)))
          CFI (cfiCond35) V6 load(1, XDATA, add(CFA_XSP16, literal(-15)))
          CFI (cfiCond35) V7 load(1, XDATA, add(CFA_XSP16, literal(-14)))
          CFI (cfiCond35) V8 load(1, XDATA, add(CFA_XSP16, literal(-13)))
          CFI (cfiCond35) V9 load(1, XDATA, add(CFA_XSP16, literal(-12)))
          CFI (cfiCond35) V10 load(1, XDATA, add(CFA_XSP16, literal(-11)))
          CFI (cfiCond35) V11 load(1, XDATA, add(CFA_XSP16, literal(-10)))
          CFI (cfiCond35) V12 load(1, XDATA, add(CFA_XSP16, literal(-9)))
          CFI (cfiCond35) V13 load(1, XDATA, add(CFA_XSP16, literal(-8)))
          CFI (cfiCond35) V14 load(1, XDATA, add(CFA_XSP16, literal(-7)))
          CFI (cfiCond35) R7 load(1, XDATA, add(CFA_XSP16, literal(-6)))
          CFI (cfiCond35) ?RET_LOW load(1, XDATA, add(CFA_XSP16, literal(-5)))
          CFI (cfiCond35) ?RET_HIGH load(1, XDATA, add(CFA_XSP16, literal(-4)))
          CFI (cfiCond35) ?BRET_EXT load(1, XDATA, add(CFA_XSP16, literal(-3)))
          CFI (cfiCond35) DPL0 load(1, XDATA, add(CFA_XSP16, literal(-2)))
          CFI (cfiCond35) DPH0 load(1, XDATA, add(CFA_XSP16, literal(-1)))
          CFI (cfiCond35) CFA_SP SP+-4
          CFI (cfiCond35) CFA_XSP16 add(XSP16, 32)
          CFI Block cfiCond36 Using cfiCommon0
          CFI (cfiCond36) Function PrintS16
          CFI (cfiCond36) Conditional ??CrossCallReturnLabel_33, ??CrossCallReturnLabel_1
          CFI (cfiCond36) R6 load(1, XDATA, add(CFA_XSP16, literal(-23)))
          CFI (cfiCond36) VB load(1, XDATA, add(CFA_XSP16, literal(-22)))
          CFI (cfiCond36) V0 load(1, XDATA, add(CFA_XSP16, literal(-21)))
          CFI (cfiCond36) V1 load(1, XDATA, add(CFA_XSP16, literal(-20)))
          CFI (cfiCond36) V2 load(1, XDATA, add(CFA_XSP16, literal(-19)))
          CFI (cfiCond36) V3 load(1, XDATA, add(CFA_XSP16, literal(-18)))
          CFI (cfiCond36) V4 load(1, XDATA, add(CFA_XSP16, literal(-17)))
          CFI (cfiCond36) V5 load(1, XDATA, add(CFA_XSP16, literal(-16)))
          CFI (cfiCond36) V6 load(1, XDATA, add(CFA_XSP16, literal(-15)))
          CFI (cfiCond36) V7 load(1, XDATA, add(CFA_XSP16, literal(-14)))
          CFI (cfiCond36) V8 load(1, XDATA, add(CFA_XSP16, literal(-13)))
          CFI (cfiCond36) V9 load(1, XDATA, add(CFA_XSP16, literal(-12)))
          CFI (cfiCond36) V10 load(1, XDATA, add(CFA_XSP16, literal(-11)))
          CFI (cfiCond36) V11 load(1, XDATA, add(CFA_XSP16, literal(-10)))
          CFI (cfiCond36) V12 load(1, XDATA, add(CFA_XSP16, literal(-9)))
          CFI (cfiCond36) V13 load(1, XDATA, add(CFA_XSP16, literal(-8)))
          CFI (cfiCond36) V14 load(1, XDATA, add(CFA_XSP16, literal(-7)))
          CFI (cfiCond36) R7 load(1, XDATA, add(CFA_XSP16, literal(-6)))
          CFI (cfiCond36) ?RET_LOW load(1, XDATA, add(CFA_XSP16, literal(-5)))
          CFI (cfiCond36) ?RET_HIGH load(1, XDATA, add(CFA_XSP16, literal(-4)))
          CFI (cfiCond36) ?BRET_EXT load(1, XDATA, add(CFA_XSP16, literal(-3)))
          CFI (cfiCond36) DPL0 load(1, XDATA, add(CFA_XSP16, literal(-2)))
          CFI (cfiCond36) DPH0 load(1, XDATA, add(CFA_XSP16, literal(-1)))
          CFI (cfiCond36) CFA_SP SP+-4
          CFI (cfiCond36) CFA_XSP16 add(XSP16, 32)
          CFI Block cfiPicker37 Using cfiCommon1
          CFI (cfiPicker37) NoFunction
          CFI (cfiPicker37) Picker
        MOV     A,R2
        MOV     R0,A
        MOV     A,R4
        CLR     C
        SUBB    A,R0
        MOV     R0,A
        SUBB    A,0xE0 /* A   */
        MOV     R1,A
        MOV     DPL,?XSP + 0
        MOV     DPH,?XSP + 1
        MOV     A,DPL
        ADD     A,R0
        MOV     DPL,A
        MOV     A,DPH
        ADDC    A,R1
        MOV     DPH,A
        RET
          CFI EndBlock cfiCond30
          CFI EndBlock cfiCond31
          CFI EndBlock cfiCond32
          CFI EndBlock cfiCond33
          CFI EndBlock cfiCond34
          CFI EndBlock cfiCond35
          CFI EndBlock cfiCond36
          CFI EndBlock cfiPicker37

        RSEG BANKED_CODE:CODE:NOROOT(0)
//  475 void PrintS16(uint8 xx ,uint8 yy , uint32 no,uint8 yn,uint8 le, uint8 FloatPoint)
PrintS16:
          CFI Block cfiBlock38 Using cfiCommon0
          CFI Function PrintS16
        CODE
//  476 {
        FUNCALL PrintS16, Print8
        LOCFRAME ISTACK, 0, STACK
        LOCFRAME PSTACK, 0, STACK
        LOCFRAME XSTACK, 36, STACK
        LOCFRAME IOVERLAY, 0, STATIC
        LOCFRAME DOVERLAY, 0, STATIC
        ARGFRAME ISTACK, 0, STACK
        ARGFRAME PSTACK, 0, STACK
        ARGFRAME XSTACK, 36, STACK
        ARGFRAME IOVERLAY, 0, STATIC
        ARGFRAME DOVERLAY, 0, STATIC
        FUNCALL PrintS16, Print8
        LOCFRAME ISTACK, 0, STACK
        LOCFRAME PSTACK, 0, STACK
        LOCFRAME XSTACK, 36, STACK
        LOCFRAME IOVERLAY, 0, STATIC
        LOCFRAME DOVERLAY, 0, STATIC
        ARGFRAME ISTACK, 0, STACK
        ARGFRAME PSTACK, 0, STACK
        ARGFRAME XSTACK, 36, STACK
        ARGFRAME IOVERLAY, 0, STATIC
        ARGFRAME DOVERLAY, 0, STATIC
        REQUIRE ?V0
        REQUIRE ?V1
        REQUIRE ?V2
        REQUIRE ?V3
        REQUIRE ?V4
        REQUIRE ?V5
        REQUIRE ?V6
        REQUIRE ?V7
        REQUIRE ?V8
        REQUIRE ?V9
        REQUIRE ?V10
        REQUIRE ?V11
        REQUIRE ?V12
        REQUIRE ?V13
        REQUIRE ?V14
        MOV     A,#-0x17
        LCALL   ?BANKED_ENTER_XDATA
          CFI DPH0 load(1, XDATA, add(CFA_XSP16, literal(-1)))
          CFI DPL0 load(1, XDATA, add(CFA_XSP16, literal(-2)))
          CFI ?BRET_EXT load(1, XDATA, add(CFA_XSP16, literal(-3)))
          CFI ?RET_HIGH load(1, XDATA, add(CFA_XSP16, literal(-4)))
          CFI ?RET_LOW load(1, XDATA, add(CFA_XSP16, literal(-5)))
          CFI R7 load(1, XDATA, add(CFA_XSP16, literal(-6)))
          CFI V14 load(1, XDATA, add(CFA_XSP16, literal(-7)))
          CFI V13 load(1, XDATA, add(CFA_XSP16, literal(-8)))
          CFI V12 load(1, XDATA, add(CFA_XSP16, literal(-9)))
          CFI V11 load(1, XDATA, add(CFA_XSP16, literal(-10)))
          CFI V10 load(1, XDATA, add(CFA_XSP16, literal(-11)))
          CFI V9 load(1, XDATA, add(CFA_XSP16, literal(-12)))
          CFI V8 load(1, XDATA, add(CFA_XSP16, literal(-13)))
          CFI V7 load(1, XDATA, add(CFA_XSP16, literal(-14)))
          CFI V6 load(1, XDATA, add(CFA_XSP16, literal(-15)))
          CFI V5 load(1, XDATA, add(CFA_XSP16, literal(-16)))
          CFI V4 load(1, XDATA, add(CFA_XSP16, literal(-17)))
          CFI V3 load(1, XDATA, add(CFA_XSP16, literal(-18)))
          CFI V2 load(1, XDATA, add(CFA_XSP16, literal(-19)))
          CFI V1 load(1, XDATA, add(CFA_XSP16, literal(-20)))
          CFI V0 load(1, XDATA, add(CFA_XSP16, literal(-21)))
          CFI VB load(1, XDATA, add(CFA_XSP16, literal(-22)))
          CFI R6 load(1, XDATA, add(CFA_XSP16, literal(-23)))
          CFI CFA_SP SP+0
          CFI CFA_XSP16 add(XSP16, 23)
        ; Saved register size: 23
        ; Auto size: 9
        MOV     A,#-0x9
        LCALL   ?ALLOC_XSTACK8
          CFI CFA_XSP16 add(XSP16, 32)
        MOV     ?V14,R1
        MOV     ?V13,R2
        MOV     ?V12,R3
        MOV     A,R4
        MOV     R6,A
        MOV     A,R5
        MOV     R7,A
        MOV     A,#0x20
        LCALL   ?XSTACK_DISP0_8
        MOV     R0,#?V4
        LCALL   ?L_MOV_X
//  477 	uint8 ch2[9];
//  478 	uint8 ii;
//  479         uint8 jj;
//  480 
//  481         if (no < 32767)
        MOV     DPTR,#__Constant_7fff
        MOV     R0,#?V4
        LCALL   ?UL_GE_X
        JC      ??PrintS16_0
//  482         {
//  483           jj = 1;
        MOV     R2,#0x1
//  484           for(ii = 1 ; ii < le ;ii++)
        MOV     R3,#0x1
        SJMP    ??PrintS16_1
//  485           {
//  486              if (ii == (FloatPoint+1))
??PrintS16_2:
        MOV     A,R3
        MOV     R4,A
        MOV     A,R7
        MOV     R1,#0x0
        ADD     A,#0x1
        JNC     ??PrintS16_3
        INC     R1
??PrintS16_3:
        XRL     A,R4
        ORL     A,R1
        JNZ     ??CrossCallReturnLabel_0
//  487              {
//  488                 ch2[le - jj] = '.';
        LCALL   ?Subroutine8 & 0xFFFF
//  489                 jj += 1;                
//  490              }
//  491              ch2[le - jj] = no % 10 + 0x30;
??CrossCallReturnLabel_0:
        MOV     ?V0,?V4
        MOV     ?V1,?V5
        MOV     ?V2,?V6
        MOV     ?V3,?V7
        MOV     DPTR,#__Constant_a
        MOV     R0,#?V8
        LCALL   ?L_MOV_X
        MOV     R0,#?V0
        MOV     R1,#?V8
        LCALL   ?UL_DIV_MOD
        MOV     A,?V8
        ADD     A,#0x30
        PUSH    A
          CFI CFA_SP SP+-1
        LCALL   ?Subroutine9 & 0xFFFF
??CrossCallReturnLabel_31:
        POP     A
          CFI CFA_SP SP+0
        LCALL   ?Subroutine17 & 0xFFFF
//  492              no /= 10;
??CrossCallReturnLabel_24:
        LCALL   ?L_MOV_X
        MOV     R0,#?V4
        MOV     R1,#?V0
        LCALL   ?UL_DIV_MOD
//  493              jj += 1;
        INC     R2
//  494           }
        INC     R3
??PrintS16_1:
        MOV     A,R3
        CLR     C
        SUBB    A,R6
        JC      ??PrintS16_2
//  495           ch2[le] = '\0';
        LCALL   ?Subroutine18 & 0xFFFF
//  496           Print8(xx ,yy*8 ,ch2 ,yn);
??CrossCallReturnLabel_37:
        ; Setup parameters for call to function Print8
        MOV     ?V0,?V12
        MOV     ?V1,A
        LJMP    ??PrintS16_4 & 0xFFFF
//  497         }
//  498         else
//  499         {
//  500           no = 65536 - no;
??PrintS16_0:
        MOV     ?V0,#0x0
        MOV     ?V1,#0x0
        MOV     ?V2,#0x1
        MOV     ?V3,#0x0
        MOV     R0,#?V0
        MOV     R1,#?V4
        LCALL   ?L_SUB
        MOV     ?V4,?V0
        MOV     ?V5,?V1
        MOV     ?V6,?V2
        MOV     ?V7,?V3
//  501           jj = 1;
        MOV     R2,#0x1
//  502           for(ii = 1 ; ii < le ;ii++)
        MOV     R3,#0x1
        SJMP    ??PrintS16_5
//  503           {
//  504              if (ii == (FloatPoint+1))
??PrintS16_6:
        MOV     A,R3
        MOV     R4,A
        MOV     A,R7
        MOV     R1,#0x0
        ADD     A,#0x1
        JNC     ??PrintS16_7
        INC     R1
??PrintS16_7:
        XRL     A,R4
        ORL     A,R1
        JNZ     ??CrossCallReturnLabel_1
//  505              {
//  506                 ch2[le - jj] = '.';
        LCALL   ?Subroutine8 & 0xFFFF
//  507                 jj += 1;                
//  508              }
//  509              ch2[le - jj] = no % 10 + 0x30;
??CrossCallReturnLabel_1:
        MOV     ?V0,?V4
        MOV     ?V1,?V5
        MOV     ?V2,?V6
        MOV     ?V3,?V7
        MOV     DPTR,#__Constant_a
        MOV     R0,#?V8
        LCALL   ?L_MOV_X
        MOV     R0,#?V0
        MOV     R1,#?V8
        LCALL   ?UL_DIV_MOD
        MOV     A,?V8
        ADD     A,#0x30
        PUSH    A
          CFI CFA_SP SP+-1
        LCALL   ?Subroutine9 & 0xFFFF
??CrossCallReturnLabel_32:
        POP     A
          CFI CFA_SP SP+0
        LCALL   ?Subroutine17 & 0xFFFF
//  510              no /= 10;
??CrossCallReturnLabel_25:
        LCALL   ?L_MOV_X
        MOV     R0,#?V4
        MOV     R1,#?V0
        LCALL   ?UL_DIV_MOD
//  511              jj += 1;
        INC     R2
//  512           }
        INC     R3
??PrintS16_5:
        MOV     A,R3
        CLR     C
        SUBB    A,R6
        JC      ??PrintS16_6
//  513           ch2[le] = '\0';
        LCALL   ?Subroutine18 & 0xFFFF
//  514           ch2[0] = '-';
??CrossCallReturnLabel_38:
        MOV     DPL,?XSP + 0
        MOV     DPH,?XSP + 1
        MOV     A,#0x2d
        MOVX    @DPTR,A
//  515           Print8(xx ,yy*8 ,ch2 ,yn);
        ; Setup parameters for call to function Print8
        MOV     ?V0,?V12
        MOV     ?V1,#0x0
??PrintS16_4:
        MOV     R0,#?V0
        LCALL   ?PUSH_XSTACK_I_TWO
          CFI CFA_XSP16 add(XSP16, 34)
        MOV     A,#0x2
        LCALL   ?XSTACK_DISP100_8
        MOV     ?V0,R0
        MOV     ?V1,R1
        MOV     R0,#?V0
        LCALL   ?PUSH_XSTACK_I_TWO
          CFI CFA_XSP16 add(XSP16, 36)
        MOV     ?V0,?V13
        MOV     ?V1,#0x0
        MOV     A,#0x3
        MOV     R0,#?V0
        LCALL   ?S_SHL
        MOV     R4,?V0
        MOV     R5,?V1
        MOV     R2,?V14
        MOV     R3,A
        LCALL   `??Print8::?relay`   ; Banked call to: Print8
        MOV     A,#0x4
        LCALL   ?DEALLOC_XSTACK8
          CFI CFA_XSP16 add(XSP16, 32)
//  516         } 
//  517 }
        MOV     A,#0x9
        LCALL   ?DEALLOC_XSTACK8
          CFI CFA_XSP16 add(XSP16, 23)
        MOV     R7,#0xf
        LJMP    ?BANKED_LEAVE_XDATA
          CFI EndBlock cfiBlock38

        RSEG BANKED_CODE:CODE:NOROOT(0)
?Subroutine17:
          CFI Block cfiCond39 Using cfiCommon0
          CFI Function PrintS8
          CFI Conditional ??CrossCallReturnLabel_22
          CFI R6 load(1, XDATA, add(CFA_XSP16, literal(-22)))
          CFI VB load(1, XDATA, add(CFA_XSP16, literal(-21)))
          CFI V0 load(1, XDATA, add(CFA_XSP16, literal(-20)))
          CFI V1 load(1, XDATA, add(CFA_XSP16, literal(-19)))
          CFI V2 load(1, XDATA, add(CFA_XSP16, literal(-18)))
          CFI V3 load(1, XDATA, add(CFA_XSP16, literal(-17)))
          CFI V4 load(1, XDATA, add(CFA_XSP16, literal(-16)))
          CFI V5 load(1, XDATA, add(CFA_XSP16, literal(-15)))
          CFI V6 load(1, XDATA, add(CFA_XSP16, literal(-14)))
          CFI V7 load(1, XDATA, add(CFA_XSP16, literal(-13)))
          CFI V8 load(1, XDATA, add(CFA_XSP16, literal(-12)))
          CFI V9 load(1, XDATA, add(CFA_XSP16, literal(-11)))
          CFI V10 load(1, XDATA, add(CFA_XSP16, literal(-10)))
          CFI V11 load(1, XDATA, add(CFA_XSP16, literal(-9)))
          CFI V12 load(1, XDATA, add(CFA_XSP16, literal(-8)))
          CFI V13 load(1, XDATA, add(CFA_XSP16, literal(-7)))
          CFI R7 load(1, XDATA, add(CFA_XSP16, literal(-6)))
          CFI ?RET_LOW load(1, XDATA, add(CFA_XSP16, literal(-5)))
          CFI ?RET_HIGH load(1, XDATA, add(CFA_XSP16, literal(-4)))
          CFI ?BRET_EXT load(1, XDATA, add(CFA_XSP16, literal(-3)))
          CFI DPL0 load(1, XDATA, add(CFA_XSP16, literal(-2)))
          CFI DPH0 load(1, XDATA, add(CFA_XSP16, literal(-1)))
          CFI CFA_SP SP+-2
          CFI CFA_XSP16 add(XSP16, 28)
          CFI Block cfiCond40 Using cfiCommon0
          CFI (cfiCond40) Function PrintS8
          CFI (cfiCond40) Conditional ??CrossCallReturnLabel_23
          CFI (cfiCond40) R6 load(1, XDATA, add(CFA_XSP16, literal(-22)))
          CFI (cfiCond40) VB load(1, XDATA, add(CFA_XSP16, literal(-21)))
          CFI (cfiCond40) V0 load(1, XDATA, add(CFA_XSP16, literal(-20)))
          CFI (cfiCond40) V1 load(1, XDATA, add(CFA_XSP16, literal(-19)))
          CFI (cfiCond40) V2 load(1, XDATA, add(CFA_XSP16, literal(-18)))
          CFI (cfiCond40) V3 load(1, XDATA, add(CFA_XSP16, literal(-17)))
          CFI (cfiCond40) V4 load(1, XDATA, add(CFA_XSP16, literal(-16)))
          CFI (cfiCond40) V5 load(1, XDATA, add(CFA_XSP16, literal(-15)))
          CFI (cfiCond40) V6 load(1, XDATA, add(CFA_XSP16, literal(-14)))
          CFI (cfiCond40) V7 load(1, XDATA, add(CFA_XSP16, literal(-13)))
          CFI (cfiCond40) V8 load(1, XDATA, add(CFA_XSP16, literal(-12)))
          CFI (cfiCond40) V9 load(1, XDATA, add(CFA_XSP16, literal(-11)))
          CFI (cfiCond40) V10 load(1, XDATA, add(CFA_XSP16, literal(-10)))
          CFI (cfiCond40) V11 load(1, XDATA, add(CFA_XSP16, literal(-9)))
          CFI (cfiCond40) V12 load(1, XDATA, add(CFA_XSP16, literal(-8)))
          CFI (cfiCond40) V13 load(1, XDATA, add(CFA_XSP16, literal(-7)))
          CFI (cfiCond40) R7 load(1, XDATA, add(CFA_XSP16, literal(-6)))
          CFI (cfiCond40) ?RET_LOW load(1, XDATA, add(CFA_XSP16, literal(-5)))
          CFI (cfiCond40) ?RET_HIGH load(1, XDATA, add(CFA_XSP16, literal(-4)))
          CFI (cfiCond40) ?BRET_EXT load(1, XDATA, add(CFA_XSP16, literal(-3)))
          CFI (cfiCond40) DPL0 load(1, XDATA, add(CFA_XSP16, literal(-2)))
          CFI (cfiCond40) DPH0 load(1, XDATA, add(CFA_XSP16, literal(-1)))
          CFI (cfiCond40) CFA_SP SP+-2
          CFI (cfiCond40) CFA_XSP16 add(XSP16, 28)
          CFI Block cfiCond41 Using cfiCommon0
          CFI (cfiCond41) Function PrintS16
          CFI (cfiCond41) Conditional ??CrossCallReturnLabel_24
          CFI (cfiCond41) R6 load(1, XDATA, add(CFA_XSP16, literal(-23)))
          CFI (cfiCond41) VB load(1, XDATA, add(CFA_XSP16, literal(-22)))
          CFI (cfiCond41) V0 load(1, XDATA, add(CFA_XSP16, literal(-21)))
          CFI (cfiCond41) V1 load(1, XDATA, add(CFA_XSP16, literal(-20)))
          CFI (cfiCond41) V2 load(1, XDATA, add(CFA_XSP16, literal(-19)))
          CFI (cfiCond41) V3 load(1, XDATA, add(CFA_XSP16, literal(-18)))
          CFI (cfiCond41) V4 load(1, XDATA, add(CFA_XSP16, literal(-17)))
          CFI (cfiCond41) V5 load(1, XDATA, add(CFA_XSP16, literal(-16)))
          CFI (cfiCond41) V6 load(1, XDATA, add(CFA_XSP16, literal(-15)))
          CFI (cfiCond41) V7 load(1, XDATA, add(CFA_XSP16, literal(-14)))
          CFI (cfiCond41) V8 load(1, XDATA, add(CFA_XSP16, literal(-13)))
          CFI (cfiCond41) V9 load(1, XDATA, add(CFA_XSP16, literal(-12)))
          CFI (cfiCond41) V10 load(1, XDATA, add(CFA_XSP16, literal(-11)))
          CFI (cfiCond41) V11 load(1, XDATA, add(CFA_XSP16, literal(-10)))
          CFI (cfiCond41) V12 load(1, XDATA, add(CFA_XSP16, literal(-9)))
          CFI (cfiCond41) V13 load(1, XDATA, add(CFA_XSP16, literal(-8)))
          CFI (cfiCond41) V14 load(1, XDATA, add(CFA_XSP16, literal(-7)))
          CFI (cfiCond41) R7 load(1, XDATA, add(CFA_XSP16, literal(-6)))
          CFI (cfiCond41) ?RET_LOW load(1, XDATA, add(CFA_XSP16, literal(-5)))
          CFI (cfiCond41) ?RET_HIGH load(1, XDATA, add(CFA_XSP16, literal(-4)))
          CFI (cfiCond41) ?BRET_EXT load(1, XDATA, add(CFA_XSP16, literal(-3)))
          CFI (cfiCond41) DPL0 load(1, XDATA, add(CFA_XSP16, literal(-2)))
          CFI (cfiCond41) DPH0 load(1, XDATA, add(CFA_XSP16, literal(-1)))
          CFI (cfiCond41) CFA_SP SP+-2
          CFI (cfiCond41) CFA_XSP16 add(XSP16, 32)
          CFI Block cfiCond42 Using cfiCommon0
          CFI (cfiCond42) Function PrintS16
          CFI (cfiCond42) Conditional ??CrossCallReturnLabel_25
          CFI (cfiCond42) R6 load(1, XDATA, add(CFA_XSP16, literal(-23)))
          CFI (cfiCond42) VB load(1, XDATA, add(CFA_XSP16, literal(-22)))
          CFI (cfiCond42) V0 load(1, XDATA, add(CFA_XSP16, literal(-21)))
          CFI (cfiCond42) V1 load(1, XDATA, add(CFA_XSP16, literal(-20)))
          CFI (cfiCond42) V2 load(1, XDATA, add(CFA_XSP16, literal(-19)))
          CFI (cfiCond42) V3 load(1, XDATA, add(CFA_XSP16, literal(-18)))
          CFI (cfiCond42) V4 load(1, XDATA, add(CFA_XSP16, literal(-17)))
          CFI (cfiCond42) V5 load(1, XDATA, add(CFA_XSP16, literal(-16)))
          CFI (cfiCond42) V6 load(1, XDATA, add(CFA_XSP16, literal(-15)))
          CFI (cfiCond42) V7 load(1, XDATA, add(CFA_XSP16, literal(-14)))
          CFI (cfiCond42) V8 load(1, XDATA, add(CFA_XSP16, literal(-13)))
          CFI (cfiCond42) V9 load(1, XDATA, add(CFA_XSP16, literal(-12)))
          CFI (cfiCond42) V10 load(1, XDATA, add(CFA_XSP16, literal(-11)))
          CFI (cfiCond42) V11 load(1, XDATA, add(CFA_XSP16, literal(-10)))
          CFI (cfiCond42) V12 load(1, XDATA, add(CFA_XSP16, literal(-9)))
          CFI (cfiCond42) V13 load(1, XDATA, add(CFA_XSP16, literal(-8)))
          CFI (cfiCond42) V14 load(1, XDATA, add(CFA_XSP16, literal(-7)))
          CFI (cfiCond42) R7 load(1, XDATA, add(CFA_XSP16, literal(-6)))
          CFI (cfiCond42) ?RET_LOW load(1, XDATA, add(CFA_XSP16, literal(-5)))
          CFI (cfiCond42) ?RET_HIGH load(1, XDATA, add(CFA_XSP16, literal(-4)))
          CFI (cfiCond42) ?BRET_EXT load(1, XDATA, add(CFA_XSP16, literal(-3)))
          CFI (cfiCond42) DPL0 load(1, XDATA, add(CFA_XSP16, literal(-2)))
          CFI (cfiCond42) DPH0 load(1, XDATA, add(CFA_XSP16, literal(-1)))
          CFI (cfiCond42) CFA_SP SP+-2
          CFI (cfiCond42) CFA_XSP16 add(XSP16, 32)
          CFI Block cfiPicker43 Using cfiCommon1
          CFI (cfiPicker43) NoFunction
          CFI (cfiPicker43) Picker
        MOVX    @DPTR,A
        MOV     DPTR,#__Constant_a
        MOV     R0,#?V0
        RET
          CFI EndBlock cfiCond39
          CFI EndBlock cfiCond40
          CFI EndBlock cfiCond41
          CFI EndBlock cfiCond42
          CFI EndBlock cfiPicker43

        RSEG BANKED_CODE:CODE:NOROOT(0)
?Subroutine8:
          CFI Block cfiCond44 Using cfiCommon0
          CFI Function PrintS16
          CFI Conditional ??CrossCallReturnLabel_0
          CFI R6 load(1, XDATA, add(CFA_XSP16, literal(-23)))
          CFI VB load(1, XDATA, add(CFA_XSP16, literal(-22)))
          CFI V0 load(1, XDATA, add(CFA_XSP16, literal(-21)))
          CFI V1 load(1, XDATA, add(CFA_XSP16, literal(-20)))
          CFI V2 load(1, XDATA, add(CFA_XSP16, literal(-19)))
          CFI V3 load(1, XDATA, add(CFA_XSP16, literal(-18)))
          CFI V4 load(1, XDATA, add(CFA_XSP16, literal(-17)))
          CFI V5 load(1, XDATA, add(CFA_XSP16, literal(-16)))
          CFI V6 load(1, XDATA, add(CFA_XSP16, literal(-15)))
          CFI V7 load(1, XDATA, add(CFA_XSP16, literal(-14)))
          CFI V8 load(1, XDATA, add(CFA_XSP16, literal(-13)))
          CFI V9 load(1, XDATA, add(CFA_XSP16, literal(-12)))
          CFI V10 load(1, XDATA, add(CFA_XSP16, literal(-11)))
          CFI V11 load(1, XDATA, add(CFA_XSP16, literal(-10)))
          CFI V12 load(1, XDATA, add(CFA_XSP16, literal(-9)))
          CFI V13 load(1, XDATA, add(CFA_XSP16, literal(-8)))
          CFI V14 load(1, XDATA, add(CFA_XSP16, literal(-7)))
          CFI R7 load(1, XDATA, add(CFA_XSP16, literal(-6)))
          CFI ?RET_LOW load(1, XDATA, add(CFA_XSP16, literal(-5)))
          CFI ?RET_HIGH load(1, XDATA, add(CFA_XSP16, literal(-4)))
          CFI ?BRET_EXT load(1, XDATA, add(CFA_XSP16, literal(-3)))
          CFI DPL0 load(1, XDATA, add(CFA_XSP16, literal(-2)))
          CFI DPH0 load(1, XDATA, add(CFA_XSP16, literal(-1)))
          CFI CFA_SP SP+-2
          CFI CFA_XSP16 add(XSP16, 32)
          CFI Block cfiCond45 Using cfiCommon0
          CFI (cfiCond45) Function PrintS16
          CFI (cfiCond45) Conditional ??CrossCallReturnLabel_1
          CFI (cfiCond45) R6 load(1, XDATA, add(CFA_XSP16, literal(-23)))
          CFI (cfiCond45) VB load(1, XDATA, add(CFA_XSP16, literal(-22)))
          CFI (cfiCond45) V0 load(1, XDATA, add(CFA_XSP16, literal(-21)))
          CFI (cfiCond45) V1 load(1, XDATA, add(CFA_XSP16, literal(-20)))
          CFI (cfiCond45) V2 load(1, XDATA, add(CFA_XSP16, literal(-19)))
          CFI (cfiCond45) V3 load(1, XDATA, add(CFA_XSP16, literal(-18)))
          CFI (cfiCond45) V4 load(1, XDATA, add(CFA_XSP16, literal(-17)))
          CFI (cfiCond45) V5 load(1, XDATA, add(CFA_XSP16, literal(-16)))
          CFI (cfiCond45) V6 load(1, XDATA, add(CFA_XSP16, literal(-15)))
          CFI (cfiCond45) V7 load(1, XDATA, add(CFA_XSP16, literal(-14)))
          CFI (cfiCond45) V8 load(1, XDATA, add(CFA_XSP16, literal(-13)))
          CFI (cfiCond45) V9 load(1, XDATA, add(CFA_XSP16, literal(-12)))
          CFI (cfiCond45) V10 load(1, XDATA, add(CFA_XSP16, literal(-11)))
          CFI (cfiCond45) V11 load(1, XDATA, add(CFA_XSP16, literal(-10)))
          CFI (cfiCond45) V12 load(1, XDATA, add(CFA_XSP16, literal(-9)))
          CFI (cfiCond45) V13 load(1, XDATA, add(CFA_XSP16, literal(-8)))
          CFI (cfiCond45) V14 load(1, XDATA, add(CFA_XSP16, literal(-7)))
          CFI (cfiCond45) R7 load(1, XDATA, add(CFA_XSP16, literal(-6)))
          CFI (cfiCond45) ?RET_LOW load(1, XDATA, add(CFA_XSP16, literal(-5)))
          CFI (cfiCond45) ?RET_HIGH load(1, XDATA, add(CFA_XSP16, literal(-4)))
          CFI (cfiCond45) ?BRET_EXT load(1, XDATA, add(CFA_XSP16, literal(-3)))
          CFI (cfiCond45) DPL0 load(1, XDATA, add(CFA_XSP16, literal(-2)))
          CFI (cfiCond45) DPH0 load(1, XDATA, add(CFA_XSP16, literal(-1)))
          CFI (cfiCond45) CFA_SP SP+-2
          CFI (cfiCond45) CFA_XSP16 add(XSP16, 32)
          CFI Block cfiPicker46 Using cfiCommon1
          CFI (cfiPicker46) NoFunction
          CFI (cfiPicker46) Picker
        MOV     A,R6
        MOV     R4,A
        LCALL   ?Subroutine19 & 0xFFFF
??CrossCallReturnLabel_33:
        MOV     A,#0x2e
        MOVX    @DPTR,A
        INC     R2
        RET
          CFI EndBlock cfiCond44
          CFI EndBlock cfiCond45
          CFI EndBlock cfiPicker46
//  518 
//  519 
//  520 /*******************************************************************************
//  521 //???:void Print8(uint16 y,uint16 x, uint8 ch,uint16 yn)
//  522 //??:??8*8??
//  523 //??:xx ,yy ??,ch??????,yn????
//  524 //??:?
//  525 ********************************************************************************/

        RSEG BANKED_CODE:CODE:NOROOT(0)
//  526 void PrintCh8(uint16 y,uint16 x, uint8 ch,uint16 yn)
PrintCh8:
          CFI Block cfiBlock47 Using cfiCommon0
          CFI Function PrintCh8
        CODE
//  527 {
        FUNCALL PrintCh8, SetRamAddr
        LOCFRAME ISTACK, 0, STACK
        LOCFRAME PSTACK, 0, STACK
        LOCFRAME XSTACK, 16, STACK
        LOCFRAME IOVERLAY, 0, STATIC
        LOCFRAME DOVERLAY, 0, STATIC
        ARGFRAME ISTACK, 0, STACK
        ARGFRAME PSTACK, 0, STACK
        ARGFRAME XSTACK, 16, STACK
        ARGFRAME IOVERLAY, 0, STATIC
        ARGFRAME DOVERLAY, 0, STATIC
        FUNCALL PrintCh8, WriteLCD
        LOCFRAME ISTACK, 0, STACK
        LOCFRAME PSTACK, 0, STACK
        LOCFRAME XSTACK, 16, STACK
        LOCFRAME IOVERLAY, 0, STATIC
        LOCFRAME DOVERLAY, 0, STATIC
        ARGFRAME ISTACK, 0, STACK
        ARGFRAME PSTACK, 0, STACK
        ARGFRAME XSTACK, 16, STACK
        ARGFRAME IOVERLAY, 0, STATIC
        ARGFRAME DOVERLAY, 0, STATIC
        FUNCALL PrintCh8, WriteLCD
        LOCFRAME ISTACK, 0, STACK
        LOCFRAME PSTACK, 0, STACK
        LOCFRAME XSTACK, 16, STACK
        LOCFRAME IOVERLAY, 0, STATIC
        LOCFRAME DOVERLAY, 0, STATIC
        ARGFRAME ISTACK, 0, STACK
        ARGFRAME PSTACK, 0, STACK
        ARGFRAME XSTACK, 16, STACK
        ARGFRAME IOVERLAY, 0, STATIC
        ARGFRAME DOVERLAY, 0, STATIC
        FUNCALL PrintCh8, SetRamAddr
        LOCFRAME ISTACK, 0, STACK
        LOCFRAME PSTACK, 0, STACK
        LOCFRAME XSTACK, 16, STACK
        LOCFRAME IOVERLAY, 0, STATIC
        LOCFRAME DOVERLAY, 0, STATIC
        ARGFRAME ISTACK, 0, STACK
        ARGFRAME PSTACK, 0, STACK
        ARGFRAME XSTACK, 16, STACK
        ARGFRAME IOVERLAY, 0, STATIC
        ARGFRAME DOVERLAY, 0, STATIC
        FUNCALL PrintCh8, WriteLCD
        LOCFRAME ISTACK, 0, STACK
        LOCFRAME PSTACK, 0, STACK
        LOCFRAME XSTACK, 16, STACK
        LOCFRAME IOVERLAY, 0, STATIC
        LOCFRAME DOVERLAY, 0, STATIC
        ARGFRAME ISTACK, 0, STACK
        ARGFRAME PSTACK, 0, STACK
        ARGFRAME XSTACK, 16, STACK
        ARGFRAME IOVERLAY, 0, STATIC
        ARGFRAME DOVERLAY, 0, STATIC
        FUNCALL PrintCh8, WriteLCD
        LOCFRAME ISTACK, 0, STACK
        LOCFRAME PSTACK, 0, STACK
        LOCFRAME XSTACK, 16, STACK
        LOCFRAME IOVERLAY, 0, STATIC
        LOCFRAME DOVERLAY, 0, STATIC
        ARGFRAME ISTACK, 0, STACK
        ARGFRAME PSTACK, 0, STACK
        ARGFRAME XSTACK, 16, STACK
        ARGFRAME IOVERLAY, 0, STATIC
        ARGFRAME DOVERLAY, 0, STATIC
        REQUIRE ?V0
        REQUIRE ?V1
        REQUIRE ?V2
        REQUIRE ?V3
        REQUIRE ?V4
        REQUIRE ?V5
        REQUIRE ?V6
        REQUIRE ?V7
        MOV     A,#-0x10
        LCALL   ?BANKED_ENTER_XDATA
          CFI DPH0 load(1, XDATA, add(CFA_XSP16, literal(-1)))
          CFI DPL0 load(1, XDATA, add(CFA_XSP16, literal(-2)))
          CFI ?BRET_EXT load(1, XDATA, add(CFA_XSP16, literal(-3)))
          CFI ?RET_HIGH load(1, XDATA, add(CFA_XSP16, literal(-4)))
          CFI ?RET_LOW load(1, XDATA, add(CFA_XSP16, literal(-5)))
          CFI R7 load(1, XDATA, add(CFA_XSP16, literal(-6)))
          CFI V7 load(1, XDATA, add(CFA_XSP16, literal(-7)))
          CFI V6 load(1, XDATA, add(CFA_XSP16, literal(-8)))
          CFI V5 load(1, XDATA, add(CFA_XSP16, literal(-9)))
          CFI V4 load(1, XDATA, add(CFA_XSP16, literal(-10)))
          CFI V3 load(1, XDATA, add(CFA_XSP16, literal(-11)))
          CFI V2 load(1, XDATA, add(CFA_XSP16, literal(-12)))
          CFI V1 load(1, XDATA, add(CFA_XSP16, literal(-13)))
          CFI V0 load(1, XDATA, add(CFA_XSP16, literal(-14)))
          CFI VB load(1, XDATA, add(CFA_XSP16, literal(-15)))
          CFI R6 load(1, XDATA, add(CFA_XSP16, literal(-16)))
          CFI CFA_SP SP+0
          CFI CFA_XSP16 add(XSP16, 16)
        ; Saved register size: 16
        ; Auto size: 0
        MOV     ?V0,R2
        MOV     A,R4
        MOV     R6,A
//  528 	uint8 wm;
//  529 	uint16 adder;
//  530 	
//  531 	adder = (ch - 0x20) * 16;
        MOV     A,R1
        ADD     A,#-0x20
        MOV     ?V4,A
        CLR     A
        ADDC    A,#-0x1
        MOV     ?V5,A
        MOV     A,#0x4
        MOV     R0,#?V4
        LCALL   ?S_SHL
        MOV     ?V2,?V4
        MOV     ?V3,?V5
//  532 	for(wm = 0;wm < 8;wm++)
        MOV     ?V6,#0x8
        MOV     A,#0x10
        LCALL   ?XSTACK_DISP0_8
        LCALL   ?Subroutine11 & 0xFFFF
//  533 	{
//  534 		SetRamAddr(y , x);
??CrossCallReturnLabel_4:
        ; Setup parameters for call to function SetRamAddr
        MOV     A,R6
        MOV     R2,A
        MOV     R1,?V0
        LCALL   `??SetRamAddr::?relay`; Banked call to: SetRamAddr
//  535 		if(yn == 0)
        MOV     A,?V4
        ORL     A,?V5
        JNZ     ??PrintCh8_0
//  536 		{
//  537 			WriteLCD(DATA, ~Font8X8[adder]);
        ; Setup parameters for call to function WriteLCD
        LCALL   ?Subroutine15 & 0xFFFF
//  538 		}
??CrossCallReturnLabel_14:
        SJMP    ??CrossCallReturnLabel_18
//  539 		else
//  540 		{
//  541 			WriteLCD(DATA, Font8X8[adder]);
??PrintCh8_0:
        ; Setup parameters for call to function WriteLCD
        LCALL   ?Subroutine16 & 0xFFFF
//  542 		}
??CrossCallReturnLabel_18:
        MOV     R2,A
        MOV     R1,#0x1
        LCALL   `??WriteLCD::?relay` ; Banked call to: WriteLCD
//  543 		adder += 1;
        INC     ?V2
        MOV     A,?V2
        JNZ     ??PrintCh8_1
        INC     ?V3
//  544 		x += 1;
??PrintCh8_1:
        INC     R6
        MOV     A,R6
//  545 	}
        DEC     ?V6
        MOV     A,?V6
        JNZ     ??CrossCallReturnLabel_4
//  546 	y += 1;
        INC     ?V0
        MOV     A,?V0
//  547 	x -= 8;
        MOV     A,R6
        ADD     A,#-0x8
        MOV     R6,A
//  548 	for(wm = 0;wm < 8;wm++)
        MOV     ?V6,#0x8
//  549 	{
//  550 		SetRamAddr(y , x);
??PrintCh8_2:
        ; Setup parameters for call to function SetRamAddr
        MOV     A,R6
        MOV     R2,A
        MOV     R1,?V0
        LCALL   `??SetRamAddr::?relay`; Banked call to: SetRamAddr
//  551 		if(yn == 0)
        MOV     A,?V4
        ORL     A,?V5
        JNZ     ??PrintCh8_3
//  552 		{
//  553 				WriteLCD(DATA, ~Font8X8[adder]);
        ; Setup parameters for call to function WriteLCD
        LCALL   ?Subroutine15 & 0xFFFF
//  554 		}
??CrossCallReturnLabel_15:
        SJMP    ??CrossCallReturnLabel_19
//  555 		else
//  556 		{
//  557 			WriteLCD(DATA, Font8X8[adder]);	
??PrintCh8_3:
        ; Setup parameters for call to function WriteLCD
        LCALL   ?Subroutine16 & 0xFFFF
//  558 		}
??CrossCallReturnLabel_19:
        MOV     R2,A
        MOV     R1,#0x1
        LCALL   `??WriteLCD::?relay` ; Banked call to: WriteLCD
//  559 		adder += 1;
        INC     ?V2
        MOV     A,?V2
        JNZ     ??PrintCh8_4
        INC     ?V3
//  560 		x += 1;
??PrintCh8_4:
        INC     R6
        MOV     A,R6
//  561 	}
        DEC     ?V6
        MOV     A,?V6
        JNZ     ??PrintCh8_2
//  562 }
          CFI EndBlock cfiBlock47
        REQUIRE ?Subroutine4
        ; // Fall through to label ?Subroutine4

        RSEG BANKED_CODE:CODE:NOROOT(0)
?Subroutine4:
          CFI Block cfiBlock48 Using cfiCommon0
          CFI NoFunction
          CFI CFA_SP SP+0
          CFI CFA_XSP16 add(XSP16, 16)
          CFI VB load(1, XDATA, add(CFA_XSP16, literal(-15)))
          CFI DPL0 load(1, XDATA, add(CFA_XSP16, literal(-2)))
          CFI DPH0 load(1, XDATA, add(CFA_XSP16, literal(-1)))
          CFI R6 load(1, XDATA, add(CFA_XSP16, literal(-16)))
          CFI R7 load(1, XDATA, add(CFA_XSP16, literal(-6)))
          CFI V0 load(1, XDATA, add(CFA_XSP16, literal(-14)))
          CFI V1 load(1, XDATA, add(CFA_XSP16, literal(-13)))
          CFI V2 load(1, XDATA, add(CFA_XSP16, literal(-12)))
          CFI V3 load(1, XDATA, add(CFA_XSP16, literal(-11)))
          CFI V4 load(1, XDATA, add(CFA_XSP16, literal(-10)))
          CFI V5 load(1, XDATA, add(CFA_XSP16, literal(-9)))
          CFI V6 load(1, XDATA, add(CFA_XSP16, literal(-8)))
          CFI V7 load(1, XDATA, add(CFA_XSP16, literal(-7)))
          CFI ?BRET_EXT load(1, XDATA, add(CFA_XSP16, literal(-3)))
          CFI ?RET_HIGH load(1, XDATA, add(CFA_XSP16, literal(-4)))
          CFI ?RET_LOW load(1, XDATA, add(CFA_XSP16, literal(-5)))
        MOV     R7,#0x8
        LJMP    ?BANKED_LEAVE_XDATA
          CFI EndBlock cfiBlock48
//  563 
//  564 
//  565 /*******************************************************************************
//  566 //???:void Print8(uint16 y,uint16 x, uint8 ch[],uint16 yn)
//  567 //??:??8*8???
//  568 //??:xx ,yy ??,ch1???????,yn????
//  569 //??:?
//  570 ********************************************************************************/

        RSEG BANKED_CODE:CODE:NOROOT(0)
//  571 void Print8(uint16 y,uint16 x, uint8 ch[],uint16 yn)
Print8:
          CFI Block cfiBlock49 Using cfiCommon0
          CFI Function Print8
        CODE
//  572 {
        FUNCALL Print8, WriteLCD
        LOCFRAME ISTACK, 0, STACK
        LOCFRAME PSTACK, 0, STACK
        LOCFRAME XSTACK, 20, STACK
        LOCFRAME IOVERLAY, 0, STATIC
        LOCFRAME DOVERLAY, 0, STATIC
        ARGFRAME ISTACK, 0, STACK
        ARGFRAME PSTACK, 0, STACK
        ARGFRAME XSTACK, 20, STACK
        ARGFRAME IOVERLAY, 0, STATIC
        ARGFRAME DOVERLAY, 0, STATIC
        FUNCALL Print8, SetRamAddr
        LOCFRAME ISTACK, 0, STACK
        LOCFRAME PSTACK, 0, STACK
        LOCFRAME XSTACK, 20, STACK
        LOCFRAME IOVERLAY, 0, STATIC
        LOCFRAME DOVERLAY, 0, STATIC
        ARGFRAME ISTACK, 0, STACK
        ARGFRAME PSTACK, 0, STACK
        ARGFRAME XSTACK, 20, STACK
        ARGFRAME IOVERLAY, 0, STATIC
        ARGFRAME DOVERLAY, 0, STATIC
        FUNCALL Print8, WriteLCD
        LOCFRAME ISTACK, 0, STACK
        LOCFRAME PSTACK, 0, STACK
        LOCFRAME XSTACK, 20, STACK
        LOCFRAME IOVERLAY, 0, STATIC
        LOCFRAME DOVERLAY, 0, STATIC
        ARGFRAME ISTACK, 0, STACK
        ARGFRAME PSTACK, 0, STACK
        ARGFRAME XSTACK, 20, STACK
        ARGFRAME IOVERLAY, 0, STATIC
        ARGFRAME DOVERLAY, 0, STATIC
        FUNCALL Print8, WriteLCD
        LOCFRAME ISTACK, 0, STACK
        LOCFRAME PSTACK, 0, STACK
        LOCFRAME XSTACK, 20, STACK
        LOCFRAME IOVERLAY, 0, STATIC
        LOCFRAME DOVERLAY, 0, STATIC
        ARGFRAME ISTACK, 0, STACK
        ARGFRAME PSTACK, 0, STACK
        ARGFRAME XSTACK, 20, STACK
        ARGFRAME IOVERLAY, 0, STATIC
        ARGFRAME DOVERLAY, 0, STATIC
        FUNCALL Print8, SetRamAddr
        LOCFRAME ISTACK, 0, STACK
        LOCFRAME PSTACK, 0, STACK
        LOCFRAME XSTACK, 20, STACK
        LOCFRAME IOVERLAY, 0, STATIC
        LOCFRAME DOVERLAY, 0, STATIC
        ARGFRAME ISTACK, 0, STACK
        ARGFRAME PSTACK, 0, STACK
        ARGFRAME XSTACK, 20, STACK
        ARGFRAME IOVERLAY, 0, STATIC
        ARGFRAME DOVERLAY, 0, STATIC
        FUNCALL Print8, WriteLCD
        LOCFRAME ISTACK, 0, STACK
        LOCFRAME PSTACK, 0, STACK
        LOCFRAME XSTACK, 20, STACK
        LOCFRAME IOVERLAY, 0, STATIC
        LOCFRAME DOVERLAY, 0, STATIC
        ARGFRAME ISTACK, 0, STACK
        ARGFRAME PSTACK, 0, STACK
        ARGFRAME XSTACK, 20, STACK
        ARGFRAME IOVERLAY, 0, STATIC
        ARGFRAME DOVERLAY, 0, STATIC
        REQUIRE ?V0
        REQUIRE ?V1
        REQUIRE ?V2
        REQUIRE ?V3
        REQUIRE ?V4
        REQUIRE ?V5
        REQUIRE ?V6
        REQUIRE ?V7
        REQUIRE ?V8
        REQUIRE ?V9
        REQUIRE ?V10
        REQUIRE ?V11
        MOV     A,#-0x14
        LCALL   ?BANKED_ENTER_XDATA
          CFI DPH0 load(1, XDATA, add(CFA_XSP16, literal(-1)))
          CFI DPL0 load(1, XDATA, add(CFA_XSP16, literal(-2)))
          CFI ?BRET_EXT load(1, XDATA, add(CFA_XSP16, literal(-3)))
          CFI ?RET_HIGH load(1, XDATA, add(CFA_XSP16, literal(-4)))
          CFI ?RET_LOW load(1, XDATA, add(CFA_XSP16, literal(-5)))
          CFI R7 load(1, XDATA, add(CFA_XSP16, literal(-6)))
          CFI V11 load(1, XDATA, add(CFA_XSP16, literal(-7)))
          CFI V10 load(1, XDATA, add(CFA_XSP16, literal(-8)))
          CFI V9 load(1, XDATA, add(CFA_XSP16, literal(-9)))
          CFI V8 load(1, XDATA, add(CFA_XSP16, literal(-10)))
          CFI V7 load(1, XDATA, add(CFA_XSP16, literal(-11)))
          CFI V6 load(1, XDATA, add(CFA_XSP16, literal(-12)))
          CFI V5 load(1, XDATA, add(CFA_XSP16, literal(-13)))
          CFI V4 load(1, XDATA, add(CFA_XSP16, literal(-14)))
          CFI V3 load(1, XDATA, add(CFA_XSP16, literal(-15)))
          CFI V2 load(1, XDATA, add(CFA_XSP16, literal(-16)))
          CFI V1 load(1, XDATA, add(CFA_XSP16, literal(-17)))
          CFI V0 load(1, XDATA, add(CFA_XSP16, literal(-18)))
          CFI VB load(1, XDATA, add(CFA_XSP16, literal(-19)))
          CFI R6 load(1, XDATA, add(CFA_XSP16, literal(-20)))
          CFI CFA_SP SP+0
          CFI CFA_XSP16 add(XSP16, 20)
        ; Saved register size: 20
        ; Auto size: 0
        MOV     ?V0,R2
        MOV     A,R4
        MOV     R6,A
//  573 	uint8 wm ,ii = 0;
        MOV     ?V8,#0x0
        MOV     A,#0x14
        LCALL   ?XSTACK_DISP0_8
        LCALL   ?Subroutine11 & 0xFFFF
??CrossCallReturnLabel_5:
        MOV     A,#0x16
        LCALL   ?XSTACK_DISP0_8
        MOVX    A,@DPTR
        MOV     ?V6,A
        INC     DPTR
        MOVX    A,@DPTR
        MOV     ?V7,A
        SJMP    ??Print8_0
//  574 	uint16 adder;
//  575 
//  576 	while(ch[ii] != '\0')
//  577 	{
//  578 		adder = (ch[ii] - 0x20) * 16;
//  579 
//  580 		for(wm = 0;wm < 8;wm++)
//  581 		{
//  582 			SetRamAddr(y , x);
//  583 			if(yn == 0)
//  584 			{
//  585 				WriteLCD(DATA, ~Font8X8[adder]);
//  586 			}
//  587 			else
//  588 			{
//  589 				WriteLCD(DATA, Font8X8[adder]);
//  590 			}
//  591 			adder += 1;
//  592 			x += 1;
//  593 		}
//  594 		y += 1;
//  595 		x -= 8;
//  596 		for(wm = 0;wm < 8;wm++)
//  597 		{
//  598 			SetRamAddr(y , x);
//  599 			if(yn == 0)
//  600 			{
//  601 				WriteLCD(DATA, ~Font8X8[adder]);
//  602 			}
//  603 			else
//  604 			{
//  605 				WriteLCD(DATA, Font8X8[adder]);	
??Print8_1:
        ; Setup parameters for call to function WriteLCD
        LCALL   ?Subroutine16 & 0xFFFF
//  606 			}
??CrossCallReturnLabel_20:
        MOV     R2,A
        MOV     R1,#0x1
        LCALL   `??WriteLCD::?relay` ; Banked call to: WriteLCD
//  607 			adder += 1;
        INC     ?V2
        MOV     A,?V2
        JNZ     ??Print8_2
        INC     ?V3
//  608 			x += 1;
??Print8_2:
        INC     R6
        MOV     A,R6
        DEC     ?V9
        MOV     A,?V9
        JNZ     ??Print8_3
//  609 		}
//  610 		ii += 1;
        INC     ?V8
//  611 		y -= 1;
        MOV     A,?V0
        DEC     A
        MOV     ?V0,A
??Print8_0:
        MOV     R0,?V8
        MOV     A,?V4
        ADD     A,R0
        MOV     DPL,A
        CLR     A
        ADDC    A,?V5
        MOV     DPH,A
        MOVX    A,@DPTR
        JZ      ??Print8_4
        ADD     A,#-0x20
        MOV     ?V10,A
        CLR     A
        ADDC    A,#-0x1
        MOV     ?V11,A
        MOV     A,#0x4
        MOV     R0,#?V10
        LCALL   ?S_SHL
        MOV     ?V2,?V10
        MOV     ?V3,?V11
        MOV     ?V9,#0x8
??Print8_5:
        ; Setup parameters for call to function SetRamAddr
        MOV     A,R6
        MOV     R2,A
        MOV     R1,?V0
        LCALL   `??SetRamAddr::?relay`; Banked call to: SetRamAddr
        MOV     A,?V6
        ORL     A,?V7
        JNZ     ??Print8_6
        ; Setup parameters for call to function WriteLCD
        LCALL   ?Subroutine15 & 0xFFFF
??CrossCallReturnLabel_16:
        SJMP    ??CrossCallReturnLabel_21
??Print8_6:
        ; Setup parameters for call to function WriteLCD
        LCALL   ?Subroutine16 & 0xFFFF
??CrossCallReturnLabel_21:
        MOV     R2,A
        MOV     R1,#0x1
        LCALL   `??WriteLCD::?relay` ; Banked call to: WriteLCD
        INC     ?V2
        MOV     A,?V2
        JNZ     ??Print8_7
        INC     ?V3
??Print8_7:
        INC     R6
        MOV     A,R6
        DEC     ?V9
        MOV     A,?V9
        JNZ     ??Print8_5
        INC     ?V0
        MOV     A,?V0
        MOV     A,R6
        ADD     A,#-0x8
        MOV     R6,A
        MOV     ?V9,#0x8
??Print8_3:
        ; Setup parameters for call to function SetRamAddr
        MOV     A,R6
        MOV     R2,A
        MOV     R1,?V0
        LCALL   `??SetRamAddr::?relay`; Banked call to: SetRamAddr
        MOV     A,?V6
        ORL     A,?V7
        JZ      $+5
        LJMP    ??Print8_1 & 0xFFFF
        ; Setup parameters for call to function WriteLCD
        LCALL   ?Subroutine15 & 0xFFFF
//  612 	}
??CrossCallReturnLabel_17:
        LJMP    ??CrossCallReturnLabel_20 & 0xFFFF
//  613 
//  614 }
??Print8_4:
        MOV     R7,#0xc
        LJMP    ?BANKED_LEAVE_XDATA
          CFI EndBlock cfiBlock49

        RSEG BANKED_CODE:CODE:NOROOT(0)
?Subroutine16:
          CFI Block cfiCond50 Using cfiCommon0
          CFI Function PrintCh8
          CFI Conditional ??CrossCallReturnLabel_18
          CFI R6 load(1, XDATA, add(CFA_XSP16, literal(-16)))
          CFI VB load(1, XDATA, add(CFA_XSP16, literal(-15)))
          CFI V0 load(1, XDATA, add(CFA_XSP16, literal(-14)))
          CFI V1 load(1, XDATA, add(CFA_XSP16, literal(-13)))
          CFI V2 load(1, XDATA, add(CFA_XSP16, literal(-12)))
          CFI V3 load(1, XDATA, add(CFA_XSP16, literal(-11)))
          CFI V4 load(1, XDATA, add(CFA_XSP16, literal(-10)))
          CFI V5 load(1, XDATA, add(CFA_XSP16, literal(-9)))
          CFI V6 load(1, XDATA, add(CFA_XSP16, literal(-8)))
          CFI V7 load(1, XDATA, add(CFA_XSP16, literal(-7)))
          CFI R7 load(1, XDATA, add(CFA_XSP16, literal(-6)))
          CFI ?RET_LOW load(1, XDATA, add(CFA_XSP16, literal(-5)))
          CFI ?RET_HIGH load(1, XDATA, add(CFA_XSP16, literal(-4)))
          CFI ?BRET_EXT load(1, XDATA, add(CFA_XSP16, literal(-3)))
          CFI DPL0 load(1, XDATA, add(CFA_XSP16, literal(-2)))
          CFI DPH0 load(1, XDATA, add(CFA_XSP16, literal(-1)))
          CFI CFA_SP SP+-2
          CFI CFA_XSP16 add(XSP16, 16)
          CFI Block cfiCond51 Using cfiCommon0
          CFI (cfiCond51) Function PrintCh8
          CFI (cfiCond51) Conditional ??CrossCallReturnLabel_19
          CFI (cfiCond51) R6 load(1, XDATA, add(CFA_XSP16, literal(-16)))
          CFI (cfiCond51) VB load(1, XDATA, add(CFA_XSP16, literal(-15)))
          CFI (cfiCond51) V0 load(1, XDATA, add(CFA_XSP16, literal(-14)))
          CFI (cfiCond51) V1 load(1, XDATA, add(CFA_XSP16, literal(-13)))
          CFI (cfiCond51) V2 load(1, XDATA, add(CFA_XSP16, literal(-12)))
          CFI (cfiCond51) V3 load(1, XDATA, add(CFA_XSP16, literal(-11)))
          CFI (cfiCond51) V4 load(1, XDATA, add(CFA_XSP16, literal(-10)))
          CFI (cfiCond51) V5 load(1, XDATA, add(CFA_XSP16, literal(-9)))
          CFI (cfiCond51) V6 load(1, XDATA, add(CFA_XSP16, literal(-8)))
          CFI (cfiCond51) V7 load(1, XDATA, add(CFA_XSP16, literal(-7)))
          CFI (cfiCond51) R7 load(1, XDATA, add(CFA_XSP16, literal(-6)))
          CFI (cfiCond51) ?RET_LOW load(1, XDATA, add(CFA_XSP16, literal(-5)))
          CFI (cfiCond51) ?RET_HIGH load(1, XDATA, add(CFA_XSP16, literal(-4)))
          CFI (cfiCond51) ?BRET_EXT load(1, XDATA, add(CFA_XSP16, literal(-3)))
          CFI (cfiCond51) DPL0 load(1, XDATA, add(CFA_XSP16, literal(-2)))
          CFI (cfiCond51) DPH0 load(1, XDATA, add(CFA_XSP16, literal(-1)))
          CFI (cfiCond51) CFA_SP SP+-2
          CFI (cfiCond51) CFA_XSP16 add(XSP16, 16)
          CFI Block cfiCond52 Using cfiCommon0
          CFI (cfiCond52) Function Print8
          CFI (cfiCond52) Conditional ??CrossCallReturnLabel_20
          CFI (cfiCond52) R6 load(1, XDATA, add(CFA_XSP16, literal(-20)))
          CFI (cfiCond52) VB load(1, XDATA, add(CFA_XSP16, literal(-19)))
          CFI (cfiCond52) V0 load(1, XDATA, add(CFA_XSP16, literal(-18)))
          CFI (cfiCond52) V1 load(1, XDATA, add(CFA_XSP16, literal(-17)))
          CFI (cfiCond52) V2 load(1, XDATA, add(CFA_XSP16, literal(-16)))
          CFI (cfiCond52) V3 load(1, XDATA, add(CFA_XSP16, literal(-15)))
          CFI (cfiCond52) V4 load(1, XDATA, add(CFA_XSP16, literal(-14)))
          CFI (cfiCond52) V5 load(1, XDATA, add(CFA_XSP16, literal(-13)))
          CFI (cfiCond52) V6 load(1, XDATA, add(CFA_XSP16, literal(-12)))
          CFI (cfiCond52) V7 load(1, XDATA, add(CFA_XSP16, literal(-11)))
          CFI (cfiCond52) V8 load(1, XDATA, add(CFA_XSP16, literal(-10)))
          CFI (cfiCond52) V9 load(1, XDATA, add(CFA_XSP16, literal(-9)))
          CFI (cfiCond52) V10 load(1, XDATA, add(CFA_XSP16, literal(-8)))
          CFI (cfiCond52) V11 load(1, XDATA, add(CFA_XSP16, literal(-7)))
          CFI (cfiCond52) R7 load(1, XDATA, add(CFA_XSP16, literal(-6)))
          CFI (cfiCond52) ?RET_LOW load(1, XDATA, add(CFA_XSP16, literal(-5)))
          CFI (cfiCond52) ?RET_HIGH load(1, XDATA, add(CFA_XSP16, literal(-4)))
          CFI (cfiCond52) ?BRET_EXT load(1, XDATA, add(CFA_XSP16, literal(-3)))
          CFI (cfiCond52) DPL0 load(1, XDATA, add(CFA_XSP16, literal(-2)))
          CFI (cfiCond52) DPH0 load(1, XDATA, add(CFA_XSP16, literal(-1)))
          CFI (cfiCond52) CFA_SP SP+-2
          CFI (cfiCond52) CFA_XSP16 add(XSP16, 20)
          CFI Block cfiCond53 Using cfiCommon0
          CFI (cfiCond53) Function Print8
          CFI (cfiCond53) Conditional ??CrossCallReturnLabel_21
          CFI (cfiCond53) R6 load(1, XDATA, add(CFA_XSP16, literal(-20)))
          CFI (cfiCond53) VB load(1, XDATA, add(CFA_XSP16, literal(-19)))
          CFI (cfiCond53) V0 load(1, XDATA, add(CFA_XSP16, literal(-18)))
          CFI (cfiCond53) V1 load(1, XDATA, add(CFA_XSP16, literal(-17)))
          CFI (cfiCond53) V2 load(1, XDATA, add(CFA_XSP16, literal(-16)))
          CFI (cfiCond53) V3 load(1, XDATA, add(CFA_XSP16, literal(-15)))
          CFI (cfiCond53) V4 load(1, XDATA, add(CFA_XSP16, literal(-14)))
          CFI (cfiCond53) V5 load(1, XDATA, add(CFA_XSP16, literal(-13)))
          CFI (cfiCond53) V6 load(1, XDATA, add(CFA_XSP16, literal(-12)))
          CFI (cfiCond53) V7 load(1, XDATA, add(CFA_XSP16, literal(-11)))
          CFI (cfiCond53) V8 load(1, XDATA, add(CFA_XSP16, literal(-10)))
          CFI (cfiCond53) V9 load(1, XDATA, add(CFA_XSP16, literal(-9)))
          CFI (cfiCond53) V10 load(1, XDATA, add(CFA_XSP16, literal(-8)))
          CFI (cfiCond53) V11 load(1, XDATA, add(CFA_XSP16, literal(-7)))
          CFI (cfiCond53) R7 load(1, XDATA, add(CFA_XSP16, literal(-6)))
          CFI (cfiCond53) ?RET_LOW load(1, XDATA, add(CFA_XSP16, literal(-5)))
          CFI (cfiCond53) ?RET_HIGH load(1, XDATA, add(CFA_XSP16, literal(-4)))
          CFI (cfiCond53) ?BRET_EXT load(1, XDATA, add(CFA_XSP16, literal(-3)))
          CFI (cfiCond53) DPL0 load(1, XDATA, add(CFA_XSP16, literal(-2)))
          CFI (cfiCond53) DPH0 load(1, XDATA, add(CFA_XSP16, literal(-1)))
          CFI (cfiCond53) CFA_SP SP+-2
          CFI (cfiCond53) CFA_XSP16 add(XSP16, 20)
          CFI Block cfiPicker54 Using cfiCommon1
          CFI (cfiPicker54) NoFunction
          CFI (cfiPicker54) Picker
        LCALL   ?Subroutine20 & 0xFFFF
??CrossCallReturnLabel_27:
        RET
          CFI EndBlock cfiCond50
          CFI EndBlock cfiCond51
          CFI EndBlock cfiCond52
          CFI EndBlock cfiCond53
          CFI EndBlock cfiPicker54

        RSEG BANKED_CODE:CODE:NOROOT(0)
?Subroutine20:
          CFI Block cfiCond55 Using cfiCommon0
          CFI Function PrintCh8
          CFI Conditional ??CrossCallReturnLabel_27, ??CrossCallReturnLabel_18
          CFI R6 load(1, XDATA, add(CFA_XSP16, literal(-16)))
          CFI VB load(1, XDATA, add(CFA_XSP16, literal(-15)))
          CFI V0 load(1, XDATA, add(CFA_XSP16, literal(-14)))
          CFI V1 load(1, XDATA, add(CFA_XSP16, literal(-13)))
          CFI V2 load(1, XDATA, add(CFA_XSP16, literal(-12)))
          CFI V3 load(1, XDATA, add(CFA_XSP16, literal(-11)))
          CFI V4 load(1, XDATA, add(CFA_XSP16, literal(-10)))
          CFI V5 load(1, XDATA, add(CFA_XSP16, literal(-9)))
          CFI V6 load(1, XDATA, add(CFA_XSP16, literal(-8)))
          CFI V7 load(1, XDATA, add(CFA_XSP16, literal(-7)))
          CFI R7 load(1, XDATA, add(CFA_XSP16, literal(-6)))
          CFI ?RET_LOW load(1, XDATA, add(CFA_XSP16, literal(-5)))
          CFI ?RET_HIGH load(1, XDATA, add(CFA_XSP16, literal(-4)))
          CFI ?BRET_EXT load(1, XDATA, add(CFA_XSP16, literal(-3)))
          CFI DPL0 load(1, XDATA, add(CFA_XSP16, literal(-2)))
          CFI DPH0 load(1, XDATA, add(CFA_XSP16, literal(-1)))
          CFI CFA_SP SP+-4
          CFI CFA_XSP16 add(XSP16, 16)
          CFI Block cfiCond56 Using cfiCommon0
          CFI (cfiCond56) Function PrintCh8
          CFI (cfiCond56) Conditional ??CrossCallReturnLabel_27, ??CrossCallReturnLabel_19
          CFI (cfiCond56) R6 load(1, XDATA, add(CFA_XSP16, literal(-16)))
          CFI (cfiCond56) VB load(1, XDATA, add(CFA_XSP16, literal(-15)))
          CFI (cfiCond56) V0 load(1, XDATA, add(CFA_XSP16, literal(-14)))
          CFI (cfiCond56) V1 load(1, XDATA, add(CFA_XSP16, literal(-13)))
          CFI (cfiCond56) V2 load(1, XDATA, add(CFA_XSP16, literal(-12)))
          CFI (cfiCond56) V3 load(1, XDATA, add(CFA_XSP16, literal(-11)))
          CFI (cfiCond56) V4 load(1, XDATA, add(CFA_XSP16, literal(-10)))
          CFI (cfiCond56) V5 load(1, XDATA, add(CFA_XSP16, literal(-9)))
          CFI (cfiCond56) V6 load(1, XDATA, add(CFA_XSP16, literal(-8)))
          CFI (cfiCond56) V7 load(1, XDATA, add(CFA_XSP16, literal(-7)))
          CFI (cfiCond56) R7 load(1, XDATA, add(CFA_XSP16, literal(-6)))
          CFI (cfiCond56) ?RET_LOW load(1, XDATA, add(CFA_XSP16, literal(-5)))
          CFI (cfiCond56) ?RET_HIGH load(1, XDATA, add(CFA_XSP16, literal(-4)))
          CFI (cfiCond56) ?BRET_EXT load(1, XDATA, add(CFA_XSP16, literal(-3)))
          CFI (cfiCond56) DPL0 load(1, XDATA, add(CFA_XSP16, literal(-2)))
          CFI (cfiCond56) DPH0 load(1, XDATA, add(CFA_XSP16, literal(-1)))
          CFI (cfiCond56) CFA_SP SP+-4
          CFI (cfiCond56) CFA_XSP16 add(XSP16, 16)
          CFI Block cfiCond57 Using cfiCommon0
          CFI (cfiCond57) Function Print8
          CFI (cfiCond57) Conditional ??CrossCallReturnLabel_27, ??CrossCallReturnLabel_20
          CFI (cfiCond57) R6 load(1, XDATA, add(CFA_XSP16, literal(-20)))
          CFI (cfiCond57) VB load(1, XDATA, add(CFA_XSP16, literal(-19)))
          CFI (cfiCond57) V0 load(1, XDATA, add(CFA_XSP16, literal(-18)))
          CFI (cfiCond57) V1 load(1, XDATA, add(CFA_XSP16, literal(-17)))
          CFI (cfiCond57) V2 load(1, XDATA, add(CFA_XSP16, literal(-16)))
          CFI (cfiCond57) V3 load(1, XDATA, add(CFA_XSP16, literal(-15)))
          CFI (cfiCond57) V4 load(1, XDATA, add(CFA_XSP16, literal(-14)))
          CFI (cfiCond57) V5 load(1, XDATA, add(CFA_XSP16, literal(-13)))
          CFI (cfiCond57) V6 load(1, XDATA, add(CFA_XSP16, literal(-12)))
          CFI (cfiCond57) V7 load(1, XDATA, add(CFA_XSP16, literal(-11)))
          CFI (cfiCond57) V8 load(1, XDATA, add(CFA_XSP16, literal(-10)))
          CFI (cfiCond57) V9 load(1, XDATA, add(CFA_XSP16, literal(-9)))
          CFI (cfiCond57) V10 load(1, XDATA, add(CFA_XSP16, literal(-8)))
          CFI (cfiCond57) V11 load(1, XDATA, add(CFA_XSP16, literal(-7)))
          CFI (cfiCond57) R7 load(1, XDATA, add(CFA_XSP16, literal(-6)))
          CFI (cfiCond57) ?RET_LOW load(1, XDATA, add(CFA_XSP16, literal(-5)))
          CFI (cfiCond57) ?RET_HIGH load(1, XDATA, add(CFA_XSP16, literal(-4)))
          CFI (cfiCond57) ?BRET_EXT load(1, XDATA, add(CFA_XSP16, literal(-3)))
          CFI (cfiCond57) DPL0 load(1, XDATA, add(CFA_XSP16, literal(-2)))
          CFI (cfiCond57) DPH0 load(1, XDATA, add(CFA_XSP16, literal(-1)))
          CFI (cfiCond57) CFA_SP SP+-4
          CFI (cfiCond57) CFA_XSP16 add(XSP16, 20)
          CFI Block cfiCond58 Using cfiCommon0
          CFI (cfiCond58) Function Print8
          CFI (cfiCond58) Conditional ??CrossCallReturnLabel_27, ??CrossCallReturnLabel_21
          CFI (cfiCond58) R6 load(1, XDATA, add(CFA_XSP16, literal(-20)))
          CFI (cfiCond58) VB load(1, XDATA, add(CFA_XSP16, literal(-19)))
          CFI (cfiCond58) V0 load(1, XDATA, add(CFA_XSP16, literal(-18)))
          CFI (cfiCond58) V1 load(1, XDATA, add(CFA_XSP16, literal(-17)))
          CFI (cfiCond58) V2 load(1, XDATA, add(CFA_XSP16, literal(-16)))
          CFI (cfiCond58) V3 load(1, XDATA, add(CFA_XSP16, literal(-15)))
          CFI (cfiCond58) V4 load(1, XDATA, add(CFA_XSP16, literal(-14)))
          CFI (cfiCond58) V5 load(1, XDATA, add(CFA_XSP16, literal(-13)))
          CFI (cfiCond58) V6 load(1, XDATA, add(CFA_XSP16, literal(-12)))
          CFI (cfiCond58) V7 load(1, XDATA, add(CFA_XSP16, literal(-11)))
          CFI (cfiCond58) V8 load(1, XDATA, add(CFA_XSP16, literal(-10)))
          CFI (cfiCond58) V9 load(1, XDATA, add(CFA_XSP16, literal(-9)))
          CFI (cfiCond58) V10 load(1, XDATA, add(CFA_XSP16, literal(-8)))
          CFI (cfiCond58) V11 load(1, XDATA, add(CFA_XSP16, literal(-7)))
          CFI (cfiCond58) R7 load(1, XDATA, add(CFA_XSP16, literal(-6)))
          CFI (cfiCond58) ?RET_LOW load(1, XDATA, add(CFA_XSP16, literal(-5)))
          CFI (cfiCond58) ?RET_HIGH load(1, XDATA, add(CFA_XSP16, literal(-4)))
          CFI (cfiCond58) ?BRET_EXT load(1, XDATA, add(CFA_XSP16, literal(-3)))
          CFI (cfiCond58) DPL0 load(1, XDATA, add(CFA_XSP16, literal(-2)))
          CFI (cfiCond58) DPH0 load(1, XDATA, add(CFA_XSP16, literal(-1)))
          CFI (cfiCond58) CFA_SP SP+-4
          CFI (cfiCond58) CFA_XSP16 add(XSP16, 20)
          CFI Block cfiCond59 Using cfiCommon0
          CFI (cfiCond59) Function PrintCh8
          CFI (cfiCond59) Conditional ??CrossCallReturnLabel_26, ??CrossCallReturnLabel_14
          CFI (cfiCond59) R6 load(1, XDATA, add(CFA_XSP16, literal(-16)))
          CFI (cfiCond59) VB load(1, XDATA, add(CFA_XSP16, literal(-15)))
          CFI (cfiCond59) V0 load(1, XDATA, add(CFA_XSP16, literal(-14)))
          CFI (cfiCond59) V1 load(1, XDATA, add(CFA_XSP16, literal(-13)))
          CFI (cfiCond59) V2 load(1, XDATA, add(CFA_XSP16, literal(-12)))
          CFI (cfiCond59) V3 load(1, XDATA, add(CFA_XSP16, literal(-11)))
          CFI (cfiCond59) V4 load(1, XDATA, add(CFA_XSP16, literal(-10)))
          CFI (cfiCond59) V5 load(1, XDATA, add(CFA_XSP16, literal(-9)))
          CFI (cfiCond59) V6 load(1, XDATA, add(CFA_XSP16, literal(-8)))
          CFI (cfiCond59) V7 load(1, XDATA, add(CFA_XSP16, literal(-7)))
          CFI (cfiCond59) R7 load(1, XDATA, add(CFA_XSP16, literal(-6)))
          CFI (cfiCond59) ?RET_LOW load(1, XDATA, add(CFA_XSP16, literal(-5)))
          CFI (cfiCond59) ?RET_HIGH load(1, XDATA, add(CFA_XSP16, literal(-4)))
          CFI (cfiCond59) ?BRET_EXT load(1, XDATA, add(CFA_XSP16, literal(-3)))
          CFI (cfiCond59) DPL0 load(1, XDATA, add(CFA_XSP16, literal(-2)))
          CFI (cfiCond59) DPH0 load(1, XDATA, add(CFA_XSP16, literal(-1)))
          CFI (cfiCond59) CFA_SP SP+-4
          CFI (cfiCond59) CFA_XSP16 add(XSP16, 16)
          CFI Block cfiCond60 Using cfiCommon0
          CFI (cfiCond60) Function PrintCh8
          CFI (cfiCond60) Conditional ??CrossCallReturnLabel_26, ??CrossCallReturnLabel_15
          CFI (cfiCond60) R6 load(1, XDATA, add(CFA_XSP16, literal(-16)))
          CFI (cfiCond60) VB load(1, XDATA, add(CFA_XSP16, literal(-15)))
          CFI (cfiCond60) V0 load(1, XDATA, add(CFA_XSP16, literal(-14)))
          CFI (cfiCond60) V1 load(1, XDATA, add(CFA_XSP16, literal(-13)))
          CFI (cfiCond60) V2 load(1, XDATA, add(CFA_XSP16, literal(-12)))
          CFI (cfiCond60) V3 load(1, XDATA, add(CFA_XSP16, literal(-11)))
          CFI (cfiCond60) V4 load(1, XDATA, add(CFA_XSP16, literal(-10)))
          CFI (cfiCond60) V5 load(1, XDATA, add(CFA_XSP16, literal(-9)))
          CFI (cfiCond60) V6 load(1, XDATA, add(CFA_XSP16, literal(-8)))
          CFI (cfiCond60) V7 load(1, XDATA, add(CFA_XSP16, literal(-7)))
          CFI (cfiCond60) R7 load(1, XDATA, add(CFA_XSP16, literal(-6)))
          CFI (cfiCond60) ?RET_LOW load(1, XDATA, add(CFA_XSP16, literal(-5)))
          CFI (cfiCond60) ?RET_HIGH load(1, XDATA, add(CFA_XSP16, literal(-4)))
          CFI (cfiCond60) ?BRET_EXT load(1, XDATA, add(CFA_XSP16, literal(-3)))
          CFI (cfiCond60) DPL0 load(1, XDATA, add(CFA_XSP16, literal(-2)))
          CFI (cfiCond60) DPH0 load(1, XDATA, add(CFA_XSP16, literal(-1)))
          CFI (cfiCond60) CFA_SP SP+-4
          CFI (cfiCond60) CFA_XSP16 add(XSP16, 16)
          CFI Block cfiCond61 Using cfiCommon0
          CFI (cfiCond61) Function Print8
          CFI (cfiCond61) Conditional ??CrossCallReturnLabel_26, ??CrossCallReturnLabel_16
          CFI (cfiCond61) R6 load(1, XDATA, add(CFA_XSP16, literal(-20)))
          CFI (cfiCond61) VB load(1, XDATA, add(CFA_XSP16, literal(-19)))
          CFI (cfiCond61) V0 load(1, XDATA, add(CFA_XSP16, literal(-18)))
          CFI (cfiCond61) V1 load(1, XDATA, add(CFA_XSP16, literal(-17)))
          CFI (cfiCond61) V2 load(1, XDATA, add(CFA_XSP16, literal(-16)))
          CFI (cfiCond61) V3 load(1, XDATA, add(CFA_XSP16, literal(-15)))
          CFI (cfiCond61) V4 load(1, XDATA, add(CFA_XSP16, literal(-14)))
          CFI (cfiCond61) V5 load(1, XDATA, add(CFA_XSP16, literal(-13)))
          CFI (cfiCond61) V6 load(1, XDATA, add(CFA_XSP16, literal(-12)))
          CFI (cfiCond61) V7 load(1, XDATA, add(CFA_XSP16, literal(-11)))
          CFI (cfiCond61) V8 load(1, XDATA, add(CFA_XSP16, literal(-10)))
          CFI (cfiCond61) V9 load(1, XDATA, add(CFA_XSP16, literal(-9)))
          CFI (cfiCond61) V10 load(1, XDATA, add(CFA_XSP16, literal(-8)))
          CFI (cfiCond61) V11 load(1, XDATA, add(CFA_XSP16, literal(-7)))
          CFI (cfiCond61) R7 load(1, XDATA, add(CFA_XSP16, literal(-6)))
          CFI (cfiCond61) ?RET_LOW load(1, XDATA, add(CFA_XSP16, literal(-5)))
          CFI (cfiCond61) ?RET_HIGH load(1, XDATA, add(CFA_XSP16, literal(-4)))
          CFI (cfiCond61) ?BRET_EXT load(1, XDATA, add(CFA_XSP16, literal(-3)))
          CFI (cfiCond61) DPL0 load(1, XDATA, add(CFA_XSP16, literal(-2)))
          CFI (cfiCond61) DPH0 load(1, XDATA, add(CFA_XSP16, literal(-1)))
          CFI (cfiCond61) CFA_SP SP+-4
          CFI (cfiCond61) CFA_XSP16 add(XSP16, 20)
          CFI Block cfiCond62 Using cfiCommon0
          CFI (cfiCond62) Function Print8
          CFI (cfiCond62) Conditional ??CrossCallReturnLabel_26, ??CrossCallReturnLabel_17
          CFI (cfiCond62) R6 load(1, XDATA, add(CFA_XSP16, literal(-20)))
          CFI (cfiCond62) VB load(1, XDATA, add(CFA_XSP16, literal(-19)))
          CFI (cfiCond62) V0 load(1, XDATA, add(CFA_XSP16, literal(-18)))
          CFI (cfiCond62) V1 load(1, XDATA, add(CFA_XSP16, literal(-17)))
          CFI (cfiCond62) V2 load(1, XDATA, add(CFA_XSP16, literal(-16)))
          CFI (cfiCond62) V3 load(1, XDATA, add(CFA_XSP16, literal(-15)))
          CFI (cfiCond62) V4 load(1, XDATA, add(CFA_XSP16, literal(-14)))
          CFI (cfiCond62) V5 load(1, XDATA, add(CFA_XSP16, literal(-13)))
          CFI (cfiCond62) V6 load(1, XDATA, add(CFA_XSP16, literal(-12)))
          CFI (cfiCond62) V7 load(1, XDATA, add(CFA_XSP16, literal(-11)))
          CFI (cfiCond62) V8 load(1, XDATA, add(CFA_XSP16, literal(-10)))
          CFI (cfiCond62) V9 load(1, XDATA, add(CFA_XSP16, literal(-9)))
          CFI (cfiCond62) V10 load(1, XDATA, add(CFA_XSP16, literal(-8)))
          CFI (cfiCond62) V11 load(1, XDATA, add(CFA_XSP16, literal(-7)))
          CFI (cfiCond62) R7 load(1, XDATA, add(CFA_XSP16, literal(-6)))
          CFI (cfiCond62) ?RET_LOW load(1, XDATA, add(CFA_XSP16, literal(-5)))
          CFI (cfiCond62) ?RET_HIGH load(1, XDATA, add(CFA_XSP16, literal(-4)))
          CFI (cfiCond62) ?BRET_EXT load(1, XDATA, add(CFA_XSP16, literal(-3)))
          CFI (cfiCond62) DPL0 load(1, XDATA, add(CFA_XSP16, literal(-2)))
          CFI (cfiCond62) DPH0 load(1, XDATA, add(CFA_XSP16, literal(-1)))
          CFI (cfiCond62) CFA_SP SP+-4
          CFI (cfiCond62) CFA_XSP16 add(XSP16, 20)
          CFI Block cfiPicker63 Using cfiCommon1
          CFI (cfiPicker63) NoFunction
          CFI (cfiPicker63) Picker
        MOV     A,#Font8X8 & 0xff
        ADD     A,?V2
        MOV     DPL,A
        MOV     A,#(Font8X8 >> 8) & 0xff
        ADDC    A,?V3
        MOV     DPH,A
        CLR     A
        MOVC    A,@A+DPTR
        RET
          CFI EndBlock cfiCond55
          CFI EndBlock cfiCond56
          CFI EndBlock cfiCond57
          CFI EndBlock cfiCond58
          CFI EndBlock cfiCond59
          CFI EndBlock cfiCond60
          CFI EndBlock cfiCond61
          CFI EndBlock cfiCond62
          CFI EndBlock cfiPicker63

        RSEG BANKED_CODE:CODE:NOROOT(0)
?Subroutine15:
          CFI Block cfiCond64 Using cfiCommon0
          CFI Function PrintCh8
          CFI Conditional ??CrossCallReturnLabel_14
          CFI R6 load(1, XDATA, add(CFA_XSP16, literal(-16)))
          CFI VB load(1, XDATA, add(CFA_XSP16, literal(-15)))
          CFI V0 load(1, XDATA, add(CFA_XSP16, literal(-14)))
          CFI V1 load(1, XDATA, add(CFA_XSP16, literal(-13)))
          CFI V2 load(1, XDATA, add(CFA_XSP16, literal(-12)))
          CFI V3 load(1, XDATA, add(CFA_XSP16, literal(-11)))
          CFI V4 load(1, XDATA, add(CFA_XSP16, literal(-10)))
          CFI V5 load(1, XDATA, add(CFA_XSP16, literal(-9)))
          CFI V6 load(1, XDATA, add(CFA_XSP16, literal(-8)))
          CFI V7 load(1, XDATA, add(CFA_XSP16, literal(-7)))
          CFI R7 load(1, XDATA, add(CFA_XSP16, literal(-6)))
          CFI ?RET_LOW load(1, XDATA, add(CFA_XSP16, literal(-5)))
          CFI ?RET_HIGH load(1, XDATA, add(CFA_XSP16, literal(-4)))
          CFI ?BRET_EXT load(1, XDATA, add(CFA_XSP16, literal(-3)))
          CFI DPL0 load(1, XDATA, add(CFA_XSP16, literal(-2)))
          CFI DPH0 load(1, XDATA, add(CFA_XSP16, literal(-1)))
          CFI CFA_SP SP+-2
          CFI CFA_XSP16 add(XSP16, 16)
          CFI Block cfiCond65 Using cfiCommon0
          CFI (cfiCond65) Function PrintCh8
          CFI (cfiCond65) Conditional ??CrossCallReturnLabel_15
          CFI (cfiCond65) R6 load(1, XDATA, add(CFA_XSP16, literal(-16)))
          CFI (cfiCond65) VB load(1, XDATA, add(CFA_XSP16, literal(-15)))
          CFI (cfiCond65) V0 load(1, XDATA, add(CFA_XSP16, literal(-14)))
          CFI (cfiCond65) V1 load(1, XDATA, add(CFA_XSP16, literal(-13)))
          CFI (cfiCond65) V2 load(1, XDATA, add(CFA_XSP16, literal(-12)))
          CFI (cfiCond65) V3 load(1, XDATA, add(CFA_XSP16, literal(-11)))
          CFI (cfiCond65) V4 load(1, XDATA, add(CFA_XSP16, literal(-10)))
          CFI (cfiCond65) V5 load(1, XDATA, add(CFA_XSP16, literal(-9)))
          CFI (cfiCond65) V6 load(1, XDATA, add(CFA_XSP16, literal(-8)))
          CFI (cfiCond65) V7 load(1, XDATA, add(CFA_XSP16, literal(-7)))
          CFI (cfiCond65) R7 load(1, XDATA, add(CFA_XSP16, literal(-6)))
          CFI (cfiCond65) ?RET_LOW load(1, XDATA, add(CFA_XSP16, literal(-5)))
          CFI (cfiCond65) ?RET_HIGH load(1, XDATA, add(CFA_XSP16, literal(-4)))
          CFI (cfiCond65) ?BRET_EXT load(1, XDATA, add(CFA_XSP16, literal(-3)))
          CFI (cfiCond65) DPL0 load(1, XDATA, add(CFA_XSP16, literal(-2)))
          CFI (cfiCond65) DPH0 load(1, XDATA, add(CFA_XSP16, literal(-1)))
          CFI (cfiCond65) CFA_SP SP+-2
          CFI (cfiCond65) CFA_XSP16 add(XSP16, 16)
          CFI Block cfiCond66 Using cfiCommon0
          CFI (cfiCond66) Function Print8
          CFI (cfiCond66) Conditional ??CrossCallReturnLabel_16
          CFI (cfiCond66) R6 load(1, XDATA, add(CFA_XSP16, literal(-20)))
          CFI (cfiCond66) VB load(1, XDATA, add(CFA_XSP16, literal(-19)))
          CFI (cfiCond66) V0 load(1, XDATA, add(CFA_XSP16, literal(-18)))
          CFI (cfiCond66) V1 load(1, XDATA, add(CFA_XSP16, literal(-17)))
          CFI (cfiCond66) V2 load(1, XDATA, add(CFA_XSP16, literal(-16)))
          CFI (cfiCond66) V3 load(1, XDATA, add(CFA_XSP16, literal(-15)))
          CFI (cfiCond66) V4 load(1, XDATA, add(CFA_XSP16, literal(-14)))
          CFI (cfiCond66) V5 load(1, XDATA, add(CFA_XSP16, literal(-13)))
          CFI (cfiCond66) V6 load(1, XDATA, add(CFA_XSP16, literal(-12)))
          CFI (cfiCond66) V7 load(1, XDATA, add(CFA_XSP16, literal(-11)))
          CFI (cfiCond66) V8 load(1, XDATA, add(CFA_XSP16, literal(-10)))
          CFI (cfiCond66) V9 load(1, XDATA, add(CFA_XSP16, literal(-9)))
          CFI (cfiCond66) V10 load(1, XDATA, add(CFA_XSP16, literal(-8)))
          CFI (cfiCond66) V11 load(1, XDATA, add(CFA_XSP16, literal(-7)))
          CFI (cfiCond66) R7 load(1, XDATA, add(CFA_XSP16, literal(-6)))
          CFI (cfiCond66) ?RET_LOW load(1, XDATA, add(CFA_XSP16, literal(-5)))
          CFI (cfiCond66) ?RET_HIGH load(1, XDATA, add(CFA_XSP16, literal(-4)))
          CFI (cfiCond66) ?BRET_EXT load(1, XDATA, add(CFA_XSP16, literal(-3)))
          CFI (cfiCond66) DPL0 load(1, XDATA, add(CFA_XSP16, literal(-2)))
          CFI (cfiCond66) DPH0 load(1, XDATA, add(CFA_XSP16, literal(-1)))
          CFI (cfiCond66) CFA_SP SP+-2
          CFI (cfiCond66) CFA_XSP16 add(XSP16, 20)
          CFI Block cfiCond67 Using cfiCommon0
          CFI (cfiCond67) Function Print8
          CFI (cfiCond67) Conditional ??CrossCallReturnLabel_17
          CFI (cfiCond67) R6 load(1, XDATA, add(CFA_XSP16, literal(-20)))
          CFI (cfiCond67) VB load(1, XDATA, add(CFA_XSP16, literal(-19)))
          CFI (cfiCond67) V0 load(1, XDATA, add(CFA_XSP16, literal(-18)))
          CFI (cfiCond67) V1 load(1, XDATA, add(CFA_XSP16, literal(-17)))
          CFI (cfiCond67) V2 load(1, XDATA, add(CFA_XSP16, literal(-16)))
          CFI (cfiCond67) V3 load(1, XDATA, add(CFA_XSP16, literal(-15)))
          CFI (cfiCond67) V4 load(1, XDATA, add(CFA_XSP16, literal(-14)))
          CFI (cfiCond67) V5 load(1, XDATA, add(CFA_XSP16, literal(-13)))
          CFI (cfiCond67) V6 load(1, XDATA, add(CFA_XSP16, literal(-12)))
          CFI (cfiCond67) V7 load(1, XDATA, add(CFA_XSP16, literal(-11)))
          CFI (cfiCond67) V8 load(1, XDATA, add(CFA_XSP16, literal(-10)))
          CFI (cfiCond67) V9 load(1, XDATA, add(CFA_XSP16, literal(-9)))
          CFI (cfiCond67) V10 load(1, XDATA, add(CFA_XSP16, literal(-8)))
          CFI (cfiCond67) V11 load(1, XDATA, add(CFA_XSP16, literal(-7)))
          CFI (cfiCond67) R7 load(1, XDATA, add(CFA_XSP16, literal(-6)))
          CFI (cfiCond67) ?RET_LOW load(1, XDATA, add(CFA_XSP16, literal(-5)))
          CFI (cfiCond67) ?RET_HIGH load(1, XDATA, add(CFA_XSP16, literal(-4)))
          CFI (cfiCond67) ?BRET_EXT load(1, XDATA, add(CFA_XSP16, literal(-3)))
          CFI (cfiCond67) DPL0 load(1, XDATA, add(CFA_XSP16, literal(-2)))
          CFI (cfiCond67) DPH0 load(1, XDATA, add(CFA_XSP16, literal(-1)))
          CFI (cfiCond67) CFA_SP SP+-2
          CFI (cfiCond67) CFA_XSP16 add(XSP16, 20)
          CFI Block cfiPicker68 Using cfiCommon1
          CFI (cfiPicker68) NoFunction
          CFI (cfiPicker68) Picker
        LCALL   ?Subroutine20 & 0xFFFF
??CrossCallReturnLabel_26:
        CPL     A
        RET
          CFI EndBlock cfiCond64
          CFI EndBlock cfiCond65
          CFI EndBlock cfiCond66
          CFI EndBlock cfiCond67
          CFI EndBlock cfiPicker68

        RSEG BANKED_CODE:CODE:NOROOT(0)
?Subroutine11:
          CFI Block cfiCond69 Using cfiCommon0
          CFI Function PrintCh8
          CFI Conditional ??CrossCallReturnLabel_4
          CFI R6 load(1, XDATA, add(CFA_XSP16, literal(-16)))
          CFI VB load(1, XDATA, add(CFA_XSP16, literal(-15)))
          CFI V0 load(1, XDATA, add(CFA_XSP16, literal(-14)))
          CFI V1 load(1, XDATA, add(CFA_XSP16, literal(-13)))
          CFI V2 load(1, XDATA, add(CFA_XSP16, literal(-12)))
          CFI V3 load(1, XDATA, add(CFA_XSP16, literal(-11)))
          CFI V4 load(1, XDATA, add(CFA_XSP16, literal(-10)))
          CFI V5 load(1, XDATA, add(CFA_XSP16, literal(-9)))
          CFI V6 load(1, XDATA, add(CFA_XSP16, literal(-8)))
          CFI V7 load(1, XDATA, add(CFA_XSP16, literal(-7)))
          CFI R7 load(1, XDATA, add(CFA_XSP16, literal(-6)))
          CFI ?RET_LOW load(1, XDATA, add(CFA_XSP16, literal(-5)))
          CFI ?RET_HIGH load(1, XDATA, add(CFA_XSP16, literal(-4)))
          CFI ?BRET_EXT load(1, XDATA, add(CFA_XSP16, literal(-3)))
          CFI DPL0 load(1, XDATA, add(CFA_XSP16, literal(-2)))
          CFI DPH0 load(1, XDATA, add(CFA_XSP16, literal(-1)))
          CFI CFA_SP SP+-2
          CFI CFA_XSP16 add(XSP16, 16)
          CFI Block cfiCond70 Using cfiCommon0
          CFI (cfiCond70) Function Print8
          CFI (cfiCond70) Conditional ??CrossCallReturnLabel_5
          CFI (cfiCond70) R6 load(1, XDATA, add(CFA_XSP16, literal(-20)))
          CFI (cfiCond70) VB load(1, XDATA, add(CFA_XSP16, literal(-19)))
          CFI (cfiCond70) V0 load(1, XDATA, add(CFA_XSP16, literal(-18)))
          CFI (cfiCond70) V1 load(1, XDATA, add(CFA_XSP16, literal(-17)))
          CFI (cfiCond70) V2 load(1, XDATA, add(CFA_XSP16, literal(-16)))
          CFI (cfiCond70) V3 load(1, XDATA, add(CFA_XSP16, literal(-15)))
          CFI (cfiCond70) V4 load(1, XDATA, add(CFA_XSP16, literal(-14)))
          CFI (cfiCond70) V5 load(1, XDATA, add(CFA_XSP16, literal(-13)))
          CFI (cfiCond70) V6 load(1, XDATA, add(CFA_XSP16, literal(-12)))
          CFI (cfiCond70) V7 load(1, XDATA, add(CFA_XSP16, literal(-11)))
          CFI (cfiCond70) V8 load(1, XDATA, add(CFA_XSP16, literal(-10)))
          CFI (cfiCond70) V9 load(1, XDATA, add(CFA_XSP16, literal(-9)))
          CFI (cfiCond70) V10 load(1, XDATA, add(CFA_XSP16, literal(-8)))
          CFI (cfiCond70) V11 load(1, XDATA, add(CFA_XSP16, literal(-7)))
          CFI (cfiCond70) R7 load(1, XDATA, add(CFA_XSP16, literal(-6)))
          CFI (cfiCond70) ?RET_LOW load(1, XDATA, add(CFA_XSP16, literal(-5)))
          CFI (cfiCond70) ?RET_HIGH load(1, XDATA, add(CFA_XSP16, literal(-4)))
          CFI (cfiCond70) ?BRET_EXT load(1, XDATA, add(CFA_XSP16, literal(-3)))
          CFI (cfiCond70) DPL0 load(1, XDATA, add(CFA_XSP16, literal(-2)))
          CFI (cfiCond70) DPH0 load(1, XDATA, add(CFA_XSP16, literal(-1)))
          CFI (cfiCond70) CFA_SP SP+-2
          CFI (cfiCond70) CFA_XSP16 add(XSP16, 20)
          CFI Block cfiCond71 Using cfiCommon0
          CFI (cfiCond71) Function Print
          CFI (cfiCond71) Conditional ??CrossCallReturnLabel_6
          CFI (cfiCond71) R6 load(1, XDATA, add(CFA_XSP16, literal(-16)))
          CFI (cfiCond71) VB load(1, XDATA, add(CFA_XSP16, literal(-15)))
          CFI (cfiCond71) V0 load(1, XDATA, add(CFA_XSP16, literal(-14)))
          CFI (cfiCond71) V1 load(1, XDATA, add(CFA_XSP16, literal(-13)))
          CFI (cfiCond71) V2 load(1, XDATA, add(CFA_XSP16, literal(-12)))
          CFI (cfiCond71) V3 load(1, XDATA, add(CFA_XSP16, literal(-11)))
          CFI (cfiCond71) V4 load(1, XDATA, add(CFA_XSP16, literal(-10)))
          CFI (cfiCond71) V5 load(1, XDATA, add(CFA_XSP16, literal(-9)))
          CFI (cfiCond71) V6 load(1, XDATA, add(CFA_XSP16, literal(-8)))
          CFI (cfiCond71) V7 load(1, XDATA, add(CFA_XSP16, literal(-7)))
          CFI (cfiCond71) R7 load(1, XDATA, add(CFA_XSP16, literal(-6)))
          CFI (cfiCond71) ?RET_LOW load(1, XDATA, add(CFA_XSP16, literal(-5)))
          CFI (cfiCond71) ?RET_HIGH load(1, XDATA, add(CFA_XSP16, literal(-4)))
          CFI (cfiCond71) ?BRET_EXT load(1, XDATA, add(CFA_XSP16, literal(-3)))
          CFI (cfiCond71) DPL0 load(1, XDATA, add(CFA_XSP16, literal(-2)))
          CFI (cfiCond71) DPH0 load(1, XDATA, add(CFA_XSP16, literal(-1)))
          CFI (cfiCond71) CFA_SP SP+-2
          CFI (cfiCond71) CFA_XSP16 add(XSP16, 19)
          CFI Block cfiPicker72 Using cfiCommon1
          CFI (cfiPicker72) NoFunction
          CFI (cfiPicker72) Picker
        MOVX    A,@DPTR
        MOV     ?V4,A
        INC     DPTR
        MOVX    A,@DPTR
        MOV     ?V5,A
        RET
          CFI EndBlock cfiCond69
          CFI EndBlock cfiCond70
          CFI EndBlock cfiCond71
          CFI EndBlock cfiPicker72
//  615 
//  616 
//  617 /*******************************************************************************
//  618 //???:void Print16(uint16 y,uint16 x,uint8 ch[],uint16 yn)
//  619 //??:????????
//  620 //??:x ,y ??,ch[]??????,yn????
//  621 //??:?
//  622 ********************************************************************************
//  623 void Print16(uint16 y,uint16 x,uint8 ch[],uint16 yn)
//  624 {
//  625 	uint8 wm ,ii = 0;
//  626 	uint16 adder;
//  627 
//  628 	wm = 0;
//  629 	adder = 1;
//  630 	while(FontNew8X16_Index[wm] > 128)
//  631 	{
//  632 		if(FontNew8X16_Index[wm] == ch[ii])
//  633 		{
//  634 			if(FontNew8X16_Index[wm + 1] == ch[ii + 1])
//  635 			{
//  636 				adder = wm * 14;
//  637 				break;
//  638 			}
//  639 		}
//  640 		wm += 2;				//???????????
//  641 	}
//  642 	SetRamAddr(y , x);
//  643 
//  644 	if(adder != 1)					//????,????	
//  645 	{
//  646 		
//  647 		for(wm = 0;wm < 14;wm++)
//  648 		{
//  649 			SetRamAddr(y , x);
//  650 			if(yn == 0)
//  651 			{
//  652 				WriteLCD(DATA, ~FontNew16X16[adder]);
//  653 			}
//  654 			else
//  655 			{
//  656 				WriteLCD(DATA, FontNew16X16[adder]);
//  657 			}
//  658 			adder += 1;
//  659 			x += 1;
//  660 		}
//  661                 for(wm = 0;wm < 2;wm++)
//  662 		{
//  663 			SetRamAddr(y , x);
//  664 			if(yn == 0)
//  665 			{
//  666 				WriteLCD(DATA, 0xff);
//  667 			}
//  668 			else
//  669 			{
//  670 				WriteLCD(DATA, 0x00);
//  671 			}
//  672 			x += 1;
//  673 		}
//  674 		y += 1;
//  675 		x -=16;
//  676 
//  677 		for(wm = 0;wm < 14;wm++)
//  678 		{
//  679 			SetRamAddr(y , x);
//  680 			if(yn == 0)
//  681 			{
//  682 				WriteLCD(DATA, ~FontNew16X16[adder]);
//  683 			}
//  684 			else
//  685 			{
//  686 				WriteLCD(DATA, FontNew16X16[adder]);
//  687 			}
//  688 			adder += 1;
//  689 			x += 1;
//  690 		}
//  691                 for(wm = 0;wm < 2;wm++)
//  692 		{
//  693 			SetRamAddr(y , x);
//  694 			if(yn == 0)
//  695 			{
//  696 				WriteLCD(DATA, 0xff);
//  697 			}
//  698 			else
//  699 			{
//  700 				WriteLCD(DATA, 0x00);
//  701 			}
//  702 			x += 1;
//  703 		}
//  704 
//  705 
//  706 	}
//  707 	else						//????????			
//  708 	{
//  709 		ii += 1;
//  710 
//  711 		for(wm = 0;wm < 16;wm++)
//  712 		{
//  713 			SetRamAddr(y , x);
//  714 			if(yn == 0)
//  715 			{
//  716 				WriteLCD(DATA, 0xff);
//  717 			}
//  718 			else
//  719 			{
//  720 				WriteLCD(DATA, 0x00);
//  721 			}
//  722 			x += 1;
//  723 		}
//  724 		y += 1;
//  725 		x -= 16;
//  726 		for(wm = 0;wm < 16;wm++)
//  727 		{
//  728 			SetRamAddr(y , x);
//  729 			if(yn == 0)
//  730 			{
//  731 				WriteLCD(DATA, 0xff);
//  732 			}
//  733 			else
//  734 			{
//  735 				WriteLCD(DATA, 0x00);
//  736 			}
//  737 			x += 1;
//  738 		}
//  739 	}
//  740 }*/
//  741 
//  742 
//  743 /*******************************************************************************
//  744 //???:void Print(uint8 y, uint8 x, uint8 ch[], uint16 yn)
//  745 //??:???????????
//  746 //??:x ,y ??,ch[]?????????,yn????
//  747 //??:?
//  748 ********************************************************************************/

        RSEG BANKED_CODE:CODE:NOROOT(0)
//  749 void Print(uint8 y, uint8 x, uint8 ch[], uint16 yn)
Print:
          CFI Block cfiBlock73 Using cfiCommon0
          CFI Function Print
        CODE
//  750 {
        FUNCALL Print, Print8
        LOCFRAME ISTACK, 0, STACK
        LOCFRAME PSTACK, 0, STACK
        LOCFRAME XSTACK, 23, STACK
        LOCFRAME IOVERLAY, 0, STATIC
        LOCFRAME DOVERLAY, 0, STATIC
        ARGFRAME ISTACK, 0, STACK
        ARGFRAME PSTACK, 0, STACK
        ARGFRAME XSTACK, 23, STACK
        ARGFRAME IOVERLAY, 0, STATIC
        ARGFRAME DOVERLAY, 0, STATIC
        REQUIRE ?V0
        REQUIRE ?V1
        REQUIRE ?V2
        REQUIRE ?V4
        REQUIRE ?V5
        REQUIRE ?V6
        REQUIRE ?V7
        MOV     A,#-0x10
        LCALL   ?BANKED_ENTER_XDATA
          CFI DPH0 load(1, XDATA, add(CFA_XSP16, literal(-1)))
          CFI DPL0 load(1, XDATA, add(CFA_XSP16, literal(-2)))
          CFI ?BRET_EXT load(1, XDATA, add(CFA_XSP16, literal(-3)))
          CFI ?RET_HIGH load(1, XDATA, add(CFA_XSP16, literal(-4)))
          CFI ?RET_LOW load(1, XDATA, add(CFA_XSP16, literal(-5)))
          CFI R7 load(1, XDATA, add(CFA_XSP16, literal(-6)))
          CFI V7 load(1, XDATA, add(CFA_XSP16, literal(-7)))
          CFI V6 load(1, XDATA, add(CFA_XSP16, literal(-8)))
          CFI V5 load(1, XDATA, add(CFA_XSP16, literal(-9)))
          CFI V4 load(1, XDATA, add(CFA_XSP16, literal(-10)))
          CFI V3 load(1, XDATA, add(CFA_XSP16, literal(-11)))
          CFI V2 load(1, XDATA, add(CFA_XSP16, literal(-12)))
          CFI V1 load(1, XDATA, add(CFA_XSP16, literal(-13)))
          CFI V0 load(1, XDATA, add(CFA_XSP16, literal(-14)))
          CFI VB load(1, XDATA, add(CFA_XSP16, literal(-15)))
          CFI R6 load(1, XDATA, add(CFA_XSP16, literal(-16)))
          CFI CFA_SP SP+0
          CFI CFA_XSP16 add(XSP16, 16)
        ; Saved register size: 16
        ; Auto size: 3
        MOV     A,#-0x3
        LCALL   ?ALLOC_XSTACK8
          CFI CFA_XSP16 add(XSP16, 19)
        MOV     ?V2,R1
        MOV     ?V1,R2
        MOV     A,R4
        MOV     R6,A
        MOV     A,R5
        MOV     R7,A
//  751 	uint8 ch2[3];
//  752 	uint8 ii;
//  753         ii = 0;
        MOV     ?V0,#0x0
        MOV     A,#0x13
        LCALL   ?XSTACK_DISP0_8
        LCALL   ?Subroutine11 & 0xFFFF
??CrossCallReturnLabel_6:
        SJMP    ??Print_0
//  754 	while(ch[ii] != '\0')
//  755 	{
//  756 		if(ch[ii] > 128)
//  757 		{
//  758 			ch2[0] = ch[ii];
??Print_1:
        MOV     A,R6
        ADD     A,R0
        MOV     R0,A
        CLR     A
        ADDC    A,R7
        MOV     R1,A
        LCALL   ?Subroutine13 & 0xFFFF
//  759 	 		ch2[1] = ch[ii + 1];
??CrossCallReturnLabel_10:
        MOV     DPL,R0
        MOV     DPH,R1
        INC     DPTR
        MOVX    A,@DPTR
        PUSH    A
          CFI CFA_SP SP+-1
        MOV     A,#0x1
        LCALL   ?XSTACK_DISP0_8
        POP     A
          CFI CFA_SP SP+0
        MOVX    @DPTR,A
//  760 			ch2[2] = '\0';			//???????
        MOV     A,#0x2
        LCALL   ?XSTACK_DISP0_8
        CLR     A
        MOVX    @DPTR,A
//  761 			//Print16(y , x , ch2 , yn);	//????
//  762 			x += 16;
        MOV     A,#0x10
        ADD     A,?V1
        MOV     ?V1,A
//  763 			ii += 2;
        INC     ?V0
??Print_2:
        INC     ?V0
//  764 		}
??Print_0:
        MOV     R0,?V0
        LCALL   ?Subroutine14 & 0xFFFF
??CrossCallReturnLabel_13:
        JZ      ??Print_3
        CLR     C
        SUBB    A,#-0x7f
        JNC     ??Print_1
//  765 		else
//  766 		{
//  767 			ch2[0] = ch[ii];	
        LCALL   ?Subroutine13 & 0xFFFF
//  768 			ch2[1] = '\0';			//???????
??CrossCallReturnLabel_11:
        MOV     A,#0x1
        LCALL   ?XSTACK_DISP0_8
        CLR     A
        MOVX    @DPTR,A
//  769 			Print8(y , x , ch2 , yn);	//????
        ; Setup parameters for call to function Print8
        MOV     R0,#?V4
        LCALL   ?PUSH_XSTACK_I_TWO
          CFI CFA_XSP16 add(XSP16, 21)
        MOV     A,#0x2
        LCALL   ?XSTACK_DISP100_8
        MOV     ?V6,R0
        MOV     ?V7,R1
        MOV     R0,#?V6
        LCALL   ?PUSH_XSTACK_I_TWO
          CFI CFA_XSP16 add(XSP16, 23)
        MOV     R4,?V1
        MOV     R5,#0x0
        MOV     R2,?V2
        MOV     R3,#0x0
        LCALL   `??Print8::?relay`   ; Banked call to: Print8
        MOV     A,#0x4
        LCALL   ?DEALLOC_XSTACK8
          CFI CFA_XSP16 add(XSP16, 19)
//  770 			x += 8;
        MOV     A,#0x8
        ADD     A,?V1
        MOV     ?V1,A
//  771 			ii += 1;
        SJMP    ??Print_2
//  772 		}
//  773 	}
//  774 }
??Print_3:
        MOV     A,#0x3
        LCALL   ?DEALLOC_XSTACK8
          CFI CFA_XSP16 add(XSP16, 16)
        LJMP    ?Subroutine4 & 0xFFFF
          CFI EndBlock cfiBlock73

        RSEG BANKED_CODE:CODE:NOROOT(0)
?Subroutine14:
          CFI Block cfiCond74 Using cfiCommon0
          CFI Function Print6
          CFI Conditional ??CrossCallReturnLabel_12
          CFI R6 load(1, XDATA, add(CFA_XSP16, literal(-15)))
          CFI VB load(1, XDATA, add(CFA_XSP16, literal(-14)))
          CFI V0 load(1, XDATA, add(CFA_XSP16, literal(-13)))
          CFI V1 load(1, XDATA, add(CFA_XSP16, literal(-12)))
          CFI V2 load(1, XDATA, add(CFA_XSP16, literal(-11)))
          CFI V3 load(1, XDATA, add(CFA_XSP16, literal(-10)))
          CFI V4 load(1, XDATA, add(CFA_XSP16, literal(-9)))
          CFI V5 load(1, XDATA, add(CFA_XSP16, literal(-8)))
          CFI V6 load(1, XDATA, add(CFA_XSP16, literal(-7)))
          CFI R7 load(1, XDATA, add(CFA_XSP16, literal(-6)))
          CFI ?RET_LOW load(1, XDATA, add(CFA_XSP16, literal(-5)))
          CFI ?RET_HIGH load(1, XDATA, add(CFA_XSP16, literal(-4)))
          CFI ?BRET_EXT load(1, XDATA, add(CFA_XSP16, literal(-3)))
          CFI DPL0 load(1, XDATA, add(CFA_XSP16, literal(-2)))
          CFI DPH0 load(1, XDATA, add(CFA_XSP16, literal(-1)))
          CFI CFA_SP SP+-2
          CFI CFA_XSP16 add(XSP16, 15)
          CFI Block cfiCond75 Using cfiCommon0
          CFI (cfiCond75) Function Print
          CFI (cfiCond75) Conditional ??CrossCallReturnLabel_13
          CFI (cfiCond75) R6 load(1, XDATA, add(CFA_XSP16, literal(-16)))
          CFI (cfiCond75) VB load(1, XDATA, add(CFA_XSP16, literal(-15)))
          CFI (cfiCond75) V0 load(1, XDATA, add(CFA_XSP16, literal(-14)))
          CFI (cfiCond75) V1 load(1, XDATA, add(CFA_XSP16, literal(-13)))
          CFI (cfiCond75) V2 load(1, XDATA, add(CFA_XSP16, literal(-12)))
          CFI (cfiCond75) V3 load(1, XDATA, add(CFA_XSP16, literal(-11)))
          CFI (cfiCond75) V4 load(1, XDATA, add(CFA_XSP16, literal(-10)))
          CFI (cfiCond75) V5 load(1, XDATA, add(CFA_XSP16, literal(-9)))
          CFI (cfiCond75) V6 load(1, XDATA, add(CFA_XSP16, literal(-8)))
          CFI (cfiCond75) V7 load(1, XDATA, add(CFA_XSP16, literal(-7)))
          CFI (cfiCond75) R7 load(1, XDATA, add(CFA_XSP16, literal(-6)))
          CFI (cfiCond75) ?RET_LOW load(1, XDATA, add(CFA_XSP16, literal(-5)))
          CFI (cfiCond75) ?RET_HIGH load(1, XDATA, add(CFA_XSP16, literal(-4)))
          CFI (cfiCond75) ?BRET_EXT load(1, XDATA, add(CFA_XSP16, literal(-3)))
          CFI (cfiCond75) DPL0 load(1, XDATA, add(CFA_XSP16, literal(-2)))
          CFI (cfiCond75) DPH0 load(1, XDATA, add(CFA_XSP16, literal(-1)))
          CFI (cfiCond75) CFA_SP SP+-2
          CFI (cfiCond75) CFA_XSP16 add(XSP16, 19)
          CFI Block cfiPicker76 Using cfiCommon1
          CFI (cfiPicker76) NoFunction
          CFI (cfiPicker76) Picker
        MOV     A,R6
        ADD     A,R0
        MOV     DPL,A
        CLR     A
        ADDC    A,R7
        MOV     DPH,A
        MOVX    A,@DPTR
        RET
          CFI EndBlock cfiCond74
          CFI EndBlock cfiCond75
          CFI EndBlock cfiPicker76

        RSEG BANKED_CODE:CODE:NOROOT(0)
?Subroutine13:
          CFI Block cfiCond77 Using cfiCommon0
          CFI Function Print
          CFI Conditional ??CrossCallReturnLabel_10
          CFI R6 load(1, XDATA, add(CFA_XSP16, literal(-16)))
          CFI VB load(1, XDATA, add(CFA_XSP16, literal(-15)))
          CFI V0 load(1, XDATA, add(CFA_XSP16, literal(-14)))
          CFI V1 load(1, XDATA, add(CFA_XSP16, literal(-13)))
          CFI V2 load(1, XDATA, add(CFA_XSP16, literal(-12)))
          CFI V3 load(1, XDATA, add(CFA_XSP16, literal(-11)))
          CFI V4 load(1, XDATA, add(CFA_XSP16, literal(-10)))
          CFI V5 load(1, XDATA, add(CFA_XSP16, literal(-9)))
          CFI V6 load(1, XDATA, add(CFA_XSP16, literal(-8)))
          CFI V7 load(1, XDATA, add(CFA_XSP16, literal(-7)))
          CFI R7 load(1, XDATA, add(CFA_XSP16, literal(-6)))
          CFI ?RET_LOW load(1, XDATA, add(CFA_XSP16, literal(-5)))
          CFI ?RET_HIGH load(1, XDATA, add(CFA_XSP16, literal(-4)))
          CFI ?BRET_EXT load(1, XDATA, add(CFA_XSP16, literal(-3)))
          CFI DPL0 load(1, XDATA, add(CFA_XSP16, literal(-2)))
          CFI DPH0 load(1, XDATA, add(CFA_XSP16, literal(-1)))
          CFI CFA_SP SP+-2
          CFI CFA_XSP16 add(XSP16, 19)
          CFI Block cfiCond78 Using cfiCommon0
          CFI (cfiCond78) Function Print
          CFI (cfiCond78) Conditional ??CrossCallReturnLabel_11
          CFI (cfiCond78) R6 load(1, XDATA, add(CFA_XSP16, literal(-16)))
          CFI (cfiCond78) VB load(1, XDATA, add(CFA_XSP16, literal(-15)))
          CFI (cfiCond78) V0 load(1, XDATA, add(CFA_XSP16, literal(-14)))
          CFI (cfiCond78) V1 load(1, XDATA, add(CFA_XSP16, literal(-13)))
          CFI (cfiCond78) V2 load(1, XDATA, add(CFA_XSP16, literal(-12)))
          CFI (cfiCond78) V3 load(1, XDATA, add(CFA_XSP16, literal(-11)))
          CFI (cfiCond78) V4 load(1, XDATA, add(CFA_XSP16, literal(-10)))
          CFI (cfiCond78) V5 load(1, XDATA, add(CFA_XSP16, literal(-9)))
          CFI (cfiCond78) V6 load(1, XDATA, add(CFA_XSP16, literal(-8)))
          CFI (cfiCond78) V7 load(1, XDATA, add(CFA_XSP16, literal(-7)))
          CFI (cfiCond78) R7 load(1, XDATA, add(CFA_XSP16, literal(-6)))
          CFI (cfiCond78) ?RET_LOW load(1, XDATA, add(CFA_XSP16, literal(-5)))
          CFI (cfiCond78) ?RET_HIGH load(1, XDATA, add(CFA_XSP16, literal(-4)))
          CFI (cfiCond78) ?BRET_EXT load(1, XDATA, add(CFA_XSP16, literal(-3)))
          CFI (cfiCond78) DPL0 load(1, XDATA, add(CFA_XSP16, literal(-2)))
          CFI (cfiCond78) DPH0 load(1, XDATA, add(CFA_XSP16, literal(-1)))
          CFI (cfiCond78) CFA_SP SP+-2
          CFI (cfiCond78) CFA_XSP16 add(XSP16, 19)
          CFI Block cfiPicker79 Using cfiCommon1
          CFI (cfiPicker79) NoFunction
          CFI (cfiPicker79) Picker
        MOVX    A,@DPTR
        MOV     DPL,?XSP + 0
        MOV     DPH,?XSP + 1
        MOVX    @DPTR,A
        RET
          CFI EndBlock cfiCond77
          CFI EndBlock cfiCond78
          CFI EndBlock cfiPicker79

        RSEG BANKED_CODE:CODE:NOROOT(0)
//  775 void HalLcdClearLine( uint8 line )
HalLcdClearLine:
          CFI Block cfiBlock80 Using cfiCommon0
          CFI Function HalLcdClearLine
        CODE
//  776 {
        FUNCALL HalLcdClearLine, Print8
        LOCFRAME ISTACK, 0, STACK
        LOCFRAME PSTACK, 0, STACK
        LOCFRAME XSTACK, 14, STACK
        LOCFRAME IOVERLAY, 0, STATIC
        LOCFRAME DOVERLAY, 0, STATIC
        ARGFRAME ISTACK, 0, STACK
        ARGFRAME PSTACK, 0, STACK
        ARGFRAME XSTACK, 14, STACK
        ARGFRAME IOVERLAY, 0, STATIC
        ARGFRAME DOVERLAY, 0, STATIC
        REQUIRE ?V0
        REQUIRE ?V1
        MOV     A,#-0xa
        LCALL   ?BANKED_ENTER_XDATA
          CFI DPH0 load(1, XDATA, add(CFA_XSP16, literal(-1)))
          CFI DPL0 load(1, XDATA, add(CFA_XSP16, literal(-2)))
          CFI ?BRET_EXT load(1, XDATA, add(CFA_XSP16, literal(-3)))
          CFI ?RET_HIGH load(1, XDATA, add(CFA_XSP16, literal(-4)))
          CFI ?RET_LOW load(1, XDATA, add(CFA_XSP16, literal(-5)))
          CFI R7 load(1, XDATA, add(CFA_XSP16, literal(-6)))
          CFI V1 load(1, XDATA, add(CFA_XSP16, literal(-7)))
          CFI V0 load(1, XDATA, add(CFA_XSP16, literal(-8)))
          CFI VB load(1, XDATA, add(CFA_XSP16, literal(-9)))
          CFI R6 load(1, XDATA, add(CFA_XSP16, literal(-10)))
          CFI CFA_SP SP+0
          CFI CFA_XSP16 add(XSP16, 10)
        ; Saved register size: 10
        ; Auto size: 0
        MOV     A,R1
        MOV     R6,A
//  777   Print8(line,0,"                ",1);
        ; Setup parameters for call to function Print8
        MOV     ?V0,#0x1
        MOV     ?V1,#0x0
        MOV     R0,#?V0
        LCALL   ?PUSH_XSTACK_I_TWO
          CFI CFA_XSP16 add(XSP16, 12)
        MOV     ?V0,#`?<Constant "                ">` & 0xff
        MOV     ?V1,#(`?<Constant "                ">` >> 8) & 0xff
        MOV     R0,#?V0
        LCALL   ?PUSH_XSTACK_I_TWO
          CFI CFA_XSP16 add(XSP16, 14)
        MOV     R4,#0x0
        MOV     R5,#0x0
        MOV     A,R6
        MOV     R2,A
        MOV     R3,#0x0
        LCALL   `??Print8::?relay`   ; Banked call to: Print8
        MOV     A,#0x4
          CFI EndBlock cfiBlock80
        REQUIRE ?Subroutine5
        ; // Fall through to label ?Subroutine5
//  778 }

        RSEG BANKED_CODE:CODE:NOROOT(0)
?Subroutine5:
          CFI Block cfiBlock81 Using cfiCommon0
          CFI NoFunction
          CFI CFA_SP SP+0
          CFI CFA_XSP16 add(XSP16, 14)
          CFI VB load(1, XDATA, add(CFA_XSP16, literal(-9)))
          CFI DPL0 load(1, XDATA, add(CFA_XSP16, literal(-2)))
          CFI DPH0 load(1, XDATA, add(CFA_XSP16, literal(-1)))
          CFI R6 load(1, XDATA, add(CFA_XSP16, literal(-10)))
          CFI R7 load(1, XDATA, add(CFA_XSP16, literal(-6)))
          CFI V0 load(1, XDATA, add(CFA_XSP16, literal(-8)))
          CFI V1 load(1, XDATA, add(CFA_XSP16, literal(-7)))
          CFI ?BRET_EXT load(1, XDATA, add(CFA_XSP16, literal(-3)))
          CFI ?RET_HIGH load(1, XDATA, add(CFA_XSP16, literal(-4)))
          CFI ?RET_LOW load(1, XDATA, add(CFA_XSP16, literal(-5)))
          CFI Invalid
        LCALL   ?DEALLOC_XSTACK8
          CFI CFA_XSP16 add(XSP16, 10)
          CFI Valid
        MOV     R7,#0x2
        LJMP    ?BANKED_LEAVE_XDATA
          CFI EndBlock cfiBlock81

        RSEG BANKED_CODE:CODE:NOROOT(0)
//  779 void HalLcdWriteString ( char *str, uint8 option)
HalLcdWriteString:
          CFI Block cfiBlock82 Using cfiCommon0
          CFI Function HalLcdWriteString
        CODE
//  780 {
        FUNCALL HalLcdWriteString, osal_memcpy
        LOCFRAME ISTACK, 0, STACK
        LOCFRAME PSTACK, 0, STACK
        LOCFRAME XSTACK, 35, STACK
        LOCFRAME IOVERLAY, 0, STATIC
        LOCFRAME DOVERLAY, 0, STATIC
        ARGFRAME ISTACK, 0, STACK
        ARGFRAME PSTACK, 0, STACK
        ARGFRAME XSTACK, 35, STACK
        ARGFRAME IOVERLAY, 0, STATIC
        ARGFRAME DOVERLAY, 0, STATIC
        FUNCALL HalLcdWriteString, strlen
        LOCFRAME ISTACK, 0, STACK
        LOCFRAME PSTACK, 0, STACK
        LOCFRAME XSTACK, 32, STACK
        LOCFRAME IOVERLAY, 0, STATIC
        LOCFRAME DOVERLAY, 0, STATIC
        ARGFRAME ISTACK, 0, STACK
        ARGFRAME PSTACK, 0, STACK
        ARGFRAME XSTACK, 32, STACK
        ARGFRAME IOVERLAY, 0, STATIC
        ARGFRAME DOVERLAY, 0, STATIC
        FUNCALL HalLcdWriteString, HalLcdClearLine
        LOCFRAME ISTACK, 0, STACK
        LOCFRAME PSTACK, 0, STACK
        LOCFRAME XSTACK, 32, STACK
        LOCFRAME IOVERLAY, 0, STATIC
        LOCFRAME DOVERLAY, 0, STATIC
        ARGFRAME ISTACK, 0, STACK
        ARGFRAME PSTACK, 0, STACK
        ARGFRAME XSTACK, 32, STACK
        ARGFRAME IOVERLAY, 0, STATIC
        ARGFRAME DOVERLAY, 0, STATIC
        FUNCALL HalLcdWriteString, Print8
        LOCFRAME ISTACK, 0, STACK
        LOCFRAME PSTACK, 0, STACK
        LOCFRAME XSTACK, 36, STACK
        LOCFRAME IOVERLAY, 0, STATIC
        LOCFRAME DOVERLAY, 0, STATIC
        ARGFRAME ISTACK, 0, STACK
        ARGFRAME PSTACK, 0, STACK
        ARGFRAME XSTACK, 36, STACK
        ARGFRAME IOVERLAY, 0, STATIC
        ARGFRAME DOVERLAY, 0, STATIC
        REQUIRE ?V0
        REQUIRE ?V1
        REQUIRE ?V2
        REQUIRE ?V3
        MOV     A,#-0xc
        LCALL   ?BANKED_ENTER_XDATA
          CFI DPH0 load(1, XDATA, add(CFA_XSP16, literal(-1)))
          CFI DPL0 load(1, XDATA, add(CFA_XSP16, literal(-2)))
          CFI ?BRET_EXT load(1, XDATA, add(CFA_XSP16, literal(-3)))
          CFI ?RET_HIGH load(1, XDATA, add(CFA_XSP16, literal(-4)))
          CFI ?RET_LOW load(1, XDATA, add(CFA_XSP16, literal(-5)))
          CFI R7 load(1, XDATA, add(CFA_XSP16, literal(-6)))
          CFI V3 load(1, XDATA, add(CFA_XSP16, literal(-7)))
          CFI V2 load(1, XDATA, add(CFA_XSP16, literal(-8)))
          CFI V1 load(1, XDATA, add(CFA_XSP16, literal(-9)))
          CFI V0 load(1, XDATA, add(CFA_XSP16, literal(-10)))
          CFI VB load(1, XDATA, add(CFA_XSP16, literal(-11)))
          CFI R6 load(1, XDATA, add(CFA_XSP16, literal(-12)))
          CFI CFA_SP SP+0
          CFI CFA_XSP16 add(XSP16, 12)
        ; Saved register size: 12
        ; Auto size: 20
        MOV     A,#-0x14
        LCALL   ?ALLOC_XSTACK8
          CFI CFA_XSP16 add(XSP16, 32)
        MOV     A,R2
        MOV     R6,A
        MOV     A,R3
        MOV     R7,A
        MOV     ?V3,R1
//  781   unsigned char i; 
//  782   uint8 LcdBuf[20];
//  783   osal_memcpy(LcdBuf,str,20);
        ; Setup parameters for call to function osal_memcpy
        MOV     ?V0,R6
        MOV     ?V1,R7
        MOV     ?V2,#0x0
        MOV     R0,#?V0
        LCALL   ?PUSH_XSTACK_I_THREE
          CFI CFA_XSP16 add(XSP16, 35)
        MOV     R4,#0x14
        MOV     R5,#0x0
        MOV     A,#0x3
        LCALL   ?XSTACK_DISP101_8
        LCALL   `??osal_memcpy::?relay`; Banked call to: osal_memcpy
        MOV     A,#0x3
        LCALL   ?DEALLOC_XSTACK8
          CFI CFA_XSP16 add(XSP16, 32)
//  784   i = strlen(str);
//  785   LcdBuf[i] = '\0';  
        ; Setup parameters for call to function strlen
        MOV     A,R6
        MOV     R2,A
        MOV     A,R7
        MOV     R3,A
        LCALL   `??strlen::?relay`   ; Banked call to: strlen
        MOV     DPL,?XSP + 0
        MOV     DPH,?XSP + 1
        MOV     A,DPL
        ADD     A,R2
        LCALL   ??Subroutine23_0 & 0xFFFF
//  786   switch (option)
??CrossCallReturnLabel_35:
        MOV     A,?V3
        DEC     A
        JZ      ??HalLcdWriteString_0
        DEC     A
        JZ      ??HalLcdWriteString_0
        DEC     A
        JZ      ??HalLcdWriteString_0
        DEC     A
        JZ      ??HalLcdWriteString_0
        DEC     A
        JZ      ??HalLcdWriteString_0
        DEC     A
        JNZ     ??HalLcdWriteString_1
//  787   {
//  788     case 1:
//  789     case 2:
//  790     case 3:      
//  791     case 4:     
//  792     case 5:    
//  793     case 6:
//  794        HalLcdClearLine( option%7 );
??HalLcdWriteString_0:
        MOV     A,?V3
        MOV     B,#0x7
        DIV     AB
        MOV     A,B
        MOV     R6,A
        ; Setup parameters for call to function HalLcdClearLine
        MOV     R1,A
        LCALL   `??HalLcdClearLine::?relay`; Banked call to: HalLcdClearLine
//  795        Print8(option%7,0,(unsigned char *)LcdBuf,1);
        ; Setup parameters for call to function Print8
        MOV     ?V0,#0x1
        MOV     ?V1,#0x0
        MOV     R0,#?V0
        LCALL   ?PUSH_XSTACK_I_TWO
          CFI CFA_XSP16 add(XSP16, 34)
        MOV     A,#0x2
        LCALL   ?XSTACK_DISP100_8
        MOV     ?V0,R0
        MOV     ?V1,R1
        MOV     R0,#?V0
        LCALL   ?PUSH_XSTACK_I_TWO
          CFI CFA_XSP16 add(XSP16, 36)
        MOV     R4,#0x0
        MOV     R5,#0x0
        MOV     A,R6
        MOV     R2,A
        MOV     R3,#0x0
        LCALL   `??Print8::?relay`   ; Banked call to: Print8
        MOV     A,#0x4
        LCALL   ?DEALLOC_XSTACK8
          CFI CFA_XSP16 add(XSP16, 32)
//  796      /*  y = option%7;
//  797        x = 0;
//  798 	while(LcdBuf[ii] != '\0')
//  799 	{
//  800 		adder = (LcdBuf[ii] - 0x20) * 16;
//  801 
//  802 		for(wm = 0;wm < 8;wm++)
//  803 		{
//  804 			SetRamAddr(y , x);
//  805 			if(yn == 0)
//  806 			{
//  807 				WriteLCD(DATA, ~Font8X8[adder]);
//  808 			}
//  809 			else
//  810 			{
//  811 				WriteLCD(DATA, Font8X8[adder]);
//  812 			}
//  813 			adder += 1;
//  814 			x += 1;
//  815 		}
//  816 		y += 1;
//  817 		x -= 8;
//  818 		for(wm = 0;wm < 8;wm++)
//  819 		{
//  820 			SetRamAddr(y , x);
//  821 			if(yn == 0)
//  822 			{
//  823 				WriteLCD(DATA, ~Font8X8[adder]);
//  824 			}
//  825 			else
//  826 			{
//  827 				WriteLCD(DATA, Font8X8[adder]);	
//  828 			}
//  829 			adder += 1;
//  830 			x += 1;
//  831 		}
//  832 		ii += 1;
//  833 		y -= 1;
//  834 	}*/
//  835       //Print8(option%7,0,(unsigned char *)LcdBuf,1);
//  836       break;
//  837     default :
//  838       break;
//  839   }
//  840 }
??HalLcdWriteString_1:
        MOV     A,#0x14
        LCALL   ?DEALLOC_XSTACK8
          CFI EndBlock cfiBlock82
        REQUIRE ?Subroutine6
        ; // Fall through to label ?Subroutine6

        RSEG BANKED_CODE:CODE:NOROOT(0)
?Subroutine6:
          CFI Block cfiBlock83 Using cfiCommon0
          CFI NoFunction
          CFI CFA_SP SP+0
          CFI CFA_XSP16 add(XSP16, 12)
          CFI VB load(1, XDATA, add(CFA_XSP16, literal(-11)))
          CFI DPL0 load(1, XDATA, add(CFA_XSP16, literal(-2)))
          CFI DPH0 load(1, XDATA, add(CFA_XSP16, literal(-1)))
          CFI R6 load(1, XDATA, add(CFA_XSP16, literal(-12)))
          CFI R7 load(1, XDATA, add(CFA_XSP16, literal(-6)))
          CFI V0 load(1, XDATA, add(CFA_XSP16, literal(-10)))
          CFI V1 load(1, XDATA, add(CFA_XSP16, literal(-9)))
          CFI V2 load(1, XDATA, add(CFA_XSP16, literal(-8)))
          CFI V3 load(1, XDATA, add(CFA_XSP16, literal(-7)))
          CFI ?BRET_EXT load(1, XDATA, add(CFA_XSP16, literal(-3)))
          CFI ?RET_HIGH load(1, XDATA, add(CFA_XSP16, literal(-4)))
          CFI ?RET_LOW load(1, XDATA, add(CFA_XSP16, literal(-5)))
        MOV     R7,#0x4
        LJMP    ?BANKED_LEAVE_XDATA
          CFI EndBlock cfiBlock83

        RSEG BANKED_CODE:CODE:NOROOT(0)
?Subroutine18:
          CFI Block cfiCond84 Using cfiCommon0
          CFI Function PrintS16
          CFI Conditional ??CrossCallReturnLabel_37
          CFI R6 load(1, XDATA, add(CFA_XSP16, literal(-23)))
          CFI VB load(1, XDATA, add(CFA_XSP16, literal(-22)))
          CFI V0 load(1, XDATA, add(CFA_XSP16, literal(-21)))
          CFI V1 load(1, XDATA, add(CFA_XSP16, literal(-20)))
          CFI V2 load(1, XDATA, add(CFA_XSP16, literal(-19)))
          CFI V3 load(1, XDATA, add(CFA_XSP16, literal(-18)))
          CFI V4 load(1, XDATA, add(CFA_XSP16, literal(-17)))
          CFI V5 load(1, XDATA, add(CFA_XSP16, literal(-16)))
          CFI V6 load(1, XDATA, add(CFA_XSP16, literal(-15)))
          CFI V7 load(1, XDATA, add(CFA_XSP16, literal(-14)))
          CFI V8 load(1, XDATA, add(CFA_XSP16, literal(-13)))
          CFI V9 load(1, XDATA, add(CFA_XSP16, literal(-12)))
          CFI V10 load(1, XDATA, add(CFA_XSP16, literal(-11)))
          CFI V11 load(1, XDATA, add(CFA_XSP16, literal(-10)))
          CFI V12 load(1, XDATA, add(CFA_XSP16, literal(-9)))
          CFI V13 load(1, XDATA, add(CFA_XSP16, literal(-8)))
          CFI V14 load(1, XDATA, add(CFA_XSP16, literal(-7)))
          CFI R7 load(1, XDATA, add(CFA_XSP16, literal(-6)))
          CFI ?RET_LOW load(1, XDATA, add(CFA_XSP16, literal(-5)))
          CFI ?RET_HIGH load(1, XDATA, add(CFA_XSP16, literal(-4)))
          CFI ?BRET_EXT load(1, XDATA, add(CFA_XSP16, literal(-3)))
          CFI DPL0 load(1, XDATA, add(CFA_XSP16, literal(-2)))
          CFI DPH0 load(1, XDATA, add(CFA_XSP16, literal(-1)))
          CFI CFA_SP SP+-2
          CFI CFA_XSP16 add(XSP16, 32)
          CFI Block cfiCond85 Using cfiCommon0
          CFI (cfiCond85) Function PrintS16
          CFI (cfiCond85) Conditional ??CrossCallReturnLabel_38
          CFI (cfiCond85) R6 load(1, XDATA, add(CFA_XSP16, literal(-23)))
          CFI (cfiCond85) VB load(1, XDATA, add(CFA_XSP16, literal(-22)))
          CFI (cfiCond85) V0 load(1, XDATA, add(CFA_XSP16, literal(-21)))
          CFI (cfiCond85) V1 load(1, XDATA, add(CFA_XSP16, literal(-20)))
          CFI (cfiCond85) V2 load(1, XDATA, add(CFA_XSP16, literal(-19)))
          CFI (cfiCond85) V3 load(1, XDATA, add(CFA_XSP16, literal(-18)))
          CFI (cfiCond85) V4 load(1, XDATA, add(CFA_XSP16, literal(-17)))
          CFI (cfiCond85) V5 load(1, XDATA, add(CFA_XSP16, literal(-16)))
          CFI (cfiCond85) V6 load(1, XDATA, add(CFA_XSP16, literal(-15)))
          CFI (cfiCond85) V7 load(1, XDATA, add(CFA_XSP16, literal(-14)))
          CFI (cfiCond85) V8 load(1, XDATA, add(CFA_XSP16, literal(-13)))
          CFI (cfiCond85) V9 load(1, XDATA, add(CFA_XSP16, literal(-12)))
          CFI (cfiCond85) V10 load(1, XDATA, add(CFA_XSP16, literal(-11)))
          CFI (cfiCond85) V11 load(1, XDATA, add(CFA_XSP16, literal(-10)))
          CFI (cfiCond85) V12 load(1, XDATA, add(CFA_XSP16, literal(-9)))
          CFI (cfiCond85) V13 load(1, XDATA, add(CFA_XSP16, literal(-8)))
          CFI (cfiCond85) V14 load(1, XDATA, add(CFA_XSP16, literal(-7)))
          CFI (cfiCond85) R7 load(1, XDATA, add(CFA_XSP16, literal(-6)))
          CFI (cfiCond85) ?RET_LOW load(1, XDATA, add(CFA_XSP16, literal(-5)))
          CFI (cfiCond85) ?RET_HIGH load(1, XDATA, add(CFA_XSP16, literal(-4)))
          CFI (cfiCond85) ?BRET_EXT load(1, XDATA, add(CFA_XSP16, literal(-3)))
          CFI (cfiCond85) DPL0 load(1, XDATA, add(CFA_XSP16, literal(-2)))
          CFI (cfiCond85) DPH0 load(1, XDATA, add(CFA_XSP16, literal(-1)))
          CFI (cfiCond85) CFA_SP SP+-2
          CFI (cfiCond85) CFA_XSP16 add(XSP16, 32)
          CFI Block cfiPicker86 Using cfiCommon1
          CFI (cfiPicker86) NoFunction
          CFI (cfiPicker86) Picker
        MOV     DPL,?XSP + 0
        MOV     DPH,?XSP + 1
        MOV     A,DPL
        ADD     A,R6
          CFI EndBlock cfiCond84
          CFI EndBlock cfiCond85
          CFI EndBlock cfiPicker86
        REQUIRE ??Subroutine23_0
        ; // Fall through to label ??Subroutine23_0

        RSEG BANKED_CODE:CODE:NOROOT(0)
??Subroutine23_0:
          CFI Block cfiCond87 Using cfiCommon0
          CFI Function Printn8
          CFI Conditional ??CrossCallReturnLabel_36
          CFI R6 load(1, XDATA, add(CFA_XSP16, literal(-22)))
          CFI VB load(1, XDATA, add(CFA_XSP16, literal(-21)))
          CFI V0 load(1, XDATA, add(CFA_XSP16, literal(-20)))
          CFI V1 load(1, XDATA, add(CFA_XSP16, literal(-19)))
          CFI V2 load(1, XDATA, add(CFA_XSP16, literal(-18)))
          CFI V3 load(1, XDATA, add(CFA_XSP16, literal(-17)))
          CFI V4 load(1, XDATA, add(CFA_XSP16, literal(-16)))
          CFI V5 load(1, XDATA, add(CFA_XSP16, literal(-15)))
          CFI V6 load(1, XDATA, add(CFA_XSP16, literal(-14)))
          CFI V7 load(1, XDATA, add(CFA_XSP16, literal(-13)))
          CFI V8 load(1, XDATA, add(CFA_XSP16, literal(-12)))
          CFI V9 load(1, XDATA, add(CFA_XSP16, literal(-11)))
          CFI V10 load(1, XDATA, add(CFA_XSP16, literal(-10)))
          CFI V11 load(1, XDATA, add(CFA_XSP16, literal(-9)))
          CFI V12 load(1, XDATA, add(CFA_XSP16, literal(-8)))
          CFI V13 load(1, XDATA, add(CFA_XSP16, literal(-7)))
          CFI R7 load(1, XDATA, add(CFA_XSP16, literal(-6)))
          CFI ?RET_LOW load(1, XDATA, add(CFA_XSP16, literal(-5)))
          CFI ?RET_HIGH load(1, XDATA, add(CFA_XSP16, literal(-4)))
          CFI ?BRET_EXT load(1, XDATA, add(CFA_XSP16, literal(-3)))
          CFI DPL0 load(1, XDATA, add(CFA_XSP16, literal(-2)))
          CFI DPH0 load(1, XDATA, add(CFA_XSP16, literal(-1)))
          CFI CFA_SP SP+-2
          CFI CFA_XSP16 add(XSP16, 28)
          CFI Block cfiCond88 Using cfiCommon0
          CFI (cfiCond88) Function PrintS8
          CFI (cfiCond88) Conditional ??CrossCallReturnLabel_36
          CFI (cfiCond88) R6 load(1, XDATA, add(CFA_XSP16, literal(-22)))
          CFI (cfiCond88) VB load(1, XDATA, add(CFA_XSP16, literal(-21)))
          CFI (cfiCond88) V0 load(1, XDATA, add(CFA_XSP16, literal(-20)))
          CFI (cfiCond88) V1 load(1, XDATA, add(CFA_XSP16, literal(-19)))
          CFI (cfiCond88) V2 load(1, XDATA, add(CFA_XSP16, literal(-18)))
          CFI (cfiCond88) V3 load(1, XDATA, add(CFA_XSP16, literal(-17)))
          CFI (cfiCond88) V4 load(1, XDATA, add(CFA_XSP16, literal(-16)))
          CFI (cfiCond88) V5 load(1, XDATA, add(CFA_XSP16, literal(-15)))
          CFI (cfiCond88) V6 load(1, XDATA, add(CFA_XSP16, literal(-14)))
          CFI (cfiCond88) V7 load(1, XDATA, add(CFA_XSP16, literal(-13)))
          CFI (cfiCond88) V8 load(1, XDATA, add(CFA_XSP16, literal(-12)))
          CFI (cfiCond88) V9 load(1, XDATA, add(CFA_XSP16, literal(-11)))
          CFI (cfiCond88) V10 load(1, XDATA, add(CFA_XSP16, literal(-10)))
          CFI (cfiCond88) V11 load(1, XDATA, add(CFA_XSP16, literal(-9)))
          CFI (cfiCond88) V12 load(1, XDATA, add(CFA_XSP16, literal(-8)))
          CFI (cfiCond88) V13 load(1, XDATA, add(CFA_XSP16, literal(-7)))
          CFI (cfiCond88) R7 load(1, XDATA, add(CFA_XSP16, literal(-6)))
          CFI (cfiCond88) ?RET_LOW load(1, XDATA, add(CFA_XSP16, literal(-5)))
          CFI (cfiCond88) ?RET_HIGH load(1, XDATA, add(CFA_XSP16, literal(-4)))
          CFI (cfiCond88) ?BRET_EXT load(1, XDATA, add(CFA_XSP16, literal(-3)))
          CFI (cfiCond88) DPL0 load(1, XDATA, add(CFA_XSP16, literal(-2)))
          CFI (cfiCond88) DPH0 load(1, XDATA, add(CFA_XSP16, literal(-1)))
          CFI (cfiCond88) CFA_SP SP+-2
          CFI (cfiCond88) CFA_XSP16 add(XSP16, 28)
          CFI Block cfiCond89 Using cfiCommon0
          CFI (cfiCond89) Function HalLcdWriteString
          CFI (cfiCond89) Conditional ??CrossCallReturnLabel_35
          CFI (cfiCond89) R6 load(1, XDATA, add(CFA_XSP16, literal(-12)))
          CFI (cfiCond89) VB load(1, XDATA, add(CFA_XSP16, literal(-11)))
          CFI (cfiCond89) V0 load(1, XDATA, add(CFA_XSP16, literal(-10)))
          CFI (cfiCond89) V1 load(1, XDATA, add(CFA_XSP16, literal(-9)))
          CFI (cfiCond89) V2 load(1, XDATA, add(CFA_XSP16, literal(-8)))
          CFI (cfiCond89) V3 load(1, XDATA, add(CFA_XSP16, literal(-7)))
          CFI (cfiCond89) R7 load(1, XDATA, add(CFA_XSP16, literal(-6)))
          CFI (cfiCond89) ?RET_LOW load(1, XDATA, add(CFA_XSP16, literal(-5)))
          CFI (cfiCond89) ?RET_HIGH load(1, XDATA, add(CFA_XSP16, literal(-4)))
          CFI (cfiCond89) ?BRET_EXT load(1, XDATA, add(CFA_XSP16, literal(-3)))
          CFI (cfiCond89) DPL0 load(1, XDATA, add(CFA_XSP16, literal(-2)))
          CFI (cfiCond89) DPH0 load(1, XDATA, add(CFA_XSP16, literal(-1)))
          CFI (cfiCond89) CFA_SP SP+-2
          CFI (cfiCond89) CFA_XSP16 add(XSP16, 32)
          CFI Block cfiCond90 Using cfiCommon0
          CFI (cfiCond90) Function PrintS16
          CFI (cfiCond90) Conditional ??CrossCallReturnLabel_37
          CFI (cfiCond90) R6 load(1, XDATA, add(CFA_XSP16, literal(-23)))
          CFI (cfiCond90) VB load(1, XDATA, add(CFA_XSP16, literal(-22)))
          CFI (cfiCond90) V0 load(1, XDATA, add(CFA_XSP16, literal(-21)))
          CFI (cfiCond90) V1 load(1, XDATA, add(CFA_XSP16, literal(-20)))
          CFI (cfiCond90) V2 load(1, XDATA, add(CFA_XSP16, literal(-19)))
          CFI (cfiCond90) V3 load(1, XDATA, add(CFA_XSP16, literal(-18)))
          CFI (cfiCond90) V4 load(1, XDATA, add(CFA_XSP16, literal(-17)))
          CFI (cfiCond90) V5 load(1, XDATA, add(CFA_XSP16, literal(-16)))
          CFI (cfiCond90) V6 load(1, XDATA, add(CFA_XSP16, literal(-15)))
          CFI (cfiCond90) V7 load(1, XDATA, add(CFA_XSP16, literal(-14)))
          CFI (cfiCond90) V8 load(1, XDATA, add(CFA_XSP16, literal(-13)))
          CFI (cfiCond90) V9 load(1, XDATA, add(CFA_XSP16, literal(-12)))
          CFI (cfiCond90) V10 load(1, XDATA, add(CFA_XSP16, literal(-11)))
          CFI (cfiCond90) V11 load(1, XDATA, add(CFA_XSP16, literal(-10)))
          CFI (cfiCond90) V12 load(1, XDATA, add(CFA_XSP16, literal(-9)))
          CFI (cfiCond90) V13 load(1, XDATA, add(CFA_XSP16, literal(-8)))
          CFI (cfiCond90) V14 load(1, XDATA, add(CFA_XSP16, literal(-7)))
          CFI (cfiCond90) R7 load(1, XDATA, add(CFA_XSP16, literal(-6)))
          CFI (cfiCond90) ?RET_LOW load(1, XDATA, add(CFA_XSP16, literal(-5)))
          CFI (cfiCond90) ?RET_HIGH load(1, XDATA, add(CFA_XSP16, literal(-4)))
          CFI (cfiCond90) ?BRET_EXT load(1, XDATA, add(CFA_XSP16, literal(-3)))
          CFI (cfiCond90) DPL0 load(1, XDATA, add(CFA_XSP16, literal(-2)))
          CFI (cfiCond90) DPH0 load(1, XDATA, add(CFA_XSP16, literal(-1)))
          CFI (cfiCond90) CFA_SP SP+-2
          CFI (cfiCond90) CFA_XSP16 add(XSP16, 32)
          CFI Block cfiCond91 Using cfiCommon0
          CFI (cfiCond91) Function PrintS16
          CFI (cfiCond91) Conditional ??CrossCallReturnLabel_38
          CFI (cfiCond91) R6 load(1, XDATA, add(CFA_XSP16, literal(-23)))
          CFI (cfiCond91) VB load(1, XDATA, add(CFA_XSP16, literal(-22)))
          CFI (cfiCond91) V0 load(1, XDATA, add(CFA_XSP16, literal(-21)))
          CFI (cfiCond91) V1 load(1, XDATA, add(CFA_XSP16, literal(-20)))
          CFI (cfiCond91) V2 load(1, XDATA, add(CFA_XSP16, literal(-19)))
          CFI (cfiCond91) V3 load(1, XDATA, add(CFA_XSP16, literal(-18)))
          CFI (cfiCond91) V4 load(1, XDATA, add(CFA_XSP16, literal(-17)))
          CFI (cfiCond91) V5 load(1, XDATA, add(CFA_XSP16, literal(-16)))
          CFI (cfiCond91) V6 load(1, XDATA, add(CFA_XSP16, literal(-15)))
          CFI (cfiCond91) V7 load(1, XDATA, add(CFA_XSP16, literal(-14)))
          CFI (cfiCond91) V8 load(1, XDATA, add(CFA_XSP16, literal(-13)))
          CFI (cfiCond91) V9 load(1, XDATA, add(CFA_XSP16, literal(-12)))
          CFI (cfiCond91) V10 load(1, XDATA, add(CFA_XSP16, literal(-11)))
          CFI (cfiCond91) V11 load(1, XDATA, add(CFA_XSP16, literal(-10)))
          CFI (cfiCond91) V12 load(1, XDATA, add(CFA_XSP16, literal(-9)))
          CFI (cfiCond91) V13 load(1, XDATA, add(CFA_XSP16, literal(-8)))
          CFI (cfiCond91) V14 load(1, XDATA, add(CFA_XSP16, literal(-7)))
          CFI (cfiCond91) R7 load(1, XDATA, add(CFA_XSP16, literal(-6)))
          CFI (cfiCond91) ?RET_LOW load(1, XDATA, add(CFA_XSP16, literal(-5)))
          CFI (cfiCond91) ?RET_HIGH load(1, XDATA, add(CFA_XSP16, literal(-4)))
          CFI (cfiCond91) ?BRET_EXT load(1, XDATA, add(CFA_XSP16, literal(-3)))
          CFI (cfiCond91) DPL0 load(1, XDATA, add(CFA_XSP16, literal(-2)))
          CFI (cfiCond91) DPH0 load(1, XDATA, add(CFA_XSP16, literal(-1)))
          CFI (cfiCond91) CFA_SP SP+-2
          CFI (cfiCond91) CFA_XSP16 add(XSP16, 32)
          CFI Block cfiPicker92 Using cfiCommon1
          CFI (cfiPicker92) NoFunction
          CFI (cfiPicker92) Picker
        MOV     DPL,A
        CLR     A
        ADDC    A,DPH
        MOV     DPH,A
        CLR     A
        MOVX    @DPTR,A
        RET
          CFI EndBlock cfiCond87
          CFI EndBlock cfiCond88
          CFI EndBlock cfiCond89
          CFI EndBlock cfiCond90
          CFI EndBlock cfiCond91
          CFI EndBlock cfiPicker92
//  841 

        RSEG BANKED_CODE:CODE:NOROOT(0)
//  842 void HalLcdWriteLoc ( uint16 valueX, uint16 valueY, uint8 option)
HalLcdWriteLoc:
          CFI Block cfiBlock93 Using cfiCommon0
          CFI Function HalLcdWriteLoc
        CODE
//  843 {
        FUNCALL HalLcdWriteLoc, HalLcdClearLine
        LOCFRAME ISTACK, 0, STACK
        LOCFRAME PSTACK, 0, STACK
        LOCFRAME XSTACK, 16, STACK
        LOCFRAME IOVERLAY, 0, STATIC
        LOCFRAME DOVERLAY, 0, STATIC
        ARGFRAME ISTACK, 0, STACK
        ARGFRAME PSTACK, 0, STACK
        ARGFRAME XSTACK, 16, STACK
        ARGFRAME IOVERLAY, 0, STATIC
        ARGFRAME DOVERLAY, 0, STATIC
        FUNCALL HalLcdWriteLoc, PrintS16
        LOCFRAME ISTACK, 0, STACK
        LOCFRAME PSTACK, 0, STACK
        LOCFRAME XSTACK, 20, STACK
        LOCFRAME IOVERLAY, 0, STATIC
        LOCFRAME DOVERLAY, 0, STATIC
        ARGFRAME ISTACK, 0, STACK
        ARGFRAME PSTACK, 0, STACK
        ARGFRAME XSTACK, 20, STACK
        ARGFRAME IOVERLAY, 0, STATIC
        ARGFRAME DOVERLAY, 0, STATIC
        FUNCALL HalLcdWriteLoc, PrintS16
        LOCFRAME ISTACK, 0, STACK
        LOCFRAME PSTACK, 0, STACK
        LOCFRAME XSTACK, 20, STACK
        LOCFRAME IOVERLAY, 0, STATIC
        LOCFRAME DOVERLAY, 0, STATIC
        ARGFRAME ISTACK, 0, STACK
        ARGFRAME PSTACK, 0, STACK
        ARGFRAME XSTACK, 20, STACK
        ARGFRAME IOVERLAY, 0, STATIC
        ARGFRAME DOVERLAY, 0, STATIC
        REQUIRE ?V0
        REQUIRE ?V1
        REQUIRE ?V2
        REQUIRE ?V3
        REQUIRE ?V4
        REQUIRE ?V5
        REQUIRE ?V6
        REQUIRE ?V7
        MOV     A,#-0x10
        LCALL   ?BANKED_ENTER_XDATA
          CFI DPH0 load(1, XDATA, add(CFA_XSP16, literal(-1)))
          CFI DPL0 load(1, XDATA, add(CFA_XSP16, literal(-2)))
          CFI ?BRET_EXT load(1, XDATA, add(CFA_XSP16, literal(-3)))
          CFI ?RET_HIGH load(1, XDATA, add(CFA_XSP16, literal(-4)))
          CFI ?RET_LOW load(1, XDATA, add(CFA_XSP16, literal(-5)))
          CFI R7 load(1, XDATA, add(CFA_XSP16, literal(-6)))
          CFI V7 load(1, XDATA, add(CFA_XSP16, literal(-7)))
          CFI V6 load(1, XDATA, add(CFA_XSP16, literal(-8)))
          CFI V5 load(1, XDATA, add(CFA_XSP16, literal(-9)))
          CFI V4 load(1, XDATA, add(CFA_XSP16, literal(-10)))
          CFI V3 load(1, XDATA, add(CFA_XSP16, literal(-11)))
          CFI V2 load(1, XDATA, add(CFA_XSP16, literal(-12)))
          CFI V1 load(1, XDATA, add(CFA_XSP16, literal(-13)))
          CFI V0 load(1, XDATA, add(CFA_XSP16, literal(-14)))
          CFI VB load(1, XDATA, add(CFA_XSP16, literal(-15)))
          CFI R6 load(1, XDATA, add(CFA_XSP16, literal(-16)))
          CFI CFA_SP SP+0
          CFI CFA_XSP16 add(XSP16, 16)
        ; Saved register size: 16
        ; Auto size: 0
        MOV     ?V4,R2
        MOV     ?V5,R3
        MOV     ?V0,R4
        MOV     ?V1,R5
        MOV     A,R1
        MOV     R7,A
//  844    //fmj 20110708 start
//  845   switch (option)
        DEC     A
        JZ      ??HalLcdWriteLoc_0
        DEC     A
        JZ      ??HalLcdWriteLoc_0
        DEC     A
        JZ      ??HalLcdWriteLoc_0
        DEC     A
        JZ      ??HalLcdWriteLoc_0
        DEC     A
        JZ      ??HalLcdWriteLoc_0
        DEC     A
        JNZ     ??HalLcdWriteLoc_1
//  846   {
//  847     case 1:
//  848     case 2:
//  849     case 3:      
//  850     case 4:     
//  851     case 5:    
//  852     case 6:
//  853        HalLcdClearLine( option%7 );
??HalLcdWriteLoc_0:
        MOV     A,R7
        MOV     B,#0x7
        DIV     AB
        MOV     A,B
        MOV     R6,A
        ; Setup parameters for call to function HalLcdClearLine
        MOV     R1,A
        LCALL   `??HalLcdClearLine::?relay`; Banked call to: HalLcdClearLine
//  854        PrintS16(option%7,0,valueX,1,7,1);   
        ; Setup parameters for call to function PrintS16
        CLR     A
        MOV     ?V6,A
        MOV     ?V7,A
        MOV     R0,#?V4
        LCALL   ?PUSH_XSTACK_I_FOUR
          CFI CFA_XSP16 add(XSP16, 20)
        MOV     R5,#0x1
        MOV     R4,#0x7
        MOV     R3,#0x1
        MOV     R2,#0x0
        MOV     A,R6
        MOV     R1,A
        LCALL   `??PrintS16::?relay` ; Banked call to: PrintS16
        MOV     A,#0x4
        LCALL   ?DEALLOC_XSTACK8
          CFI CFA_XSP16 add(XSP16, 16)
//  855        PrintS16(option%7,8,valueY,1,7,1); 
        ; Setup parameters for call to function PrintS16
        CLR     A
        MOV     ?V2,A
        MOV     ?V3,A
        MOV     R0,#?V0
        LCALL   ?PUSH_XSTACK_I_FOUR
          CFI CFA_XSP16 add(XSP16, 20)
        MOV     R5,#0x1
        MOV     R4,#0x7
        MOV     R3,#0x1
        MOV     R2,#0x8
        MOV     A,R6
        MOV     R1,A
        LCALL   `??PrintS16::?relay` ; Banked call to: PrintS16
        MOV     A,#0x4
        LCALL   ?DEALLOC_XSTACK8
          CFI CFA_XSP16 add(XSP16, 16)
//  856       break;
//  857     default :
//  858       break;
//  859    //fmj 20110708 end
//  860   }
//  861 }
??HalLcdWriteLoc_1:
        LJMP    ?Subroutine4 & 0xFFFF
          CFI EndBlock cfiBlock93
//  862 
//  863 

        RSEG BANKED_CODE:CODE:NOROOT(0)
//  864 void HalLcdWriteValue ( uint32 value, const uint8 radix, uint8 option)
HalLcdWriteValue:
          CFI Block cfiBlock94 Using cfiCommon0
          CFI Function HalLcdWriteValue
        CODE
//  865 {
        FUNCALL HalLcdWriteValue, HalLcdClearLine
        LOCFRAME ISTACK, 0, STACK
        LOCFRAME PSTACK, 0, STACK
        LOCFRAME XSTACK, 12, STACK
        LOCFRAME IOVERLAY, 0, STATIC
        LOCFRAME DOVERLAY, 0, STATIC
        ARGFRAME ISTACK, 0, STACK
        ARGFRAME PSTACK, 0, STACK
        ARGFRAME XSTACK, 12, STACK
        ARGFRAME IOVERLAY, 0, STATIC
        ARGFRAME DOVERLAY, 0, STATIC
        FUNCALL HalLcdWriteValue, PrintS8
        LOCFRAME ISTACK, 0, STACK
        LOCFRAME PSTACK, 0, STACK
        LOCFRAME XSTACK, 16, STACK
        LOCFRAME IOVERLAY, 0, STATIC
        LOCFRAME DOVERLAY, 0, STATIC
        ARGFRAME ISTACK, 0, STACK
        ARGFRAME PSTACK, 0, STACK
        ARGFRAME XSTACK, 16, STACK
        ARGFRAME IOVERLAY, 0, STATIC
        ARGFRAME DOVERLAY, 0, STATIC
        REQUIRE ?V0
        REQUIRE ?V1
        REQUIRE ?V2
        REQUIRE ?V3
        MOV     A,#-0xc
        LCALL   ?BANKED_ENTER_XDATA
          CFI DPH0 load(1, XDATA, add(CFA_XSP16, literal(-1)))
          CFI DPL0 load(1, XDATA, add(CFA_XSP16, literal(-2)))
          CFI ?BRET_EXT load(1, XDATA, add(CFA_XSP16, literal(-3)))
          CFI ?RET_HIGH load(1, XDATA, add(CFA_XSP16, literal(-4)))
          CFI ?RET_LOW load(1, XDATA, add(CFA_XSP16, literal(-5)))
          CFI R7 load(1, XDATA, add(CFA_XSP16, literal(-6)))
          CFI V3 load(1, XDATA, add(CFA_XSP16, literal(-7)))
          CFI V2 load(1, XDATA, add(CFA_XSP16, literal(-8)))
          CFI V1 load(1, XDATA, add(CFA_XSP16, literal(-9)))
          CFI V0 load(1, XDATA, add(CFA_XSP16, literal(-10)))
          CFI VB load(1, XDATA, add(CFA_XSP16, literal(-11)))
          CFI R6 load(1, XDATA, add(CFA_XSP16, literal(-12)))
          CFI CFA_SP SP+0
          CFI CFA_XSP16 add(XSP16, 12)
        ; Saved register size: 12
        ; Auto size: 0
        MOV     ?V0,R2
        MOV     ?V1,R3
        MOV     ?V2,R4
        MOV     ?V3,R5
        MOV     A,#0xc
        LCALL   ?XSTACK_DISP0_8
        MOVX    A,@DPTR
        MOV     R0,A
//  866    //fmj 20110708 start
//  867   switch (option)
        DEC     A
        JZ      ??HalLcdWriteValue_0
        DEC     A
        JZ      ??HalLcdWriteValue_0
        DEC     A
        JZ      ??HalLcdWriteValue_0
        DEC     A
        JZ      ??HalLcdWriteValue_0
        DEC     A
        JZ      ??HalLcdWriteValue_0
        DEC     A
        JNZ     ??HalLcdWriteValue_1
//  868   {
//  869     case 1:
//  870     case 2:
//  871     case 3:      
//  872     case 4:     
//  873     case 5:    
//  874     case 6:
//  875        HalLcdClearLine( option%7 );
??HalLcdWriteValue_0:
        MOV     A,R0
        MOV     B,#0x7
        DIV     AB
        MOV     A,B
        MOV     R6,A
        ; Setup parameters for call to function HalLcdClearLine
        MOV     R1,A
        LCALL   `??HalLcdClearLine::?relay`; Banked call to: HalLcdClearLine
//  876        PrintS8(option%7,0,value,1,4);
        ; Setup parameters for call to function PrintS8
        MOV     R0,#?V0
        LCALL   ?PUSH_XSTACK_I_FOUR
          CFI CFA_XSP16 add(XSP16, 16)
        MOV     R4,#0x4
        MOV     R3,#0x1
        MOV     R2,#0x0
        MOV     A,R6
        MOV     R1,A
        LCALL   `??PrintS8::?relay`  ; Banked call to: PrintS8
        MOV     A,#0x4
        LCALL   ?DEALLOC_XSTACK8
          CFI CFA_XSP16 add(XSP16, 12)
//  877      /*  y = option%7;
//  878        x = 0;
//  879 	while(LcdBuf[ii] != '\0')
//  880 	{
//  881 		adder = (LcdBuf[ii] - 0x20) * 16;
//  882 
//  883 		for(wm = 0;wm < 8;wm++)
//  884 		{
//  885 			SetRamAddr(y , x);
//  886 			if(yn == 0)
//  887 			{
//  888 				WriteLCD(DATA, ~Font8X8[adder]);
//  889 			}
//  890 			else
//  891 			{
//  892 				WriteLCD(DATA, Font8X8[adder]);
//  893 			}
//  894 			adder += 1;
//  895 			x += 1;
//  896 		}
//  897 		y += 1;
//  898 		x -= 8;
//  899 		for(wm = 0;wm < 8;wm++)
//  900 		{
//  901 			SetRamAddr(y , x);
//  902 			if(yn == 0)
//  903 			{
//  904 				WriteLCD(DATA, ~Font8X8[adder]);
//  905 			}
//  906 			else
//  907 			{
//  908 				WriteLCD(DATA, Font8X8[adder]);	
//  909 			}
//  910 			adder += 1;
//  911 			x += 1;
//  912 		}
//  913 		ii += 1;
//  914 		y -= 1;
//  915 	}*/
//  916       //Print8(option%7,0,(unsigned char *)LcdBuf,1);
//  917       break;
//  918     default :
//  919       break;
//  920    //fmj 20110708 end
//  921   }
//  922 }
??HalLcdWriteValue_1:
        LJMP    ?Subroutine6 & 0xFFFF
          CFI EndBlock cfiBlock94
//  923 

        RSEG BANKED_CODE:CODE:NOROOT(0)
//  924 void HalLcdWriteAddr ( uint16 value, uint8 option)
HalLcdWriteAddr:
          CFI Block cfiBlock95 Using cfiCommon0
          CFI Function HalLcdWriteAddr
        CODE
//  925 {
        FUNCALL HalLcdWriteAddr, HalLcdClearLine
        LOCFRAME ISTACK, 0, STACK
        LOCFRAME PSTACK, 0, STACK
        LOCFRAME XSTACK, 20, STACK
        LOCFRAME IOVERLAY, 0, STATIC
        LOCFRAME DOVERLAY, 0, STATIC
        ARGFRAME ISTACK, 0, STACK
        ARGFRAME PSTACK, 0, STACK
        ARGFRAME XSTACK, 20, STACK
        ARGFRAME IOVERLAY, 0, STATIC
        ARGFRAME DOVERLAY, 0, STATIC
        FUNCALL HalLcdWriteAddr, Print8
        LOCFRAME ISTACK, 0, STACK
        LOCFRAME PSTACK, 0, STACK
        LOCFRAME XSTACK, 24, STACK
        LOCFRAME IOVERLAY, 0, STATIC
        LOCFRAME DOVERLAY, 0, STATIC
        ARGFRAME ISTACK, 0, STACK
        ARGFRAME PSTACK, 0, STACK
        ARGFRAME XSTACK, 24, STACK
        ARGFRAME IOVERLAY, 0, STATIC
        ARGFRAME DOVERLAY, 0, STATIC
        REQUIRE ?V0
        REQUIRE ?V1
        MOV     A,#-0xa
        LCALL   ?BANKED_ENTER_XDATA
          CFI DPH0 load(1, XDATA, add(CFA_XSP16, literal(-1)))
          CFI DPL0 load(1, XDATA, add(CFA_XSP16, literal(-2)))
          CFI ?BRET_EXT load(1, XDATA, add(CFA_XSP16, literal(-3)))
          CFI ?RET_HIGH load(1, XDATA, add(CFA_XSP16, literal(-4)))
          CFI ?RET_LOW load(1, XDATA, add(CFA_XSP16, literal(-5)))
          CFI R7 load(1, XDATA, add(CFA_XSP16, literal(-6)))
          CFI V1 load(1, XDATA, add(CFA_XSP16, literal(-7)))
          CFI V0 load(1, XDATA, add(CFA_XSP16, literal(-8)))
          CFI VB load(1, XDATA, add(CFA_XSP16, literal(-9)))
          CFI R6 load(1, XDATA, add(CFA_XSP16, literal(-10)))
          CFI CFA_SP SP+0
          CFI CFA_XSP16 add(XSP16, 10)
        ; Saved register size: 10
        ; Auto size: 10
        MOV     A,#-0xa
        LCALL   ?ALLOC_XSTACK8
          CFI CFA_XSP16 add(XSP16, 20)
        MOV     A,R1
        MOV     R7,A
//  926    //fmj 20110708 start
//  927   //unsigned char i; 
//  928   uint8 LcdBuf[10];
//  929   uint8 ch;
//  930   LcdBuf[0] = 'D';
        MOV     DPL,?XSP + 0
        MOV     DPH,?XSP + 1
        MOV     A,#0x44
        MOVX    @DPTR,A
//  931   LcdBuf[1] = 'U';
        MOV     A,#0x1
        LCALL   ?XSTACK_DISP0_8
        MOV     A,#0x55
        MOVX    @DPTR,A
//  932   LcdBuf[2] = 'T';
        MOV     A,#0x2
        LCALL   ?XSTACK_DISP0_8
        MOV     A,#0x54
        MOVX    @DPTR,A
//  933   LcdBuf[3] = ':';
        MOV     A,#0x3
        LCALL   ?XSTACK_DISP0_8
        MOV     A,#0x3a
        MOVX    @DPTR,A
//  934   LcdBuf[4] = ' ';
        MOV     A,#0x4
        LCALL   ?XSTACK_DISP0_8
        MOV     A,#0x20
        MOVX    @DPTR,A
//  935   ch = (value >> 12) & 0x0F;
        MOV     ?V0,R2
        MOV     ?V1,R3
        MOV     A,#0xc
        MOV     R0,#?V0
        LCALL   ?US_SHR
        MOV     A,?V0
        MOV     R0,A
//  936   LcdBuf[5] = ch + (( ch < 10 ) ? '0' : '7');
        CLR     C
        SUBB    A,#0xa
        JNC     ??HalLcdWriteAddr_0
        MOV     R1,#0x30
        SJMP    ??HalLcdWriteAddr_1
??HalLcdWriteAddr_0:
        MOV     R1,#0x37
??HalLcdWriteAddr_1:
        MOV     A,R0
        ADD     A,R1
        PUSH    A
          CFI CFA_SP SP+-1
        MOV     A,#0x5
        LCALL   ?XSTACK_DISP0_8
        POP     A
          CFI CFA_SP SP+0
        MOVX    @DPTR,A
//  937   ch = (value >> 8) & 0x0F;
        MOV     A,R3
        LCALL   ?Subroutine12 & 0xFFFF
//  938   LcdBuf[6] = ch + (( ch < 10 ) ? '0' : '7');
??CrossCallReturnLabel_7:
        JNC     ??HalLcdWriteAddr_2
        MOV     R1,#0x30
        SJMP    ??HalLcdWriteAddr_3
??HalLcdWriteAddr_2:
        MOV     R1,#0x37
??HalLcdWriteAddr_3:
        MOV     A,R0
        ADD     A,R1
        PUSH    A
          CFI CFA_SP SP+-1
        MOV     A,#0x6
        LCALL   ?XSTACK_DISP0_8
        POP     A
          CFI CFA_SP SP+0
        MOVX    @DPTR,A
//  939   ch = (value >> 4) & 0x0F;
        MOV     A,R2
        SWAP    A
        LCALL   ?Subroutine12 & 0xFFFF
//  940   LcdBuf[7] = ch + (( ch < 10 ) ? '0' : '7');
??CrossCallReturnLabel_8:
        JNC     ??HalLcdWriteAddr_4
        MOV     R1,#0x30
        SJMP    ??HalLcdWriteAddr_5
??HalLcdWriteAddr_4:
        MOV     R1,#0x37
??HalLcdWriteAddr_5:
        MOV     A,R0
        ADD     A,R1
        PUSH    A
          CFI CFA_SP SP+-1
        MOV     A,#0x7
        LCALL   ?XSTACK_DISP0_8
        POP     A
          CFI CFA_SP SP+0
        MOVX    @DPTR,A
//  941   ch = value  & 0x0F;
        MOV     A,R2
        LCALL   ?Subroutine12 & 0xFFFF
//  942   LcdBuf[8] = ch + (( ch < 10 ) ? '0' : '7');
??CrossCallReturnLabel_9:
        JNC     ??HalLcdWriteAddr_6
        MOV     R1,#0x30
        SJMP    ??HalLcdWriteAddr_7
??HalLcdWriteAddr_6:
        MOV     R1,#0x37
??HalLcdWriteAddr_7:
        MOV     A,R0
        ADD     A,R1
        PUSH    A
          CFI CFA_SP SP+-1
        MOV     A,#0x8
        LCALL   ?XSTACK_DISP0_8
        POP     A
          CFI CFA_SP SP+0
        MOVX    @DPTR,A
//  943  
//  944   LcdBuf[9] = '\0';  
        MOV     A,#0x9
        LCALL   ?XSTACK_DISP0_8
        CLR     A
        MOVX    @DPTR,A
//  945   switch (option)
        MOV     A,R7
        DEC     A
        JZ      ??HalLcdWriteAddr_8
        DEC     A
        JZ      ??HalLcdWriteAddr_8
        DEC     A
        JZ      ??HalLcdWriteAddr_8
        DEC     A
        JZ      ??HalLcdWriteAddr_8
        DEC     A
        JZ      ??HalLcdWriteAddr_8
        DEC     A
        JNZ     ??HalLcdWriteAddr_9
//  946   {
//  947     case 1:
//  948     case 2:
//  949     case 3:      
//  950     case 4:     
//  951     case 5:    
//  952     case 6:
//  953        HalLcdClearLine( option%7 );
??HalLcdWriteAddr_8:
        MOV     A,R7
        MOV     B,#0x7
        DIV     AB
        MOV     A,B
        MOV     R6,A
        ; Setup parameters for call to function HalLcdClearLine
        MOV     R1,A
        LCALL   `??HalLcdClearLine::?relay`; Banked call to: HalLcdClearLine
//  954        Print8(option%7,0,(unsigned char *)LcdBuf,1);
        ; Setup parameters for call to function Print8
        MOV     ?V0,#0x1
        MOV     R0,#?V0
        LCALL   ?PUSH_XSTACK_I_TWO
          CFI CFA_XSP16 add(XSP16, 22)
        MOV     A,#0x2
        LCALL   ?XSTACK_DISP100_8
        MOV     ?V0,R0
        MOV     ?V1,R1
        MOV     R0,#?V0
        LCALL   ?PUSH_XSTACK_I_TWO
          CFI CFA_XSP16 add(XSP16, 24)
        MOV     R4,#0x0
        MOV     R5,#0x0
        MOV     A,R6
        MOV     R2,A
        MOV     R3,#0x0
        LCALL   `??Print8::?relay`   ; Banked call to: Print8
        MOV     A,#0x4
        LCALL   ?DEALLOC_XSTACK8
          CFI CFA_XSP16 add(XSP16, 20)
//  955      /*  y = option%7;
//  956        x = 0;
//  957 	while(LcdBuf[ii] != '\0')
//  958 	{
//  959 		adder = (LcdBuf[ii] - 0x20) * 16;
//  960 
//  961 		for(wm = 0;wm < 8;wm++)
//  962 		{
//  963 			SetRamAddr(y , x);
//  964 			if(yn == 0)
//  965 			{
//  966 				WriteLCD(DATA, ~Font8X8[adder]);
//  967 			}
//  968 			else
//  969 			{
//  970 				WriteLCD(DATA, Font8X8[adder]);
//  971 			}
//  972 			adder += 1;
//  973 			x += 1;
//  974 		}
//  975 		y += 1;
//  976 		x -= 8;
//  977 		for(wm = 0;wm < 8;wm++)
//  978 		{
//  979 			SetRamAddr(y , x);
//  980 			if(yn == 0)
//  981 			{
//  982 				WriteLCD(DATA, ~Font8X8[adder]);
//  983 			}
//  984 			else
//  985 			{
//  986 				WriteLCD(DATA, Font8X8[adder]);	
//  987 			}
//  988 			adder += 1;
//  989 			x += 1;
//  990 		}
//  991 		ii += 1;
//  992 		y -= 1;
//  993 	}*/
//  994       //Print8(option%7,0,(unsigned char *)LcdBuf,1);
//  995       break;
//  996     default :
//  997       break;
//  998    //fmj 20110708 end
//  999   }
// 1000 }
??HalLcdWriteAddr_9:
        MOV     A,#0xa
        LJMP    ?Subroutine5 & 0xFFFF
          CFI EndBlock cfiBlock95

        RSEG BANKED_CODE:CODE:NOROOT(0)
?Subroutine12:
          CFI Block cfiCond96 Using cfiCommon0
          CFI Function HalLcdWriteAddr
          CFI Conditional ??CrossCallReturnLabel_7
          CFI R6 load(1, XDATA, add(CFA_XSP16, literal(-10)))
          CFI VB load(1, XDATA, add(CFA_XSP16, literal(-9)))
          CFI V0 load(1, XDATA, add(CFA_XSP16, literal(-8)))
          CFI V1 load(1, XDATA, add(CFA_XSP16, literal(-7)))
          CFI R7 load(1, XDATA, add(CFA_XSP16, literal(-6)))
          CFI ?RET_LOW load(1, XDATA, add(CFA_XSP16, literal(-5)))
          CFI ?RET_HIGH load(1, XDATA, add(CFA_XSP16, literal(-4)))
          CFI ?BRET_EXT load(1, XDATA, add(CFA_XSP16, literal(-3)))
          CFI DPL0 load(1, XDATA, add(CFA_XSP16, literal(-2)))
          CFI DPH0 load(1, XDATA, add(CFA_XSP16, literal(-1)))
          CFI CFA_SP SP+-2
          CFI CFA_XSP16 add(XSP16, 20)
          CFI Block cfiCond97 Using cfiCommon0
          CFI (cfiCond97) Function HalLcdWriteAddr
          CFI (cfiCond97) Conditional ??CrossCallReturnLabel_8
          CFI (cfiCond97) R6 load(1, XDATA, add(CFA_XSP16, literal(-10)))
          CFI (cfiCond97) VB load(1, XDATA, add(CFA_XSP16, literal(-9)))
          CFI (cfiCond97) V0 load(1, XDATA, add(CFA_XSP16, literal(-8)))
          CFI (cfiCond97) V1 load(1, XDATA, add(CFA_XSP16, literal(-7)))
          CFI (cfiCond97) R7 load(1, XDATA, add(CFA_XSP16, literal(-6)))
          CFI (cfiCond97) ?RET_LOW load(1, XDATA, add(CFA_XSP16, literal(-5)))
          CFI (cfiCond97) ?RET_HIGH load(1, XDATA, add(CFA_XSP16, literal(-4)))
          CFI (cfiCond97) ?BRET_EXT load(1, XDATA, add(CFA_XSP16, literal(-3)))
          CFI (cfiCond97) DPL0 load(1, XDATA, add(CFA_XSP16, literal(-2)))
          CFI (cfiCond97) DPH0 load(1, XDATA, add(CFA_XSP16, literal(-1)))
          CFI (cfiCond97) CFA_SP SP+-2
          CFI (cfiCond97) CFA_XSP16 add(XSP16, 20)
          CFI Block cfiCond98 Using cfiCommon0
          CFI (cfiCond98) Function HalLcdWriteAddr
          CFI (cfiCond98) Conditional ??CrossCallReturnLabel_9
          CFI (cfiCond98) R6 load(1, XDATA, add(CFA_XSP16, literal(-10)))
          CFI (cfiCond98) VB load(1, XDATA, add(CFA_XSP16, literal(-9)))
          CFI (cfiCond98) V0 load(1, XDATA, add(CFA_XSP16, literal(-8)))
          CFI (cfiCond98) V1 load(1, XDATA, add(CFA_XSP16, literal(-7)))
          CFI (cfiCond98) R7 load(1, XDATA, add(CFA_XSP16, literal(-6)))
          CFI (cfiCond98) ?RET_LOW load(1, XDATA, add(CFA_XSP16, literal(-5)))
          CFI (cfiCond98) ?RET_HIGH load(1, XDATA, add(CFA_XSP16, literal(-4)))
          CFI (cfiCond98) ?BRET_EXT load(1, XDATA, add(CFA_XSP16, literal(-3)))
          CFI (cfiCond98) DPL0 load(1, XDATA, add(CFA_XSP16, literal(-2)))
          CFI (cfiCond98) DPH0 load(1, XDATA, add(CFA_XSP16, literal(-1)))
          CFI (cfiCond98) CFA_SP SP+-2
          CFI (cfiCond98) CFA_XSP16 add(XSP16, 20)
          CFI Block cfiPicker99 Using cfiCommon1
          CFI (cfiPicker99) NoFunction
          CFI (cfiPicker99) Picker
        ANL     A,#0xf
        MOV     R0,A
        CLR     C
        SUBB    A,#0xa
        RET
          CFI EndBlock cfiCond96
          CFI EndBlock cfiCond97
          CFI EndBlock cfiCond98
          CFI EndBlock cfiPicker99
// 1001 

        RSEG BANKED_CODE:CODE:NOROOT(0)
// 1002 void HalLcdWriteScreen( char *line1, char *line2 )
HalLcdWriteScreen:
          CFI Block cfiBlock100 Using cfiCommon0
          CFI Function HalLcdWriteScreen
        CODE
// 1003 {
        FUNCALL HalLcdWriteScreen, HalLcdWriteString
        LOCFRAME ISTACK, 0, STACK
        LOCFRAME PSTACK, 0, STACK
        LOCFRAME XSTACK, 9, STACK
        LOCFRAME IOVERLAY, 0, STATIC
        LOCFRAME DOVERLAY, 0, STATIC
        ARGFRAME ISTACK, 0, STACK
        ARGFRAME PSTACK, 0, STACK
        ARGFRAME XSTACK, 9, STACK
        ARGFRAME IOVERLAY, 0, STATIC
        ARGFRAME DOVERLAY, 0, STATIC
        FUNCALL HalLcdWriteScreen, HalLcdWriteString
        LOCFRAME ISTACK, 0, STACK
        LOCFRAME PSTACK, 0, STACK
        LOCFRAME XSTACK, 9, STACK
        LOCFRAME IOVERLAY, 0, STATIC
        LOCFRAME DOVERLAY, 0, STATIC
        ARGFRAME ISTACK, 0, STACK
        ARGFRAME PSTACK, 0, STACK
        ARGFRAME XSTACK, 9, STACK
        ARGFRAME IOVERLAY, 0, STATIC
        ARGFRAME DOVERLAY, 0, STATIC
        MOV     A,#-0x9
        LCALL   ?BANKED_ENTER_XDATA
          CFI DPH0 load(1, XDATA, add(CFA_XSP16, literal(-1)))
          CFI DPL0 load(1, XDATA, add(CFA_XSP16, literal(-2)))
          CFI ?BRET_EXT load(1, XDATA, add(CFA_XSP16, literal(-3)))
          CFI ?RET_HIGH load(1, XDATA, add(CFA_XSP16, literal(-4)))
          CFI ?RET_LOW load(1, XDATA, add(CFA_XSP16, literal(-5)))
          CFI R7 load(1, XDATA, add(CFA_XSP16, literal(-6)))
          CFI V0 load(1, XDATA, add(CFA_XSP16, literal(-7)))
          CFI VB load(1, XDATA, add(CFA_XSP16, literal(-8)))
          CFI R6 load(1, XDATA, add(CFA_XSP16, literal(-9)))
          CFI CFA_SP SP+0
          CFI CFA_XSP16 add(XSP16, 9)
        ; Saved register size: 9
        ; Auto size: 0
        MOV     A,R4
        MOV     R6,A
        MOV     A,R5
        MOV     R7,A
// 1004 #if (HAL_LCD == TRUE)
// 1005   HalLcdWriteString( line1, 3 );
        ; Setup parameters for call to function HalLcdWriteString
        MOV     R1,#0x3
        LCALL   `??HalLcdWriteString::?relay`; Banked call to: HalLcdWriteString
// 1006   HalLcdWriteString( line2, 5 );
        ; Setup parameters for call to function HalLcdWriteString
        MOV     R1,#0x5
        MOV     A,R6
        MOV     R2,A
        MOV     A,R7
        MOV     R3,A
          CFI EndBlock cfiBlock100
        REQUIRE ?Subroutine7
        ; // Fall through to label ?Subroutine7
// 1007 #endif
// 1008 
// 1009 }

        RSEG BANKED_CODE:CODE:NOROOT(0)
?Subroutine7:
          CFI Block cfiBlock101 Using cfiCommon0
          CFI NoFunction
          CFI CFA_SP SP+0
          CFI CFA_XSP16 add(XSP16, 9)
          CFI VB load(1, XDATA, add(CFA_XSP16, literal(-8)))
          CFI DPL0 load(1, XDATA, add(CFA_XSP16, literal(-2)))
          CFI DPH0 load(1, XDATA, add(CFA_XSP16, literal(-1)))
          CFI R6 load(1, XDATA, add(CFA_XSP16, literal(-9)))
          CFI R7 load(1, XDATA, add(CFA_XSP16, literal(-6)))
          CFI V0 load(1, XDATA, add(CFA_XSP16, literal(-7)))
          CFI ?BRET_EXT load(1, XDATA, add(CFA_XSP16, literal(-3)))
          CFI ?RET_HIGH load(1, XDATA, add(CFA_XSP16, literal(-4)))
          CFI ?RET_LOW load(1, XDATA, add(CFA_XSP16, literal(-5)))
        LCALL   `??HalLcdWriteString::?relay`; Banked call to: HalLcdWriteString
        LJMP    ??Subroutine21_0 & 0xFFFF
          CFI EndBlock cfiBlock101
// 1010 

        RSEG BANKED_CODE:CODE:NOROOT(0)
// 1011 void HalLcdWriteStringValue( char *title, uint16 value, uint8 format, uint8 line )
HalLcdWriteStringValue:
          CFI Block cfiBlock102 Using cfiCommon0
          CFI Function HalLcdWriteStringValue
        CODE
// 1012 {
        FUNCALL HalLcdWriteStringValue, osal_strlen
        LOCFRAME ISTACK, 0, STACK
        LOCFRAME PSTACK, 0, STACK
        LOCFRAME XSTACK, 35, STACK
        LOCFRAME IOVERLAY, 0, STATIC
        LOCFRAME DOVERLAY, 0, STATIC
        ARGFRAME ISTACK, 0, STACK
        ARGFRAME PSTACK, 0, STACK
        ARGFRAME XSTACK, 35, STACK
        ARGFRAME IOVERLAY, 0, STATIC
        ARGFRAME DOVERLAY, 0, STATIC
        FUNCALL HalLcdWriteStringValue, osal_memcpy
        LOCFRAME ISTACK, 0, STACK
        LOCFRAME PSTACK, 0, STACK
        LOCFRAME XSTACK, 38, STACK
        LOCFRAME IOVERLAY, 0, STATIC
        LOCFRAME DOVERLAY, 0, STATIC
        ARGFRAME ISTACK, 0, STACK
        ARGFRAME PSTACK, 0, STACK
        ARGFRAME XSTACK, 38, STACK
        ARGFRAME IOVERLAY, 0, STATIC
        ARGFRAME DOVERLAY, 0, STATIC
        FUNCALL HalLcdWriteStringValue, _ltoa
        LOCFRAME ISTACK, 0, STACK
        LOCFRAME PSTACK, 0, STACK
        LOCFRAME XSTACK, 37, STACK
        LOCFRAME IOVERLAY, 0, STATIC
        LOCFRAME DOVERLAY, 0, STATIC
        ARGFRAME ISTACK, 0, STACK
        ARGFRAME PSTACK, 0, STACK
        ARGFRAME XSTACK, 37, STACK
        ARGFRAME IOVERLAY, 0, STATIC
        ARGFRAME DOVERLAY, 0, STATIC
        FUNCALL HalLcdWriteStringValue, HalLcdWriteString
        LOCFRAME ISTACK, 0, STACK
        LOCFRAME PSTACK, 0, STACK
        LOCFRAME XSTACK, 35, STACK
        LOCFRAME IOVERLAY, 0, STATIC
        LOCFRAME DOVERLAY, 0, STATIC
        ARGFRAME ISTACK, 0, STACK
        ARGFRAME PSTACK, 0, STACK
        ARGFRAME XSTACK, 35, STACK
        ARGFRAME IOVERLAY, 0, STATIC
        ARGFRAME DOVERLAY, 0, STATIC
        REQUIRE ?V0
        REQUIRE ?V1
        REQUIRE ?V2
        REQUIRE ?V3
        REQUIRE ?V4
        REQUIRE ?V5
        REQUIRE ?V6
        MOV     A,#-0xf
        LCALL   ?BANKED_ENTER_XDATA
          CFI DPH0 load(1, XDATA, add(CFA_XSP16, literal(-1)))
          CFI DPL0 load(1, XDATA, add(CFA_XSP16, literal(-2)))
          CFI ?BRET_EXT load(1, XDATA, add(CFA_XSP16, literal(-3)))
          CFI ?RET_HIGH load(1, XDATA, add(CFA_XSP16, literal(-4)))
          CFI ?RET_LOW load(1, XDATA, add(CFA_XSP16, literal(-5)))
          CFI R7 load(1, XDATA, add(CFA_XSP16, literal(-6)))
          CFI V6 load(1, XDATA, add(CFA_XSP16, literal(-7)))
          CFI V5 load(1, XDATA, add(CFA_XSP16, literal(-8)))
          CFI V4 load(1, XDATA, add(CFA_XSP16, literal(-9)))
          CFI V3 load(1, XDATA, add(CFA_XSP16, literal(-10)))
          CFI V2 load(1, XDATA, add(CFA_XSP16, literal(-11)))
          CFI V1 load(1, XDATA, add(CFA_XSP16, literal(-12)))
          CFI V0 load(1, XDATA, add(CFA_XSP16, literal(-13)))
          CFI VB load(1, XDATA, add(CFA_XSP16, literal(-14)))
          CFI R6 load(1, XDATA, add(CFA_XSP16, literal(-15)))
          CFI CFA_SP SP+0
          CFI CFA_XSP16 add(XSP16, 15)
        ; Saved register size: 15
        ; Auto size: 20
        MOV     A,#-0x14
        LCALL   ?ALLOC_XSTACK8
          CFI CFA_XSP16 add(XSP16, 35)
        MOV     A,R2
        MOV     R6,A
        MOV     A,R3
        MOV     R7,A
        MOV     ?V2,R4
        MOV     ?V3,R5
        MOV     ?V0,R1
// 1013 #if (HAL_LCD == TRUE)
// 1014   uint8 tmpLen;
// 1015   uint8 buf[20];
// 1016   uint32 err;
// 1017 
// 1018   tmpLen = (uint8)osal_strlen( (char*)title );
        ; Setup parameters for call to function osal_strlen
        LCALL   `??osal_strlen::?relay`; Banked call to: osal_strlen
        MOV     A,R2
        MOV     ?V1,A
// 1019   osal_memcpy( buf, title, tmpLen );
        ; Setup parameters for call to function osal_memcpy
        MOV     ?V4,R6
        MOV     ?V5,R7
        MOV     ?V6,#0x0
        MOV     R0,#?V4
        LCALL   ?PUSH_XSTACK_I_THREE
          CFI CFA_XSP16 add(XSP16, 38)
        MOV     R4,?V1
        MOV     R5,#0x0
        MOV     A,#0x3
        LCALL   ?XSTACK_DISP101_8
        LCALL   `??osal_memcpy::?relay`; Banked call to: osal_memcpy
        MOV     A,#0x3
        LCALL   ?DEALLOC_XSTACK8
          CFI CFA_XSP16 add(XSP16, 35)
// 1020   buf[tmpLen] = ' ';
        MOV     R0,?V1
        MOV     DPL,?XSP + 0
        MOV     DPH,?XSP + 1
        MOV     A,DPL
        ADD     A,R0
        MOV     DPL,A
        CLR     A
        ADDC    A,DPH
        MOV     DPH,A
        MOV     A,#0x20
        MOVX    @DPTR,A
// 1021   err = (uint32)(value);
// 1022   _ltoa( err, &buf[tmpLen+1], format );
        ; Setup parameters for call to function _ltoa
        INC     DPTR
        MOV     ?V4,DPL
        MOV     ?V5,DPH
        MOV     R0,#?V4
        LCALL   ?PUSH_XSTACK_I_TWO
          CFI CFA_XSP16 add(XSP16, 37)
        MOV     R1,?V0
        MOV     R2,?V2
        MOV     R3,?V3
        CLR     A
        MOV     R4,A
        MOV     R5,A
        LCALL   `??_ltoa::?relay`    ; Banked call to: _ltoa
        MOV     A,#0x2
        LCALL   ?DEALLOC_XSTACK8
          CFI CFA_XSP16 add(XSP16, 35)
// 1023   HalLcdWriteString( (char*)buf, line );		
        ; Setup parameters for call to function HalLcdWriteString
        MOV     A,#0x23
        LCALL   ?XSTACK_DISP0_8
        MOVX    A,@DPTR
        MOV     R1,A
        MOV     R2,?XSP + 0
        MOV     R3,?XSP + 1
        LCALL   `??HalLcdWriteString::?relay`; Banked call to: HalLcdWriteString
// 1024 #endif
// 1025 }
        MOV     A,#0x14
        LCALL   ?DEALLOC_XSTACK8
          CFI CFA_XSP16 add(XSP16, 15)
        LJMP    ?Subroutine2 & 0xFFFF
          CFI EndBlock cfiBlock102
// 1026 

        RSEG BANKED_CODE:CODE:NOROOT(0)
// 1027 void HalLcdWriteStringValueValue( char *title, uint16 value1, uint8 format1,
HalLcdWriteStringValueValue:
          CFI Block cfiBlock103 Using cfiCommon0
          CFI Function HalLcdWriteStringValueValue
        CODE
// 1028                                   uint16 value2, uint8 format2, uint8 line )
// 1029 {
        ; Saved register size: 0
        ; Auto size: 0
// 1030 ;
// 1031 }
        LJMP    ?BRET
          CFI EndBlock cfiBlock103

        RSEG BANKED_CODE:CODE:NOROOT(0)
// 1032 void upLcd( char *ptr,uint8 op )
upLcd:
          CFI Block cfiBlock104 Using cfiCommon0
          CFI Function upLcd
        CODE
// 1033 {
        FUNCALL upLcd, HalLcdWriteString
        LOCFRAME ISTACK, 0, STACK
        LOCFRAME PSTACK, 0, STACK
        LOCFRAME XSTACK, 9, STACK
        LOCFRAME IOVERLAY, 0, STATIC
        LOCFRAME DOVERLAY, 0, STATIC
        ARGFRAME ISTACK, 0, STACK
        ARGFRAME PSTACK, 0, STACK
        ARGFRAME XSTACK, 9, STACK
        ARGFRAME IOVERLAY, 0, STATIC
        ARGFRAME DOVERLAY, 0, STATIC
        MOV     A,#-0x9
        LCALL   ?BANKED_ENTER_XDATA
          CFI DPH0 load(1, XDATA, add(CFA_XSP16, literal(-1)))
          CFI DPL0 load(1, XDATA, add(CFA_XSP16, literal(-2)))
          CFI ?BRET_EXT load(1, XDATA, add(CFA_XSP16, literal(-3)))
          CFI ?RET_HIGH load(1, XDATA, add(CFA_XSP16, literal(-4)))
          CFI ?RET_LOW load(1, XDATA, add(CFA_XSP16, literal(-5)))
          CFI R7 load(1, XDATA, add(CFA_XSP16, literal(-6)))
          CFI V0 load(1, XDATA, add(CFA_XSP16, literal(-7)))
          CFI VB load(1, XDATA, add(CFA_XSP16, literal(-8)))
          CFI R6 load(1, XDATA, add(CFA_XSP16, literal(-9)))
          CFI CFA_SP SP+0
          CFI CFA_XSP16 add(XSP16, 9)
        ; Saved register size: 9
        ; Auto size: 0
// 1034   HalLcdWriteString(ptr,op);
        ; Setup parameters for call to function HalLcdWriteString
        LJMP    ?Subroutine7 & 0xFFFF
// 1035 }
          CFI EndBlock cfiBlock104

        RSEG XDATA_ID:CODE:NOROOT(0)
`?<Initializer for ContrastValue>`:
        DATA8
        DB 90

        RSEG BANK_RELAYS:CODE:REORDER:NOROOT(0)
`??delay1::?relay`:
        CODE
        LCALL   ?BDISPATCH
        DATA24
        DC24    delay1

        RSEG BANK_RELAYS:CODE:REORDER:NOROOT(0)
`??delay_us::?relay`:
        CODE
        LCALL   ?BDISPATCH
        DATA24
        DC24    delay_us

        RSEG BANK_RELAYS:CODE:REORDER:NOROOT(0)
`??Write595::?relay`:
        CODE
        LCALL   ?BDISPATCH
        DATA24
        DC24    Write595

        RSEG BANK_RELAYS:CODE:REORDER:NOROOT(0)
`??WriteLCD::?relay`:
        CODE
        LCALL   ?BDISPATCH
        DATA24
        DC24    WriteLCD

        RSEG BANK_RELAYS:CODE:REORDER:NOROOT(0)
`??SetRamAddr::?relay`:
        CODE
        LCALL   ?BDISPATCH
        DATA24
        DC24    SetRamAddr

        RSEG BANK_RELAYS:CODE:REORDER:NOROOT(0)
`??SetContrast::?relay`:
        CODE
        LCALL   ?BDISPATCH
        DATA24
        DC24    SetContrast

        RSEG BANK_RELAYS:CODE:REORDER:NOROOT(0)
`??InitDisplay::?relay`:
        CODE
        LCALL   ?BDISPATCH
        DATA24
        DC24    InitDisplay

        RSEG BANK_RELAYS:CODE:REORDER:NOROOT(0)
`??contrastctrl::?relay`:
        CODE
        LCALL   ?BDISPATCH
        DATA24
        DC24    contrastctrl

        RSEG BANK_RELAYS:CODE:REORDER:NOROOT(0)
`??ClearScreen::?relay`:
        CODE
        LCALL   ?BDISPATCH
        DATA24
        DC24    ClearScreen

        RSEG BANK_RELAYS:CODE:REORDER:NOROOT(0)
`??HalLcdInit::?relay`:
        CODE
        LCALL   ?BDISPATCH
        DATA24
        DC24    HalLcdInit

        RSEG BANK_RELAYS:CODE:REORDER:NOROOT(0)
`??Print6::?relay`:
        CODE
        LCALL   ?BDISPATCH
        DATA24
        DC24    Print6

        RSEG BANK_RELAYS:CODE:REORDER:NOROOT(0)
`??Printn8::?relay`:
        CODE
        LCALL   ?BDISPATCH
        DATA24
        DC24    Printn8

        RSEG BANK_RELAYS:CODE:REORDER:NOROOT(0)
`??PrintS8::?relay`:
        CODE
        LCALL   ?BDISPATCH
        DATA24
        DC24    PrintS8

        RSEG BANK_RELAYS:CODE:REORDER:NOROOT(0)
`??PrintS16::?relay`:
        CODE
        LCALL   ?BDISPATCH
        DATA24
        DC24    PrintS16

        RSEG BANK_RELAYS:CODE:REORDER:NOROOT(0)
`??PrintCh8::?relay`:
        CODE
        LCALL   ?BDISPATCH
        DATA24
        DC24    PrintCh8

        RSEG BANK_RELAYS:CODE:REORDER:NOROOT(0)
`??Print8::?relay`:
        CODE
        LCALL   ?BDISPATCH
        DATA24
        DC24    Print8

        RSEG BANK_RELAYS:CODE:REORDER:NOROOT(0)
`??Print::?relay`:
        CODE
        LCALL   ?BDISPATCH
        DATA24
        DC24    Print

        RSEG BANK_RELAYS:CODE:REORDER:NOROOT(0)
`??HalLcdClearLine::?relay`:
        CODE
        LCALL   ?BDISPATCH
        DATA24
        DC24    HalLcdClearLine

        RSEG BANK_RELAYS:CODE:REORDER:NOROOT(0)
`??HalLcdWriteString::?relay`:
        CODE
        LCALL   ?BDISPATCH
        DATA24
        DC24    HalLcdWriteString

        RSEG BANK_RELAYS:CODE:REORDER:NOROOT(0)
`??HalLcdWriteLoc::?relay`:
        CODE
        LCALL   ?BDISPATCH
        DATA24
        DC24    HalLcdWriteLoc

        RSEG BANK_RELAYS:CODE:REORDER:NOROOT(0)
`??HalLcdWriteValue::?relay`:
        CODE
        LCALL   ?BDISPATCH
        DATA24
        DC24    HalLcdWriteValue

        RSEG BANK_RELAYS:CODE:REORDER:NOROOT(0)
`??HalLcdWriteAddr::?relay`:
        CODE
        LCALL   ?BDISPATCH
        DATA24
        DC24    HalLcdWriteAddr

        RSEG BANK_RELAYS:CODE:REORDER:NOROOT(0)
`??HalLcdWriteScreen::?relay`:
        CODE
        LCALL   ?BDISPATCH
        DATA24
        DC24    HalLcdWriteScreen

        RSEG BANK_RELAYS:CODE:REORDER:NOROOT(0)
`??HalLcdWriteStringValue::?relay`:
        CODE
        LCALL   ?BDISPATCH
        DATA24
        DC24    HalLcdWriteStringValue

        RSEG BANK_RELAYS:CODE:REORDER:NOROOT(0)
`??HalLcdWriteStringValueValue::?relay`:
        CODE
        LCALL   ?BDISPATCH
        DATA24
        DC24    HalLcdWriteStringValueValue

        RSEG BANK_RELAYS:CODE:REORDER:NOROOT(0)
`??upLcd::?relay`:
        CODE
        LCALL   ?BDISPATCH
        DATA24
        DC24    upLcd

        RSEG XDATA_ROM_C:CONST:REORDER:NOROOT(0)
        DATA8
`?<Constant "IEEE:">`:
        DB "IEEE:"

        RSEG XDATA_ROM_C:CONST:REORDER:NOROOT(0)
        DATA8
`?<Constant "Init lcd2">`:
        DB "Init lcd2"

        RSEG XDATA_ROM_C:CONST:REORDER:NOROOT(0)
        DATA8
`?<Constant "                ">`:
        DB "                "

        RSEG XDATA_ROM_C:CONST:REORDER:NOROOT(0)
        DATA32
__Constant_a:
        DD 10

        RSEG XDATA_ROM_C:CONST:REORDER:NOROOT(0)
        DATA32
__Constant_7f:
        DD 127

        RSEG XDATA_ROM_C:CONST:REORDER:NOROOT(0)
        DATA32
__Constant_7fff:
        DD 32767

        END
// 
// 2 846 bytes in segment BANKED_CODE
//   156 bytes in segment BANK_RELAYS
//     6 bytes in segment SFR_AN
//     1 byte  in segment XDATA_I
//     1 byte  in segment XDATA_ID
//    45 bytes in segment XDATA_ROM_C
// 
// 3 003 bytes of CODE  memory
//    33 bytes of CONST memory (+ 12 bytes shared)
//     0 bytes of DATA  memory (+  6 bytes shared)
//     1 byte  of XDATA memory
//
//Errors: none
//Warnings: none
