///////////////////////////////////////////////////////////////////////////////
//
// IAR C/C++ Compiler V9.30.1.3056 for 8051               21/Apr/2017  13:45:58
// Copyright 2004-2015 IAR Systems AB.
//
//    Core               =  plain
//    Code model         =  banked
//    Data model         =  large
//    Calling convention =  xdata reentrant
//    Constant location  =  data_rom
//    Dptr setup         =  1,16
//                          
//    Source file        =  
//        C:\Texas Instruments\Z-Stack Mesh 1.0.0_chaokw_20160317\Z-Stack Mesh
//        1.0.0_chaokw_20160316\Z-Stack Mesh 1.0.0_LCDOK\Z-Stack Mesh
//        1.0.0\Components\hal\target\CC2530EB\hal_key.c
//    Command line       =  
//        -f "C:\Texas Instruments\Z-Stack Mesh 1.0.0_chaokw_20160317\Z-Stack
//        Mesh 1.0.0_chaokw_20160316\Z-Stack Mesh 1.0.0_LCDOK\Z-Stack Mesh
//        1.0.0\Projects\zstack\Samples\GenericApp\CC2530DB\..\..\..\Tools\CC2530DB\f8wRouter.cfg"
//        (-DCPU32MHZ -DROOT=__near_func -DMAC_CFG_APP_PENDING_QUEUE=TRUE
//        -DMAC_CFG_TX_DATA_MAX=5 -DMAC_CFG_TX_MAX=8 -DMAC_CFG_RX_MAX=5
//        -DRTR_NWK) -f "C:\Texas Instruments\Z-Stack Mesh
//        1.0.0_chaokw_20160317\Z-Stack Mesh 1.0.0_chaokw_20160316\Z-Stack Mesh
//        1.0.0_LCDOK\Z-Stack Mesh
//        1.0.0\Projects\zstack\Samples\GenericApp\CC2530DB\..\..\..\Tools\CC2530DB\f8wConfig.cfg"
//        (-DZIGBEEPRO -DSECURE=1 -DZG_SECURE_DYNAMIC=0 -DREFLECTOR
//        -DDEFAULT_CHANLIST=0x04000000 -DZDAPP_CONFIG_PAN_ID=0x0100
//        -DNWK_START_DELAY=100 -DEXTENDED_JOINING_RANDOM_MASK=0x007F
//        -DBEACON_REQUEST_DELAY=100 -DBEACON_REQ_DELAY_MASK=0x00FF
//        -DLINK_STATUS_JITTER_MASK=0x007F -DROUTE_EXPIRY_TIME=30
//        -DAPSC_ACK_WAIT_DURATION_POLLED=3000 -DNWK_INDIRECT_MSG_TIMEOUT=7
//        -DMAX_RREQ_ENTRIES=8 -DAPSC_MAX_FRAME_RETRIES=5
//        -DNWK_MAX_DATA_RETRIES=2 -DMAX_POLL_FAILURE_RETRIES=2 -DMAX_BCAST=9
//        -DAPS_MAX_GROUPS=16 -DMAX_RTG_ENTRIES=40 -DNWK_MAX_BINDING_ENTRIES=4
//        -DMAX_BINDING_CLUSTER_IDS=4 "-DDEFAULT_KEY={0x01, 0x03, 0x05, 0x07,
//        0x09, 0x0B, 0x0D, 0x0F, 0x00, 0x02, 0x04, 0x06, 0x08, 0x0A, 0x0C,
//        0x0D}" -DMAC_MAX_FRAME_SIZE=116 -DZDNWKMGR_MIN_TRANSMISSIONS=20
//        "-DCONST=const __code" -DGENERIC=__generic -DRFD_RCVC_ALWAYS_ON=FALSE
//        -DPOLL_RATE=1000 -DQUEUED_POLL_RATE=100 -DRESPONSE_POLL_RATE=100
//        -DREJOIN_POLL_RATE=440) -DCHANNEL_CNT=0x01 "C:\Texas
//        Instruments\Z-Stack Mesh 1.0.0_chaokw_20160317\Z-Stack Mesh
//        1.0.0_chaokw_20160316\Z-Stack Mesh 1.0.0_LCDOK\Z-Stack Mesh
//        1.0.0\Components\hal\target\CC2530EB\hal_key.c" -D ZTOOL_P1 -D
//        MT_TASK -D MT_SYS_FUNC -D MT_ZDO_FUNC -D LCD_SUPPORTED=DEBUG -D
//        xNV_RESTORE -D NV_INIT -D OPEN_FCS -D PANID_INCREASE -D MAKE_CRC_SHDW
//        -lC "C:\Texas Instruments\Z-Stack Mesh 1.0.0_chaokw_20160317\Z-Stack
//        Mesh 1.0.0_chaokw_20160316\Z-Stack Mesh 1.0.0_LCDOK\Z-Stack Mesh
//        1.0.0\Projects\zstack\Samples\GenericApp\CC2530DB\RouterEB-SBL\List"
//        -lA "C:\Texas Instruments\Z-Stack Mesh 1.0.0_chaokw_20160317\Z-Stack
//        Mesh 1.0.0_chaokw_20160316\Z-Stack Mesh 1.0.0_LCDOK\Z-Stack Mesh
//        1.0.0\Projects\zstack\Samples\GenericApp\CC2530DB\RouterEB-SBL\List"
//        --diag_suppress Pe001,Pa010 -o "C:\Texas Instruments\Z-Stack Mesh
//        1.0.0_chaokw_20160317\Z-Stack Mesh 1.0.0_chaokw_20160316\Z-Stack Mesh
//        1.0.0_LCDOK\Z-Stack Mesh
//        1.0.0\Projects\zstack\Samples\GenericApp\CC2530DB\RouterEB-SBL\Obj"
//        -e --no_code_motion --debug --core=plain --dptr=16,1
//        --data_model=large --code_model=banked
//        --calling_convention=xdata_reentrant --place_constants=data_rom
//        --nr_virtual_regs 16 -I "C:\Texas Instruments\Z-Stack Mesh
//        1.0.0_chaokw_20160317\Z-Stack Mesh 1.0.0_chaokw_20160316\Z-Stack Mesh
//        1.0.0_LCDOK\Z-Stack Mesh
//        1.0.0\Projects\zstack\Samples\GenericApp\CC2530DB\" -I "C:\Texas
//        Instruments\Z-Stack Mesh 1.0.0_chaokw_20160317\Z-Stack Mesh
//        1.0.0_chaokw_20160316\Z-Stack Mesh 1.0.0_LCDOK\Z-Stack Mesh
//        1.0.0\Projects\zstack\Samples\GenericApp\CC2530DB\..\Source\" -I
//        "C:\Texas Instruments\Z-Stack Mesh 1.0.0_chaokw_20160317\Z-Stack Mesh
//        1.0.0_chaokw_20160316\Z-Stack Mesh 1.0.0_LCDOK\Z-Stack Mesh
//        1.0.0\Projects\zstack\Samples\GenericApp\CC2530DB\..\..\..\Application\"
//        -I "C:\Texas Instruments\Z-Stack Mesh 1.0.0_chaokw_20160317\Z-Stack
//        Mesh 1.0.0_chaokw_20160316\Z-Stack Mesh 1.0.0_LCDOK\Z-Stack Mesh
//        1.0.0\Projects\zstack\Samples\GenericApp\CC2530DB\..\..\..\ZMain\TI2530DB\"
//        -I "C:\Texas Instruments\Z-Stack Mesh 1.0.0_chaokw_20160317\Z-Stack
//        Mesh 1.0.0_chaokw_20160316\Z-Stack Mesh 1.0.0_LCDOK\Z-Stack Mesh
//        1.0.0\Projects\zstack\Samples\GenericApp\CC2530DB\..\..\..\..\..\Components\hal\include\"
//        -I "C:\Texas Instruments\Z-Stack Mesh 1.0.0_chaokw_20160317\Z-Stack
//        Mesh 1.0.0_chaokw_20160316\Z-Stack Mesh 1.0.0_LCDOK\Z-Stack Mesh
//        1.0.0\Projects\zstack\Samples\GenericApp\CC2530DB\..\..\..\..\..\Components\hal\target\CC2530EB\"
//        -I "C:\Texas Instruments\Z-Stack Mesh 1.0.0_chaokw_20160317\Z-Stack
//        Mesh 1.0.0_chaokw_20160316\Z-Stack Mesh 1.0.0_LCDOK\Z-Stack Mesh
//        1.0.0\Projects\zstack\Samples\GenericApp\CC2530DB\..\..\..\..\..\Components\mac\include\"
//        -I "C:\Texas Instruments\Z-Stack Mesh 1.0.0_chaokw_20160317\Z-Stack
//        Mesh 1.0.0_chaokw_20160316\Z-Stack Mesh 1.0.0_LCDOK\Z-Stack Mesh
//        1.0.0\Projects\zstack\Samples\GenericApp\CC2530DB\..\..\..\..\..\Components\mac\high_level\"
//        -I "C:\Texas Instruments\Z-Stack Mesh 1.0.0_chaokw_20160317\Z-Stack
//        Mesh 1.0.0_chaokw_20160316\Z-Stack Mesh 1.0.0_LCDOK\Z-Stack Mesh
//        1.0.0\Projects\zstack\Samples\GenericApp\CC2530DB\..\..\..\..\..\Components\mac\low_level\srf04\"
//        -I "C:\Texas Instruments\Z-Stack Mesh 1.0.0_chaokw_20160317\Z-Stack
//        Mesh 1.0.0_chaokw_20160316\Z-Stack Mesh 1.0.0_LCDOK\Z-Stack Mesh
//        1.0.0\Projects\zstack\Samples\GenericApp\CC2530DB\..\..\..\..\..\Components\mac\low_level\srf04\single_chip\"
//        -I "C:\Texas Instruments\Z-Stack Mesh 1.0.0_chaokw_20160317\Z-Stack
//        Mesh 1.0.0_chaokw_20160316\Z-Stack Mesh 1.0.0_LCDOK\Z-Stack Mesh
//        1.0.0\Projects\zstack\Samples\GenericApp\CC2530DB\..\..\..\..\..\Components\mt\"
//        -I "C:\Texas Instruments\Z-Stack Mesh 1.0.0_chaokw_20160317\Z-Stack
//        Mesh 1.0.0_chaokw_20160316\Z-Stack Mesh 1.0.0_LCDOK\Z-Stack Mesh
//        1.0.0\Projects\zstack\Samples\GenericApp\CC2530DB\..\..\..\..\..\Components\osal\include\"
//        -I "C:\Texas Instruments\Z-Stack Mesh 1.0.0_chaokw_20160317\Z-Stack
//        Mesh 1.0.0_chaokw_20160316\Z-Stack Mesh 1.0.0_LCDOK\Z-Stack Mesh
//        1.0.0\Projects\zstack\Samples\GenericApp\CC2530DB\..\..\..\..\..\Components\services\saddr\"
//        -I "C:\Texas Instruments\Z-Stack Mesh 1.0.0_chaokw_20160317\Z-Stack
//        Mesh 1.0.0_chaokw_20160316\Z-Stack Mesh 1.0.0_LCDOK\Z-Stack Mesh
//        1.0.0\Projects\zstack\Samples\GenericApp\CC2530DB\..\..\..\..\..\Components\services\sdata\"
//        -I "C:\Texas Instruments\Z-Stack Mesh 1.0.0_chaokw_20160317\Z-Stack
//        Mesh 1.0.0_chaokw_20160316\Z-Stack Mesh 1.0.0_LCDOK\Z-Stack Mesh
//        1.0.0\Projects\zstack\Samples\GenericApp\CC2530DB\..\..\..\..\..\Components\stack\af\"
//        -I "C:\Texas Instruments\Z-Stack Mesh 1.0.0_chaokw_20160317\Z-Stack
//        Mesh 1.0.0_chaokw_20160316\Z-Stack Mesh 1.0.0_LCDOK\Z-Stack Mesh
//        1.0.0\Projects\zstack\Samples\GenericApp\CC2530DB\..\..\..\..\..\Components\stack\nwk\"
//        -I "C:\Texas Instruments\Z-Stack Mesh 1.0.0_chaokw_20160317\Z-Stack
//        Mesh 1.0.0_chaokw_20160316\Z-Stack Mesh 1.0.0_LCDOK\Z-Stack Mesh
//        1.0.0\Projects\zstack\Samples\GenericApp\CC2530DB\..\..\..\..\..\Components\stack\sapi\"
//        -I "C:\Texas Instruments\Z-Stack Mesh 1.0.0_chaokw_20160317\Z-Stack
//        Mesh 1.0.0_chaokw_20160316\Z-Stack Mesh 1.0.0_LCDOK\Z-Stack Mesh
//        1.0.0\Projects\zstack\Samples\GenericApp\CC2530DB\..\..\..\..\..\Components\stack\sec\"
//        -I "C:\Texas Instruments\Z-Stack Mesh 1.0.0_chaokw_20160317\Z-Stack
//        Mesh 1.0.0_chaokw_20160316\Z-Stack Mesh 1.0.0_LCDOK\Z-Stack Mesh
//        1.0.0\Projects\zstack\Samples\GenericApp\CC2530DB\..\..\..\..\..\Components\stack\sys\"
//        -I "C:\Texas Instruments\Z-Stack Mesh 1.0.0_chaokw_20160317\Z-Stack
//        Mesh 1.0.0_chaokw_20160316\Z-Stack Mesh 1.0.0_LCDOK\Z-Stack Mesh
//        1.0.0\Projects\zstack\Samples\GenericApp\CC2530DB\..\..\..\..\..\Components\stack\zdo\"
//        -I "C:\Texas Instruments\Z-Stack Mesh 1.0.0_chaokw_20160317\Z-Stack
//        Mesh 1.0.0_chaokw_20160316\Z-Stack Mesh 1.0.0_LCDOK\Z-Stack Mesh
//        1.0.0\Projects\zstack\Samples\GenericApp\CC2530DB\..\..\..\..\..\Components\zmac\"
//        -I "C:\Texas Instruments\Z-Stack Mesh 1.0.0_chaokw_20160317\Z-Stack
//        Mesh 1.0.0_chaokw_20160316\Z-Stack Mesh 1.0.0_LCDOK\Z-Stack Mesh
//        1.0.0\Projects\zstack\Samples\GenericApp\CC2530DB\..\..\..\..\..\Components\zmac\f8w\"
//        -Ohz --require_prototypes
//    List file          =  
//        C:\Texas Instruments\Z-Stack Mesh 1.0.0_chaokw_20160317\Z-Stack Mesh
//        1.0.0_chaokw_20160316\Z-Stack Mesh 1.0.0_LCDOK\Z-Stack Mesh
//        1.0.0\Projects\zstack\Samples\GenericApp\CC2530DB\RouterEB-SBL\List\hal_key.s51
//
///////////////////////////////////////////////////////////////////////////////

        NAME hal_key

        RTMODEL "__SystemLibrary", "CLib"
        RTMODEL "__calling_convention", "xdata_reentrant"
        RTMODEL "__code_model", "banked"
        RTMODEL "__core", "plain"
        RTMODEL "__data_model", "large"
        RTMODEL "__dptr_size", "16"
        RTMODEL "__extended_stack", "disabled"
        RTMODEL "__location_for_constants", "data"
        RTMODEL "__number_of_dptrs", "1"
        RTMODEL "__rt_version", "1"

        RSEG DOVERLAY:DATA:NOROOT(0)
        RSEG IOVERLAY:IDATA:NOROOT(0)
        RSEG ISTACK:IDATA:NOROOT(0)
        RSEG PSTACK:XDATA:NOROOT(0)
        RSEG XSTACK:XDATA:NOROOT(0)

        EXTERN ?BANKED_ENTER_XDATA
        EXTERN ?BANKED_LEAVE_XDATA
        EXTERN ?BDISPATCH
        EXTERN ?BRET
        EXTERN ?CALL_IND
        EXTERN ?DEALLOC_XSTACK8
        EXTERN ?INTERRUPT_ENTER_XSP
        EXTERN ?INTERRUPT_LEAVE_XSP
        EXTERN ?PUSH_XSTACK8_X_FOUR
        EXTERN __INIT_XDATA_Z

        PUBLIC `??HalKeyConfig::?relay`
        FUNCTION `??HalKeyConfig::?relay`,0203H
        PUBLIC `??HalKeyEnterSleep::?relay`
        FUNCTION `??HalKeyEnterSleep::?relay`,0203H
        PUBLIC `??HalKeyExitSleep::?relay`
        FUNCTION `??HalKeyExitSleep::?relay`,0203H
        PUBLIC `??HalKeyInit::?relay`
        FUNCTION `??HalKeyInit::?relay`,0203H
        PUBLIC `??HalKeyPoll::?relay`
        FUNCTION `??HalKeyPoll::?relay`,0203H
        PUBLIC `??HalKeyRead::?relay`
        FUNCTION `??HalKeyRead::?relay`,0203H
        PUBLIC `??halGetJoyKeyInput::?relay`
        FUNCTION `??halGetJoyKeyInput::?relay`,0203H
        PUBWEAK `??halKeyPort0Isr::??INTVEC 107`
        PUBWEAK `??halKeyPort2Isr::??INTVEC 51`
        PUBLIC `??halProcessKeyInterrupt::?relay`
        FUNCTION `??halProcessKeyInterrupt::?relay`,0203H
        PUBLIC HalKeyConfig
        FUNCTION HalKeyConfig,021203H
        ARGFRAME XSTACK, 0, STACK
        LOCFRAME XSTACK, 13, STACK
        PUBLIC HalKeyEnterSleep
        FUNCTION HalKeyEnterSleep,0203H
        ARGFRAME XSTACK, 0, STACK
        PUBLIC HalKeyExitSleep
        FUNCTION HalKeyExitSleep,021203H
        ARGFRAME XSTACK, 0, STACK
        LOCFRAME ISTACK, 2, STACK
        PUBLIC HalKeyInit
        FUNCTION HalKeyInit,0203H
        ARGFRAME XSTACK, 0, STACK
        LOCFRAME ISTACK, 2, STACK
        PUBLIC HalKeyPoll
        FUNCTION HalKeyPoll,021203H
        ARGFRAME XSTACK, 0, STACK
        LOCFRAME XSTACK, 9, STACK
        PUBLIC HalKeyRead
        FUNCTION HalKeyRead,021203H
        ARGFRAME XSTACK, 0, STACK
        LOCFRAME ISTACK, 2, STACK
        PUBLIC Hal_KeyIntEnable
        PUBWEAK P0DIR
        PUBWEAK P0IEN
        PUBWEAK P0IFG
        PUBWEAK P0SEL
        PUBWEAK P2IFG
        PUBWEAK PICTL
        PUBWEAK _A_IEN1
        PUBWEAK _A_IRCON
        PUBWEAK _A_IRCON2
        PUBWEAK _A_P0
        PUBWEAK __Constant_19
        PUBWEAK __Constant_64
        PUBLIC halGetJoyKeyInput
        FUNCTION halGetJoyKeyInput,021203H
        ARGFRAME XSTACK, 9, STACK
        ARGFRAME IOVERLAY, 0, STATIC
        ARGFRAME DOVERLAY, 0, STATIC
        LOCFRAME XSTACK, 9, STACK
        PUBLIC halKeyPort0Isr
        FUNCTION halKeyPort0Isr,021233H
        ARGFRAME XSTACK, 0, STACK
        LOCFRAME XSTACK, 14, STACK
        PUBLIC halKeyPort2Isr
        FUNCTION halKeyPort2Isr,021233H
        ARGFRAME XSTACK, 0, STACK
        LOCFRAME XSTACK, 14, STACK
        PUBLIC halProcessKeyInterrupt
        FUNCTION halProcessKeyInterrupt,021203H
        ARGFRAME XSTACK, 14, STACK
        ARGFRAME IOVERLAY, 0, STATIC
        ARGFRAME DOVERLAY, 0, STATIC
        LOCFRAME ISTACK, 2, STACK
        LOCFRAME XSTACK, 4, STACK
        PUBLIC ii
        PUBLIC ii6
        PUBLIC ii7
        PUBLIC keyport0_count_int
        PUBLIC keyport2_count_int
        
          CFI Names cfiNames0
          CFI StackFrame CFA_SP SP IDATA
          CFI StackFrame CFA_PSP16 PSP16 XDATA
          CFI StackFrame CFA_XSP16 XSP16 XDATA
          CFI StaticOverlayFrame CFA_IOVERLAY IOVERLAY
          CFI StaticOverlayFrame CFA_DOVERLAY DOVERLAY
          CFI Resource `PSW.CY`:1, `B.BR0`:1, `B.BR1`:1, `B.BR2`:1, `B.BR3`:1
          CFI Resource `B.BR4`:1, `B.BR5`:1, `B.BR6`:1, `B.BR7`:1, `VB.BR8`:1
          CFI Resource `VB.BR9`:1, `VB.BR10`:1, `VB.BR11`:1, `VB.BR12`:1
          CFI Resource `VB.BR13`:1, `VB.BR14`:1, `VB.BR15`:1, VB:8, B:8, A:8
          CFI Resource PSW:8, DPL0:8, DPH0:8, R0:8, R1:8, R2:8, R3:8, R4:8, R5:8
          CFI Resource R6:8, R7:8, V0:8, V1:8, V2:8, V3:8, V4:8, V5:8, V6:8, V7:8
          CFI Resource V8:8, V9:8, V10:8, V11:8, V12:8, V13:8, V14:8, V15:8, SP:8
          CFI Resource PSPH:8, PSPL:8, PSP16:16, XSPH:8, XSPL:8, XSP16:16
          CFI VirtualResource ?RET:24
          CFI Resource ?BRET_EXT:8
          CFI VirtualResource ?RET_HIGH:8, ?RET_LOW:8
          CFI ResourceParts PSP16 PSPH, PSPL
          CFI ResourceParts XSP16 XSPH, XSPL
          CFI ResourceParts ?RET ?BRET_EXT, ?RET_HIGH, ?RET_LOW
          CFI EndNames cfiNames0
        
          CFI Common cfiCommon0 Using cfiNames0
          CFI CodeAlign 1
          CFI DataAlign -1
          CFI ReturnAddress ?RET CODE
          CFI CFA_DOVERLAY Used
          CFI CFA_IOVERLAY Used
          CFI CFA_SP SP+-3
          CFI CFA_PSP16 PSP16+0
          CFI CFA_XSP16 XSP16+0
          CFI `PSW.CY` SameValue
          CFI `B.BR0` SameValue
          CFI `B.BR1` SameValue
          CFI `B.BR2` SameValue
          CFI `B.BR3` SameValue
          CFI `B.BR4` SameValue
          CFI `B.BR5` SameValue
          CFI `B.BR6` SameValue
          CFI `B.BR7` SameValue
          CFI `VB.BR8` SameValue
          CFI `VB.BR9` SameValue
          CFI `VB.BR10` SameValue
          CFI `VB.BR11` SameValue
          CFI `VB.BR12` SameValue
          CFI `VB.BR13` SameValue
          CFI `VB.BR14` SameValue
          CFI `VB.BR15` SameValue
          CFI VB SameValue
          CFI B Undefined
          CFI A Undefined
          CFI PSW SameValue
          CFI DPL0 SameValue
          CFI DPH0 SameValue
          CFI R0 Undefined
          CFI R1 Undefined
          CFI R2 Undefined
          CFI R3 Undefined
          CFI R4 Undefined
          CFI R5 Undefined
          CFI R6 SameValue
          CFI R7 SameValue
          CFI V0 SameValue
          CFI V1 SameValue
          CFI V2 SameValue
          CFI V3 SameValue
          CFI V4 SameValue
          CFI V5 SameValue
          CFI V6 SameValue
          CFI V7 SameValue
          CFI V8 SameValue
          CFI V9 SameValue
          CFI V10 SameValue
          CFI V11 SameValue
          CFI V12 SameValue
          CFI V13 SameValue
          CFI V14 SameValue
          CFI V15 SameValue
          CFI PSPH Undefined
          CFI PSPL Undefined
          CFI XSPH Undefined
          CFI XSPL Undefined
          CFI ?RET Concat
          CFI ?BRET_EXT Frame(CFA_SP, 3)
          CFI ?RET_HIGH Frame(CFA_SP, 2)
          CFI ?RET_LOW Frame(CFA_SP, 1)
          CFI EndCommon cfiCommon0
        
        
          CFI Common cfiCommon1 Using cfiNames0
          CFI CodeAlign 1
          CFI DataAlign -1
          CFI ReturnAddress ?RET CODE
          CFI CFA_DOVERLAY Used
          CFI CFA_IOVERLAY Used
          CFI CFA_SP SP+-2
          CFI CFA_PSP16 PSP16+0
          CFI CFA_XSP16 XSP16+0
          CFI `PSW.CY` SameValue
          CFI `B.BR0` SameValue
          CFI `B.BR1` SameValue
          CFI `B.BR2` SameValue
          CFI `B.BR3` SameValue
          CFI `B.BR4` SameValue
          CFI `B.BR5` SameValue
          CFI `B.BR6` SameValue
          CFI `B.BR7` SameValue
          CFI `VB.BR8` SameValue
          CFI `VB.BR9` SameValue
          CFI `VB.BR10` SameValue
          CFI `VB.BR11` SameValue
          CFI `VB.BR12` SameValue
          CFI `VB.BR13` SameValue
          CFI `VB.BR14` SameValue
          CFI `VB.BR15` SameValue
          CFI VB SameValue
          CFI B SameValue
          CFI A SameValue
          CFI PSW SameValue
          CFI DPL0 SameValue
          CFI DPH0 SameValue
          CFI R0 SameValue
          CFI R1 SameValue
          CFI R2 SameValue
          CFI R3 SameValue
          CFI R4 SameValue
          CFI R5 SameValue
          CFI R6 SameValue
          CFI R7 SameValue
          CFI V0 SameValue
          CFI V1 SameValue
          CFI V2 SameValue
          CFI V3 SameValue
          CFI V4 SameValue
          CFI V5 SameValue
          CFI V6 SameValue
          CFI V7 SameValue
          CFI V8 SameValue
          CFI V9 SameValue
          CFI V10 SameValue
          CFI V11 SameValue
          CFI V12 SameValue
          CFI V13 SameValue
          CFI V14 SameValue
          CFI V15 SameValue
          CFI PSPH Undefined
          CFI PSPL Undefined
          CFI XSPH Undefined
          CFI XSPL Undefined
          CFI ?RET Concat
          CFI ?BRET_EXT SameValue
          CFI ?RET_HIGH Frame(CFA_SP, 2)
          CFI ?RET_LOW Frame(CFA_SP, 1)
          CFI EndCommon cfiCommon1
        
HalAdcRead          SYMBOL "HalAdcRead"
`??HalAdcRead::?relay` SYMBOL "?relay", HalAdcRead
osal_start_timerEx  SYMBOL "osal_start_timerEx"
`??osal_start_timerEx::?relay` SYMBOL "?relay", osal_start_timerEx
osal_stop_timerEx   SYMBOL "osal_stop_timerEx"
`??osal_stop_timerEx::?relay` SYMBOL "?relay", osal_stop_timerEx
HalKeyConfig        SYMBOL "HalKeyConfig"
`??HalKeyConfig::?relay` SYMBOL "?relay", HalKeyConfig
HalKeyEnterSleep    SYMBOL "HalKeyEnterSleep"
`??HalKeyEnterSleep::?relay` SYMBOL "?relay", HalKeyEnterSleep
HalKeyExitSleep     SYMBOL "HalKeyExitSleep"
`??HalKeyExitSleep::?relay` SYMBOL "?relay", HalKeyExitSleep
HalKeyInit          SYMBOL "HalKeyInit"
`??HalKeyInit::?relay` SYMBOL "?relay", HalKeyInit
HalKeyPoll          SYMBOL "HalKeyPoll"
`??HalKeyPoll::?relay` SYMBOL "?relay", HalKeyPoll
HalKeyRead          SYMBOL "HalKeyRead"
`??HalKeyRead::?relay` SYMBOL "?relay", HalKeyRead
halGetJoyKeyInput   SYMBOL "halGetJoyKeyInput"
`??halGetJoyKeyInput::?relay` SYMBOL "?relay", halGetJoyKeyInput
halKeyPort0Isr      SYMBOL "halKeyPort0Isr"
`??halKeyPort0Isr::??INTVEC 107` SYMBOL "??INTVEC 107", halKeyPort0Isr
halKeyPort2Isr      SYMBOL "halKeyPort2Isr"
`??halKeyPort2Isr::??INTVEC 51` SYMBOL "??INTVEC 51", halKeyPort2Isr
halProcessKeyInterrupt SYMBOL "halProcessKeyInterrupt"
`??halProcessKeyInterrupt::?relay` SYMBOL "?relay", halProcessKeyInterrupt

        EXTERN `??HalAdcRead::?relay`
        FUNCTION `??HalAdcRead::?relay`,00H
        EXTERN `??osal_start_timerEx::?relay`
        FUNCTION `??osal_start_timerEx::?relay`,00H
        EXTERN `??osal_stop_timerEx::?relay`
        FUNCTION `??osal_stop_timerEx::?relay`,00H
        EXTERN HalAdcRead
        FUNCTION HalAdcRead,0202H
        ARGFRAME ISTACK, 0, STACK
        ARGFRAME PSTACK, 0, STACK
        ARGFRAME XSTACK, 9, STACK
        ARGFRAME IOVERLAY, 0, STATIC
        ARGFRAME DOVERLAY, 0, STATIC
        EXTERN Hal_TaskID
        EXTERN osal_start_timerEx
        FUNCTION osal_start_timerEx,0202H
        ARGFRAME ISTACK, 2, STACK
        ARGFRAME PSTACK, 0, STACK
        ARGFRAME XSTACK, 13, STACK
        ARGFRAME IOVERLAY, 0, STATIC
        ARGFRAME DOVERLAY, 0, STATIC
        EXTERN osal_stop_timerEx
        FUNCTION osal_stop_timerEx,0202H
        ARGFRAME ISTACK, 0, STACK
        ARGFRAME PSTACK, 0, STACK
        ARGFRAME XSTACK, 9, STACK
        ARGFRAME IOVERLAY, 0, STATIC
        ARGFRAME DOVERLAY, 0, STATIC

// C:\Texas Instruments\Z-Stack Mesh 1.0.0_chaokw_20160317\Z-Stack Mesh 1.0.0_chaokw_20160316\Z-Stack Mesh 1.0.0_LCDOK\Z-Stack Mesh 1.0.0\Components\hal\target\CC2530EB\hal_key.c
//    1 /**************************************************************************************************
//    2   Filename:       hal_key.c
//    3   Revised:        $Date: 2010-09-15 19:02:45 -0700 (Wed, 15 Sep 2010) $
//    4   Revision:       $Revision: 23815 $
//    5 
//    6   Description:    This file contains the interface to the HAL KEY Service.
//    7 
//    8 
//    9   Copyright 2006-2010 Texas Instruments Incorporated. All rights reserved.
//   10 
//   11   IMPORTANT: Your use of this Software is limited to those specific rights
//   12   granted under the terms of a software license agreement between the user
//   13   who downloaded the software, his/her employer (which must be your employer)
//   14   and Texas Instruments Incorporated (the "License").  You may not use this
//   15   Software unless you agree to abide by the terms of the License. The License
//   16   limits your use, and you acknowledge, that the Software may not be modified,
//   17   copied or distributed unless embedded on a Texas Instruments microcontroller
//   18   or used solely and exclusively in conjunction with a Texas Instruments radio
//   19   frequency transceiver, which is integrated into your product.  Other than for
//   20   the foregoing purpose, you may not use, reproduce, copy, prepare derivative
//   21   works of, modify, distribute, perform, display or sell this Software and/or
//   22   its documentation for any purpose.
//   23 
//   24   YOU FURTHER ACKNOWLEDGE AND AGREE THAT THE SOFTWARE AND DOCUMENTATION ARE
//   25   PROVIDED “AS IS” WITHOUT WARRANTY OF ANY KIND, EITHER EXPRESS OR IMPLIED,
//   26   INCLUDING WITHOUT LIMITATION, ANY WARRANTY OF MERCHANTABILITY, TITLE,
//   27   NON-INFRINGEMENT AND FITNESS FOR A PARTICULAR PURPOSE. IN NO EVENT SHALL
//   28   TEXAS INSTRUMENTS OR ITS LICENSORS BE LIABLE OR OBLIGATED UNDER CONTRACT,
//   29   NEGLIGENCE, STRICT LIABILITY, CONTRIBUTION, BREACH OF WARRANTY, OR OTHER
//   30   LEGAL EQUITABLE THEORY ANY DIRECT OR INDIRECT DAMAGES OR EXPENSES
//   31   INCLUDING BUT NOT LIMITED TO ANY INCIDENTAL, SPECIAL, INDIRECT, PUNITIVE
//   32   OR CONSEQUENTIAL DAMAGES, LOST PROFITS OR LOST DATA, COST OF PROCUREMENT
//   33   OF SUBSTITUTE GOODS, TECHNOLOGY, SERVICES, OR ANY CLAIMS BY THIRD PARTIES
//   34   (INCLUDING BUT NOT LIMITED TO ANY DEFENSE THEREOF), OR OTHER SIMILAR COSTS.
//   35 
//   36   Should you have any questions regarding your right to use this Software,
//   37   contact Texas Instruments Incorporated at www.TI.com.
//   38 **************************************************************************************************/
//   39 /*********************************************************************
//   40  NOTE: If polling is used, the hal_driver task schedules the KeyRead()
//   41        to occur every 100ms.  This should be long enough to naturally
//   42        debounce the keys.  The KeyRead() function remembers the key
//   43        state of the previous poll and will only return a non-zero
//   44        value if the key state changes.
//   45 
//   46  NOTE: If interrupts are used, the KeyRead() function is scheduled
//   47        25ms after the interrupt occurs by the ISR.  This delay is used
//   48        for key debouncing.  The ISR disables any further Key interrupt
//   49        until KeyRead() is executed.  KeyRead() will re-enable Key
//   50        interrupts after executing.  Unlike polling, when interrupts
//   51        are enabled, the previous key state is not remembered.  This
//   52        means that KeyRead() will return the current state of the keys
//   53        (not a change in state of the keys).
//   54 
//   55  NOTE: If interrupts are used, the KeyRead() fucntion is scheduled by
//   56        the ISR.  Therefore, the joystick movements will only be detected
//   57        during a pushbutton interrupt caused by S1 or the center joystick
//   58        pushbutton.
//   59 
//   60  NOTE: When a switch like S1 is pushed, the S1 signal goes from a normally
//   61        high state to a low state.  This transition is typically clean.  The
//   62        duration of the low state is around 200ms.  When the signal returns
//   63        to the high state, there is a high likelihood of signal bounce, which
//   64        causes a unwanted interrupts.  Normally, we would set the interrupt
//   65        edge to falling edge to generate an interrupt when S1 is pushed, but
//   66        because of the signal bounce, it is better to set the edge to rising
//   67        edge to generate an interrupt when S1 is released.  The debounce logic
//   68        can then filter out the signal bounce.  The result is that we typically
//   69        get only 1 interrupt per button push.  This mechanism is not totally
//   70        foolproof because occasionally, signal bound occurs during the falling
//   71        edge as well.  A similar mechanism is used to handle the joystick
//   72        pushbutton on the DB.  For the EB, we do not have independent control
//   73        of the interrupt edge for the S1 and center joystick pushbutton.  As
//   74        a result, only one or the other pushbuttons work reasonably well with
//   75        interrupts.  The default is the make the S1 switch on the EB work more
//   76        reliably.
//   77 
//   78 *********************************************************************/
//   79 
//   80 /**************************************************************************************************
//   81  *                                            INCLUDES
//   82  **************************************************************************************************/
//   83 #include "hal_mcu.h"

        ASEGN SFR_AN:DATA:NOROOT,080H
// union <unnamed> volatile __sfr _A_P0
_A_P0:
        DATA8
        DS 1

        ASEGN SFR_AN:DATA:NOROOT,089H
// unsigned char volatile __sfr P0IFG
P0IFG:
        DATA8
        DS 1

        ASEGN SFR_AN:DATA:NOROOT,08bH
// unsigned char volatile __sfr P2IFG
P2IFG:
        DATA8
        DS 1

        ASEGN SFR_AN:DATA:NOROOT,08cH
// unsigned char volatile __sfr PICTL
PICTL:
        DATA8
        DS 1

        ASEGN SFR_AN:DATA:NOROOT,0abH
// unsigned char volatile __sfr P0IEN
P0IEN:
        DATA8
        DS 1

        ASEGN SFR_AN:DATA:NOROOT,0b8H
// union <unnamed> volatile __sfr _A_IEN1
_A_IEN1:
        DATA8
        DS 1

        ASEGN SFR_AN:DATA:NOROOT,0c0H
// union <unnamed> volatile __sfr _A_IRCON
_A_IRCON:
        DATA8
        DS 1

        ASEGN SFR_AN:DATA:NOROOT,0e8H
// union <unnamed> volatile __sfr _A_IRCON2
_A_IRCON2:
        DATA8
        DS 1

        ASEGN SFR_AN:DATA:NOROOT,0f3H
// unsigned char volatile __sfr P0SEL
P0SEL:
        DATA8
        DS 1

        ASEGN SFR_AN:DATA:NOROOT,0fdH
// unsigned char volatile __sfr P0DIR
P0DIR:
        DATA8
        DS 1
//   84 #include "hal_defs.h"
//   85 #include "hal_types.h"
//   86 #include "hal_board.h"
//   87 #include "hal_drivers.h"
//   88 #include "hal_adc.h"
//   89 #include "hal_key.h"
//   90 #include "osal.h"
//   91 
//   92 #if (defined HAL_KEY) && (HAL_KEY == TRUE)
//   93 
//   94 /**************************************************************************************************
//   95  *                                              MACROS
//   96  **************************************************************************************************/
//   97 
//   98 /**************************************************************************************************
//   99  *                                            CONSTANTS
//  100  **************************************************************************************************/
//  101 #define HAL_KEY_RISING_EDGE   0
//  102 #define HAL_KEY_FALLING_EDGE  1
//  103 
//  104 #define HAL_KEY_DEBOUNCE_VALUE  25
//  105 #define HAL_KEY_POLLING_VALUE   100
//  106 
//  107 /* CPU port interrupt */
//  108 #define HAL_KEY_CPU_PORT_0_IF P0IF
//  109 #define HAL_KEY_CPU_PORT_2_IF P2IF
//  110 
//  111 /* SW_6 is at P0.5 */
//  112 #define HAL_KEY_SW_6_PORT   P0
//  113 #define HAL_KEY_SW_6_BIT    BV(5)
//  114 #define HAL_KEY_SW_6_SEL    P0SEL
//  115 #define HAL_KEY_SW_6_DIR    P0DIR
//  116 
//  117 /* edge interrupt */
//  118 #define HAL_KEY_SW_6_EDGEBIT  BV(0) //P0ICON
//  119 #define HAL_KEY_SW_6_EDGE     HAL_KEY_FALLING_EDGE
//  120 
//  121 
//  122 /* SW_6 interrupts */
//  123 #define HAL_KEY_SW_6_IEN      IEN1  /* CPU interrupt mask register */
//  124 #define HAL_KEY_SW_6_IENBIT   BV(5) /* Mask bit for all of Port_0 */
//  125 #define HAL_KEY_SW_6_ICTL     P0IEN /* Port Interrupt Control register */
//  126 #define HAL_KEY_SW_6_ICTLBIT  BV(5) /* P0IEN - P0.1 enable/disable bit */
//  127 #define HAL_KEY_SW_6_PXIFG    P0IFG /* Interrupt flag at source */
//  128 
//  129 #define HAL_KEY_SW_7_EN     TRUE
//  130 
//  131 /* SW_7 is at P0.4 */
//  132 #define HAL_KEY_SW_7_PORT   P0
//  133 #define HAL_KEY_SW_7_BIT    BV(4)
//  134 #define HAL_KEY_SW_7_SEL    P0SEL
//  135 #define HAL_KEY_SW_7_DIR    P0DIR
//  136 
//  137 /* edge interrupt */
//  138 #define HAL_KEY_SW_7_EDGEBIT  BV(0) //P0ICON
//  139 #define HAL_KEY_SW_7_EDGE     HAL_KEY_FALLING_EDGE
//  140 
//  141 
//  142 /* SW_7 interrupts */
//  143 #define HAL_KEY_SW_7_IEN      IEN1  /* CPU interrupt mask register */
//  144 #define HAL_KEY_SW_7_IENBIT   BV(5) /* Mask bit for all of Port_0 */
//  145 #define HAL_KEY_SW_7_ICTL     P0IEN /* Port Interrupt Control register */
//  146 #define HAL_KEY_SW_7_ICTLBIT  BV(4) /* P0IEN - P0.1 enable/disable bit */
//  147 #define HAL_KEY_SW_7_PXIFG    P0IFG /* Interrupt flag at source */
//  148 
//  149 
//  150 
//  151 /* Joy stick move at P2.0 */
//  152 #define HAL_KEY_JOY_MOVE_PORT   P2
//  153 #define HAL_KEY_JOY_MOVE_BIT    BV(0)
//  154 #define HAL_KEY_JOY_MOVE_SEL    P2SEL
//  155 #define HAL_KEY_JOY_MOVE_DIR    P2DIR
//  156 
//  157 /* edge interrupt */
//  158 #define HAL_KEY_JOY_MOVE_EDGEBIT  BV(3)
//  159 #define HAL_KEY_JOY_MOVE_EDGE     HAL_KEY_FALLING_EDGE
//  160 
//  161 /* Joy move interrupts */
//  162 #define HAL_KEY_JOY_MOVE_IEN      IEN2  /* CPU interrupt mask register */
//  163 #define HAL_KEY_JOY_MOVE_IENBIT   BV(1) /* Mask bit for all of Port_2 */
//  164 #define HAL_KEY_JOY_MOVE_ICTL     P2IEN /* Port Interrupt Control register */
//  165 #define HAL_KEY_JOY_MOVE_ICTLBIT  BV(0) /* P2IENL - P2.0<->P2.3 enable/disable bit */
//  166 #define HAL_KEY_JOY_MOVE_PXIFG    P2IFG /* Interrupt flag at source */
//  167 
//  168 #define HAL_KEY_JOY_CHN   HAL_ADC_CHANNEL_6
//  169 
//  170 
//  171 /**************************************************************************************************
//  172  *                                            TYPEDEFS
//  173  **************************************************************************************************/
//  174 
//  175 
//  176 /**************************************************************************************************
//  177  *                                        GLOBAL VARIABLES
//  178  **************************************************************************************************/

        RSEG XDATA_Z:XDATA:NOROOT(0)
        DATA8
//  179 static uint8 halKeySavedKeys;     /* used to store previous key state in polling mode */
halKeySavedKeys:
        DS 1
        REQUIRE __INIT_XDATA_Z

        RSEG XDATA_Z:XDATA:NOROOT(0)
        DATA16
//  180 static halKeyCBack_t pHalKeyProcessFunction;
pHalKeyProcessFunction:
        DS 2
        REQUIRE __INIT_XDATA_Z

        RSEG XDATA_Z:XDATA:NOROOT(0)
        DATA8
//  181 static uint8 HalKeyConfigured;
HalKeyConfigured:
        DS 1
        REQUIRE __INIT_XDATA_Z

        RSEG XDATA_Z:XDATA:NOROOT(0)
        DATA8
//  182 bool Hal_KeyIntEnable;            /* interrupt enable/disable flag */
Hal_KeyIntEnable:
        DS 1
        REQUIRE __INIT_XDATA_Z
//  183 
//  184 /**************************************************************************************************
//  185  *                                        FUNCTIONS - Local
//  186  **************************************************************************************************/
//  187 void halProcessKeyInterrupt(void);
//  188 uint8 halGetJoyKeyInput(void);
//  189 
//  190 
//  191 
//  192 /**************************************************************************************************
//  193  *                                        FUNCTIONS - API
//  194  **************************************************************************************************/
//  195 
//  196 
//  197 /**************************************************************************************************
//  198  * @fn      HalKeyInit
//  199  *
//  200  * @brief   Initilize Key Service
//  201  *
//  202  * @param   none
//  203  *
//  204  * @return  None
//  205  **************************************************************************************************/

        RSEG BANKED_CODE:CODE:NOROOT(0)
//  206 void HalKeyInit( void )
HalKeyInit:
          CFI Block cfiBlock0 Using cfiCommon0
          CFI Function HalKeyInit
        CODE
//  207 {
        PUSH    DPL
          CFI DPL0 Frame(CFA_SP, 4)
          CFI CFA_SP SP+-4
        PUSH    DPH
          CFI DPH0 Frame(CFA_SP, 5)
          CFI CFA_SP SP+-5
        ; Saved register size: 2
        ; Auto size: 0
//  208   /* Initialize previous key to 0 */
//  209   halKeySavedKeys = 0;
        MOV     DPTR,#halKeySavedKeys
        CLR     A
        MOVX    @DPTR,A
//  210 
//  211   HAL_KEY_SW_6_SEL &= ~(HAL_KEY_SW_6_BIT);    /* Set pin function to GPIO */
        ANL     0xf3,#0xdf
//  212   HAL_KEY_SW_6_DIR &= ~(HAL_KEY_SW_6_BIT);    /* Set pin direction to Input */
        ANL     0xfd,#0xdf
//  213   
//  214   HAL_KEY_SW_7_SEL &= ~(HAL_KEY_SW_7_BIT);    /* Set pin function to GPIO */
        ANL     0xf3,#0xef
//  215   HAL_KEY_SW_7_DIR &= ~(HAL_KEY_SW_7_BIT);    /* Set pin direction to Input */
        ANL     0xfd,#0xef
//  216 
//  217  // HAL_KEY_JOY_MOVE_SEL &= ~(HAL_KEY_JOY_MOVE_BIT); /* Set pin function to GPIO */
//  218 //  HAL_KEY_JOY_MOVE_DIR &= ~(HAL_KEY_JOY_MOVE_BIT); /* Set pin direction to Input */
//  219 
//  220 
//  221   /* Initialize callback function */
//  222   pHalKeyProcessFunction  = NULL;
        MOV     DPTR,#pHalKeyProcessFunction
        MOVX    @DPTR,A
        INC     DPTR
        MOVX    @DPTR,A
//  223 
//  224   /* Start with key is not configured */
//  225   HalKeyConfigured = FALSE;
        MOV     DPTR,#HalKeyConfigured
        MOVX    @DPTR,A
//  226 }
        SJMP    ??Subroutine3_0
          CFI EndBlock cfiBlock0
        REQUIRE P0SEL
        REQUIRE P0DIR

        RSEG BANKED_CODE:CODE:NOROOT(0)
?Subroutine0:
          CFI Block cfiBlock1 Using cfiCommon0
          CFI NoFunction
        PUSH    DPL
          CFI CFA_SP SP+-4
          CFI DPL0 Frame(CFA_SP, 4)
        PUSH    DPH
          CFI CFA_SP SP+-5
          CFI DPH0 Frame(CFA_SP, 5)
        ; Saved register size: 2
        ; Auto size: 0
        ; Setup parameters for call to function halGetJoyKeyInput
        ; Saved register size: 2
        ; Auto size: 0
        ; Setup parameters for call to function halGetJoyKeyInput
        LCALL   `??halGetJoyKeyInput::?relay`; Banked call to: halGetJoyKeyInput
          CFI EndBlock cfiBlock1
        REQUIRE ??Subroutine3_0
        ; // Fall through to label ??Subroutine3_0

        RSEG BANKED_CODE:CODE:NOROOT(0)
??Subroutine3_0:
          CFI Block cfiBlock2 Using cfiCommon0
          CFI NoFunction
          CFI CFA_SP SP+-5
          CFI DPL0 Frame(CFA_SP, 4)
          CFI DPH0 Frame(CFA_SP, 5)
        POP     DPH
          CFI CFA_SP SP+-4
          CFI DPH0 SameValue
        POP     DPL
          CFI CFA_SP SP+-3
          CFI DPL0 SameValue
        LJMP    ?BRET
          CFI EndBlock cfiBlock2
//  227 
//  228 
//  229 /**************************************************************************************************
//  230  * @fn      HalKeyConfig
//  231  *
//  232  * @brief   Configure the Key serivce
//  233  *
//  234  * @param   interruptEnable - TRUE/FALSE, enable/disable interrupt
//  235  *          cback - pointer to the CallBack function
//  236  *
//  237  * @return  None
//  238  **************************************************************************************************/

        RSEG BANKED_CODE:CODE:NOROOT(0)
//  239 void HalKeyConfig (bool interruptEnable, halKeyCBack_t cback)
HalKeyConfig:
          CFI Block cfiBlock3 Using cfiCommon0
          CFI Function HalKeyConfig
        CODE
//  240 {
        FUNCALL HalKeyConfig, osal_stop_timerEx
        LOCFRAME ISTACK, 0, STACK
        LOCFRAME PSTACK, 0, STACK
        LOCFRAME XSTACK, 9, STACK
        LOCFRAME IOVERLAY, 0, STATIC
        LOCFRAME DOVERLAY, 0, STATIC
        ARGFRAME ISTACK, 0, STACK
        ARGFRAME PSTACK, 0, STACK
        ARGFRAME XSTACK, 9, STACK
        ARGFRAME IOVERLAY, 0, STATIC
        ARGFRAME DOVERLAY, 0, STATIC
        FUNCALL HalKeyConfig, osal_start_timerEx
        LOCFRAME ISTACK, 0, STACK
        LOCFRAME PSTACK, 0, STACK
        LOCFRAME XSTACK, 13, STACK
        LOCFRAME IOVERLAY, 0, STATIC
        LOCFRAME DOVERLAY, 0, STATIC
        ARGFRAME ISTACK, 0, STACK
        ARGFRAME PSTACK, 0, STACK
        ARGFRAME XSTACK, 13, STACK
        ARGFRAME IOVERLAY, 0, STATIC
        ARGFRAME DOVERLAY, 0, STATIC
        MOV     A,#-0x9
        LCALL   ?BANKED_ENTER_XDATA
          CFI DPH0 load(1, XDATA, add(CFA_XSP16, literal(-1)))
          CFI DPL0 load(1, XDATA, add(CFA_XSP16, literal(-2)))
          CFI ?BRET_EXT load(1, XDATA, add(CFA_XSP16, literal(-3)))
          CFI ?RET_HIGH load(1, XDATA, add(CFA_XSP16, literal(-4)))
          CFI ?RET_LOW load(1, XDATA, add(CFA_XSP16, literal(-5)))
          CFI R7 load(1, XDATA, add(CFA_XSP16, literal(-6)))
          CFI V0 load(1, XDATA, add(CFA_XSP16, literal(-7)))
          CFI VB load(1, XDATA, add(CFA_XSP16, literal(-8)))
          CFI R6 load(1, XDATA, add(CFA_XSP16, literal(-9)))
          CFI CFA_SP SP+0
          CFI CFA_XSP16 add(XSP16, 9)
        ; Saved register size: 9
        ; Auto size: 0
        MOV     A,R1
//  241   /* Enable/Disable Interrupt or */
//  242   Hal_KeyIntEnable = interruptEnable;
        MOV     DPTR,#Hal_KeyIntEnable
        MOVX    @DPTR,A
//  243 
//  244   /* Register the callback fucntion */
//  245   pHalKeyProcessFunction = cback;
        MOV     DPTR,#pHalKeyProcessFunction
        MOV     A,R2
        MOVX    @DPTR,A
        INC     DPTR
        MOV     A,R3
        MOVX    @DPTR,A
//  246 
//  247   /* Determine if interrupt is enable or not */
//  248   if (Hal_KeyIntEnable)
        MOV     DPTR,#Hal_KeyIntEnable
        MOVX    A,@DPTR
        JZ      ??HalKeyConfig_0
//  249   {
//  250     /* Rising/Falling edge configuratinn */
//  251 
//  252     PICTL &= ~(HAL_KEY_SW_6_EDGEBIT);    /* Clear the edge bit */
        ANL     0x8c,#0xfe
//  253     /* For falling edge, the bit must be set. */
//  254   #if (HAL_KEY_SW_6_EDGE == HAL_KEY_FALLING_EDGE)
//  255     PICTL |= HAL_KEY_SW_6_EDGEBIT;
        ORL     0x8c,#0x1
//  256   #endif
//  257     PICTL &= ~(HAL_KEY_SW_7_EDGEBIT);    /* Clear the edge bit */
        ANL     0x8c,#0xfe
//  258     /* For falling edge, the bit must be set. */
//  259   #if (HAL_KEY_SW_7_EDGE == HAL_KEY_FALLING_EDGE)
//  260     PICTL |= HAL_KEY_SW_7_EDGEBIT;
        ORL     0x8c,#0x1
//  261   #endif
//  262 
//  263 
//  264 
//  265     /* Interrupt configuration:
//  266      * - Enable interrupt generation at the port
//  267      * - Enable CPU interrupt
//  268      * - Clear any pending interrupt
//  269      */
//  270     HAL_KEY_SW_6_ICTL |= HAL_KEY_SW_6_ICTLBIT;
        ORL     0xab,#0x20
//  271     HAL_KEY_SW_6_IEN |= HAL_KEY_SW_6_IENBIT;
        SETB    0xb8.5
//  272     HAL_KEY_SW_6_PXIFG = ~(HAL_KEY_SW_6_BIT);
        MOV     0x89,#-0x21
//  273 
//  274     HAL_KEY_SW_7_ICTL |= HAL_KEY_SW_7_ICTLBIT;
        ORL     0xab,#0x10
//  275     HAL_KEY_SW_7_IEN |= HAL_KEY_SW_7_IENBIT;
        SETB    0xb8.5
//  276     HAL_KEY_SW_7_PXIFG = ~(HAL_KEY_SW_7_BIT);
        MOV     0x89,#-0x11
//  277 
//  278 
//  279     /* Rising/Falling edge configuratinn */
//  280 
//  281   //  HAL_KEY_JOY_MOVE_ICTL &= ~(HAL_KEY_JOY_MOVE_EDGEBIT);    /* Clear the edge bit */
//  282     /* For falling edge, the bit must be set. */
//  283   #if (HAL_KEY_JOY_MOVE_EDGE == HAL_KEY_FALLING_EDGE)
//  284   //  HAL_KEY_JOY_MOVE_ICTL |= HAL_KEY_JOY_MOVE_EDGEBIT;
//  285   #endif
//  286 
//  287 
//  288     /* Interrupt configuration:
//  289      * - Enable interrupt generation at the port
//  290      * - Enable CPU interrupt
//  291      * - Clear any pending interrupt
//  292      */
//  293    // HAL_KEY_JOY_MOVE_ICTL |= HAL_KEY_JOY_MOVE_ICTLBIT;
//  294   //  HAL_KEY_JOY_MOVE_IEN |= HAL_KEY_JOY_MOVE_IENBIT;
//  295   //  HAL_KEY_JOY_MOVE_PXIFG = ~(HAL_KEY_JOY_MOVE_BIT);
//  296 
//  297 
//  298     /* Do this only after the hal_key is configured - to work with sleep stuff */
//  299     if (HalKeyConfigured == TRUE)
        MOV     DPTR,#HalKeyConfigured
        MOVX    A,@DPTR
        XRL     A,#0x1
        JNZ     ??HalKeyConfig_1
//  300     {
//  301       osal_stop_timerEx( Hal_TaskID, HAL_KEY_EVENT);  /* Cancel polling if active */
        ; Setup parameters for call to function osal_stop_timerEx
        MOV     R2,#0x10
        MOV     R3,#0x0
        MOV     DPTR,#Hal_TaskID
        MOVX    A,@DPTR
        MOV     R1,A
        LCALL   `??osal_stop_timerEx::?relay`; Banked call to: osal_stop_timerEx
        SJMP    ??HalKeyConfig_1
//  302     }
//  303   }
//  304   else    /* Interrupts NOT enabled */
//  305   {
//  306     HAL_KEY_SW_6_ICTL &= ~(HAL_KEY_SW_6_ICTLBIT); /* don't generate interrupt   */
??HalKeyConfig_0:
        ANL     0xab,#0xdf
//  307     HAL_KEY_SW_6_IEN &= ~(HAL_KEY_SW_6_IENBIT);   /* Clear interrupt enable bit */
        CLR     0xb8.5
//  308     HAL_KEY_SW_7_ICTL &= ~(HAL_KEY_SW_7_ICTLBIT); /* don't generate interrupt   */
        ANL     0xab,#0xef
//  309     HAL_KEY_SW_7_IEN &= ~(HAL_KEY_SW_7_IENBIT);   /* Clear interrupt enable bit */
        CLR     0xb8.5
//  310 
//  311     osal_start_timerEx (Hal_TaskID, HAL_KEY_EVENT, HAL_KEY_POLLING_VALUE);    /* Kick off polling */
        ; Setup parameters for call to function osal_start_timerEx
        MOV     DPTR,#__Constant_64
        LCALL   ?PUSH_XSTACK8_X_FOUR
          CFI CFA_XSP16 add(XSP16, 13)
        MOV     R2,#0x10
        MOV     R3,#0x0
        MOV     DPTR,#Hal_TaskID
        MOVX    A,@DPTR
        MOV     R1,A
        LCALL   `??osal_start_timerEx::?relay`; Banked call to: osal_start_timerEx
        MOV     A,#0x4
        LCALL   ?DEALLOC_XSTACK8
          CFI CFA_XSP16 add(XSP16, 9)
//  312   }
//  313 
//  314   /* Key now is configured */
//  315   HalKeyConfigured = TRUE;
??HalKeyConfig_1:
        MOV     DPTR,#HalKeyConfigured
        MOV     A,#0x1
        MOVX    @DPTR,A
//  316 }
        MOV     R7,A
        LJMP    ?BANKED_LEAVE_XDATA
          CFI EndBlock cfiBlock3
        REQUIRE PICTL
        REQUIRE P0IEN
        REQUIRE _A_IEN1
        REQUIRE P0IFG
//  317 
//  318 
//  319 /**************************************************************************************************
//  320  * @fn      HalKeyRead
//  321  *
//  322  * @brief   Read the current value of a key
//  323  *
//  324  * @param   None
//  325  *
//  326  * @return  keys - current keys status
//  327  **************************************************************************************************/

        RSEG BANKED_CODE:CODE:NOROOT(0)
//  328 uint8 HalKeyRead ( void )
HalKeyRead:
          CFI Block cfiBlock4 Using cfiCommon0
          CFI Function HalKeyRead
        CODE
        FUNCALL HalKeyRead, halGetJoyKeyInput
        LOCFRAME ISTACK, 2, STACK
        LOCFRAME PSTACK, 0, STACK
        LOCFRAME XSTACK, 0, STACK
        LOCFRAME IOVERLAY, 0, STATIC
        LOCFRAME DOVERLAY, 0, STATIC
        ARGFRAME ISTACK, 2, STACK
        ARGFRAME PSTACK, 0, STACK
        ARGFRAME XSTACK, 0, STACK
        ARGFRAME IOVERLAY, 0, STATIC
        ARGFRAME DOVERLAY, 0, STATIC
        LJMP    ?Subroutine0 & 0xFFFF
          CFI EndBlock cfiBlock4
//  329 {
//  330   uint8 keys = 0;
//  331 
//  332 #if 0  // porint on WXL board by lihao 20150722
//  333 #ifdef HAL_BOARD_CC2530EB_REV17
//  334   if ( (HAL_KEY_SW_6_PORT & HAL_KEY_SW_6_BIT))    /* Key is active high */
//  335 #elif defined (HAL_BOARD_CC2530EB_REV13)
//  336   if (!(HAL_KEY_SW_6_PORT & HAL_KEY_SW_6_BIT))    /* Key is active low */
//  337 #endif
//  338   {
//  339     keys |= HAL_KEY_SW_6;
//  340   }
//  341 #ifdef HAL_BOARD_CC2530EB_REV17
//  342   if ( (HAL_KEY_SW_7_PORT & HAL_KEY_SW_7_BIT))    /* Key is active high */
//  343 #elif defined (HAL_BOARD_CC2530EB_REV13)
//  344   if (!(HAL_KEY_SW_7_PORT & HAL_KEY_SW_7_BIT))    /* Key is active low */
//  345 #endif
//  346   {
//  347     keys |= HAL_KEY_SW_7;
//  348   }
//  349 #endif
//  350 
//  351  // if ((HAL_KEY_JOY_MOVE_PORT & HAL_KEY_JOY_MOVE_BIT))  /* Key is active low */
//  352   {
//  353     keys |= halGetJoyKeyInput();
//  354   }
//  355 
//  356   return keys;
//  357 }
//  358 
//  359 
//  360 /**************************************************************************************************
//  361  * @fn      HalKeyPoll
//  362  *
//  363  * @brief   Called by hal_driver to poll the keys
//  364  *
//  365  * @param   None
//  366  *
//  367  * @return  None
//  368  **************************************************************************************************/

        RSEG XDATA_Z:XDATA:NOROOT(0)
        DATA8
//  369 uint8 ii6;
ii6:
        DS 1
        REQUIRE __INIT_XDATA_Z

        RSEG XDATA_Z:XDATA:NOROOT(0)
        DATA8
//  370 uint8 ii7;
ii7:
        DS 1
        REQUIRE __INIT_XDATA_Z
//  371 

        RSEG BANKED_CODE:CODE:NOROOT(0)
//  372 void HalKeyPoll (void)
HalKeyPoll:
          CFI Block cfiBlock5 Using cfiCommon0
          CFI Function HalKeyPoll
        CODE
//  373 {
        FUNCALL HalKeyPoll, halGetJoyKeyInput
        LOCFRAME ISTACK, 0, STACK
        LOCFRAME PSTACK, 0, STACK
        LOCFRAME XSTACK, 9, STACK
        LOCFRAME IOVERLAY, 0, STATIC
        LOCFRAME DOVERLAY, 0, STATIC
        ARGFRAME ISTACK, 0, STACK
        ARGFRAME PSTACK, 0, STACK
        ARGFRAME XSTACK, 9, STACK
        ARGFRAME IOVERLAY, 0, STATIC
        ARGFRAME DOVERLAY, 0, STATIC
        MOV     A,#-0x9
        LCALL   ?BANKED_ENTER_XDATA
          CFI DPH0 load(1, XDATA, add(CFA_XSP16, literal(-1)))
          CFI DPL0 load(1, XDATA, add(CFA_XSP16, literal(-2)))
          CFI ?BRET_EXT load(1, XDATA, add(CFA_XSP16, literal(-3)))
          CFI ?RET_HIGH load(1, XDATA, add(CFA_XSP16, literal(-4)))
          CFI ?RET_LOW load(1, XDATA, add(CFA_XSP16, literal(-5)))
          CFI R7 load(1, XDATA, add(CFA_XSP16, literal(-6)))
          CFI V0 load(1, XDATA, add(CFA_XSP16, literal(-7)))
          CFI VB load(1, XDATA, add(CFA_XSP16, literal(-8)))
          CFI R6 load(1, XDATA, add(CFA_XSP16, literal(-9)))
          CFI CFA_SP SP+0
          CFI CFA_XSP16 add(XSP16, 9)
        ; Saved register size: 9
        ; Auto size: 0
//  374   uint8 keys = 0;
        MOV     R6,#0x0
//  375 
//  376   ii6 = HAL_KEY_SW_6_BIT;
        MOV     DPTR,#ii6
        MOV     A,#0x20
        MOVX    @DPTR,A
//  377   ii7 = HAL_KEY_SW_7_BIT;
        MOV     DPTR,#ii7
        MOV     A,#0x10
        MOVX    @DPTR,A
//  378   
//  379   if (!(HAL_KEY_SW_6_PORT & HAL_KEY_SW_6_BIT))    /* Key is active low */
        MOV     C,0x80.5
        JC      ??HalKeyPoll_0
//  380   {
//  381     keys |= HAL_KEY_SW_6;
        MOV     R6,#0x20
//  382   }
//  383   if (!(HAL_KEY_SW_7_PORT & HAL_KEY_SW_7_BIT))    /* Key is active low */
??HalKeyPoll_0:
        MOV     C,0x80.4
        JC      ??HalKeyPoll_1
//  384   {
//  385     keys |= HAL_KEY_SW_7;
        MOV     A,R6
        SETB    0xE0 /* A   */.6
        MOV     R6,A
//  386   }
//  387 
//  388  // if ((HAL_KEY_JOY_MOVE_PORT & HAL_KEY_JOY_MOVE_BIT))  /* Key is active HIGH */
//  389   {
//  390     keys |= halGetJoyKeyInput();
??HalKeyPoll_1:
        ; Setup parameters for call to function halGetJoyKeyInput
        LCALL   `??halGetJoyKeyInput::?relay`; Banked call to: halGetJoyKeyInput
        MOV     A,R1
        XCH     A,R6
        ORL     A,R6
        MOV     R6,A
//  391   }
//  392 
//  393   /* If interrupts are not enabled, previous key status and current key status
//  394    * are compared to find out if a key has changed status.
//  395    */
//  396   if (!Hal_KeyIntEnable)
        MOV     DPTR,#Hal_KeyIntEnable
        MOVX    A,@DPTR
        JNZ     ??HalKeyPoll_2
//  397   {
//  398     if (keys == halKeySavedKeys)
        MOV     DPTR,#halKeySavedKeys
        MOVX    A,@DPTR
        XRL     A,R6
        JZ      ??HalKeyPoll_3
//  399     {
//  400       /* Exit - since no keys have changed */
//  401       return;
//  402     }
//  403     /* Store the current keys for comparation next time */
//  404     halKeySavedKeys = keys;
        MOV     A,R6
        MOVX    @DPTR,A
//  405   }
//  406   else
//  407   {
//  408     /* Key interrupt handled here */
//  409   }
//  410 
//  411   /* Invoke Callback if new keys were depressed */
//  412   if (keys && (pHalKeyProcessFunction))
??HalKeyPoll_2:
        MOV     A,R6
        JZ      ??HalKeyPoll_3
        MOV     DPTR,#pHalKeyProcessFunction
        MOVX    A,@DPTR
        MOV     R0,A
        INC     DPTR
        MOVX    A,@DPTR
        MOV     R1,A
        MOV     A,R0
        ORL     A,R1
        JZ      ??HalKeyPoll_3
//  413   {
//  414     (pHalKeyProcessFunction) (keys, HAL_KEY_STATE_NORMAL);
        ; Setup parameters for indirect call
        MOV     R2,#0x0
        MOV     A,R6
        MOV     R1,A
        MOVX    A,@DPTR
        MOV     DPH,A
        MOV     DPL,R0
        LCALL   ?CALL_IND
//  415   }
//  416 }
??HalKeyPoll_3:
          CFI EndBlock cfiBlock5
        REQUIRE ?Subroutine1
        REQUIRE _A_P0
        ; // Fall through to label ?Subroutine1

        RSEG BANKED_CODE:CODE:NOROOT(0)
?Subroutine1:
          CFI Block cfiBlock6 Using cfiCommon0
          CFI NoFunction
          CFI CFA_SP SP+0
          CFI CFA_XSP16 add(XSP16, 9)
          CFI VB load(1, XDATA, add(CFA_XSP16, literal(-8)))
          CFI DPL0 load(1, XDATA, add(CFA_XSP16, literal(-2)))
          CFI DPH0 load(1, XDATA, add(CFA_XSP16, literal(-1)))
          CFI R6 load(1, XDATA, add(CFA_XSP16, literal(-9)))
          CFI R7 load(1, XDATA, add(CFA_XSP16, literal(-6)))
          CFI V0 load(1, XDATA, add(CFA_XSP16, literal(-7)))
          CFI ?BRET_EXT load(1, XDATA, add(CFA_XSP16, literal(-3)))
          CFI ?RET_HIGH load(1, XDATA, add(CFA_XSP16, literal(-4)))
          CFI ?RET_LOW load(1, XDATA, add(CFA_XSP16, literal(-5)))
        MOV     R7,#0x1
        LJMP    ?BANKED_LEAVE_XDATA
          CFI EndBlock cfiBlock6
//  417 
//  418 /**************************************************************************************************
//  419  * @fn      halGetJoyKeyInput
//  420  *
//  421  * @brief   Map the ADC value to its corresponding key.
//  422  *
//  423  * @param   None
//  424  *
//  425  * @return  keys - current joy key status
//  426  **************************************************************************************************/

        RSEG XDATA_Z:XDATA:NOROOT(0)
        DATA8
//  427 uint8 ii=0;
ii:
        DS 1
        REQUIRE __INIT_XDATA_Z
//  428 

        RSEG BANKED_CODE:CODE:NOROOT(0)
//  429 uint8 halGetJoyKeyInput(void)
halGetJoyKeyInput:
          CFI Block cfiBlock7 Using cfiCommon0
          CFI Function halGetJoyKeyInput
        CODE
//  430 {
        FUNCALL halGetJoyKeyInput, HalAdcRead
        LOCFRAME ISTACK, 0, STACK
        LOCFRAME PSTACK, 0, STACK
        LOCFRAME XSTACK, 9, STACK
        LOCFRAME IOVERLAY, 0, STATIC
        LOCFRAME DOVERLAY, 0, STATIC
        ARGFRAME ISTACK, 0, STACK
        ARGFRAME PSTACK, 0, STACK
        ARGFRAME XSTACK, 9, STACK
        ARGFRAME IOVERLAY, 0, STATIC
        ARGFRAME DOVERLAY, 0, STATIC
        MOV     A,#-0x9
        LCALL   ?BANKED_ENTER_XDATA
          CFI DPH0 load(1, XDATA, add(CFA_XSP16, literal(-1)))
          CFI DPL0 load(1, XDATA, add(CFA_XSP16, literal(-2)))
          CFI ?BRET_EXT load(1, XDATA, add(CFA_XSP16, literal(-3)))
          CFI ?RET_HIGH load(1, XDATA, add(CFA_XSP16, literal(-4)))
          CFI ?RET_LOW load(1, XDATA, add(CFA_XSP16, literal(-5)))
          CFI R7 load(1, XDATA, add(CFA_XSP16, literal(-6)))
          CFI V0 load(1, XDATA, add(CFA_XSP16, literal(-7)))
          CFI VB load(1, XDATA, add(CFA_XSP16, literal(-8)))
          CFI R6 load(1, XDATA, add(CFA_XSP16, literal(-9)))
          CFI CFA_SP SP+0
          CFI CFA_XSP16 add(XSP16, 9)
        ; Saved register size: 9
        ; Auto size: 0
//  431   /* The joystick control is encoded as an analog voltage.
//  432    * Read the JOY_LEVEL analog value and map it to joy movement.
//  433    */
//  434   uint8 adc;
//  435   uint8 ksave0 = 0;
        MOV     R6,#0x0
//  436   uint8 ksave1;
//  437 
//  438   /* Keep on reading the ADC until two consecutive key decisions are the same. */
//  439   do
//  440   {
//  441     ksave1 = ksave0;    /* save previouse key reading */
??halGetJoyKeyInput_0:
        MOV     A,R6
        MOV     R7,A
//  442 
//  443     adc = HalAdcRead (HAL_KEY_JOY_CHN, HAL_ADC_RESOLUTION_8);
        ; Setup parameters for call to function HalAdcRead
        MOV     R2,#0x1
        MOV     R1,#0x6
        LCALL   `??HalAdcRead::?relay`; Banked call to: HalAdcRead
        MOV     A,R2
        MOV     R0,A
//  444 
//  445     if(adc<120)
        CLR     C
        SUBB    A,#0x78
        JNC     ??halGetJoyKeyInput_1
//  446     {
//  447       ii++;
        MOV     DPTR,#ii
        MOVX    A,@DPTR
        INC     A
        MOVX    @DPTR,A
//  448     }
//  449     
//  450     if ((adc >= 28) && (adc <= 58))
??halGetJoyKeyInput_1:
        MOV     A,#-0x1c
        ADD     A,R2
        CLR     C
        SUBB    A,#0x1f
        JNC     ??halGetJoyKeyInput_2
//  451     {
//  452        ksave0 |= HAL_KEY_LEFT;//HAL_KEY_UP;
        MOV     A,R6
        SETB    0xE0 /* A   */.3
        SJMP    ??halGetJoyKeyInput_3
//  453     }
//  454     else if ((adc < 28))
??halGetJoyKeyInput_2:
        MOV     A,R0
        CLR     C
        SUBB    A,#0x1c
        JNC     ??halGetJoyKeyInput_4
//  455     {
//  456       ksave0 |= HAL_KEY_RIGHT;
        MOV     A,R6
        SETB    0xE0 /* A   */.1
        SJMP    ??halGetJoyKeyInput_3
//  457     }
//  458     else if ((adc >= 60) && (adc <= 78))
??halGetJoyKeyInput_4:
        MOV     A,#-0x3c
        ADD     A,R2
        CLR     C
        SUBB    A,#0x13
        JNC     ??halGetJoyKeyInput_5
//  459     {
//  460       ksave0 |= HAL_KEY_DOWN;//HAL_KEY_LEFT;
        MOV     A,R6
        SETB    0xE0 /* A   */.4
        SJMP    ??halGetJoyKeyInput_3
//  461     }
//  462     else if ((adc >= 80) && (adc <= 100))
??halGetJoyKeyInput_5:
        MOV     A,#-0x50
        ADD     A,R2
        CLR     C
        SUBB    A,#0x15
        JNC     ??halGetJoyKeyInput_6
//  463     {
//  464       ksave0 |= HAL_KEY_UP;//HAL_KEY_CENTER;
        MOV     A,R6
        SETB    0xE0 /* A   */.0
??halGetJoyKeyInput_3:
        MOV     R6,A
//  465     }
//  466   } while (ksave0 != ksave1);
??halGetJoyKeyInput_6:
        MOV     A,R7
        XRL     A,R6
        JNZ     ??halGetJoyKeyInput_0
//  467 
//  468   return ksave0;
        MOV     A,R6
        MOV     R1,A
        SJMP    ?Subroutine1
//  469 }
          CFI EndBlock cfiBlock7
//  470 
//  471 
//  472 
//  473 
//  474 
//  475 /**************************************************************************************************
//  476  * @fn      halProcessKeyInterrupt
//  477  *
//  478  * @brief   Checks to see if it's a valid key interrupt, saves interrupt driven key states for
//  479  *          processing by HalKeyRead(), and debounces keys by scheduling HalKeyRead() 25ms later.
//  480  *
//  481  * @param
//  482  *
//  483  * @return
//  484  **************************************************************************************************/

        RSEG BANKED_CODE:CODE:NOROOT(0)
//  485 void halProcessKeyInterrupt (void)
halProcessKeyInterrupt:
          CFI Block cfiBlock8 Using cfiCommon0
          CFI Function halProcessKeyInterrupt
        CODE
//  486 {
        FUNCALL halProcessKeyInterrupt, osal_start_timerEx
        LOCFRAME ISTACK, 2, STACK
        LOCFRAME PSTACK, 0, STACK
        LOCFRAME XSTACK, 4, STACK
        LOCFRAME IOVERLAY, 0, STATIC
        LOCFRAME DOVERLAY, 0, STATIC
        ARGFRAME ISTACK, 2, STACK
        ARGFRAME PSTACK, 0, STACK
        ARGFRAME XSTACK, 4, STACK
        ARGFRAME IOVERLAY, 0, STATIC
        ARGFRAME DOVERLAY, 0, STATIC
        PUSH    DPL
          CFI DPL0 Frame(CFA_SP, 4)
          CFI CFA_SP SP+-4
        PUSH    DPH
          CFI DPH0 Frame(CFA_SP, 5)
          CFI CFA_SP SP+-5
        ; Saved register size: 2
        ; Auto size: 0
//  487   bool valid=FALSE;
        MOV     R0,#0x0
//  488 
//  489   if (HAL_KEY_SW_6_PXIFG & HAL_KEY_SW_6_BIT)  /* Interrupt Flag has been set */
        MOV     A,0x89
        MOV     C,0xE0 /* A   */.5
        JNC     ??halProcessKeyInterrupt_0
//  490   {
//  491     HAL_KEY_SW_6_PXIFG = ~(HAL_KEY_SW_6_BIT); /* Clear Interrupt Flag */
        MOV     0x89,#-0x21
//  492     valid = TRUE;
        MOV     R0,#0x1
//  493   }
//  494   if (HAL_KEY_SW_7_PXIFG & HAL_KEY_SW_7_BIT)  /* Interrupt Flag has been set */
??halProcessKeyInterrupt_0:
        MOV     A,0x89
        MOV     C,0xE0 /* A   */.4
        JNC     ??halProcessKeyInterrupt_1
//  495   {
//  496     HAL_KEY_SW_7_PXIFG = ~(HAL_KEY_SW_7_BIT); /* Clear Interrupt Flag */
        MOV     0x89,#-0x11
//  497     valid = TRUE;
        MOV     R0,#0x1
//  498   }
//  499 
//  500   if (HAL_KEY_JOY_MOVE_PXIFG & HAL_KEY_JOY_MOVE_BIT)  /* Interrupt Flag has been set */
??halProcessKeyInterrupt_1:
        MOV     A,0x8b
        MOV     C,0xE0 /* A   */.0
        JNC     ??halProcessKeyInterrupt_2
//  501   {
//  502     HAL_KEY_JOY_MOVE_PXIFG = ~(HAL_KEY_JOY_MOVE_BIT); /* Clear Interrupt Flag */
        MOV     0x8b,#-0x2
//  503     valid = TRUE;
        SJMP    ??halProcessKeyInterrupt_3
//  504   }
//  505 
//  506   if (valid)
??halProcessKeyInterrupt_2:
        MOV     A,R0
        MOV     C,0xE0 /* A   */.0
        JNC     ??halProcessKeyInterrupt_4
//  507   {
//  508     osal_start_timerEx (Hal_TaskID, HAL_KEY_EVENT, HAL_KEY_DEBOUNCE_VALUE);
??halProcessKeyInterrupt_3:
        ; Setup parameters for call to function osal_start_timerEx
        MOV     DPTR,#__Constant_19
        LCALL   ?PUSH_XSTACK8_X_FOUR
          CFI CFA_XSP16 add(XSP16, 4)
        MOV     R2,#0x10
        MOV     R3,#0x0
        MOV     DPTR,#Hal_TaskID
        MOVX    A,@DPTR
        MOV     R1,A
        LCALL   `??osal_start_timerEx::?relay`; Banked call to: osal_start_timerEx
        MOV     A,#0x4
        LCALL   ?DEALLOC_XSTACK8
          CFI CFA_XSP16 XSP16+0
//  509   }
//  510 }
??halProcessKeyInterrupt_4:
        LJMP    ??Subroutine3_0 & 0xFFFF
          CFI EndBlock cfiBlock8
        REQUIRE P0IFG
        REQUIRE P2IFG
//  511 
//  512 /**************************************************************************************************
//  513  * @fn      HalKeyEnterSleep
//  514  *
//  515  * @brief  - Get called to enter sleep mode
//  516  *
//  517  * @param
//  518  *
//  519  * @return
//  520  **************************************************************************************************/

        RSEG BANKED_CODE:CODE:NOROOT(0)
//  521 void HalKeyEnterSleep ( void )
HalKeyEnterSleep:
          CFI Block cfiBlock9 Using cfiCommon0
          CFI Function HalKeyEnterSleep
        CODE
//  522 {
        ; Saved register size: 0
        ; Auto size: 0
//  523 }
        LJMP    ?BRET
          CFI EndBlock cfiBlock9
//  524 
//  525 /**************************************************************************************************
//  526  * @fn      HalKeyExitSleep
//  527  *
//  528  * @brief   - Get called when sleep is over
//  529  *
//  530  * @param
//  531  *
//  532  * @return  - return saved keys
//  533  **************************************************************************************************/

        RSEG BANKED_CODE:CODE:NOROOT(0)
//  534 uint8 HalKeyExitSleep ( void )
HalKeyExitSleep:
          CFI Block cfiBlock10 Using cfiCommon0
          CFI Function HalKeyExitSleep
        CODE
        FUNCALL HalKeyExitSleep, halGetJoyKeyInput
        LOCFRAME ISTACK, 2, STACK
        LOCFRAME PSTACK, 0, STACK
        LOCFRAME XSTACK, 0, STACK
        LOCFRAME IOVERLAY, 0, STATIC
        LOCFRAME DOVERLAY, 0, STATIC
        ARGFRAME ISTACK, 2, STACK
        ARGFRAME PSTACK, 0, STACK
        ARGFRAME XSTACK, 0, STACK
        ARGFRAME IOVERLAY, 0, STATIC
        ARGFRAME DOVERLAY, 0, STATIC
        LJMP    ?Subroutine0 & 0xFFFF
          CFI EndBlock cfiBlock10
//  535 {
//  536   /* Wake up and read keys */
//  537   return ( HalKeyRead () );
//  538 }
//  539 
//  540 /***************************************************************************************************
//  541  *                                    INTERRUPT SERVICE ROUTINE
//  542  ***************************************************************************************************/
//  543 
//  544 /**************************************************************************************************
//  545  * @fn      halKeyPort0Isr
//  546  *
//  547  * @brief   Port0 ISR
//  548  *
//  549  * @param
//  550  *
//  551  * @return
//  552  **************************************************************************************************/

        RSEG XDATA_Z:XDATA:NOROOT(0)
        DATA8
//  553 uint8 keyport0_count_int;
keyport0_count_int:
        DS 1
        REQUIRE __INIT_XDATA_Z
//  554 

        RSEG NEAR_CODE:CODE:NOROOT(0)
//  555 HAL_ISR_FUNCTION( halKeyPort0Isr, P0INT_VECTOR )
halKeyPort0Isr:
          CFI Block cfiBlock11 Using cfiCommon1
          CFI Function halKeyPort0Isr
        CODE
//  556 {
        FUNCALL halKeyPort0Isr, halProcessKeyInterrupt
        LOCFRAME ISTACK, 0, STACK
        LOCFRAME PSTACK, 0, STACK
        LOCFRAME XSTACK, 14, STACK
        LOCFRAME IOVERLAY, 0, STATIC
        LOCFRAME DOVERLAY, 0, STATIC
        ARGFRAME ISTACK, 0, STACK
        ARGFRAME PSTACK, 0, STACK
        ARGFRAME XSTACK, 14, STACK
        ARGFRAME IOVERLAY, 0, STATIC
        ARGFRAME DOVERLAY, 0, STATIC
        PUSH    A
          CFI A Frame(CFA_SP, 3)
          CFI CFA_SP SP+-3
        MOV     A,#-0xe
        LCALL   ?INTERRUPT_ENTER_XSP
          CFI B load(1, XDATA, add(CFA_XSP16, literal(-1)))
          CFI VB load(1, XDATA, add(CFA_XSP16, literal(-2)))
          CFI PSW load(1, XDATA, add(CFA_XSP16, literal(-3)))
          CFI DPL0 load(1, XDATA, add(CFA_XSP16, literal(-4)))
          CFI DPH0 load(1, XDATA, add(CFA_XSP16, literal(-5)))
          CFI R7 load(1, XDATA, add(CFA_XSP16, literal(-6)))
          CFI R6 load(1, XDATA, add(CFA_XSP16, literal(-7)))
          CFI R5 load(1, XDATA, add(CFA_XSP16, literal(-8)))
          CFI R4 load(1, XDATA, add(CFA_XSP16, literal(-9)))
          CFI V0 load(1, XDATA, add(CFA_XSP16, literal(-10)))
          CFI R3 load(1, XDATA, add(CFA_XSP16, literal(-11)))
          CFI R2 load(1, XDATA, add(CFA_XSP16, literal(-12)))
          CFI R1 load(1, XDATA, add(CFA_XSP16, literal(-13)))
          CFI R0 load(1, XDATA, add(CFA_XSP16, literal(-14)))
          CFI CFA_XSP16 add(XSP16, 14)
        ; Saved register size: 14
        ; Auto size: 0
//  557   if ((HAL_KEY_SW_6_PXIFG & HAL_KEY_SW_6_BIT)||(HAL_KEY_SW_7_PXIFG & HAL_KEY_SW_7_BIT))
        MOV     A,0x89
        MOV     C,0xE0 /* A   */.5
        JC      ??halKeyPort0Isr_0
        MOV     A,0x89
        MOV     C,0xE0 /* A   */.4
        JNC     ??halKeyPort0Isr_1
//  558   {
//  559     halProcessKeyInterrupt();
??halKeyPort0Isr_0:
        ; Setup parameters for call to function halProcessKeyInterrupt
        LCALL   `??halProcessKeyInterrupt::?relay`; Banked call to: halProcessKeyInterrupt
//  560   }
//  561 
//  562   keyport0_count_int++;
??halKeyPort0Isr_1:
        MOV     DPTR,#keyport0_count_int
        MOVX    A,@DPTR
        INC     A
        MOVX    @DPTR,A
//  563 
//  564   /*
//  565     Clear the CPU interrupt flag for Port_0
//  566     PxIFG has to be cleared before PxIF
//  567   */
//  568   HAL_KEY_SW_6_PXIFG = 0;
        MOV     0x89,#0x0
//  569   HAL_KEY_CPU_PORT_0_IF = 0;
        CLR     0xc0.5
//  570 }
          CFI EndBlock cfiBlock11
        REQUIRE ?Subroutine2
        REQUIRE P0IFG
        REQUIRE _A_IRCON
        ; // Fall through to label ?Subroutine2

        RSEG NEAR_CODE:CODE:NOROOT(0)
?Subroutine2:
          CFI Block cfiBlock12 Using cfiCommon1
          CFI NoFunction
          CFI CFA_SP SP+-3
          CFI CFA_XSP16 add(XSP16, 14)
          CFI VB load(1, XDATA, add(CFA_XSP16, literal(-2)))
          CFI B load(1, XDATA, add(CFA_XSP16, literal(-1)))
          CFI A Frame(CFA_SP, 3)
          CFI PSW load(1, XDATA, add(CFA_XSP16, literal(-3)))
          CFI DPL0 load(1, XDATA, add(CFA_XSP16, literal(-4)))
          CFI DPH0 load(1, XDATA, add(CFA_XSP16, literal(-5)))
          CFI R0 load(1, XDATA, add(CFA_XSP16, literal(-14)))
          CFI R1 load(1, XDATA, add(CFA_XSP16, literal(-13)))
          CFI R2 load(1, XDATA, add(CFA_XSP16, literal(-12)))
          CFI R3 load(1, XDATA, add(CFA_XSP16, literal(-11)))
          CFI R4 load(1, XDATA, add(CFA_XSP16, literal(-9)))
          CFI R5 load(1, XDATA, add(CFA_XSP16, literal(-8)))
          CFI R6 load(1, XDATA, add(CFA_XSP16, literal(-7)))
          CFI R7 load(1, XDATA, add(CFA_XSP16, literal(-6)))
          CFI V0 load(1, XDATA, add(CFA_XSP16, literal(-10)))
        MOV     R7,#0x1
        LJMP    ?INTERRUPT_LEAVE_XSP
          CFI EndBlock cfiBlock12
//  571 
//  572 
//  573 /**************************************************************************************************
//  574  * @fn      halKeyPort2Isr
//  575  *
//  576  * @brief   Port2 ISR
//  577  *
//  578  * @param
//  579  *
//  580  * @return
//  581  **************************************************************************************************/

        RSEG XDATA_Z:XDATA:NOROOT(0)
        DATA8
//  582 uint8 keyport2_count_int;
keyport2_count_int:
        DS 1
        REQUIRE __INIT_XDATA_Z
//  583 
//  584 

        RSEG NEAR_CODE:CODE:NOROOT(0)
//  585 HAL_ISR_FUNCTION( halKeyPort2Isr, P2INT_VECTOR )
halKeyPort2Isr:
          CFI Block cfiBlock13 Using cfiCommon1
          CFI Function halKeyPort2Isr
        CODE
//  586 {
        FUNCALL halKeyPort2Isr, halProcessKeyInterrupt
        LOCFRAME ISTACK, 0, STACK
        LOCFRAME PSTACK, 0, STACK
        LOCFRAME XSTACK, 14, STACK
        LOCFRAME IOVERLAY, 0, STATIC
        LOCFRAME DOVERLAY, 0, STATIC
        ARGFRAME ISTACK, 0, STACK
        ARGFRAME PSTACK, 0, STACK
        ARGFRAME XSTACK, 14, STACK
        ARGFRAME IOVERLAY, 0, STATIC
        ARGFRAME DOVERLAY, 0, STATIC
        PUSH    A
          CFI A Frame(CFA_SP, 3)
          CFI CFA_SP SP+-3
        MOV     A,#-0xe
        LCALL   ?INTERRUPT_ENTER_XSP
          CFI B load(1, XDATA, add(CFA_XSP16, literal(-1)))
          CFI VB load(1, XDATA, add(CFA_XSP16, literal(-2)))
          CFI PSW load(1, XDATA, add(CFA_XSP16, literal(-3)))
          CFI DPL0 load(1, XDATA, add(CFA_XSP16, literal(-4)))
          CFI DPH0 load(1, XDATA, add(CFA_XSP16, literal(-5)))
          CFI R7 load(1, XDATA, add(CFA_XSP16, literal(-6)))
          CFI R6 load(1, XDATA, add(CFA_XSP16, literal(-7)))
          CFI R5 load(1, XDATA, add(CFA_XSP16, literal(-8)))
          CFI R4 load(1, XDATA, add(CFA_XSP16, literal(-9)))
          CFI V0 load(1, XDATA, add(CFA_XSP16, literal(-10)))
          CFI R3 load(1, XDATA, add(CFA_XSP16, literal(-11)))
          CFI R2 load(1, XDATA, add(CFA_XSP16, literal(-12)))
          CFI R1 load(1, XDATA, add(CFA_XSP16, literal(-13)))
          CFI R0 load(1, XDATA, add(CFA_XSP16, literal(-14)))
          CFI CFA_XSP16 add(XSP16, 14)
        ; Saved register size: 14
        ; Auto size: 0
//  587   if (HAL_KEY_JOY_MOVE_PXIFG & HAL_KEY_JOY_MOVE_BIT)
        MOV     A,0x8b
        MOV     C,0xE0 /* A   */.0
        JNC     ??halKeyPort2Isr_0
//  588   {
//  589     halProcessKeyInterrupt();
        ; Setup parameters for call to function halProcessKeyInterrupt
        LCALL   `??halProcessKeyInterrupt::?relay`; Banked call to: halProcessKeyInterrupt
//  590   }
//  591 
//  592 
//  593   keyport2_count_int++;
??halKeyPort2Isr_0:
        MOV     DPTR,#keyport2_count_int
        MOVX    A,@DPTR
        INC     A
        MOVX    @DPTR,A
//  594 
//  595   /*
//  596     Clear the CPU interrupt flag for Port_2
//  597     PxIFG has to be cleared before PxIF
//  598     Notes: P2_1 and P2_2 are debug lines.
//  599   */
//  600   HAL_KEY_JOY_MOVE_PXIFG = 0;
        MOV     0x8b,#0x0
//  601   HAL_KEY_CPU_PORT_2_IF = 0;
        CLR     0xe8.0
//  602 }
        SJMP    ?Subroutine2
          CFI EndBlock cfiBlock13
        REQUIRE P2IFG
        REQUIRE _A_IRCON2

        COMMON INTVEC:CODE:ROOT(0)
        ORG 51
`??halKeyPort2Isr::??INTVEC 51`:
        LJMP       (halKeyPort2Isr)

        COMMON INTVEC:CODE:ROOT(0)
        ORG 107
`??halKeyPort0Isr::??INTVEC 107`:
        LJMP       (halKeyPort0Isr)

        RSEG XDATA_ROM_C:CONST:REORDER:NOROOT(0)
        DATA32
__Constant_64:
        DD 100

        RSEG XDATA_ROM_C:CONST:REORDER:NOROOT(0)
        DATA32
__Constant_19:
        DD 25

        RSEG BANK_RELAYS:CODE:REORDER:NOROOT(0)
`??HalKeyInit::?relay`:
        CODE
        LCALL   ?BDISPATCH
        DATA24
        DC24    HalKeyInit

        RSEG BANK_RELAYS:CODE:REORDER:NOROOT(0)
`??HalKeyConfig::?relay`:
        CODE
        LCALL   ?BDISPATCH
        DATA24
        DC24    HalKeyConfig

        RSEG BANK_RELAYS:CODE:REORDER:NOROOT(0)
`??HalKeyRead::?relay`:
        CODE
        LCALL   ?BDISPATCH
        DATA24
        DC24    HalKeyRead

        RSEG BANK_RELAYS:CODE:REORDER:NOROOT(0)
`??HalKeyPoll::?relay`:
        CODE
        LCALL   ?BDISPATCH
        DATA24
        DC24    HalKeyPoll

        RSEG BANK_RELAYS:CODE:REORDER:NOROOT(0)
`??halGetJoyKeyInput::?relay`:
        CODE
        LCALL   ?BDISPATCH
        DATA24
        DC24    halGetJoyKeyInput

        RSEG BANK_RELAYS:CODE:REORDER:NOROOT(0)
`??halProcessKeyInterrupt::?relay`:
        CODE
        LCALL   ?BDISPATCH
        DATA24
        DC24    halProcessKeyInterrupt

        RSEG BANK_RELAYS:CODE:REORDER:NOROOT(0)
`??HalKeyEnterSleep::?relay`:
        CODE
        LCALL   ?BDISPATCH
        DATA24
        DC24    HalKeyEnterSleep

        RSEG BANK_RELAYS:CODE:REORDER:NOROOT(0)
`??HalKeyExitSleep::?relay`:
        CODE
        LCALL   ?BDISPATCH
        DATA24
        DC24    HalKeyExitSleep

        END
//  603 
//  604 
//  605 #else
//  606 
//  607 
//  608 //void HalKeyInit(void){}
//  609 //void HalKeyConfig(bool interruptEnable, halKeyCBack_t cback){}
//  610 //uint8 HalKeyRead(void){ return 0;}
//  611 //void HalKeyPoll(void){}
//  612 
//  613 #endif /* HAL_KEY */
//  614 
//  615 
//  616 
//  617 /**************************************************************************************************
//  618 **************************************************************************************************/
//  619 
//  620 
//  621 
// 
// 416 bytes in segment BANKED_CODE
//  48 bytes in segment BANK_RELAYS
//   6 bytes in segment INTVEC
//  67 bytes in segment NEAR_CODE
//  10 bytes in segment SFR_AN
//   8 bytes in segment XDATA_ROM_C
//  10 bytes in segment XDATA_Z
// 
// 531 bytes of CODE  memory (+  6 bytes shared)
//   0 bytes of CONST memory (+  8 bytes shared)
//   0 bytes of DATA  memory (+ 10 bytes shared)
//  10 bytes of XDATA memory
//
//Errors: none
//Warnings: none
